; Listing generated by Microsoft (R) Optimizing Compiler Version 16.00.30319.01 

	TITLE	C:\Users\tdrol\Documents\Visual Studio 2010\Projects\analizator\analizator-bd-opencl\cl_encrypt.cpp
	.686P
	.XMM
	include listing.inc
	.model	flat

INCLUDELIB LIBCMTD
INCLUDELIB OLDNAMES

PUBLIC	??_C@_0FP@CIEIGBBB@C?3?1Users?1tdrol?1Documents?1Visual?5@ ; `string'
PUBLIC	?has_denorm@_Num_base@std@@2W4float_denorm_style@2@B ; std::_Num_base::has_denorm
PUBLIC	?has_denorm_loss@_Num_base@std@@2_NB		; std::_Num_base::has_denorm_loss
PUBLIC	?has_infinity@_Num_base@std@@2_NB		; std::_Num_base::has_infinity
PUBLIC	?has_quiet_NaN@_Num_base@std@@2_NB		; std::_Num_base::has_quiet_NaN
PUBLIC	?has_signaling_NaN@_Num_base@std@@2_NB		; std::_Num_base::has_signaling_NaN
PUBLIC	?is_bounded@_Num_base@std@@2_NB			; std::_Num_base::is_bounded
PUBLIC	?is_exact@_Num_base@std@@2_NB			; std::_Num_base::is_exact
PUBLIC	?is_iec559@_Num_base@std@@2_NB			; std::_Num_base::is_iec559
PUBLIC	?is_integer@_Num_base@std@@2_NB			; std::_Num_base::is_integer
PUBLIC	?is_modulo@_Num_base@std@@2_NB			; std::_Num_base::is_modulo
PUBLIC	?is_signed@_Num_base@std@@2_NB			; std::_Num_base::is_signed
PUBLIC	?is_specialized@_Num_base@std@@2_NB		; std::_Num_base::is_specialized
PUBLIC	?tinyness_before@_Num_base@std@@2_NB		; std::_Num_base::tinyness_before
PUBLIC	?traps@_Num_base@std@@2_NB			; std::_Num_base::traps
PUBLIC	?round_style@_Num_base@std@@2W4float_round_style@2@B ; std::_Num_base::round_style
PUBLIC	?digits@_Num_base@std@@2HB			; std::_Num_base::digits
PUBLIC	?digits10@_Num_base@std@@2HB			; std::_Num_base::digits10
PUBLIC	?max_digits10@_Num_base@std@@2HB		; std::_Num_base::max_digits10
PUBLIC	?max_exponent@_Num_base@std@@2HB		; std::_Num_base::max_exponent
PUBLIC	?max_exponent10@_Num_base@std@@2HB		; std::_Num_base::max_exponent10
PUBLIC	?min_exponent@_Num_base@std@@2HB		; std::_Num_base::min_exponent
PUBLIC	?min_exponent10@_Num_base@std@@2HB		; std::_Num_base::min_exponent10
PUBLIC	?radix@_Num_base@std@@2HB			; std::_Num_base::radix
PUBLIC	?is_bounded@_Num_int_base@std@@2_NB		; std::_Num_int_base::is_bounded
PUBLIC	?is_exact@_Num_int_base@std@@2_NB		; std::_Num_int_base::is_exact
PUBLIC	?is_integer@_Num_int_base@std@@2_NB		; std::_Num_int_base::is_integer
PUBLIC	?is_modulo@_Num_int_base@std@@2_NB		; std::_Num_int_base::is_modulo
PUBLIC	?is_specialized@_Num_int_base@std@@2_NB		; std::_Num_int_base::is_specialized
PUBLIC	?radix@_Num_int_base@std@@2HB			; std::_Num_int_base::radix
PUBLIC	?has_denorm@_Num_float_base@std@@2W4float_denorm_style@2@B ; std::_Num_float_base::has_denorm
PUBLIC	?has_denorm_loss@_Num_float_base@std@@2_NB	; std::_Num_float_base::has_denorm_loss
PUBLIC	?has_infinity@_Num_float_base@std@@2_NB		; std::_Num_float_base::has_infinity
PUBLIC	?has_quiet_NaN@_Num_float_base@std@@2_NB	; std::_Num_float_base::has_quiet_NaN
PUBLIC	?has_signaling_NaN@_Num_float_base@std@@2_NB	; std::_Num_float_base::has_signaling_NaN
PUBLIC	?is_bounded@_Num_float_base@std@@2_NB		; std::_Num_float_base::is_bounded
PUBLIC	?is_exact@_Num_float_base@std@@2_NB		; std::_Num_float_base::is_exact
PUBLIC	?is_iec559@_Num_float_base@std@@2_NB		; std::_Num_float_base::is_iec559
PUBLIC	?is_integer@_Num_float_base@std@@2_NB		; std::_Num_float_base::is_integer
PUBLIC	?is_modulo@_Num_float_base@std@@2_NB		; std::_Num_float_base::is_modulo
PUBLIC	?is_signed@_Num_float_base@std@@2_NB		; std::_Num_float_base::is_signed
PUBLIC	?is_specialized@_Num_float_base@std@@2_NB	; std::_Num_float_base::is_specialized
PUBLIC	?tinyness_before@_Num_float_base@std@@2_NB	; std::_Num_float_base::tinyness_before
PUBLIC	?traps@_Num_float_base@std@@2_NB		; std::_Num_float_base::traps
PUBLIC	?round_style@_Num_float_base@std@@2W4float_round_style@2@B ; std::_Num_float_base::round_style
PUBLIC	?radix@_Num_float_base@std@@2HB			; std::_Num_float_base::radix
PUBLIC	?is_signed@?$numeric_limits@D@std@@2_NB		; std::numeric_limits<char>::is_signed
PUBLIC	?digits@?$numeric_limits@D@std@@2HB		; std::numeric_limits<char>::digits
PUBLIC	?digits10@?$numeric_limits@D@std@@2HB		; std::numeric_limits<char>::digits10
PUBLIC	?max_digits10@?$numeric_limits@D@std@@2HB	; std::numeric_limits<char>::max_digits10
PUBLIC	?is_signed@?$numeric_limits@_W@std@@2_NB	; std::numeric_limits<wchar_t>::is_signed
PUBLIC	?digits@?$numeric_limits@_W@std@@2HB		; std::numeric_limits<wchar_t>::digits
PUBLIC	?digits10@?$numeric_limits@_W@std@@2HB		; std::numeric_limits<wchar_t>::digits10
PUBLIC	?max_digits10@?$numeric_limits@_W@std@@2HB	; std::numeric_limits<wchar_t>::max_digits10
PUBLIC	?is_modulo@?$numeric_limits@_N@std@@2_NB	; std::numeric_limits<bool>::is_modulo
PUBLIC	?is_signed@?$numeric_limits@_N@std@@2_NB	; std::numeric_limits<bool>::is_signed
PUBLIC	?digits@?$numeric_limits@_N@std@@2HB		; std::numeric_limits<bool>::digits
PUBLIC	?digits10@?$numeric_limits@_N@std@@2HB		; std::numeric_limits<bool>::digits10
PUBLIC	?max_digits10@?$numeric_limits@_N@std@@2HB	; std::numeric_limits<bool>::max_digits10
PUBLIC	?is_signed@?$numeric_limits@C@std@@2_NB		; std::numeric_limits<signed char>::is_signed
PUBLIC	?digits@?$numeric_limits@C@std@@2HB		; std::numeric_limits<signed char>::digits
PUBLIC	?digits10@?$numeric_limits@C@std@@2HB		; std::numeric_limits<signed char>::digits10
PUBLIC	?max_digits10@?$numeric_limits@C@std@@2HB	; std::numeric_limits<signed char>::max_digits10
PUBLIC	?is_signed@?$numeric_limits@E@std@@2_NB		; std::numeric_limits<unsigned char>::is_signed
PUBLIC	?digits@?$numeric_limits@E@std@@2HB		; std::numeric_limits<unsigned char>::digits
PUBLIC	?digits10@?$numeric_limits@E@std@@2HB		; std::numeric_limits<unsigned char>::digits10
PUBLIC	?max_digits10@?$numeric_limits@E@std@@2HB	; std::numeric_limits<unsigned char>::max_digits10
PUBLIC	?is_signed@?$numeric_limits@F@std@@2_NB		; std::numeric_limits<short>::is_signed
PUBLIC	?digits@?$numeric_limits@F@std@@2HB		; std::numeric_limits<short>::digits
PUBLIC	?digits10@?$numeric_limits@F@std@@2HB		; std::numeric_limits<short>::digits10
PUBLIC	?max_digits10@?$numeric_limits@F@std@@2HB	; std::numeric_limits<short>::max_digits10
PUBLIC	?is_signed@?$numeric_limits@G@std@@2_NB		; std::numeric_limits<unsigned short>::is_signed
PUBLIC	?digits@?$numeric_limits@G@std@@2HB		; std::numeric_limits<unsigned short>::digits
PUBLIC	?digits10@?$numeric_limits@G@std@@2HB		; std::numeric_limits<unsigned short>::digits10
PUBLIC	?max_digits10@?$numeric_limits@G@std@@2HB	; std::numeric_limits<unsigned short>::max_digits10
PUBLIC	?is_signed@?$numeric_limits@H@std@@2_NB		; std::numeric_limits<int>::is_signed
PUBLIC	?digits@?$numeric_limits@H@std@@2HB		; std::numeric_limits<int>::digits
PUBLIC	?digits10@?$numeric_limits@H@std@@2HB		; std::numeric_limits<int>::digits10
PUBLIC	?max_digits10@?$numeric_limits@H@std@@2HB	; std::numeric_limits<int>::max_digits10
PUBLIC	?is_signed@?$numeric_limits@I@std@@2_NB		; std::numeric_limits<unsigned int>::is_signed
PUBLIC	?digits@?$numeric_limits@I@std@@2HB		; std::numeric_limits<unsigned int>::digits
PUBLIC	?digits10@?$numeric_limits@I@std@@2HB		; std::numeric_limits<unsigned int>::digits10
PUBLIC	?max_digits10@?$numeric_limits@I@std@@2HB	; std::numeric_limits<unsigned int>::max_digits10
PUBLIC	?is_signed@?$numeric_limits@J@std@@2_NB		; std::numeric_limits<long>::is_signed
PUBLIC	?digits@?$numeric_limits@J@std@@2HB		; std::numeric_limits<long>::digits
PUBLIC	?digits10@?$numeric_limits@J@std@@2HB		; std::numeric_limits<long>::digits10
PUBLIC	?max_digits10@?$numeric_limits@J@std@@2HB	; std::numeric_limits<long>::max_digits10
PUBLIC	?is_signed@?$numeric_limits@K@std@@2_NB		; std::numeric_limits<unsigned long>::is_signed
PUBLIC	?digits@?$numeric_limits@K@std@@2HB		; std::numeric_limits<unsigned long>::digits
PUBLIC	?digits10@?$numeric_limits@K@std@@2HB		; std::numeric_limits<unsigned long>::digits10
PUBLIC	?max_digits10@?$numeric_limits@K@std@@2HB	; std::numeric_limits<unsigned long>::max_digits10
PUBLIC	?is_signed@?$numeric_limits@_J@std@@2_NB	; std::numeric_limits<__int64>::is_signed
PUBLIC	?digits@?$numeric_limits@_J@std@@2HB		; std::numeric_limits<__int64>::digits
PUBLIC	?digits10@?$numeric_limits@_J@std@@2HB		; std::numeric_limits<__int64>::digits10
PUBLIC	?max_digits10@?$numeric_limits@_J@std@@2HB	; std::numeric_limits<__int64>::max_digits10
PUBLIC	?is_signed@?$numeric_limits@_K@std@@2_NB	; std::numeric_limits<unsigned __int64>::is_signed
PUBLIC	?digits@?$numeric_limits@_K@std@@2HB		; std::numeric_limits<unsigned __int64>::digits
PUBLIC	?digits10@?$numeric_limits@_K@std@@2HB		; std::numeric_limits<unsigned __int64>::digits10
PUBLIC	?max_digits10@?$numeric_limits@_K@std@@2HB	; std::numeric_limits<unsigned __int64>::max_digits10
PUBLIC	?digits@?$numeric_limits@M@std@@2HB		; std::numeric_limits<float>::digits
PUBLIC	?digits10@?$numeric_limits@M@std@@2HB		; std::numeric_limits<float>::digits10
PUBLIC	?max_digits10@?$numeric_limits@M@std@@2HB	; std::numeric_limits<float>::max_digits10
PUBLIC	?max_exponent@?$numeric_limits@M@std@@2HB	; std::numeric_limits<float>::max_exponent
PUBLIC	?max_exponent10@?$numeric_limits@M@std@@2HB	; std::numeric_limits<float>::max_exponent10
PUBLIC	?min_exponent@?$numeric_limits@M@std@@2HB	; std::numeric_limits<float>::min_exponent
PUBLIC	?min_exponent10@?$numeric_limits@M@std@@2HB	; std::numeric_limits<float>::min_exponent10
PUBLIC	?digits@?$numeric_limits@N@std@@2HB		; std::numeric_limits<double>::digits
PUBLIC	?digits10@?$numeric_limits@N@std@@2HB		; std::numeric_limits<double>::digits10
PUBLIC	?max_digits10@?$numeric_limits@N@std@@2HB	; std::numeric_limits<double>::max_digits10
PUBLIC	?max_exponent@?$numeric_limits@N@std@@2HB	; std::numeric_limits<double>::max_exponent
PUBLIC	?max_exponent10@?$numeric_limits@N@std@@2HB	; std::numeric_limits<double>::max_exponent10
PUBLIC	?min_exponent@?$numeric_limits@N@std@@2HB	; std::numeric_limits<double>::min_exponent
PUBLIC	?min_exponent10@?$numeric_limits@N@std@@2HB	; std::numeric_limits<double>::min_exponent10
PUBLIC	?digits@?$numeric_limits@O@std@@2HB		; std::numeric_limits<long double>::digits
PUBLIC	?digits10@?$numeric_limits@O@std@@2HB		; std::numeric_limits<long double>::digits10
PUBLIC	?max_digits10@?$numeric_limits@O@std@@2HB	; std::numeric_limits<long double>::max_digits10
PUBLIC	?max_exponent@?$numeric_limits@O@std@@2HB	; std::numeric_limits<long double>::max_exponent
PUBLIC	?max_exponent10@?$numeric_limits@O@std@@2HB	; std::numeric_limits<long double>::max_exponent10
PUBLIC	?min_exponent@?$numeric_limits@O@std@@2HB	; std::numeric_limits<long double>::min_exponent
PUBLIC	?min_exponent10@?$numeric_limits@O@std@@2HB	; std::numeric_limits<long double>::min_exponent10
PUBLIC	?value@?$integral_constant@_N$0A@@tr1@std@@2_NB	; std::tr1::integral_constant<bool,0>::value
PUBLIC	?value@?$integral_constant@_N$00@tr1@std@@2_NB	; std::tr1::integral_constant<bool,1>::value
PUBLIC	?value@?$integral_constant@I$0A@@tr1@std@@2IB	; std::tr1::integral_constant<unsigned int,0>::value
PUBLIC	?_Rank@?$_Arithmetic_traits@_N@std@@2HB		; std::_Arithmetic_traits<bool>::_Rank
PUBLIC	?_Rank@?$_Arithmetic_traits@D@std@@2HB		; std::_Arithmetic_traits<char>::_Rank
PUBLIC	?_Rank@?$_Arithmetic_traits@C@std@@2HB		; std::_Arithmetic_traits<signed char>::_Rank
PUBLIC	?_Rank@?$_Arithmetic_traits@E@std@@2HB		; std::_Arithmetic_traits<unsigned char>::_Rank
PUBLIC	?_Rank@?$_Arithmetic_traits@F@std@@2HB		; std::_Arithmetic_traits<short>::_Rank
PUBLIC	?_Rank@?$_Arithmetic_traits@G@std@@2HB		; std::_Arithmetic_traits<unsigned short>::_Rank
PUBLIC	?_Rank@?$_Arithmetic_traits@H@std@@2HB		; std::_Arithmetic_traits<int>::_Rank
PUBLIC	?_Rank@?$_Arithmetic_traits@I@std@@2HB		; std::_Arithmetic_traits<unsigned int>::_Rank
PUBLIC	?_Rank@?$_Arithmetic_traits@J@std@@2HB		; std::_Arithmetic_traits<long>::_Rank
PUBLIC	?_Rank@?$_Arithmetic_traits@K@std@@2HB		; std::_Arithmetic_traits<unsigned long>::_Rank
PUBLIC	?_Rank@?$_Arithmetic_traits@_J@std@@2HB		; std::_Arithmetic_traits<__int64>::_Rank
PUBLIC	?_Rank@?$_Arithmetic_traits@_K@std@@2HB		; std::_Arithmetic_traits<unsigned __int64>::_Rank
PUBLIC	?_Rank@?$_Arithmetic_traits@M@std@@2HB		; std::_Arithmetic_traits<float>::_Rank
PUBLIC	?_Rank@?$_Arithmetic_traits@N@std@@2HB		; std::_Arithmetic_traits<double>::_Rank
PUBLIC	?_Rank@?$_Arithmetic_traits@O@std@@2HB		; std::_Arithmetic_traits<long double>::_Rank
PUBLIC	?collate@?$_Locbase@H@std@@2HB			; std::_Locbase<int>::collate
PUBLIC	?ctype@?$_Locbase@H@std@@2HB			; std::_Locbase<int>::ctype
PUBLIC	?monetary@?$_Locbase@H@std@@2HB			; std::_Locbase<int>::monetary
PUBLIC	?numeric@?$_Locbase@H@std@@2HB			; std::_Locbase<int>::numeric
PUBLIC	?time@?$_Locbase@H@std@@2HB			; std::_Locbase<int>::time
PUBLIC	?messages@?$_Locbase@H@std@@2HB			; std::_Locbase<int>::messages
PUBLIC	?all@?$_Locbase@H@std@@2HB			; std::_Locbase<int>::all
PUBLIC	?none@?$_Locbase@H@std@@2HB			; std::_Locbase<int>::none
PUBLIC	?table_size@?$ctype@D@std@@2IB			; std::ctype<char>::table_size
PUBLIC	?skipws@?$_Iosb@H@std@@2W4_Fmtflags@12@B	; std::_Iosb<int>::skipws
PUBLIC	?unitbuf@?$_Iosb@H@std@@2W4_Fmtflags@12@B	; std::_Iosb<int>::unitbuf
PUBLIC	?uppercase@?$_Iosb@H@std@@2W4_Fmtflags@12@B	; std::_Iosb<int>::uppercase
PUBLIC	?showbase@?$_Iosb@H@std@@2W4_Fmtflags@12@B	; std::_Iosb<int>::showbase
PUBLIC	?showpoint@?$_Iosb@H@std@@2W4_Fmtflags@12@B	; std::_Iosb<int>::showpoint
PUBLIC	?showpos@?$_Iosb@H@std@@2W4_Fmtflags@12@B	; std::_Iosb<int>::showpos
PUBLIC	?left@?$_Iosb@H@std@@2W4_Fmtflags@12@B		; std::_Iosb<int>::left
PUBLIC	?right@?$_Iosb@H@std@@2W4_Fmtflags@12@B		; std::_Iosb<int>::right
PUBLIC	?internal@?$_Iosb@H@std@@2W4_Fmtflags@12@B	; std::_Iosb<int>::internal
PUBLIC	?dec@?$_Iosb@H@std@@2W4_Fmtflags@12@B		; std::_Iosb<int>::dec
PUBLIC	?oct@?$_Iosb@H@std@@2W4_Fmtflags@12@B		; std::_Iosb<int>::oct
PUBLIC	?hex@?$_Iosb@H@std@@2W4_Fmtflags@12@B		; std::_Iosb<int>::hex
PUBLIC	?scientific@?$_Iosb@H@std@@2W4_Fmtflags@12@B	; std::_Iosb<int>::scientific
PUBLIC	?fixed@?$_Iosb@H@std@@2W4_Fmtflags@12@B		; std::_Iosb<int>::fixed
PUBLIC	?hexfloat@?$_Iosb@H@std@@2W4_Fmtflags@12@B	; std::_Iosb<int>::hexfloat
PUBLIC	?boolalpha@?$_Iosb@H@std@@2W4_Fmtflags@12@B	; std::_Iosb<int>::boolalpha
PUBLIC	?_Stdio@?$_Iosb@H@std@@2W4_Fmtflags@12@B	; std::_Iosb<int>::_Stdio
PUBLIC	?adjustfield@?$_Iosb@H@std@@2W4_Fmtflags@12@B	; std::_Iosb<int>::adjustfield
PUBLIC	?basefield@?$_Iosb@H@std@@2W4_Fmtflags@12@B	; std::_Iosb<int>::basefield
PUBLIC	?floatfield@?$_Iosb@H@std@@2W4_Fmtflags@12@B	; std::_Iosb<int>::floatfield
PUBLIC	?goodbit@?$_Iosb@H@std@@2W4_Iostate@12@B	; std::_Iosb<int>::goodbit
PUBLIC	?eofbit@?$_Iosb@H@std@@2W4_Iostate@12@B		; std::_Iosb<int>::eofbit
PUBLIC	?failbit@?$_Iosb@H@std@@2W4_Iostate@12@B	; std::_Iosb<int>::failbit
PUBLIC	?badbit@?$_Iosb@H@std@@2W4_Iostate@12@B		; std::_Iosb<int>::badbit
PUBLIC	?_Hardfail@?$_Iosb@H@std@@2W4_Iostate@12@B	; std::_Iosb<int>::_Hardfail
PUBLIC	?in@?$_Iosb@H@std@@2W4_Openmode@12@B		; std::_Iosb<int>::in
PUBLIC	?out@?$_Iosb@H@std@@2W4_Openmode@12@B		; std::_Iosb<int>::out
PUBLIC	?ate@?$_Iosb@H@std@@2W4_Openmode@12@B		; std::_Iosb<int>::ate
PUBLIC	?app@?$_Iosb@H@std@@2W4_Openmode@12@B		; std::_Iosb<int>::app
PUBLIC	?trunc@?$_Iosb@H@std@@2W4_Openmode@12@B		; std::_Iosb<int>::trunc
PUBLIC	?_Nocreate@?$_Iosb@H@std@@2W4_Openmode@12@B	; std::_Iosb<int>::_Nocreate
PUBLIC	?_Noreplace@?$_Iosb@H@std@@2W4_Openmode@12@B	; std::_Iosb<int>::_Noreplace
PUBLIC	?binary@?$_Iosb@H@std@@2W4_Openmode@12@B	; std::_Iosb<int>::binary
PUBLIC	?beg@?$_Iosb@H@std@@2W4_Seekdir@12@B		; std::_Iosb<int>::beg
PUBLIC	?cur@?$_Iosb@H@std@@2W4_Seekdir@12@B		; std::_Iosb<int>::cur
PUBLIC	?end@?$_Iosb@H@std@@2W4_Seekdir@12@B		; std::_Iosb<int>::end
_BSS	SEGMENT
_err	DD	01H DUP (?)
_platform_id DD	01H DUP (?)
_device_id DD	01H DUP (?)
_context DD	01H DUP (?)
_queue	DD	01H DUP (?)
_program DD	01H DUP (?)
_kernel	DD	01H DUP (?)
_mem_state DD	01H DUP (?)
_mem_roundkeys DD 01H DUP (?)
_BSS	ENDS
;	COMDAT ??_C@_0FP@CIEIGBBB@C?3?1Users?1tdrol?1Documents?1Visual?5@
CONST	SEGMENT
??_C@_0FP@CIEIGBBB@C?3?1Users?1tdrol?1Documents?1Visual?5@ DB 'C:/Users/t'
	DB	'drol/Documents/Visual Studio 2010/Projects/analizator/Release'
	DB	'/kernels/aes_encrypt.cl', 00H		; `string'
CONST	ENDS
;	COMDAT ?end@?$_Iosb@H@std@@2W4_Seekdir@12@B
CONST	SEGMENT
?end@?$_Iosb@H@std@@2W4_Seekdir@12@B DD 02H		; std::_Iosb<int>::end
CONST	ENDS
;	COMDAT ?cur@?$_Iosb@H@std@@2W4_Seekdir@12@B
CONST	SEGMENT
?cur@?$_Iosb@H@std@@2W4_Seekdir@12@B DD 01H		; std::_Iosb<int>::cur
CONST	ENDS
;	COMDAT ?beg@?$_Iosb@H@std@@2W4_Seekdir@12@B
CONST	SEGMENT
?beg@?$_Iosb@H@std@@2W4_Seekdir@12@B DD 00H		; std::_Iosb<int>::beg
CONST	ENDS
;	COMDAT ?binary@?$_Iosb@H@std@@2W4_Openmode@12@B
CONST	SEGMENT
?binary@?$_Iosb@H@std@@2W4_Openmode@12@B DD 020H	; std::_Iosb<int>::binary
CONST	ENDS
;	COMDAT ?_Noreplace@?$_Iosb@H@std@@2W4_Openmode@12@B
CONST	SEGMENT
?_Noreplace@?$_Iosb@H@std@@2W4_Openmode@12@B DD 080H	; std::_Iosb<int>::_Noreplace
CONST	ENDS
;	COMDAT ?_Nocreate@?$_Iosb@H@std@@2W4_Openmode@12@B
CONST	SEGMENT
?_Nocreate@?$_Iosb@H@std@@2W4_Openmode@12@B DD 040H	; std::_Iosb<int>::_Nocreate
CONST	ENDS
;	COMDAT ?trunc@?$_Iosb@H@std@@2W4_Openmode@12@B
CONST	SEGMENT
?trunc@?$_Iosb@H@std@@2W4_Openmode@12@B DD 010H		; std::_Iosb<int>::trunc
CONST	ENDS
;	COMDAT ?app@?$_Iosb@H@std@@2W4_Openmode@12@B
CONST	SEGMENT
?app@?$_Iosb@H@std@@2W4_Openmode@12@B DD 08H		; std::_Iosb<int>::app
CONST	ENDS
;	COMDAT ?ate@?$_Iosb@H@std@@2W4_Openmode@12@B
CONST	SEGMENT
?ate@?$_Iosb@H@std@@2W4_Openmode@12@B DD 04H		; std::_Iosb<int>::ate
CONST	ENDS
;	COMDAT ?out@?$_Iosb@H@std@@2W4_Openmode@12@B
CONST	SEGMENT
?out@?$_Iosb@H@std@@2W4_Openmode@12@B DD 02H		; std::_Iosb<int>::out
CONST	ENDS
;	COMDAT ?in@?$_Iosb@H@std@@2W4_Openmode@12@B
CONST	SEGMENT
?in@?$_Iosb@H@std@@2W4_Openmode@12@B DD 01H		; std::_Iosb<int>::in
CONST	ENDS
;	COMDAT ?_Hardfail@?$_Iosb@H@std@@2W4_Iostate@12@B
CONST	SEGMENT
?_Hardfail@?$_Iosb@H@std@@2W4_Iostate@12@B DD 010H	; std::_Iosb<int>::_Hardfail
CONST	ENDS
;	COMDAT ?badbit@?$_Iosb@H@std@@2W4_Iostate@12@B
CONST	SEGMENT
?badbit@?$_Iosb@H@std@@2W4_Iostate@12@B DD 04H		; std::_Iosb<int>::badbit
CONST	ENDS
;	COMDAT ?failbit@?$_Iosb@H@std@@2W4_Iostate@12@B
CONST	SEGMENT
?failbit@?$_Iosb@H@std@@2W4_Iostate@12@B DD 02H		; std::_Iosb<int>::failbit
CONST	ENDS
;	COMDAT ?eofbit@?$_Iosb@H@std@@2W4_Iostate@12@B
CONST	SEGMENT
?eofbit@?$_Iosb@H@std@@2W4_Iostate@12@B DD 01H		; std::_Iosb<int>::eofbit
CONST	ENDS
;	COMDAT ?goodbit@?$_Iosb@H@std@@2W4_Iostate@12@B
CONST	SEGMENT
?goodbit@?$_Iosb@H@std@@2W4_Iostate@12@B DD 00H		; std::_Iosb<int>::goodbit
CONST	ENDS
;	COMDAT ?floatfield@?$_Iosb@H@std@@2W4_Fmtflags@12@B
CONST	SEGMENT
?floatfield@?$_Iosb@H@std@@2W4_Fmtflags@12@B DD 03000H	; std::_Iosb<int>::floatfield
CONST	ENDS
;	COMDAT ?basefield@?$_Iosb@H@std@@2W4_Fmtflags@12@B
CONST	SEGMENT
?basefield@?$_Iosb@H@std@@2W4_Fmtflags@12@B DD 0e00H	; std::_Iosb<int>::basefield
CONST	ENDS
;	COMDAT ?adjustfield@?$_Iosb@H@std@@2W4_Fmtflags@12@B
CONST	SEGMENT
?adjustfield@?$_Iosb@H@std@@2W4_Fmtflags@12@B DD 01c0H	; std::_Iosb<int>::adjustfield
CONST	ENDS
;	COMDAT ?_Stdio@?$_Iosb@H@std@@2W4_Fmtflags@12@B
CONST	SEGMENT
?_Stdio@?$_Iosb@H@std@@2W4_Fmtflags@12@B DD 08000H	; std::_Iosb<int>::_Stdio
CONST	ENDS
;	COMDAT ?boolalpha@?$_Iosb@H@std@@2W4_Fmtflags@12@B
CONST	SEGMENT
?boolalpha@?$_Iosb@H@std@@2W4_Fmtflags@12@B DD 04000H	; std::_Iosb<int>::boolalpha
CONST	ENDS
;	COMDAT ?hexfloat@?$_Iosb@H@std@@2W4_Fmtflags@12@B
CONST	SEGMENT
?hexfloat@?$_Iosb@H@std@@2W4_Fmtflags@12@B DD 03000H	; std::_Iosb<int>::hexfloat
CONST	ENDS
;	COMDAT ?fixed@?$_Iosb@H@std@@2W4_Fmtflags@12@B
CONST	SEGMENT
?fixed@?$_Iosb@H@std@@2W4_Fmtflags@12@B DD 02000H	; std::_Iosb<int>::fixed
CONST	ENDS
;	COMDAT ?scientific@?$_Iosb@H@std@@2W4_Fmtflags@12@B
CONST	SEGMENT
?scientific@?$_Iosb@H@std@@2W4_Fmtflags@12@B DD 01000H	; std::_Iosb<int>::scientific
CONST	ENDS
;	COMDAT ?hex@?$_Iosb@H@std@@2W4_Fmtflags@12@B
CONST	SEGMENT
?hex@?$_Iosb@H@std@@2W4_Fmtflags@12@B DD 0800H		; std::_Iosb<int>::hex
CONST	ENDS
;	COMDAT ?oct@?$_Iosb@H@std@@2W4_Fmtflags@12@B
CONST	SEGMENT
?oct@?$_Iosb@H@std@@2W4_Fmtflags@12@B DD 0400H		; std::_Iosb<int>::oct
CONST	ENDS
;	COMDAT ?dec@?$_Iosb@H@std@@2W4_Fmtflags@12@B
CONST	SEGMENT
?dec@?$_Iosb@H@std@@2W4_Fmtflags@12@B DD 0200H		; std::_Iosb<int>::dec
CONST	ENDS
;	COMDAT ?internal@?$_Iosb@H@std@@2W4_Fmtflags@12@B
CONST	SEGMENT
?internal@?$_Iosb@H@std@@2W4_Fmtflags@12@B DD 0100H	; std::_Iosb<int>::internal
CONST	ENDS
;	COMDAT ?right@?$_Iosb@H@std@@2W4_Fmtflags@12@B
CONST	SEGMENT
?right@?$_Iosb@H@std@@2W4_Fmtflags@12@B DD 080H		; std::_Iosb<int>::right
CONST	ENDS
;	COMDAT ?left@?$_Iosb@H@std@@2W4_Fmtflags@12@B
CONST	SEGMENT
?left@?$_Iosb@H@std@@2W4_Fmtflags@12@B DD 040H		; std::_Iosb<int>::left
CONST	ENDS
;	COMDAT ?showpos@?$_Iosb@H@std@@2W4_Fmtflags@12@B
CONST	SEGMENT
?showpos@?$_Iosb@H@std@@2W4_Fmtflags@12@B DD 020H	; std::_Iosb<int>::showpos
CONST	ENDS
;	COMDAT ?showpoint@?$_Iosb@H@std@@2W4_Fmtflags@12@B
CONST	SEGMENT
?showpoint@?$_Iosb@H@std@@2W4_Fmtflags@12@B DD 010H	; std::_Iosb<int>::showpoint
CONST	ENDS
;	COMDAT ?showbase@?$_Iosb@H@std@@2W4_Fmtflags@12@B
CONST	SEGMENT
?showbase@?$_Iosb@H@std@@2W4_Fmtflags@12@B DD 08H	; std::_Iosb<int>::showbase
CONST	ENDS
;	COMDAT ?uppercase@?$_Iosb@H@std@@2W4_Fmtflags@12@B
CONST	SEGMENT
?uppercase@?$_Iosb@H@std@@2W4_Fmtflags@12@B DD 04H	; std::_Iosb<int>::uppercase
CONST	ENDS
;	COMDAT ?unitbuf@?$_Iosb@H@std@@2W4_Fmtflags@12@B
CONST	SEGMENT
?unitbuf@?$_Iosb@H@std@@2W4_Fmtflags@12@B DD 02H	; std::_Iosb<int>::unitbuf
CONST	ENDS
;	COMDAT ?skipws@?$_Iosb@H@std@@2W4_Fmtflags@12@B
CONST	SEGMENT
?skipws@?$_Iosb@H@std@@2W4_Fmtflags@12@B DD 01H		; std::_Iosb<int>::skipws
CONST	ENDS
;	COMDAT ?table_size@?$ctype@D@std@@2IB
CONST	SEGMENT
?table_size@?$ctype@D@std@@2IB DD 0100H			; std::ctype<char>::table_size
CONST	ENDS
;	COMDAT ?none@?$_Locbase@H@std@@2HB
CONST	SEGMENT
?none@?$_Locbase@H@std@@2HB DD 00H			; std::_Locbase<int>::none
CONST	ENDS
;	COMDAT ?all@?$_Locbase@H@std@@2HB
CONST	SEGMENT
?all@?$_Locbase@H@std@@2HB DD 03fH			; std::_Locbase<int>::all
CONST	ENDS
;	COMDAT ?messages@?$_Locbase@H@std@@2HB
CONST	SEGMENT
?messages@?$_Locbase@H@std@@2HB DD 020H			; std::_Locbase<int>::messages
CONST	ENDS
;	COMDAT ?time@?$_Locbase@H@std@@2HB
CONST	SEGMENT
?time@?$_Locbase@H@std@@2HB DD 010H			; std::_Locbase<int>::time
CONST	ENDS
;	COMDAT ?numeric@?$_Locbase@H@std@@2HB
CONST	SEGMENT
?numeric@?$_Locbase@H@std@@2HB DD 08H			; std::_Locbase<int>::numeric
CONST	ENDS
;	COMDAT ?monetary@?$_Locbase@H@std@@2HB
CONST	SEGMENT
?monetary@?$_Locbase@H@std@@2HB DD 04H			; std::_Locbase<int>::monetary
CONST	ENDS
;	COMDAT ?ctype@?$_Locbase@H@std@@2HB
CONST	SEGMENT
?ctype@?$_Locbase@H@std@@2HB DD 02H			; std::_Locbase<int>::ctype
CONST	ENDS
;	COMDAT ?collate@?$_Locbase@H@std@@2HB
CONST	SEGMENT
?collate@?$_Locbase@H@std@@2HB DD 01H			; std::_Locbase<int>::collate
CONST	ENDS
;	COMDAT ?_Rank@?$_Arithmetic_traits@O@std@@2HB
CONST	SEGMENT
?_Rank@?$_Arithmetic_traits@O@std@@2HB DD 09H		; std::_Arithmetic_traits<long double>::_Rank
CONST	ENDS
;	COMDAT ?_Rank@?$_Arithmetic_traits@N@std@@2HB
CONST	SEGMENT
?_Rank@?$_Arithmetic_traits@N@std@@2HB DD 08H		; std::_Arithmetic_traits<double>::_Rank
CONST	ENDS
;	COMDAT ?_Rank@?$_Arithmetic_traits@M@std@@2HB
CONST	SEGMENT
?_Rank@?$_Arithmetic_traits@M@std@@2HB DD 07H		; std::_Arithmetic_traits<float>::_Rank
CONST	ENDS
;	COMDAT ?_Rank@?$_Arithmetic_traits@_K@std@@2HB
CONST	SEGMENT
?_Rank@?$_Arithmetic_traits@_K@std@@2HB DD 06H		; std::_Arithmetic_traits<unsigned __int64>::_Rank
CONST	ENDS
;	COMDAT ?_Rank@?$_Arithmetic_traits@_J@std@@2HB
CONST	SEGMENT
?_Rank@?$_Arithmetic_traits@_J@std@@2HB DD 06H		; std::_Arithmetic_traits<__int64>::_Rank
CONST	ENDS
;	COMDAT ?_Rank@?$_Arithmetic_traits@K@std@@2HB
CONST	SEGMENT
?_Rank@?$_Arithmetic_traits@K@std@@2HB DD 05H		; std::_Arithmetic_traits<unsigned long>::_Rank
CONST	ENDS
;	COMDAT ?_Rank@?$_Arithmetic_traits@J@std@@2HB
CONST	SEGMENT
?_Rank@?$_Arithmetic_traits@J@std@@2HB DD 05H		; std::_Arithmetic_traits<long>::_Rank
CONST	ENDS
;	COMDAT ?_Rank@?$_Arithmetic_traits@I@std@@2HB
CONST	SEGMENT
?_Rank@?$_Arithmetic_traits@I@std@@2HB DD 04H		; std::_Arithmetic_traits<unsigned int>::_Rank
CONST	ENDS
;	COMDAT ?_Rank@?$_Arithmetic_traits@H@std@@2HB
CONST	SEGMENT
?_Rank@?$_Arithmetic_traits@H@std@@2HB DD 04H		; std::_Arithmetic_traits<int>::_Rank
CONST	ENDS
;	COMDAT ?_Rank@?$_Arithmetic_traits@G@std@@2HB
CONST	SEGMENT
?_Rank@?$_Arithmetic_traits@G@std@@2HB DD 03H		; std::_Arithmetic_traits<unsigned short>::_Rank
CONST	ENDS
;	COMDAT ?_Rank@?$_Arithmetic_traits@F@std@@2HB
CONST	SEGMENT
?_Rank@?$_Arithmetic_traits@F@std@@2HB DD 03H		; std::_Arithmetic_traits<short>::_Rank
CONST	ENDS
;	COMDAT ?_Rank@?$_Arithmetic_traits@E@std@@2HB
CONST	SEGMENT
?_Rank@?$_Arithmetic_traits@E@std@@2HB DD 02H		; std::_Arithmetic_traits<unsigned char>::_Rank
CONST	ENDS
;	COMDAT ?_Rank@?$_Arithmetic_traits@C@std@@2HB
CONST	SEGMENT
?_Rank@?$_Arithmetic_traits@C@std@@2HB DD 02H		; std::_Arithmetic_traits<signed char>::_Rank
CONST	ENDS
;	COMDAT ?_Rank@?$_Arithmetic_traits@D@std@@2HB
CONST	SEGMENT
?_Rank@?$_Arithmetic_traits@D@std@@2HB DD 02H		; std::_Arithmetic_traits<char>::_Rank
CONST	ENDS
;	COMDAT ?_Rank@?$_Arithmetic_traits@_N@std@@2HB
CONST	SEGMENT
?_Rank@?$_Arithmetic_traits@_N@std@@2HB DD 01H		; std::_Arithmetic_traits<bool>::_Rank
CONST	ENDS
;	COMDAT ?value@?$integral_constant@I$0A@@tr1@std@@2IB
CONST	SEGMENT
?value@?$integral_constant@I$0A@@tr1@std@@2IB DD 00H	; std::tr1::integral_constant<unsigned int,0>::value
CONST	ENDS
;	COMDAT ?value@?$integral_constant@_N$00@tr1@std@@2_NB
CONST	SEGMENT
?value@?$integral_constant@_N$00@tr1@std@@2_NB DB 01H	; std::tr1::integral_constant<bool,1>::value
CONST	ENDS
;	COMDAT ?value@?$integral_constant@_N$0A@@tr1@std@@2_NB
CONST	SEGMENT
?value@?$integral_constant@_N$0A@@tr1@std@@2_NB DB 00H	; std::tr1::integral_constant<bool,0>::value
CONST	ENDS
;	COMDAT ?min_exponent10@?$numeric_limits@O@std@@2HB
CONST	SEGMENT
?min_exponent10@?$numeric_limits@O@std@@2HB DD 0fffffecdH ; std::numeric_limits<long double>::min_exponent10
CONST	ENDS
;	COMDAT ?min_exponent@?$numeric_limits@O@std@@2HB
CONST	SEGMENT
?min_exponent@?$numeric_limits@O@std@@2HB DD 0fffffc03H	; std::numeric_limits<long double>::min_exponent
CONST	ENDS
;	COMDAT ?max_exponent10@?$numeric_limits@O@std@@2HB
CONST	SEGMENT
?max_exponent10@?$numeric_limits@O@std@@2HB DD 0134H	; std::numeric_limits<long double>::max_exponent10
CONST	ENDS
;	COMDAT ?max_exponent@?$numeric_limits@O@std@@2HB
CONST	SEGMENT
?max_exponent@?$numeric_limits@O@std@@2HB DD 0400H	; std::numeric_limits<long double>::max_exponent
CONST	ENDS
;	COMDAT ?max_digits10@?$numeric_limits@O@std@@2HB
CONST	SEGMENT
?max_digits10@?$numeric_limits@O@std@@2HB DD 011H	; std::numeric_limits<long double>::max_digits10
CONST	ENDS
;	COMDAT ?digits10@?$numeric_limits@O@std@@2HB
CONST	SEGMENT
?digits10@?$numeric_limits@O@std@@2HB DD 0fH		; std::numeric_limits<long double>::digits10
CONST	ENDS
;	COMDAT ?digits@?$numeric_limits@O@std@@2HB
CONST	SEGMENT
?digits@?$numeric_limits@O@std@@2HB DD 035H		; std::numeric_limits<long double>::digits
CONST	ENDS
;	COMDAT ?min_exponent10@?$numeric_limits@N@std@@2HB
CONST	SEGMENT
?min_exponent10@?$numeric_limits@N@std@@2HB DD 0fffffecdH ; std::numeric_limits<double>::min_exponent10
CONST	ENDS
;	COMDAT ?min_exponent@?$numeric_limits@N@std@@2HB
CONST	SEGMENT
?min_exponent@?$numeric_limits@N@std@@2HB DD 0fffffc03H	; std::numeric_limits<double>::min_exponent
CONST	ENDS
;	COMDAT ?max_exponent10@?$numeric_limits@N@std@@2HB
CONST	SEGMENT
?max_exponent10@?$numeric_limits@N@std@@2HB DD 0134H	; std::numeric_limits<double>::max_exponent10
CONST	ENDS
;	COMDAT ?max_exponent@?$numeric_limits@N@std@@2HB
CONST	SEGMENT
?max_exponent@?$numeric_limits@N@std@@2HB DD 0400H	; std::numeric_limits<double>::max_exponent
CONST	ENDS
;	COMDAT ?max_digits10@?$numeric_limits@N@std@@2HB
CONST	SEGMENT
?max_digits10@?$numeric_limits@N@std@@2HB DD 011H	; std::numeric_limits<double>::max_digits10
CONST	ENDS
;	COMDAT ?digits10@?$numeric_limits@N@std@@2HB
CONST	SEGMENT
?digits10@?$numeric_limits@N@std@@2HB DD 0fH		; std::numeric_limits<double>::digits10
CONST	ENDS
;	COMDAT ?digits@?$numeric_limits@N@std@@2HB
CONST	SEGMENT
?digits@?$numeric_limits@N@std@@2HB DD 035H		; std::numeric_limits<double>::digits
CONST	ENDS
;	COMDAT ?min_exponent10@?$numeric_limits@M@std@@2HB
CONST	SEGMENT
?min_exponent10@?$numeric_limits@M@std@@2HB DD 0ffffffdbH ; std::numeric_limits<float>::min_exponent10
CONST	ENDS
;	COMDAT ?min_exponent@?$numeric_limits@M@std@@2HB
CONST	SEGMENT
?min_exponent@?$numeric_limits@M@std@@2HB DD 0ffffff83H	; std::numeric_limits<float>::min_exponent
CONST	ENDS
;	COMDAT ?max_exponent10@?$numeric_limits@M@std@@2HB
CONST	SEGMENT
?max_exponent10@?$numeric_limits@M@std@@2HB DD 026H	; std::numeric_limits<float>::max_exponent10
CONST	ENDS
;	COMDAT ?max_exponent@?$numeric_limits@M@std@@2HB
CONST	SEGMENT
?max_exponent@?$numeric_limits@M@std@@2HB DD 080H	; std::numeric_limits<float>::max_exponent
CONST	ENDS
;	COMDAT ?max_digits10@?$numeric_limits@M@std@@2HB
CONST	SEGMENT
?max_digits10@?$numeric_limits@M@std@@2HB DD 08H	; std::numeric_limits<float>::max_digits10
CONST	ENDS
;	COMDAT ?digits10@?$numeric_limits@M@std@@2HB
CONST	SEGMENT
?digits10@?$numeric_limits@M@std@@2HB DD 06H		; std::numeric_limits<float>::digits10
CONST	ENDS
;	COMDAT ?digits@?$numeric_limits@M@std@@2HB
CONST	SEGMENT
?digits@?$numeric_limits@M@std@@2HB DD 018H		; std::numeric_limits<float>::digits
CONST	ENDS
;	COMDAT ?max_digits10@?$numeric_limits@_K@std@@2HB
CONST	SEGMENT
?max_digits10@?$numeric_limits@_K@std@@2HB DD 015H	; std::numeric_limits<unsigned __int64>::max_digits10
CONST	ENDS
;	COMDAT ?digits10@?$numeric_limits@_K@std@@2HB
CONST	SEGMENT
?digits10@?$numeric_limits@_K@std@@2HB DD 013H		; std::numeric_limits<unsigned __int64>::digits10
CONST	ENDS
;	COMDAT ?digits@?$numeric_limits@_K@std@@2HB
CONST	SEGMENT
?digits@?$numeric_limits@_K@std@@2HB DD 040H		; std::numeric_limits<unsigned __int64>::digits
CONST	ENDS
;	COMDAT ?is_signed@?$numeric_limits@_K@std@@2_NB
CONST	SEGMENT
?is_signed@?$numeric_limits@_K@std@@2_NB DB 00H		; std::numeric_limits<unsigned __int64>::is_signed
CONST	ENDS
;	COMDAT ?max_digits10@?$numeric_limits@_J@std@@2HB
CONST	SEGMENT
?max_digits10@?$numeric_limits@_J@std@@2HB DD 014H	; std::numeric_limits<__int64>::max_digits10
CONST	ENDS
;	COMDAT ?digits10@?$numeric_limits@_J@std@@2HB
CONST	SEGMENT
?digits10@?$numeric_limits@_J@std@@2HB DD 012H		; std::numeric_limits<__int64>::digits10
CONST	ENDS
;	COMDAT ?digits@?$numeric_limits@_J@std@@2HB
CONST	SEGMENT
?digits@?$numeric_limits@_J@std@@2HB DD 03fH		; std::numeric_limits<__int64>::digits
CONST	ENDS
;	COMDAT ?is_signed@?$numeric_limits@_J@std@@2_NB
CONST	SEGMENT
?is_signed@?$numeric_limits@_J@std@@2_NB DB 01H		; std::numeric_limits<__int64>::is_signed
CONST	ENDS
;	COMDAT ?max_digits10@?$numeric_limits@K@std@@2HB
CONST	SEGMENT
?max_digits10@?$numeric_limits@K@std@@2HB DD 0bH	; std::numeric_limits<unsigned long>::max_digits10
CONST	ENDS
;	COMDAT ?digits10@?$numeric_limits@K@std@@2HB
CONST	SEGMENT
?digits10@?$numeric_limits@K@std@@2HB DD 09H		; std::numeric_limits<unsigned long>::digits10
CONST	ENDS
;	COMDAT ?digits@?$numeric_limits@K@std@@2HB
CONST	SEGMENT
?digits@?$numeric_limits@K@std@@2HB DD 020H		; std::numeric_limits<unsigned long>::digits
CONST	ENDS
;	COMDAT ?is_signed@?$numeric_limits@K@std@@2_NB
CONST	SEGMENT
?is_signed@?$numeric_limits@K@std@@2_NB DB 00H		; std::numeric_limits<unsigned long>::is_signed
CONST	ENDS
;	COMDAT ?max_digits10@?$numeric_limits@J@std@@2HB
CONST	SEGMENT
?max_digits10@?$numeric_limits@J@std@@2HB DD 0bH	; std::numeric_limits<long>::max_digits10
CONST	ENDS
;	COMDAT ?digits10@?$numeric_limits@J@std@@2HB
CONST	SEGMENT
?digits10@?$numeric_limits@J@std@@2HB DD 09H		; std::numeric_limits<long>::digits10
CONST	ENDS
;	COMDAT ?digits@?$numeric_limits@J@std@@2HB
CONST	SEGMENT
?digits@?$numeric_limits@J@std@@2HB DD 01fH		; std::numeric_limits<long>::digits
CONST	ENDS
;	COMDAT ?is_signed@?$numeric_limits@J@std@@2_NB
CONST	SEGMENT
?is_signed@?$numeric_limits@J@std@@2_NB DB 01H		; std::numeric_limits<long>::is_signed
CONST	ENDS
;	COMDAT ?max_digits10@?$numeric_limits@I@std@@2HB
CONST	SEGMENT
?max_digits10@?$numeric_limits@I@std@@2HB DD 0bH	; std::numeric_limits<unsigned int>::max_digits10
CONST	ENDS
;	COMDAT ?digits10@?$numeric_limits@I@std@@2HB
CONST	SEGMENT
?digits10@?$numeric_limits@I@std@@2HB DD 09H		; std::numeric_limits<unsigned int>::digits10
CONST	ENDS
;	COMDAT ?digits@?$numeric_limits@I@std@@2HB
CONST	SEGMENT
?digits@?$numeric_limits@I@std@@2HB DD 020H		; std::numeric_limits<unsigned int>::digits
CONST	ENDS
;	COMDAT ?is_signed@?$numeric_limits@I@std@@2_NB
CONST	SEGMENT
?is_signed@?$numeric_limits@I@std@@2_NB DB 00H		; std::numeric_limits<unsigned int>::is_signed
CONST	ENDS
;	COMDAT ?max_digits10@?$numeric_limits@H@std@@2HB
CONST	SEGMENT
?max_digits10@?$numeric_limits@H@std@@2HB DD 0bH	; std::numeric_limits<int>::max_digits10
CONST	ENDS
;	COMDAT ?digits10@?$numeric_limits@H@std@@2HB
CONST	SEGMENT
?digits10@?$numeric_limits@H@std@@2HB DD 09H		; std::numeric_limits<int>::digits10
CONST	ENDS
;	COMDAT ?digits@?$numeric_limits@H@std@@2HB
CONST	SEGMENT
?digits@?$numeric_limits@H@std@@2HB DD 01fH		; std::numeric_limits<int>::digits
CONST	ENDS
;	COMDAT ?is_signed@?$numeric_limits@H@std@@2_NB
CONST	SEGMENT
?is_signed@?$numeric_limits@H@std@@2_NB DB 01H		; std::numeric_limits<int>::is_signed
CONST	ENDS
;	COMDAT ?max_digits10@?$numeric_limits@G@std@@2HB
CONST	SEGMENT
?max_digits10@?$numeric_limits@G@std@@2HB DD 06H	; std::numeric_limits<unsigned short>::max_digits10
CONST	ENDS
;	COMDAT ?digits10@?$numeric_limits@G@std@@2HB
CONST	SEGMENT
?digits10@?$numeric_limits@G@std@@2HB DD 04H		; std::numeric_limits<unsigned short>::digits10
CONST	ENDS
;	COMDAT ?digits@?$numeric_limits@G@std@@2HB
CONST	SEGMENT
?digits@?$numeric_limits@G@std@@2HB DD 010H		; std::numeric_limits<unsigned short>::digits
CONST	ENDS
;	COMDAT ?is_signed@?$numeric_limits@G@std@@2_NB
CONST	SEGMENT
?is_signed@?$numeric_limits@G@std@@2_NB DB 00H		; std::numeric_limits<unsigned short>::is_signed
CONST	ENDS
;	COMDAT ?max_digits10@?$numeric_limits@F@std@@2HB
CONST	SEGMENT
?max_digits10@?$numeric_limits@F@std@@2HB DD 06H	; std::numeric_limits<short>::max_digits10
CONST	ENDS
;	COMDAT ?digits10@?$numeric_limits@F@std@@2HB
CONST	SEGMENT
?digits10@?$numeric_limits@F@std@@2HB DD 04H		; std::numeric_limits<short>::digits10
CONST	ENDS
;	COMDAT ?digits@?$numeric_limits@F@std@@2HB
CONST	SEGMENT
?digits@?$numeric_limits@F@std@@2HB DD 0fH		; std::numeric_limits<short>::digits
CONST	ENDS
;	COMDAT ?is_signed@?$numeric_limits@F@std@@2_NB
CONST	SEGMENT
?is_signed@?$numeric_limits@F@std@@2_NB DB 01H		; std::numeric_limits<short>::is_signed
CONST	ENDS
;	COMDAT ?max_digits10@?$numeric_limits@E@std@@2HB
CONST	SEGMENT
?max_digits10@?$numeric_limits@E@std@@2HB DD 04H	; std::numeric_limits<unsigned char>::max_digits10
CONST	ENDS
;	COMDAT ?digits10@?$numeric_limits@E@std@@2HB
CONST	SEGMENT
?digits10@?$numeric_limits@E@std@@2HB DD 02H		; std::numeric_limits<unsigned char>::digits10
CONST	ENDS
;	COMDAT ?digits@?$numeric_limits@E@std@@2HB
CONST	SEGMENT
?digits@?$numeric_limits@E@std@@2HB DD 08H		; std::numeric_limits<unsigned char>::digits
CONST	ENDS
;	COMDAT ?is_signed@?$numeric_limits@E@std@@2_NB
CONST	SEGMENT
?is_signed@?$numeric_limits@E@std@@2_NB DB 00H		; std::numeric_limits<unsigned char>::is_signed
CONST	ENDS
;	COMDAT ?max_digits10@?$numeric_limits@C@std@@2HB
CONST	SEGMENT
?max_digits10@?$numeric_limits@C@std@@2HB DD 04H	; std::numeric_limits<signed char>::max_digits10
CONST	ENDS
;	COMDAT ?digits10@?$numeric_limits@C@std@@2HB
CONST	SEGMENT
?digits10@?$numeric_limits@C@std@@2HB DD 02H		; std::numeric_limits<signed char>::digits10
CONST	ENDS
;	COMDAT ?digits@?$numeric_limits@C@std@@2HB
CONST	SEGMENT
?digits@?$numeric_limits@C@std@@2HB DD 07H		; std::numeric_limits<signed char>::digits
CONST	ENDS
;	COMDAT ?is_signed@?$numeric_limits@C@std@@2_NB
CONST	SEGMENT
?is_signed@?$numeric_limits@C@std@@2_NB DB 01H		; std::numeric_limits<signed char>::is_signed
CONST	ENDS
;	COMDAT ?max_digits10@?$numeric_limits@_N@std@@2HB
CONST	SEGMENT
?max_digits10@?$numeric_limits@_N@std@@2HB DD 00H	; std::numeric_limits<bool>::max_digits10
CONST	ENDS
;	COMDAT ?digits10@?$numeric_limits@_N@std@@2HB
CONST	SEGMENT
?digits10@?$numeric_limits@_N@std@@2HB DD 00H		; std::numeric_limits<bool>::digits10
CONST	ENDS
;	COMDAT ?digits@?$numeric_limits@_N@std@@2HB
CONST	SEGMENT
?digits@?$numeric_limits@_N@std@@2HB DD 01H		; std::numeric_limits<bool>::digits
CONST	ENDS
;	COMDAT ?is_signed@?$numeric_limits@_N@std@@2_NB
CONST	SEGMENT
?is_signed@?$numeric_limits@_N@std@@2_NB DB 00H		; std::numeric_limits<bool>::is_signed
CONST	ENDS
;	COMDAT ?is_modulo@?$numeric_limits@_N@std@@2_NB
CONST	SEGMENT
?is_modulo@?$numeric_limits@_N@std@@2_NB DB 00H		; std::numeric_limits<bool>::is_modulo
CONST	ENDS
;	COMDAT ?max_digits10@?$numeric_limits@_W@std@@2HB
CONST	SEGMENT
?max_digits10@?$numeric_limits@_W@std@@2HB DD 06H	; std::numeric_limits<wchar_t>::max_digits10
CONST	ENDS
;	COMDAT ?digits10@?$numeric_limits@_W@std@@2HB
CONST	SEGMENT
?digits10@?$numeric_limits@_W@std@@2HB DD 04H		; std::numeric_limits<wchar_t>::digits10
CONST	ENDS
;	COMDAT ?digits@?$numeric_limits@_W@std@@2HB
CONST	SEGMENT
?digits@?$numeric_limits@_W@std@@2HB DD 010H		; std::numeric_limits<wchar_t>::digits
CONST	ENDS
;	COMDAT ?is_signed@?$numeric_limits@_W@std@@2_NB
CONST	SEGMENT
?is_signed@?$numeric_limits@_W@std@@2_NB DB 00H		; std::numeric_limits<wchar_t>::is_signed
CONST	ENDS
;	COMDAT ?max_digits10@?$numeric_limits@D@std@@2HB
CONST	SEGMENT
?max_digits10@?$numeric_limits@D@std@@2HB DD 04H	; std::numeric_limits<char>::max_digits10
CONST	ENDS
;	COMDAT ?digits10@?$numeric_limits@D@std@@2HB
CONST	SEGMENT
?digits10@?$numeric_limits@D@std@@2HB DD 02H		; std::numeric_limits<char>::digits10
CONST	ENDS
;	COMDAT ?digits@?$numeric_limits@D@std@@2HB
CONST	SEGMENT
?digits@?$numeric_limits@D@std@@2HB DD 07H		; std::numeric_limits<char>::digits
CONST	ENDS
;	COMDAT ?is_signed@?$numeric_limits@D@std@@2_NB
CONST	SEGMENT
?is_signed@?$numeric_limits@D@std@@2_NB DB 01H		; std::numeric_limits<char>::is_signed
CONST	ENDS
;	COMDAT ?radix@_Num_float_base@std@@2HB
CONST	SEGMENT
?radix@_Num_float_base@std@@2HB DD 02H			; std::_Num_float_base::radix
CONST	ENDS
;	COMDAT ?round_style@_Num_float_base@std@@2W4float_round_style@2@B
CONST	SEGMENT
?round_style@_Num_float_base@std@@2W4float_round_style@2@B DD 01H ; std::_Num_float_base::round_style
CONST	ENDS
;	COMDAT ?traps@_Num_float_base@std@@2_NB
CONST	SEGMENT
?traps@_Num_float_base@std@@2_NB DB 01H			; std::_Num_float_base::traps
CONST	ENDS
;	COMDAT ?tinyness_before@_Num_float_base@std@@2_NB
CONST	SEGMENT
?tinyness_before@_Num_float_base@std@@2_NB DB 01H	; std::_Num_float_base::tinyness_before
CONST	ENDS
;	COMDAT ?is_specialized@_Num_float_base@std@@2_NB
CONST	SEGMENT
?is_specialized@_Num_float_base@std@@2_NB DB 01H	; std::_Num_float_base::is_specialized
CONST	ENDS
;	COMDAT ?is_signed@_Num_float_base@std@@2_NB
CONST	SEGMENT
?is_signed@_Num_float_base@std@@2_NB DB 01H		; std::_Num_float_base::is_signed
CONST	ENDS
;	COMDAT ?is_modulo@_Num_float_base@std@@2_NB
CONST	SEGMENT
?is_modulo@_Num_float_base@std@@2_NB DB 00H		; std::_Num_float_base::is_modulo
CONST	ENDS
;	COMDAT ?is_integer@_Num_float_base@std@@2_NB
CONST	SEGMENT
?is_integer@_Num_float_base@std@@2_NB DB 00H		; std::_Num_float_base::is_integer
CONST	ENDS
;	COMDAT ?is_iec559@_Num_float_base@std@@2_NB
CONST	SEGMENT
?is_iec559@_Num_float_base@std@@2_NB DB 01H		; std::_Num_float_base::is_iec559
CONST	ENDS
;	COMDAT ?is_exact@_Num_float_base@std@@2_NB
CONST	SEGMENT
?is_exact@_Num_float_base@std@@2_NB DB 00H		; std::_Num_float_base::is_exact
CONST	ENDS
;	COMDAT ?is_bounded@_Num_float_base@std@@2_NB
CONST	SEGMENT
?is_bounded@_Num_float_base@std@@2_NB DB 01H		; std::_Num_float_base::is_bounded
CONST	ENDS
;	COMDAT ?has_signaling_NaN@_Num_float_base@std@@2_NB
CONST	SEGMENT
?has_signaling_NaN@_Num_float_base@std@@2_NB DB 01H	; std::_Num_float_base::has_signaling_NaN
CONST	ENDS
;	COMDAT ?has_quiet_NaN@_Num_float_base@std@@2_NB
CONST	SEGMENT
?has_quiet_NaN@_Num_float_base@std@@2_NB DB 01H		; std::_Num_float_base::has_quiet_NaN
CONST	ENDS
;	COMDAT ?has_infinity@_Num_float_base@std@@2_NB
CONST	SEGMENT
?has_infinity@_Num_float_base@std@@2_NB DB 01H		; std::_Num_float_base::has_infinity
CONST	ENDS
;	COMDAT ?has_denorm_loss@_Num_float_base@std@@2_NB
CONST	SEGMENT
?has_denorm_loss@_Num_float_base@std@@2_NB DB 01H	; std::_Num_float_base::has_denorm_loss
CONST	ENDS
;	COMDAT ?has_denorm@_Num_float_base@std@@2W4float_denorm_style@2@B
CONST	SEGMENT
?has_denorm@_Num_float_base@std@@2W4float_denorm_style@2@B DD 01H ; std::_Num_float_base::has_denorm
CONST	ENDS
;	COMDAT ?radix@_Num_int_base@std@@2HB
CONST	SEGMENT
?radix@_Num_int_base@std@@2HB DD 02H			; std::_Num_int_base::radix
CONST	ENDS
;	COMDAT ?is_specialized@_Num_int_base@std@@2_NB
CONST	SEGMENT
?is_specialized@_Num_int_base@std@@2_NB DB 01H		; std::_Num_int_base::is_specialized
CONST	ENDS
;	COMDAT ?is_modulo@_Num_int_base@std@@2_NB
CONST	SEGMENT
?is_modulo@_Num_int_base@std@@2_NB DB 01H		; std::_Num_int_base::is_modulo
CONST	ENDS
;	COMDAT ?is_integer@_Num_int_base@std@@2_NB
CONST	SEGMENT
?is_integer@_Num_int_base@std@@2_NB DB 01H		; std::_Num_int_base::is_integer
CONST	ENDS
;	COMDAT ?is_exact@_Num_int_base@std@@2_NB
CONST	SEGMENT
?is_exact@_Num_int_base@std@@2_NB DB 01H		; std::_Num_int_base::is_exact
CONST	ENDS
;	COMDAT ?is_bounded@_Num_int_base@std@@2_NB
CONST	SEGMENT
?is_bounded@_Num_int_base@std@@2_NB DB 01H		; std::_Num_int_base::is_bounded
CONST	ENDS
;	COMDAT ?radix@_Num_base@std@@2HB
CONST	SEGMENT
?radix@_Num_base@std@@2HB DD 00H			; std::_Num_base::radix
CONST	ENDS
;	COMDAT ?min_exponent10@_Num_base@std@@2HB
CONST	SEGMENT
?min_exponent10@_Num_base@std@@2HB DD 00H		; std::_Num_base::min_exponent10
CONST	ENDS
;	COMDAT ?min_exponent@_Num_base@std@@2HB
CONST	SEGMENT
?min_exponent@_Num_base@std@@2HB DD 00H			; std::_Num_base::min_exponent
CONST	ENDS
;	COMDAT ?max_exponent10@_Num_base@std@@2HB
CONST	SEGMENT
?max_exponent10@_Num_base@std@@2HB DD 00H		; std::_Num_base::max_exponent10
CONST	ENDS
;	COMDAT ?max_exponent@_Num_base@std@@2HB
CONST	SEGMENT
?max_exponent@_Num_base@std@@2HB DD 00H			; std::_Num_base::max_exponent
CONST	ENDS
;	COMDAT ?max_digits10@_Num_base@std@@2HB
CONST	SEGMENT
?max_digits10@_Num_base@std@@2HB DD 00H			; std::_Num_base::max_digits10
CONST	ENDS
;	COMDAT ?digits10@_Num_base@std@@2HB
CONST	SEGMENT
?digits10@_Num_base@std@@2HB DD 00H			; std::_Num_base::digits10
CONST	ENDS
;	COMDAT ?digits@_Num_base@std@@2HB
CONST	SEGMENT
?digits@_Num_base@std@@2HB DD 00H			; std::_Num_base::digits
CONST	ENDS
;	COMDAT ?round_style@_Num_base@std@@2W4float_round_style@2@B
CONST	SEGMENT
?round_style@_Num_base@std@@2W4float_round_style@2@B DD 00H ; std::_Num_base::round_style
CONST	ENDS
;	COMDAT ?traps@_Num_base@std@@2_NB
CONST	SEGMENT
?traps@_Num_base@std@@2_NB DB 00H			; std::_Num_base::traps
CONST	ENDS
;	COMDAT ?tinyness_before@_Num_base@std@@2_NB
CONST	SEGMENT
?tinyness_before@_Num_base@std@@2_NB DB 00H		; std::_Num_base::tinyness_before
CONST	ENDS
;	COMDAT ?is_specialized@_Num_base@std@@2_NB
CONST	SEGMENT
?is_specialized@_Num_base@std@@2_NB DB 00H		; std::_Num_base::is_specialized
CONST	ENDS
;	COMDAT ?is_signed@_Num_base@std@@2_NB
CONST	SEGMENT
?is_signed@_Num_base@std@@2_NB DB 00H			; std::_Num_base::is_signed
CONST	ENDS
;	COMDAT ?is_modulo@_Num_base@std@@2_NB
CONST	SEGMENT
?is_modulo@_Num_base@std@@2_NB DB 00H			; std::_Num_base::is_modulo
CONST	ENDS
;	COMDAT ?is_integer@_Num_base@std@@2_NB
CONST	SEGMENT
?is_integer@_Num_base@std@@2_NB DB 00H			; std::_Num_base::is_integer
CONST	ENDS
;	COMDAT ?is_iec559@_Num_base@std@@2_NB
CONST	SEGMENT
?is_iec559@_Num_base@std@@2_NB DB 00H			; std::_Num_base::is_iec559
CONST	ENDS
;	COMDAT ?is_exact@_Num_base@std@@2_NB
CONST	SEGMENT
?is_exact@_Num_base@std@@2_NB DB 00H			; std::_Num_base::is_exact
CONST	ENDS
;	COMDAT ?is_bounded@_Num_base@std@@2_NB
CONST	SEGMENT
?is_bounded@_Num_base@std@@2_NB DB 00H			; std::_Num_base::is_bounded
CONST	ENDS
;	COMDAT ?has_signaling_NaN@_Num_base@std@@2_NB
CONST	SEGMENT
?has_signaling_NaN@_Num_base@std@@2_NB DB 00H		; std::_Num_base::has_signaling_NaN
CONST	ENDS
;	COMDAT ?has_quiet_NaN@_Num_base@std@@2_NB
CONST	SEGMENT
?has_quiet_NaN@_Num_base@std@@2_NB DB 00H		; std::_Num_base::has_quiet_NaN
CONST	ENDS
;	COMDAT ?has_infinity@_Num_base@std@@2_NB
CONST	SEGMENT
?has_infinity@_Num_base@std@@2_NB DB 00H		; std::_Num_base::has_infinity
CONST	ENDS
;	COMDAT ?has_denorm_loss@_Num_base@std@@2_NB
CONST	SEGMENT
?has_denorm_loss@_Num_base@std@@2_NB DB 00H		; std::_Num_base::has_denorm_loss
CONST	ENDS
;	COMDAT ?has_denorm@_Num_base@std@@2W4float_denorm_style@2@B
CONST	SEGMENT
?has_denorm@_Num_base@std@@2W4float_denorm_style@2@B DD 00H ; std::_Num_base::has_denorm
CONST	ENDS
_DATA	SEGMENT
_PADDING DB	080H
	DB	00H
	DB	00H
	DB	00H
	DB	00H
	DB	00H
	DB	00H
	DB	00H
	DB	00H
	DB	00H
	DB	00H
	DB	00H
	DB	00H
	DB	00H
	DB	00H
	DB	00H
	DB	00H
	DB	00H
	DB	00H
	DB	00H
	DB	00H
	DB	00H
	DB	00H
	DB	00H
	DB	00H
	DB	00H
	DB	00H
	DB	00H
	DB	00H
	DB	00H
	DB	00H
	DB	00H
	DB	00H
	DB	00H
	DB	00H
	DB	00H
	DB	00H
	DB	00H
	DB	00H
	DB	00H
	DB	00H
	DB	00H
	DB	00H
	DB	00H
	DB	00H
	DB	00H
	DB	00H
	DB	00H
	DB	00H
	DB	00H
	DB	00H
	DB	00H
	DB	00H
	DB	00H
	DB	00H
	DB	00H
	DB	00H
	DB	00H
	DB	00H
	DB	00H
	DB	00H
	DB	00H
	DB	00H
	DB	00H
_source_path DD	FLAT:??_C@_0FP@CIEIGBBB@C?3?1Users?1tdrol?1Documents?1Visual?5@
_DATA	ENDS
PUBLIC	?cl_print_error_silent@@YAXHPBDZZ		; cl_print_error_silent
EXTRN	__RTC_Shutdown:PROC
EXTRN	__RTC_InitBase:PROC
;	COMDAT rtc$TMZ
; File c:\users\tdrol\documents\visual studio 2010\projects\analizator\analizator-bd-opencl\cl_encrypt.cpp
rtc$TMZ	SEGMENT
__RTC_Shutdown.rtc$TMZ DD FLAT:__RTC_Shutdown
rtc$TMZ	ENDS
;	COMDAT rtc$IMZ
rtc$IMZ	SEGMENT
__RTC_InitBase.rtc$IMZ DD FLAT:__RTC_InitBase
; Function compile flags: /Odtp /RTCsu /ZI
rtc$IMZ	ENDS
;	COMDAT ?cl_print_error_silent@@YAXHPBDZZ
_TEXT	SEGMENT
_err$ = 8						; size = 4
_msg$ = 12						; size = 4
?cl_print_error_silent@@YAXHPBDZZ PROC			; cl_print_error_silent, COMDAT

; 31   : void cl_print_error_silent(cl_int err, const char *msg, ...) {};

	push	ebp
	mov	ebp, esp
	sub	esp, 192				; 000000c0H
	push	ebx
	push	esi
	push	edi
	lea	edi, DWORD PTR [ebp-192]
	mov	ecx, 48					; 00000030H
	mov	eax, -858993460				; ccccccccH
	rep stosd
	pop	edi
	pop	esi
	pop	ebx
	mov	esp, ebp
	pop	ebp
	ret	0
?cl_print_error_silent@@YAXHPBDZZ ENDP			; cl_print_error_silent
_TEXT	ENDS
PUBLIC	??_C@_0DF@LKOFKLDO@?5?9?5Nobody?5knows?5what?5happened?5?$CIC@ ; `string'
PUBLIC	??_C@_0FK@OFFEAEOE@?9?5Failed?5to?5allocate?5or?5read?5res@ ; `string'
PUBLIC	??_C@_0EL@JIBFLOOI@?9?5Failed?5to?5allocate?5or?5read?5mem@ ; `string'
PUBLIC	??_C@_0EC@GOFGLOMA@?5?9?5local_work_size?5is?5greater?5th@ ; `string'
PUBLIC	??_C@_0EA@CCADPGGI@?5?9?5global_work_size?5is?5not?5evenl@ ; `string'
PUBLIC	??_C@_0CC@GEBFDNCA@?5?9?5work_dim?5is?5not?5a?5valid?5value@ ; `string'
PUBLIC	??_C@_0DM@FFFIJCDB@?9?5Offset?5or?5size?5out?9of?9bounds?5o@ ; `string'
PUBLIC	??_C@_0BK@BLAMBFJG@?9?5Invalid?5sampler?5object?6?$AA@ ; `string'
PUBLIC	??_C@_0BN@ICFPNBPD@?5?9?5No?5valid?5program?5avaible?6?$AA@ ; `string'
PUBLIC	??_C@_0BC@JMDFOBPB@?9?5Invalid?5buffer?6?$AA@	; `string'
PUBLIC	??_C@_0DD@ODPKDFBB@?5?9?5Kernel?5argument?5values?5have?5n@ ; `string'
PUBLIC	??_C@_0BK@GJKBPDEK@?5?9?5Invalid?5kernel?5object?6?$AA@ ; `string'
PUBLIC	??_C@_0CD@MDHOOLED@?5?9?5global_work_offset?5is?5not?5NUL@ ; `string'
PUBLIC	??_C@_0BL@HFHFLEOF@?9?5Invalid?5event?9wait?5list?6?$AA@ ; `string'
PUBLIC	??_C@_0BN@JMOBBGKG@?9?5Invalid?5context?5or?5buffer?6?$AA@ ; `string'
PUBLIC	??_C@_0BJ@MJMKIHHI@?9?5Invalid?5command?9queue?6?$AA@ ; `string'
PUBLIC	??_C@_0BK@FGIJEIM@?9?5Invalid?5argument?5value?6?$AA@ ; `string'
PUBLIC	??_C@_0BP@OJGEJCAL@?5?9?5Invalid?5argument?5data?5size?6?$AA@ ; `string'
PUBLIC	??_C@_0BK@BBDPOGAD@?9?5Invalid?5argument?5index?6?$AA@ ; `string'
PUBLIC	?cl_print_error@@YAXHPBDZZ			; cl_print_error
EXTRN	_exit:PROC
EXTRN	_printf:PROC
EXTRN	_vfprintf:PROC
EXTRN	___iob_func:PROC
EXTRN	__RTC_CheckEsp:PROC
;	COMDAT ??_C@_0DF@LKOFKLDO@?5?9?5Nobody?5knows?5what?5happened?5?$CIC@
CONST	SEGMENT
??_C@_0DF@LKOFKLDO@?5?9?5Nobody?5knows?5what?5happened?5?$CIC@ DB ' - Nob'
	DB	'ody knows what happened (CL_OUT_OF_RESOURCES)', 0aH, 00H ; `string'
CONST	ENDS
;	COMDAT ??_C@_0FK@OFFEAEOE@?9?5Failed?5to?5allocate?5or?5read?5res@
CONST	SEGMENT
??_C@_0FK@OFFEAEOE@?9?5Failed?5to?5allocate?5or?5read?5res@ DB '- Failed '
	DB	'to allocate or read resources required by the OpenCL implemen'
	DB	'tation on the host', 0aH, 00H		; `string'
CONST	ENDS
;	COMDAT ??_C@_0EL@JIBFLOOI@?9?5Failed?5to?5allocate?5or?5read?5mem@
CONST	SEGMENT
??_C@_0EL@JIBFLOOI@?9?5Failed?5to?5allocate?5or?5read?5mem@ DB '- Failed '
	DB	'to allocate or read memory for data store associated with buf'
	DB	'fer', 0aH, 00H				; `string'
CONST	ENDS
;	COMDAT ??_C@_0EC@GOFGLOMA@?5?9?5local_work_size?5is?5greater?5th@
CONST	SEGMENT
??_C@_0EC@GOFGLOMA@?5?9?5local_work_size?5is?5greater?5th@ DB ' - local_w'
	DB	'ork_size is greater than CL_DEVICE_MAX_WORK_ITEM_SIZES', 0aH, 00H ; `string'
CONST	ENDS
;	COMDAT ??_C@_0EA@CCADPGGI@?5?9?5global_work_size?5is?5not?5evenl@
CONST	SEGMENT
??_C@_0EA@CCADPGGI@?5?9?5global_work_size?5is?5not?5evenl@ DB ' - global_'
	DB	'work_size is not evenly divisable by local_work_size', 0aH, 00H ; `string'
CONST	ENDS
;	COMDAT ??_C@_0CC@GEBFDNCA@?5?9?5work_dim?5is?5not?5a?5valid?5value@
CONST	SEGMENT
??_C@_0CC@GEBFDNCA@?5?9?5work_dim?5is?5not?5a?5valid?5value@ DB ' - work_'
	DB	'dim is not a valid value', 0aH, 00H		; `string'
CONST	ENDS
;	COMDAT ??_C@_0DM@FFFIJCDB@?9?5Offset?5or?5size?5out?9of?9bounds?5o@
CONST	SEGMENT
??_C@_0DM@FFFIJCDB@?9?5Offset?5or?5size?5out?9of?9bounds?5o@ DB '- Offset'
	DB	' or size out-of-bounds or *results is a NULL value', 0aH, 00H ; `string'
CONST	ENDS
;	COMDAT ??_C@_0BK@BLAMBFJG@?9?5Invalid?5sampler?5object?6?$AA@
CONST	SEGMENT
??_C@_0BK@BLAMBFJG@?9?5Invalid?5sampler?5object?6?$AA@ DB '- Invalid samp'
	DB	'ler object', 0aH, 00H			; `string'
CONST	ENDS
;	COMDAT ??_C@_0BN@ICFPNBPD@?5?9?5No?5valid?5program?5avaible?6?$AA@
CONST	SEGMENT
??_C@_0BN@ICFPNBPD@?5?9?5No?5valid?5program?5avaible?6?$AA@ DB ' - No val'
	DB	'id program avaible', 0aH, 00H		; `string'
CONST	ENDS
;	COMDAT ??_C@_0BC@JMDFOBPB@?9?5Invalid?5buffer?6?$AA@
CONST	SEGMENT
??_C@_0BC@JMDFOBPB@?9?5Invalid?5buffer?6?$AA@ DB '- Invalid buffer', 0aH, 00H ; `string'
CONST	ENDS
;	COMDAT ??_C@_0DD@ODPKDFBB@?5?9?5Kernel?5argument?5values?5have?5n@
CONST	SEGMENT
??_C@_0DD@ODPKDFBB@?5?9?5Kernel?5argument?5values?5have?5n@ DB ' - Kernel'
	DB	' argument values have not been specified', 0aH, 00H ; `string'
CONST	ENDS
;	COMDAT ??_C@_0BK@GJKBPDEK@?5?9?5Invalid?5kernel?5object?6?$AA@
CONST	SEGMENT
??_C@_0BK@GJKBPDEK@?5?9?5Invalid?5kernel?5object?6?$AA@ DB ' - Invalid ke'
	DB	'rnel object', 0aH, 00H			; `string'
CONST	ENDS
;	COMDAT ??_C@_0CD@MDHOOLED@?5?9?5global_work_offset?5is?5not?5NUL@
CONST	SEGMENT
??_C@_0CD@MDHOOLED@?5?9?5global_work_offset?5is?5not?5NUL@ DB ' - global_'
	DB	'work_offset is not NULL', 0aH, 00H		; `string'
CONST	ENDS
;	COMDAT ??_C@_0BL@HFHFLEOF@?9?5Invalid?5event?9wait?5list?6?$AA@
CONST	SEGMENT
??_C@_0BL@HFHFLEOF@?9?5Invalid?5event?9wait?5list?6?$AA@ DB '- Invalid ev'
	DB	'ent-wait list', 0aH, 00H			; `string'
CONST	ENDS
;	COMDAT ??_C@_0BN@JMOBBGKG@?9?5Invalid?5context?5or?5buffer?6?$AA@
CONST	SEGMENT
??_C@_0BN@JMOBBGKG@?9?5Invalid?5context?5or?5buffer?6?$AA@ DB '- Invalid '
	DB	'context or buffer', 0aH, 00H		; `string'
CONST	ENDS
;	COMDAT ??_C@_0BJ@MJMKIHHI@?9?5Invalid?5command?9queue?6?$AA@
CONST	SEGMENT
??_C@_0BJ@MJMKIHHI@?9?5Invalid?5command?9queue?6?$AA@ DB '- Invalid comma'
	DB	'nd-queue', 0aH, 00H				; `string'
CONST	ENDS
;	COMDAT ??_C@_0BK@FGIJEIM@?9?5Invalid?5argument?5value?6?$AA@
CONST	SEGMENT
??_C@_0BK@FGIJEIM@?9?5Invalid?5argument?5value?6?$AA@ DB '- Invalid argum'
	DB	'ent value', 0aH, 00H			; `string'
CONST	ENDS
;	COMDAT ??_C@_0BP@OJGEJCAL@?5?9?5Invalid?5argument?5data?5size?6?$AA@
CONST	SEGMENT
??_C@_0BP@OJGEJCAL@?5?9?5Invalid?5argument?5data?5size?6?$AA@ DB ' - Inva'
	DB	'lid argument data size', 0aH, 00H		; `string'
CONST	ENDS
;	COMDAT ??_C@_0BK@BBDPOGAD@?9?5Invalid?5argument?5index?6?$AA@
CONST	SEGMENT
??_C@_0BK@BBDPOGAD@?9?5Invalid?5argument?5index?6?$AA@ DB '- Invalid argu'
	DB	'ment index', 0aH, 00H			; `string'
; Function compile flags: /Odtp /RTCsu /ZI
CONST	ENDS
;	COMDAT ?cl_print_error@@YAXHPBDZZ
_TEXT	SEGMENT
tv65 = -208						; size = 4
_argptr$ = -8						; size = 4
_err$ = 8						; size = 4
_msg$ = 12						; size = 4
?cl_print_error@@YAXHPBDZZ PROC				; cl_print_error, COMDAT

; 33   : {

	push	ebp
	mov	ebp, esp
	sub	esp, 208				; 000000d0H
	push	ebx
	push	esi
	push	edi
	lea	edi, DWORD PTR [ebp-208]
	mov	ecx, 52					; 00000034H
	mov	eax, -858993460				; ccccccccH
	rep stosd

; 34   :     va_list argptr;
; 35   : 	va_start(argptr, msg);

	lea	eax, DWORD PTR _msg$[ebp+4]
	mov	DWORD PTR _argptr$[ebp], eax

; 36   :     vfprintf(stderr, msg, argptr);

	mov	eax, DWORD PTR _argptr$[ebp]
	push	eax
	mov	ecx, DWORD PTR _msg$[ebp]
	push	ecx
	call	___iob_func
	add	eax, 64					; 00000040H
	push	eax
	call	_vfprintf
	add	esp, 12					; 0000000cH

; 37   :     va_end(argptr);

	mov	DWORD PTR _argptr$[ebp], 0

; 38   : 
; 39   : 	switch (err)

	mov	eax, DWORD PTR _err$[ebp]
	mov	DWORD PTR tv65[ebp], eax
	mov	ecx, DWORD PTR tv65[ebp]
	add	ecx, 57					; 00000039H
	mov	DWORD PTR tv65[ebp], ecx
	cmp	DWORD PTR tv65[ebp], 53			; 00000035H
	ja	$LN20@cl_print_e
	mov	edx, DWORD PTR tv65[ebp]
	movzx	eax, BYTE PTR $LN24@cl_print_e[edx]
	jmp	DWORD PTR $LN25@cl_print_e[eax*4]
$LN19@cl_print_e:

; 40   : 	{
; 41   : 		case CL_INVALID_ARG_INDEX: printf("- Invalid argument index\n"); break;

	push	OFFSET ??_C@_0BK@BBDPOGAD@?9?5Invalid?5argument?5index?6?$AA@
	call	_printf
	add	esp, 4
	jmp	$LN20@cl_print_e
$LN18@cl_print_e:

; 42   : 		case CL_INVALID_ARG_SIZE: printf(" - Invalid argument data size\n"); break;

	push	OFFSET ??_C@_0BP@OJGEJCAL@?5?9?5Invalid?5argument?5data?5size?6?$AA@
	call	_printf
	add	esp, 4
	jmp	$LN20@cl_print_e
$LN17@cl_print_e:

; 43   : 		case CL_INVALID_ARG_VALUE: printf("- Invalid argument value\n"); break;

	push	OFFSET ??_C@_0BK@FGIJEIM@?9?5Invalid?5argument?5value?6?$AA@
	call	_printf
	add	esp, 4
	jmp	$LN20@cl_print_e
$LN16@cl_print_e:

; 44   : 		case CL_INVALID_COMMAND_QUEUE: printf("- Invalid command-queue\n"); break;

	push	OFFSET ??_C@_0BJ@MJMKIHHI@?9?5Invalid?5command?9queue?6?$AA@
	call	_printf
	add	esp, 4
	jmp	$LN20@cl_print_e
$LN15@cl_print_e:

; 45   : 		case CL_INVALID_CONTEXT: printf("- Invalid context or buffer\n"); break;

	push	OFFSET ??_C@_0BN@JMOBBGKG@?9?5Invalid?5context?5or?5buffer?6?$AA@
	call	_printf
	add	esp, 4
	jmp	$LN20@cl_print_e
$LN14@cl_print_e:

; 46   : 		case CL_INVALID_EVENT_WAIT_LIST: printf("- Invalid event-wait list\n"); break;

	push	OFFSET ??_C@_0BL@HFHFLEOF@?9?5Invalid?5event?9wait?5list?6?$AA@
	call	_printf
	add	esp, 4
	jmp	$LN20@cl_print_e
$LN13@cl_print_e:

; 47   : 		case CL_INVALID_GLOBAL_OFFSET: printf(" - global_work_offset is not NULL\n"); break;

	push	OFFSET ??_C@_0CD@MDHOOLED@?5?9?5global_work_offset?5is?5not?5NUL@
	call	_printf
	add	esp, 4
	jmp	$LN20@cl_print_e
$LN12@cl_print_e:

; 48   : 		case CL_INVALID_KERNEL: printf(" - Invalid kernel object\n"); break;

	push	OFFSET ??_C@_0BK@GJKBPDEK@?5?9?5Invalid?5kernel?5object?6?$AA@
	call	_printf
	add	esp, 4
	jmp	$LN20@cl_print_e
$LN11@cl_print_e:

; 49   : 		case CL_INVALID_KERNEL_ARGS: printf(" - Kernel argument values have not been specified\n"); break;

	push	OFFSET ??_C@_0DD@ODPKDFBB@?5?9?5Kernel?5argument?5values?5have?5n@
	call	_printf
	add	esp, 4
	jmp	$LN20@cl_print_e
$LN10@cl_print_e:

; 50   : 		case CL_INVALID_MEM_OBJECT: printf("- Invalid buffer\n"); break;

	push	OFFSET ??_C@_0BC@JMDFOBPB@?9?5Invalid?5buffer?6?$AA@
	call	_printf
	add	esp, 4
	jmp	$LN20@cl_print_e
$LN9@cl_print_e:

; 51   : 		case CL_INVALID_PROGRAM_EXECUTABLE: printf(" - No valid program avaible\n"); break;

	push	OFFSET ??_C@_0BN@ICFPNBPD@?5?9?5No?5valid?5program?5avaible?6?$AA@
	call	_printf
	add	esp, 4
	jmp	SHORT $LN20@cl_print_e
$LN8@cl_print_e:

; 52   : 		case CL_INVALID_SAMPLER: printf("- Invalid sampler object\n"); break;

	push	OFFSET ??_C@_0BK@BLAMBFJG@?9?5Invalid?5sampler?5object?6?$AA@
	call	_printf
	add	esp, 4
	jmp	SHORT $LN20@cl_print_e
$LN7@cl_print_e:

; 53   : 		case CL_INVALID_VALUE: printf("- Offset or size out-of-bounds or *results is a NULL value\n"); break;

	push	OFFSET ??_C@_0DM@FFFIJCDB@?9?5Offset?5or?5size?5out?9of?9bounds?5o@
	call	_printf
	add	esp, 4
	jmp	SHORT $LN20@cl_print_e
$LN6@cl_print_e:

; 54   : 		case CL_INVALID_WORK_DIMENSION: printf(" - work_dim is not a valid value\n"); break;

	push	OFFSET ??_C@_0CC@GEBFDNCA@?5?9?5work_dim?5is?5not?5a?5valid?5value@
	call	_printf
	add	esp, 4
	jmp	SHORT $LN20@cl_print_e
$LN5@cl_print_e:

; 55   : 		case CL_INVALID_WORK_GROUP_SIZE: printf(" - global_work_size is not evenly divisable by local_work_size\n"); break;

	push	OFFSET ??_C@_0EA@CCADPGGI@?5?9?5global_work_size?5is?5not?5evenl@
	call	_printf
	add	esp, 4
	jmp	SHORT $LN20@cl_print_e
$LN4@cl_print_e:

; 56   : 		case CL_INVALID_WORK_ITEM_SIZE: printf(" - local_work_size is greater than CL_DEVICE_MAX_WORK_ITEM_SIZES\n"); break;

	push	OFFSET ??_C@_0EC@GOFGLOMA@?5?9?5local_work_size?5is?5greater?5th@
	call	_printf
	add	esp, 4
	jmp	SHORT $LN20@cl_print_e
$LN3@cl_print_e:

; 57   : 		case CL_MEM_OBJECT_ALLOCATION_FAILURE: printf("- Failed to allocate or read memory for data store associated with buffer\n"); break;

	push	OFFSET ??_C@_0EL@JIBFLOOI@?9?5Failed?5to?5allocate?5or?5read?5mem@
	call	_printf
	add	esp, 4
	jmp	SHORT $LN20@cl_print_e
$LN2@cl_print_e:

; 58   : 		case CL_OUT_OF_HOST_MEMORY: printf("- Failed to allocate or read resources required by the OpenCL implementation on the host\n"); break;

	push	OFFSET ??_C@_0FK@OFFEAEOE@?9?5Failed?5to?5allocate?5or?5read?5res@
	call	_printf
	add	esp, 4
	jmp	SHORT $LN20@cl_print_e
$LN1@cl_print_e:

; 59   : 		case CL_OUT_OF_RESOURCES: printf(" - Nobody knows what happened (CL_OUT_OF_RESOURCES)\n"); break;

	push	OFFSET ??_C@_0DF@LKOFKLDO@?5?9?5Nobody?5knows?5what?5happened?5?$CIC@
	call	_printf
	add	esp, 4
$LN20@cl_print_e:

; 60   : 	}
; 61   : 
; 62   : 	exit(EXIT_FAILURE);

	push	1
	call	_exit
$LN23@cl_print_e:

; 63   : }

	pop	edi
	pop	esi
	pop	ebx
	add	esp, 208				; 000000d0H
	cmp	ebp, esp
	call	__RTC_CheckEsp
	mov	esp, ebp
	pop	ebp
	ret	0
	npad	3
$LN25@cl_print_e:
	DD	$LN14@cl_print_e
	DD	$LN13@cl_print_e
	DD	$LN4@cl_print_e
	DD	$LN5@cl_print_e
	DD	$LN6@cl_print_e
	DD	$LN11@cl_print_e
	DD	$LN18@cl_print_e
	DD	$LN17@cl_print_e
	DD	$LN19@cl_print_e
	DD	$LN12@cl_print_e
	DD	$LN9@cl_print_e
	DD	$LN8@cl_print_e
	DD	$LN10@cl_print_e
	DD	$LN16@cl_print_e
	DD	$LN15@cl_print_e
	DD	$LN7@cl_print_e
	DD	$LN2@cl_print_e
	DD	$LN1@cl_print_e
	DD	$LN3@cl_print_e
	DD	$LN20@cl_print_e
$LN24@cl_print_e:
	DB	0
	DB	1
	DB	2
	DB	3
	DB	4
	DB	5
	DB	6
	DB	7
	DB	8
	DB	9
	DB	19					; 00000013H
	DB	19					; 00000013H
	DB	10					; 0000000aH
	DB	19					; 00000013H
	DB	19					; 00000013H
	DB	19					; 00000013H
	DB	11					; 0000000bH
	DB	19					; 00000013H
	DB	19					; 00000013H
	DB	12					; 0000000cH
	DB	19					; 00000013H
	DB	13					; 0000000dH
	DB	19					; 00000013H
	DB	14					; 0000000eH
	DB	19					; 00000013H
	DB	19					; 00000013H
	DB	19					; 00000013H
	DB	15					; 0000000fH
	DB	19					; 00000013H
	DB	19					; 00000013H
	DB	19					; 00000013H
	DB	19					; 00000013H
	DB	19					; 00000013H
	DB	19					; 00000013H
	DB	19					; 00000013H
	DB	19					; 00000013H
	DB	19					; 00000013H
	DB	19					; 00000013H
	DB	19					; 00000013H
	DB	19					; 00000013H
	DB	19					; 00000013H
	DB	19					; 00000013H
	DB	19					; 00000013H
	DB	19					; 00000013H
	DB	19					; 00000013H
	DB	19					; 00000013H
	DB	19					; 00000013H
	DB	19					; 00000013H
	DB	19					; 00000013H
	DB	19					; 00000013H
	DB	19					; 00000013H
	DB	16					; 00000010H
	DB	17					; 00000011H
	DB	18					; 00000012H
?cl_print_error@@YAXHPBDZZ ENDP				; cl_print_error
_TEXT	ENDS
PUBLIC	?read@?$basic_istream@DU?$char_traits@D@std@@@std@@QAEAAV12@PAD_J@Z ; std::basic_istream<char,std::char_traits<char> >::read
PUBLIC	?seekg@?$basic_istream@DU?$char_traits@D@std@@@std@@QAEAAV12@_JH@Z ; std::basic_istream<char,std::char_traits<char> >::seekg
PUBLIC	??B?$fpos@H@std@@QBE_JXZ			; std::fpos<int>::operator __int64
PUBLIC	?tellg@?$basic_istream@DU?$char_traits@D@std@@@std@@QAE?AV?$fpos@H@2@XZ ; std::basic_istream<char,std::char_traits<char> >::tellg
PUBLIC	??_D?$basic_fstream@DU?$char_traits@D@std@@@std@@QAEXXZ ; std::basic_fstream<char,std::char_traits<char> >::`vbase destructor'
PUBLIC	?is_open@?$basic_fstream@DU?$char_traits@D@std@@@std@@QBE_NXZ ; std::basic_fstream<char,std::char_traits<char> >::is_open
PUBLIC	?clear@?$basic_ios@DU?$char_traits@D@std@@@std@@QAEXH_N@Z ; std::basic_ios<char,std::char_traits<char> >::clear
PUBLIC	??0?$basic_fstream@DU?$char_traits@D@std@@@std@@QAE@PBDHH@Z ; std::basic_fstream<char,std::char_traits<char> >::basic_fstream<char,std::char_traits<char> >
PUBLIC	?file_get_contents@@YAPADPBDPAH@Z		; file_get_contents
EXTRN	_memset:PROC
EXTRN	??_U@YAPAXI@Z:PROC				; operator new[]
EXTRN	___security_cookie:DWORD
EXTRN	___CxxFrameHandler3:PROC
EXTRN	@__security_check_cookie@4:PROC
EXTRN	@_RTC_CheckStackVars@8:PROC
;	COMDAT xdata$x
xdata$x	SEGMENT
__unwindtable$?file_get_contents@@YAPADPBDPAH@Z DD 0ffffffffH
	DD	FLAT:__unwindfunclet$?file_get_contents@@YAPADPBDPAH@Z$0
__ehfuncinfo$?file_get_contents@@YAPADPBDPAH@Z DD 019930522H
	DD	01H
	DD	FLAT:__unwindtable$?file_get_contents@@YAPADPBDPAH@Z
	DD	2 DUP(00H)
	DD	2 DUP(00H)
	DD	00H
	DD	01H
; Function compile flags: /Odtp /RTCsu /ZI
xdata$x	ENDS
;	COMDAT ?file_get_contents@@YAPADPBDPAH@Z
_TEXT	SEGMENT
$T36561 = -496						; size = 4
$T36562 = -484						; size = 24
$T36563 = -452						; size = 4
$T36564 = -440						; size = 4
$T36565 = -428						; size = 4
_content$ = -224					; size = 4
_size$ = -212						; size = 4
_f$ = -200						; size = 184
__$EHRec$ = -12						; size = 12
_file_path$ = 8						; size = 4
_ret_size$ = 12						; size = 4
?file_get_contents@@YAPADPBDPAH@Z PROC			; file_get_contents, COMDAT

; 66   : {

	push	ebp
	mov	ebp, esp
	push	-1
	push	__ehhandler$?file_get_contents@@YAPADPBDPAH@Z
	mov	eax, DWORD PTR fs:0
	push	eax
	sub	esp, 488				; 000001e8H
	push	ebx
	push	esi
	push	edi
	lea	edi, DWORD PTR [ebp-500]
	mov	ecx, 122				; 0000007aH
	mov	eax, -858993460				; ccccccccH
	rep stosd
	mov	eax, DWORD PTR ___security_cookie
	xor	eax, ebp
	push	eax
	lea	eax, DWORD PTR __$EHRec$[ebp]
	mov	DWORD PTR fs:0, eax

; 67   : 	fstream f(file_path, ios::in | ios::ate);

	push	1
	push	64					; 00000040H
	push	5
	mov	eax, DWORD PTR _file_path$[ebp]
	push	eax
	lea	ecx, DWORD PTR _f$[ebp]
	call	??0?$basic_fstream@DU?$char_traits@D@std@@@std@@QAE@PBDHH@Z ; std::basic_fstream<char,std::char_traits<char> >::basic_fstream<char,std::char_traits<char> >
	mov	DWORD PTR __$EHRec$[ebp+8], 0

; 68   : 	f.clear();

	push	0
	push	0
	mov	eax, DWORD PTR _f$[ebp]
	mov	ecx, DWORD PTR [eax+4]
	lea	ecx, DWORD PTR _f$[ebp+ecx]
	call	?clear@?$basic_ios@DU?$char_traits@D@std@@@std@@QAEXH_N@Z ; std::basic_ios<char,std::char_traits<char> >::clear

; 69   : 
; 70   : 	if (ret_size != nullptr)

	cmp	DWORD PTR _ret_size$[ebp], 0
	je	SHORT $LN4@file_get_c

; 71   : 	{
; 72   : 		*ret_size = 0;

	mov	eax, DWORD PTR _ret_size$[ebp]
	mov	DWORD PTR [eax], 0
$LN4@file_get_c:

; 73   : 	}
; 74   : 
; 75   : 	if ( ! f.is_open())

	lea	ecx, DWORD PTR _f$[ebp]
	call	?is_open@?$basic_fstream@DU?$char_traits@D@std@@@std@@QBE_NXZ ; std::basic_fstream<char,std::char_traits<char> >::is_open
	movzx	eax, al
	test	eax, eax
	jne	SHORT $LN3@file_get_c

; 76   : 	{
; 77   : 		return nullptr;

	mov	DWORD PTR $T36561[ebp], 0
	mov	DWORD PTR __$EHRec$[ebp+8], -1
	lea	ecx, DWORD PTR _f$[ebp]
	call	??_D?$basic_fstream@DU?$char_traits@D@std@@@std@@QAEXXZ
	mov	eax, DWORD PTR $T36561[ebp]
	jmp	$LN5@file_get_c
$LN3@file_get_c:

; 78   : 	}
; 79   : 
; 80   : 	int size = (int) f.tellg();

	lea	eax, DWORD PTR $T36562[ebp]
	push	eax
	lea	ecx, DWORD PTR _f$[ebp]
	call	?tellg@?$basic_istream@DU?$char_traits@D@std@@@std@@QAE?AV?$fpos@H@2@XZ ; std::basic_istream<char,std::char_traits<char> >::tellg
	mov	ecx, eax
	call	??B?$fpos@H@std@@QBE_JXZ		; std::fpos<int>::operator __int64
	mov	DWORD PTR _size$[ebp], eax

; 81   : 	f.seekg (0, ios::beg);

	push	0
	push	0
	push	0
	lea	ecx, DWORD PTR _f$[ebp]
	call	?seekg@?$basic_istream@DU?$char_traits@D@std@@@std@@QAEAAV12@_JH@Z ; std::basic_istream<char,std::char_traits<char> >::seekg

; 82   : 
; 83   : 	if (size <= 0)

	cmp	DWORD PTR _size$[ebp], 0
	jg	SHORT $LN2@file_get_c

; 84   : 	{
; 85   : 		return nullptr;

	mov	DWORD PTR $T36563[ebp], 0
	mov	DWORD PTR __$EHRec$[ebp+8], -1
	lea	ecx, DWORD PTR _f$[ebp]
	call	??_D?$basic_fstream@DU?$char_traits@D@std@@@std@@QAEXXZ
	mov	eax, DWORD PTR $T36563[ebp]
	jmp	$LN5@file_get_c
$LN2@file_get_c:

; 86   : 	}
; 87   : 
; 88   : 	char *content = new char[size];

	mov	eax, DWORD PTR _size$[ebp]
	push	eax
	call	??_U@YAPAXI@Z				; operator new[]
	add	esp, 4
	mov	DWORD PTR $T36564[ebp], eax
	mov	ecx, DWORD PTR $T36564[ebp]
	mov	DWORD PTR _content$[ebp], ecx

; 89   : 	memset(content, 0, size);

	mov	eax, DWORD PTR _size$[ebp]
	push	eax
	push	0
	mov	ecx, DWORD PTR _content$[ebp]
	push	ecx
	call	_memset
	add	esp, 12					; 0000000cH

; 90   : 
; 91   : 	f.read(content, size);

	mov	eax, DWORD PTR _size$[ebp]
	cdq
	push	edx
	push	eax
	mov	eax, DWORD PTR _content$[ebp]
	push	eax
	lea	ecx, DWORD PTR _f$[ebp]
	call	?read@?$basic_istream@DU?$char_traits@D@std@@@std@@QAEAAV12@PAD_J@Z ; std::basic_istream<char,std::char_traits<char> >::read

; 92   : 
; 93   : 	if (ret_size != nullptr)

	cmp	DWORD PTR _ret_size$[ebp], 0
	je	SHORT $LN1@file_get_c

; 94   : 	{
; 95   : 		*ret_size = size;

	mov	eax, DWORD PTR _ret_size$[ebp]
	mov	ecx, DWORD PTR _size$[ebp]
	mov	DWORD PTR [eax], ecx
$LN1@file_get_c:

; 96   : 	}
; 97   : 
; 98   : 	return content;

	mov	eax, DWORD PTR _content$[ebp]
	mov	DWORD PTR $T36565[ebp], eax
	mov	DWORD PTR __$EHRec$[ebp+8], -1
	lea	ecx, DWORD PTR _f$[ebp]
	call	??_D?$basic_fstream@DU?$char_traits@D@std@@@std@@QAEXXZ
	mov	eax, DWORD PTR $T36565[ebp]
$LN5@file_get_c:

; 99   : }

	push	edx
	mov	ecx, ebp
	push	eax
	lea	edx, DWORD PTR $LN11@file_get_c
	call	@_RTC_CheckStackVars@8
	pop	eax
	pop	edx
	mov	ecx, DWORD PTR __$EHRec$[ebp]
	mov	DWORD PTR fs:0, ecx
	pop	ecx
	pop	edi
	pop	esi
	pop	ebx
	add	esp, 500				; 000001f4H
	cmp	ebp, esp
	call	__RTC_CheckEsp
	mov	esp, ebp
	pop	ebp
	ret	0
	npad	1
$LN11@file_get_c:
	DD	1
	DD	$LN10@file_get_c
$LN10@file_get_c:
	DD	-200					; ffffff38H
	DD	184					; 000000b8H
	DD	$LN8@file_get_c
$LN8@file_get_c:
	DB	102					; 00000066H
	DB	0
_TEXT	ENDS
;	COMDAT text$x
text$x	SEGMENT
__unwindfunclet$?file_get_contents@@YAPADPBDPAH@Z$0:
	lea	ecx, DWORD PTR _f$[ebp]
	jmp	??_D?$basic_fstream@DU?$char_traits@D@std@@@std@@QAEXXZ
__ehhandler$?file_get_contents@@YAPADPBDPAH@Z:
	mov	edx, DWORD PTR [esp+8]
	lea	eax, DWORD PTR [edx+12]
	mov	ecx, DWORD PTR [edx-504]
	xor	ecx, eax
	call	@__security_check_cookie@4
	mov	eax, OFFSET __ehfuncinfo$?file_get_contents@@YAPADPBDPAH@Z
	jmp	___CxxFrameHandler3
text$x	ENDS
?file_get_contents@@YAPADPBDPAH@Z ENDP			; file_get_contents
PUBLIC	??1?$basic_ios@DU?$char_traits@D@std@@@std@@UAE@XZ ; std::basic_ios<char,std::char_traits<char> >::~basic_ios<char,std::char_traits<char> >
PUBLIC	??1?$basic_fstream@DU?$char_traits@D@std@@@std@@UAE@XZ ; std::basic_fstream<char,std::char_traits<char> >::~basic_fstream<char,std::char_traits<char> >
; Function compile flags: /Odtp /RTCsu /ZI
;	COMDAT ??_D?$basic_fstream@DU?$char_traits@D@std@@@std@@QAEXXZ
_TEXT	SEGMENT
_this$ = -8						; size = 4
??_D?$basic_fstream@DU?$char_traits@D@std@@@std@@QAEXXZ PROC ; std::basic_fstream<char,std::char_traits<char> >::`vbase destructor', COMDAT
; _this$ = ecx
	push	ebp
	mov	ebp, esp
	sub	esp, 204				; 000000ccH
	push	ebx
	push	esi
	push	edi
	push	ecx
	lea	edi, DWORD PTR [ebp-204]
	mov	ecx, 51					; 00000033H
	mov	eax, -858993460				; ccccccccH
	rep stosd
	pop	ecx
	mov	DWORD PTR _this$[ebp], ecx
	mov	ecx, DWORD PTR _this$[ebp]
	add	ecx, 112				; 00000070H
	call	??1?$basic_fstream@DU?$char_traits@D@std@@@std@@UAE@XZ ; std::basic_fstream<char,std::char_traits<char> >::~basic_fstream<char,std::char_traits<char> >
	mov	ecx, DWORD PTR _this$[ebp]
	add	ecx, 112				; 00000070H
	call	??1?$basic_ios@DU?$char_traits@D@std@@@std@@UAE@XZ ; std::basic_ios<char,std::char_traits<char> >::~basic_ios<char,std::char_traits<char> >
	pop	edi
	pop	esi
	pop	ebx
	add	esp, 204				; 000000ccH
	cmp	ebp, esp
	call	__RTC_CheckEsp
	mov	esp, ebp
	pop	ebp
	ret	0
??_D?$basic_fstream@DU?$char_traits@D@std@@@std@@QAEXXZ ENDP ; std::basic_fstream<char,std::char_traits<char> >::`vbase destructor'
_TEXT	ENDS
PUBLIC	?close@?$basic_fstream@DU?$char_traits@D@std@@@std@@QAEXXZ ; std::basic_fstream<char,std::char_traits<char> >::close
PUBLIC	?write@?$basic_ostream@DU?$char_traits@D@std@@@std@@QAEAAV12@PBD_J@Z ; std::basic_ostream<char,std::char_traits<char> >::write
PUBLIC	?open@?$basic_fstream@DU?$char_traits@D@std@@@std@@QAEXPBDHH@Z ; std::basic_fstream<char,std::char_traits<char> >::open
PUBLIC	?file_put_contents@@YA_NPBDPAD_J@Z		; file_put_contents
EXTRN	_strlen:PROC
;	COMDAT xdata$x
xdata$x	SEGMENT
__unwindtable$?file_put_contents@@YA_NPBDPAD_J@Z DD 0ffffffffH
	DD	FLAT:__unwindfunclet$?file_put_contents@@YA_NPBDPAD_J@Z$0
__ehfuncinfo$?file_put_contents@@YA_NPBDPAD_J@Z DD 019930522H
	DD	01H
	DD	FLAT:__unwindtable$?file_put_contents@@YA_NPBDPAD_J@Z
	DD	2 DUP(00H)
	DD	2 DUP(00H)
	DD	00H
	DD	01H
; Function compile flags: /Odtp /RTCsu /ZI
xdata$x	ENDS
;	COMDAT ?file_put_contents@@YA_NPBDPAD_J@Z
_TEXT	SEGMENT
$T36586 = -413						; size = 1
$T36587 = -401						; size = 1
_f$ = -200						; size = 184
__$EHRec$ = -12						; size = 12
_file_path$ = 8						; size = 4
_data$ = 12						; size = 4
_size$ = 16						; size = 8
?file_put_contents@@YA_NPBDPAD_J@Z PROC			; file_put_contents, COMDAT

; 102  : {

	push	ebp
	mov	ebp, esp
	push	-1
	push	__ehhandler$?file_put_contents@@YA_NPBDPAD_J@Z
	mov	eax, DWORD PTR fs:0
	push	eax
	sub	esp, 408				; 00000198H
	push	ebx
	push	esi
	push	edi
	lea	edi, DWORD PTR [ebp-420]
	mov	ecx, 102				; 00000066H
	mov	eax, -858993460				; ccccccccH
	rep stosd
	mov	eax, DWORD PTR ___security_cookie
	xor	eax, ebp
	push	eax
	lea	eax, DWORD PTR __$EHRec$[ebp]
	mov	DWORD PTR fs:0, eax

; 103  : 	fstream f(file_path, ios::out | ios::trunc);

	push	1
	push	64					; 00000040H
	push	18					; 00000012H
	mov	eax, DWORD PTR _file_path$[ebp]
	push	eax
	lea	ecx, DWORD PTR _f$[ebp]
	call	??0?$basic_fstream@DU?$char_traits@D@std@@@std@@QAE@PBDHH@Z ; std::basic_fstream<char,std::char_traits<char> >::basic_fstream<char,std::char_traits<char> >
	mov	DWORD PTR __$EHRec$[ebp+8], 0

; 104  : 	f.open(file_path);

	push	64					; 00000040H
	push	3
	mov	eax, DWORD PTR _file_path$[ebp]
	push	eax
	lea	ecx, DWORD PTR _f$[ebp]
	call	?open@?$basic_fstream@DU?$char_traits@D@std@@@std@@QAEXPBDHH@Z ; std::basic_fstream<char,std::char_traits<char> >::open

; 105  : 	f.clear();

	push	0
	push	0
	mov	eax, DWORD PTR _f$[ebp]
	mov	ecx, DWORD PTR [eax+4]
	lea	ecx, DWORD PTR _f$[ebp+ecx]
	call	?clear@?$basic_ios@DU?$char_traits@D@std@@@std@@QAEXH_N@Z ; std::basic_ios<char,std::char_traits<char> >::clear

; 106  : 
; 107  : 	if ( ! f.is_open())

	lea	ecx, DWORD PTR _f$[ebp]
	call	?is_open@?$basic_fstream@DU?$char_traits@D@std@@@std@@QBE_NXZ ; std::basic_fstream<char,std::char_traits<char> >::is_open
	movzx	eax, al
	test	eax, eax
	jne	SHORT $LN2@file_put_c

; 108  : 	{
; 109  : 		return false;

	mov	BYTE PTR $T36586[ebp], 0
	mov	DWORD PTR __$EHRec$[ebp+8], -1
	lea	ecx, DWORD PTR _f$[ebp]
	call	??_D?$basic_fstream@DU?$char_traits@D@std@@@std@@QAEXXZ
	mov	al, BYTE PTR $T36586[ebp]
	jmp	SHORT $LN3@file_put_c
$LN2@file_put_c:

; 110  : 	}
; 111  : 
; 112  : 	if (size < streamsize(-1))

	cmp	DWORD PTR _size$[ebp+4], -1
	jg	SHORT $LN1@file_put_c
	jl	SHORT $LN6@file_put_c
	cmp	DWORD PTR _size$[ebp], -1
	jae	SHORT $LN1@file_put_c
$LN6@file_put_c:

; 113  : 	{
; 114  : 		size = strlen(data);

	mov	eax, DWORD PTR _data$[ebp]
	push	eax
	call	_strlen
	add	esp, 4
	xor	ecx, ecx
	mov	DWORD PTR _size$[ebp], eax
	mov	DWORD PTR _size$[ebp+4], ecx
$LN1@file_put_c:

; 115  : 	}
; 116  : 
; 117  : 	f.write(data, size);

	mov	eax, DWORD PTR _size$[ebp+4]
	push	eax
	mov	ecx, DWORD PTR _size$[ebp]
	push	ecx
	mov	edx, DWORD PTR _data$[ebp]
	push	edx
	lea	ecx, DWORD PTR _f$[ebp+16]
	call	?write@?$basic_ostream@DU?$char_traits@D@std@@@std@@QAEAAV12@PBD_J@Z ; std::basic_ostream<char,std::char_traits<char> >::write

; 118  : 
; 119  : 	f.close();

	lea	ecx, DWORD PTR _f$[ebp]
	call	?close@?$basic_fstream@DU?$char_traits@D@std@@@std@@QAEXXZ ; std::basic_fstream<char,std::char_traits<char> >::close

; 120  : 
; 121  : 	return true;

	mov	BYTE PTR $T36587[ebp], 1
	mov	DWORD PTR __$EHRec$[ebp+8], -1
	lea	ecx, DWORD PTR _f$[ebp]
	call	??_D?$basic_fstream@DU?$char_traits@D@std@@@std@@QAEXXZ
	mov	al, BYTE PTR $T36587[ebp]
$LN3@file_put_c:

; 122  : }

	push	edx
	mov	ecx, ebp
	push	eax
	lea	edx, DWORD PTR $LN10@file_put_c
	call	@_RTC_CheckStackVars@8
	pop	eax
	pop	edx
	mov	ecx, DWORD PTR __$EHRec$[ebp]
	mov	DWORD PTR fs:0, ecx
	pop	ecx
	pop	edi
	pop	esi
	pop	ebx
	add	esp, 420				; 000001a4H
	cmp	ebp, esp
	call	__RTC_CheckEsp
	mov	esp, ebp
	pop	ebp
	ret	0
	npad	1
$LN10@file_put_c:
	DD	1
	DD	$LN9@file_put_c
$LN9@file_put_c:
	DD	-200					; ffffff38H
	DD	184					; 000000b8H
	DD	$LN7@file_put_c
$LN7@file_put_c:
	DB	102					; 00000066H
	DB	0
_TEXT	ENDS
;	COMDAT text$x
text$x	SEGMENT
__unwindfunclet$?file_put_contents@@YA_NPBDPAD_J@Z$0:
	lea	ecx, DWORD PTR _f$[ebp]
	jmp	??_D?$basic_fstream@DU?$char_traits@D@std@@@std@@QAEXXZ
__ehhandler$?file_put_contents@@YA_NPBDPAD_J@Z:
	mov	edx, DWORD PTR [esp+8]
	lea	eax, DWORD PTR [edx+12]
	mov	ecx, DWORD PTR [edx-424]
	xor	ecx, eax
	call	@__security_check_cookie@4
	mov	eax, OFFSET __ehfuncinfo$?file_put_contents@@YA_NPBDPAD_J@Z
	jmp	___CxxFrameHandler3
text$x	ENDS
?file_put_contents@@YA_NPBDPAD_J@Z ENDP			; file_put_contents
PUBLIC	??_C@_0CM@DELDPDPF@Error?3?5failed?5to?5create?5program?5@ ; `string'
PUBLIC	??_C@_0P@GJLBDKA@Build?5log?3?6?$CFs?6?$AA@	; `string'
PUBLIC	??_C@_0CN@BGPKGJHL@?9cl?9mad?9enable?5?9cl?9unsafe?9math?9o@ ; `string'
PUBLIC	??_C@_0CJ@FJBOGDEN@Error?3?5failed?5to?5create?5compute?5@ ; `string'
PUBLIC	??1?$basic_string@DU?$char_traits@D@std@@V?$allocator@D@2@@std@@QAE@XZ ; std::basic_string<char,std::char_traits<char>,std::allocator<char> >::~basic_string<char,std::char_traits<char>,std::allocator<char> >
PUBLIC	?c_str@?$basic_string@DU?$char_traits@D@std@@V?$allocator@D@2@@std@@QBEPBDXZ ; std::basic_string<char,std::char_traits<char>,std::allocator<char> >::c_str
PUBLIC	?append@?$basic_string@DU?$char_traits@D@std@@V?$allocator@D@2@@std@@QAEAAV12@PBD@Z ; std::basic_string<char,std::char_traits<char>,std::allocator<char> >::append
PUBLIC	?reserve@?$basic_string@DU?$char_traits@D@std@@V?$allocator@D@2@@std@@QAEXI@Z ; std::basic_string<char,std::char_traits<char>,std::allocator<char> >::reserve
PUBLIC	??0?$basic_string@DU?$char_traits@D@std@@V?$allocator@D@2@@std@@QAE@XZ ; std::basic_string<char,std::char_traits<char>,std::allocator<char> >::basic_string<char,std::char_traits<char>,std::allocator<char> >
PUBLIC	??_C@_0BA@MPFLPHGI@?6?1?1?5time?$CI?$CJ?5?$DN?5?$CFu?$AA@ ; `string'
PUBLIC	??_C@_0CO@NINDEDDL@Error?3?5failed?5to?5load?5source?5pro@ ; `string'
PUBLIC	??Y?$basic_string@DU?$char_traits@D@std@@V?$allocator@D@2@@std@@QAEAAV01@PBD@Z ; std::basic_string<char,std::char_traits<char>,std::allocator<char> >::operator+=
PUBLIC	??_C@_07GAFKKPGM@?4cached?$AA@			; `string'
PUBLIC	??0?$basic_string@DU?$char_traits@D@std@@V?$allocator@D@2@@std@@QAE@PBD@Z ; std::basic_string<char,std::char_traits<char>,std::allocator<char> >::basic_string<char,std::char_traits<char>,std::allocator<char> >
PUBLIC	??_C@_0CJ@CDIEGNMJ@Error?3?5failed?5to?5create?5a?5comman@ ; `string'
PUBLIC	??_C@_0CL@GFFLIIBK@Error?3?5failed?5to?5create?5a?5comput@ ; `string'
PUBLIC	??_C@_0CA@JGBMOJJG@Error?3?5could?5not?5get?5device?5id?6?$AA@ ; `string'
PUBLIC	??_C@_0CO@IBFBJMIF@Warning?3?5no?5GPU?5support?0?5falling@ ; `string'
PUBLIC	??_C@_0CM@DGFADCLC@Error?3?5could?5not?5connect?5to?5comp@ ; `string'
PUBLIC	__$ArrayPad$
PUBLIC	?cl_build_program@@YA_N_N@Z			; cl_build_program
EXTRN	_clGetProgramBuildInfo@24:PROC
EXTRN	_clBuildProgram@24:PROC
EXTRN	??_V@YAXPAX@Z:PROC				; operator delete[]
EXTRN	_clCreateProgramWithSource@20:PROC
EXTRN	_sprintf_s:PROC
EXTRN	_clCreateCommandQueue@20:PROC
EXTRN	_clCreateContext@24:PROC
EXTRN	_clGetDeviceIDs@24:PROC
EXTRN	_clGetPlatformIDs@12:PROC
EXTRN	__chkstk:PROC
;	COMDAT ??_C@_0CM@DELDPDPF@Error?3?5failed?5to?5create?5program?5@
CONST	SEGMENT
??_C@_0CM@DELDPDPF@Error?3?5failed?5to?5create?5program?5@ DB 'Error: fai'
	DB	'led to create program executable', 0aH, 00H	; `string'
CONST	ENDS
;	COMDAT ??_C@_0P@GJLBDKA@Build?5log?3?6?$CFs?6?$AA@
CONST	SEGMENT
??_C@_0P@GJLBDKA@Build?5log?3?6?$CFs?6?$AA@ DB 'Build log:', 0aH, '%s', 0aH
	DB	00H						; `string'
CONST	ENDS
;	COMDAT ??_C@_0CN@BGPKGJHL@?9cl?9mad?9enable?5?9cl?9unsafe?9math?9o@
CONST	SEGMENT
??_C@_0CN@BGPKGJHL@?9cl?9mad?9enable?5?9cl?9unsafe?9math?9o@ DB '-cl-mad-'
	DB	'enable -cl-unsafe-math-optimizations', 00H	; `string'
CONST	ENDS
;	COMDAT ??_C@_0CJ@FJBOGDEN@Error?3?5failed?5to?5create?5compute?5@
CONST	SEGMENT
??_C@_0CJ@FJBOGDEN@Error?3?5failed?5to?5create?5compute?5@ DB 'Error: fai'
	DB	'led to create compute program', 0aH, 00H	; `string'
CONST	ENDS
;	COMDAT ??_C@_0BA@MPFLPHGI@?6?1?1?5time?$CI?$CJ?5?$DN?5?$CFu?$AA@
CONST	SEGMENT
??_C@_0BA@MPFLPHGI@?6?1?1?5time?$CI?$CJ?5?$DN?5?$CFu?$AA@ DB 0aH, '// tim'
	DB	'e() = %u', 00H				; `string'
CONST	ENDS
;	COMDAT ??_C@_0CO@NINDEDDL@Error?3?5failed?5to?5load?5source?5pro@
CONST	SEGMENT
??_C@_0CO@NINDEDDL@Error?3?5failed?5to?5load?5source?5pro@ DB 'Error: fai'
	DB	'led to load source program from %s', 0aH, 00H ; `string'
CONST	ENDS
;	COMDAT ??_C@_07GAFKKPGM@?4cached?$AA@
CONST	SEGMENT
??_C@_07GAFKKPGM@?4cached?$AA@ DB '.cached', 00H	; `string'
CONST	ENDS
;	COMDAT ??_C@_0CJ@CDIEGNMJ@Error?3?5failed?5to?5create?5a?5comman@
CONST	SEGMENT
??_C@_0CJ@CDIEGNMJ@Error?3?5failed?5to?5create?5a?5comman@ DB 'Error: fai'
	DB	'led to create a command queue', 0aH, 00H	; `string'
CONST	ENDS
;	COMDAT ??_C@_0CL@GFFLIIBK@Error?3?5failed?5to?5create?5a?5comput@
CONST	SEGMENT
??_C@_0CL@GFFLIIBK@Error?3?5failed?5to?5create?5a?5comput@ DB 'Error: fai'
	DB	'led to create a compute context', 0aH, 00H	; `string'
CONST	ENDS
;	COMDAT ??_C@_0CA@JGBMOJJG@Error?3?5could?5not?5get?5device?5id?6?$AA@
CONST	SEGMENT
??_C@_0CA@JGBMOJJG@Error?3?5could?5not?5get?5device?5id?6?$AA@ DB 'Error:'
	DB	' could not get device id', 0aH, 00H		; `string'
CONST	ENDS
;	COMDAT ??_C@_0CO@IBFBJMIF@Warning?3?5no?5GPU?5support?0?5falling@
CONST	SEGMENT
??_C@_0CO@IBFBJMIF@Warning?3?5no?5GPU?5support?0?5falling@ DB 'Warning: n'
	DB	'o GPU support, falling back to CPU', 0aH, 00H ; `string'
CONST	ENDS
;	COMDAT ??_C@_0CM@DGFADCLC@Error?3?5could?5not?5connect?5to?5comp@
CONST	SEGMENT
??_C@_0CM@DGFADCLC@Error?3?5could?5not?5connect?5to?5comp@ DB 'Error: cou'
	DB	'ld not connect to compute device', 0aH, 00H	; `string'
CONST	ENDS
;	COMDAT xdata$x
xdata$x	SEGMENT
__unwindtable$?cl_build_program@@YA_N_N@Z DD 0ffffffffH
	DD	FLAT:__unwindfunclet$?cl_build_program@@YA_N_N@Z$0
	DD	00H
	DD	FLAT:__unwindfunclet$?cl_build_program@@YA_N_N@Z$1
__ehfuncinfo$?cl_build_program@@YA_N_N@Z DD 019930522H
	DD	02H
	DD	FLAT:__unwindtable$?cl_build_program@@YA_N_N@Z
	DD	2 DUP(00H)
	DD	2 DUP(00H)
	DD	00H
	DD	01H
; Function compile flags: /Odtp /RTCsu /ZI
xdata$x	ENDS
;	COMDAT ?cl_build_program@@YA_N_N@Z
_TEXT	SEGMENT
$T36602 = -10748					; size = 4
$T36603 = -10733					; size = 1
$T36604 = -10721					; size = 1
$T36605 = -10709					; size = 1
_buffer_ptr$ = -10508					; size = 4
_buffer$ = -10496					; size = 10240
_len$ = -248						; size = 4
_options$ = -236					; size = 4
_source_ptr$31933 = -224				; size = 4
_source_footer$31932 = -212				; size = 32
_footer_str$31930 = -172				; size = 64
_cached_source_path$ = -100				; size = 32
_cache_program$ = -57					; size = 1
_source_str$ = -48					; size = 4
_source_size$ = -36					; size = 4
_cl_print_error$ = -24					; size = 4
__$ArrayPad$ = -16					; size = 4
__$EHRec$ = -12						; size = 12
_silent$ = 8						; size = 1
?cl_build_program@@YA_N_N@Z PROC			; cl_build_program, COMDAT

; 125  : {

	push	ebp
	mov	ebp, esp
	push	-1
	push	__ehhandler$?cl_build_program@@YA_N_N@Z
	mov	eax, DWORD PTR fs:0
	push	eax
	mov	eax, 10740				; 000029f4H
	call	__chkstk
	push	ebx
	push	esi
	push	edi
	lea	edi, DWORD PTR [ebp-10752]
	mov	ecx, 2685				; 00000a7dH
	mov	eax, -858993460				; ccccccccH
	rep stosd
	mov	eax, DWORD PTR ___security_cookie
	xor	eax, ebp
	mov	DWORD PTR __$ArrayPad$[ebp], eax
	push	eax
	lea	eax, DWORD PTR __$EHRec$[ebp]
	mov	DWORD PTR fs:0, eax

; 126  : 	auto cl_print_error = ::cl_print_error;

	mov	DWORD PTR _cl_print_error$[ebp], OFFSET ?cl_print_error@@YAXHPBDZZ ; cl_print_error

; 127  : 	if (silent)

	movzx	eax, BYTE PTR _silent$[ebp]
	test	eax, eax
	je	SHORT $LN17@cl_build_p

; 128  : 	{
; 129  : 		cl_print_error = cl_print_error_silent;

	mov	DWORD PTR _cl_print_error$[ebp], OFFSET ?cl_print_error_silent@@YAXHPBDZZ ; cl_print_error_silent
$LN17@cl_build_p:

; 130  : 	}
; 131  : 
; 132  : 	err = clGetPlatformIDs(1, &platform_id, NULL);

	push	0
	push	OFFSET _platform_id
	push	1
	call	_clGetPlatformIDs@12
	mov	DWORD PTR _err, eax

; 133  : 	if (err != CL_SUCCESS) {

	cmp	DWORD PTR _err, 0
	je	SHORT $LN16@cl_build_p

; 134  : 		cl_print_error(err, "Error: could not connect to compute device\n");

	mov	esi, esp
	push	OFFSET ??_C@_0CM@DGFADCLC@Error?3?5could?5not?5connect?5to?5comp@
	mov	eax, DWORD PTR _err
	push	eax
	call	DWORD PTR _cl_print_error$[ebp]
	add	esp, 8
	cmp	esi, esp
	call	__RTC_CheckEsp

; 135  : 		return false;

	xor	al, al
	jmp	$LN18@cl_build_p
$LN16@cl_build_p:

; 136  : 	}
; 137  : 
; 138  : 	// Get a device of the appropriate type
; 139  : 	err = clGetDeviceIDs(platform_id, CL_DEVICE_TYPE_GPU, 1, &device_id, NULL);

	push	0
	push	OFFSET _device_id
	push	1
	push	0
	push	4
	mov	eax, DWORD PTR _platform_id
	push	eax
	call	_clGetDeviceIDs@24
	mov	DWORD PTR _err, eax

; 140  : 
; 141  : 	if (err != CL_SUCCESS) {

	cmp	DWORD PTR _err, 0
	je	SHORT $LN15@cl_build_p

; 142  : 		printf("Warning: no GPU support, falling back to CPU\n");

	push	OFFSET ??_C@_0CO@IBFBJMIF@Warning?3?5no?5GPU?5support?0?5falling@
	call	_printf
	add	esp, 4

; 143  : 
; 144  : 		err = clGetDeviceIDs(platform_id, CL_DEVICE_TYPE_CPU, 1, &device_id,
; 145  : 		                     NULL);

	push	0
	push	OFFSET _device_id
	push	1
	push	0
	push	2
	mov	eax, DWORD PTR _platform_id
	push	eax
	call	_clGetDeviceIDs@24
	mov	DWORD PTR _err, eax
$LN15@cl_build_p:

; 146  : 	}
; 147  : 
; 148  : 	if ( ! device_id) {

	cmp	DWORD PTR _device_id, 0
	jne	SHORT $LN14@cl_build_p

; 149  : 		cl_print_error(err, "Error: could not get device id\n");

	mov	esi, esp
	push	OFFSET ??_C@_0CA@JGBMOJJG@Error?3?5could?5not?5get?5device?5id?6?$AA@
	mov	eax, DWORD PTR _err
	push	eax
	call	DWORD PTR _cl_print_error$[ebp]
	add	esp, 8
	cmp	esi, esp
	call	__RTC_CheckEsp

; 150  : 		return false;

	xor	al, al
	jmp	$LN18@cl_build_p
$LN14@cl_build_p:

; 151  : 	}
; 152  : 
; 153  : 	// Create a compute context
; 154  : 	context = clCreateContext(0, 1, &device_id, NULL, NULL, &err);

	push	OFFSET _err
	push	0
	push	0
	push	OFFSET _device_id
	push	1
	push	0
	call	_clCreateContext@24
	mov	DWORD PTR _context, eax

; 155  : 	if ( ! context || err != CL_SUCCESS) {

	cmp	DWORD PTR _context, 0
	je	SHORT $LN12@cl_build_p
	cmp	DWORD PTR _err, 0
	je	SHORT $LN13@cl_build_p
$LN12@cl_build_p:

; 156  : 		cl_print_error(err, "Error: failed to create a compute context\n");

	mov	esi, esp
	push	OFFSET ??_C@_0CL@GFFLIIBK@Error?3?5failed?5to?5create?5a?5comput@
	mov	eax, DWORD PTR _err
	push	eax
	call	DWORD PTR _cl_print_error$[ebp]
	add	esp, 8
	cmp	esi, esp
	call	__RTC_CheckEsp

; 157  : 		return false;

	xor	al, al
	jmp	$LN18@cl_build_p
$LN13@cl_build_p:

; 158  : 	}
; 159  : 
; 160  : 	// Create a command queue
; 161  : 	queue = clCreateCommandQueue(context, device_id, 0, &err);

	push	OFFSET _err
	push	0
	push	0
	mov	eax, DWORD PTR _device_id
	push	eax
	mov	ecx, DWORD PTR _context
	push	ecx
	call	_clCreateCommandQueue@20
	mov	DWORD PTR _queue, eax

; 162  : 	if ( ! queue || err != CL_SUCCESS) {

	cmp	DWORD PTR _queue, 0
	je	SHORT $LN10@cl_build_p
	cmp	DWORD PTR _err, 0
	je	SHORT $LN11@cl_build_p
$LN10@cl_build_p:

; 163  : 		cl_print_error(err, "Error: failed to create a command queue\n");

	mov	esi, esp
	push	OFFSET ??_C@_0CJ@CDIEGNMJ@Error?3?5failed?5to?5create?5a?5comman@
	mov	eax, DWORD PTR _err
	push	eax
	call	DWORD PTR _cl_print_error$[ebp]
	add	esp, 8
	cmp	esi, esp
	call	__RTC_CheckEsp

; 164  : 		return false;

	xor	al, al
	jmp	$LN18@cl_build_p
$LN11@cl_build_p:

; 165  : 	}
; 166  : 
; 167  : 	int source_size = 0;

	mov	DWORD PTR _source_size$[ebp], 0

; 168  : 	char *source_str = nullptr;

	mov	DWORD PTR _source_str$[ebp], 0

; 169  : 	bool cache_program = true;

	mov	BYTE PTR _cache_program$[ebp], 1

; 170  : 	string cached_source_path = source_path;

	mov	eax, DWORD PTR _source_path
	push	eax
	lea	ecx, DWORD PTR _cached_source_path$[ebp]
	call	??0?$basic_string@DU?$char_traits@D@std@@V?$allocator@D@2@@std@@QAE@PBD@Z ; std::basic_string<char,std::char_traits<char>,std::allocator<char> >::basic_string<char,std::char_traits<char>,std::allocator<char> >
	mov	DWORD PTR __$EHRec$[ebp+8], 0

; 171  : 	cached_source_path += ".cached";

	push	OFFSET ??_C@_07GAFKKPGM@?4cached?$AA@
	lea	ecx, DWORD PTR _cached_source_path$[ebp]
	call	??Y?$basic_string@DU?$char_traits@D@std@@V?$allocator@D@2@@std@@QAEAAV01@PBD@Z ; std::basic_string<char,std::char_traits<char>,std::allocator<char> >::operator+=

; 172  : 
; 173  : #ifdef ENABLE_CACHING
; 174  : 	source_str = file_get_contents(cached_source_path.c_str(), &source_size);
; 175  : 
; 176  : 	if (source_str != nullptr && source_size != 0)
; 177  : 	{
; 178  : 		program = clCreateProgramWithBinary(context, 1, &device_id, (const size_t *) &source_size, (const unsigned char **) &source_str, NULL, &err);
; 179  : 
; 180  : 		if ( ! program || err != CL_SUCCESS)
; 181  : 		{
; 182  : 			printf("Warning: failed to create compute program from binary\n");
; 183  : 			program = nullptr;
; 184  : 		}
; 185  : 		else
; 186  : 		{
; 187  : 			printf("Info: program loaded from cached binary\n");
; 188  : 			cache_program = false;
; 189  : 		}
; 190  : 
; 191  : 		delete[] source_str;
; 192  : 	}
; 193  : #endif
; 194  : 
; 195  : 	if (program == nullptr)

	cmp	DWORD PTR _program, 0
	jne	$LN9@cl_build_p

; 196  : 	{
; 197  : 		source_str = file_get_contents(source_path, &source_size);

	lea	eax, DWORD PTR _source_size$[ebp]
	push	eax
	mov	ecx, DWORD PTR _source_path
	push	ecx
	call	?file_get_contents@@YAPADPBDPAH@Z	; file_get_contents
	add	esp, 8
	mov	DWORD PTR _source_str$[ebp], eax

; 198  : 
; 199  : 		if (source_str == nullptr)

	cmp	DWORD PTR _source_str$[ebp], 0
	jne	SHORT $LN8@cl_build_p

; 200  : 		{
; 201  : 			cl_print_error(NULL, "Error: failed to load source program from %s\n", source_path);

	mov	esi, esp
	mov	eax, DWORD PTR _source_path
	push	eax
	push	OFFSET ??_C@_0CO@NINDEDDL@Error?3?5failed?5to?5load?5source?5pro@
	push	0
	call	DWORD PTR _cl_print_error$[ebp]
	add	esp, 12					; 0000000cH
	cmp	esi, esp
	call	__RTC_CheckEsp
$LN8@cl_build_p:

; 202  : 		}
; 203  : 		
; 204  : 		char footer_str[64];
; 205  : 		sprintf_s(footer_str, 64, "\n// time() = %u", time(NULL));

	push	0
	call	_time
	add	esp, 4
	push	edx
	push	eax
	push	OFFSET ??_C@_0BA@MPFLPHGI@?6?1?1?5time?$CI?$CJ?5?$DN?5?$CFu?$AA@
	push	64					; 00000040H
	lea	eax, DWORD PTR _footer_str$31930[ebp]
	push	eax
	call	_sprintf_s
	add	esp, 20					; 00000014H

; 206  : 
; 207  : 		string source_footer;

	lea	ecx, DWORD PTR _source_footer$31932[ebp]
	call	??0?$basic_string@DU?$char_traits@D@std@@V?$allocator@D@2@@std@@QAE@XZ ; std::basic_string<char,std::char_traits<char>,std::allocator<char> >::basic_string<char,std::char_traits<char>,std::allocator<char> >
	mov	BYTE PTR __$EHRec$[ebp+8], 1

; 208  : 		source_footer.reserve(source_size + 64);

	mov	eax, DWORD PTR _source_size$[ebp]
	add	eax, 64					; 00000040H
	push	eax
	lea	ecx, DWORD PTR _source_footer$31932[ebp]
	call	?reserve@?$basic_string@DU?$char_traits@D@std@@V?$allocator@D@2@@std@@QAEXI@Z ; std::basic_string<char,std::char_traits<char>,std::allocator<char> >::reserve

; 209  : 		source_footer.append(source_str).append(footer_str);

	lea	eax, DWORD PTR _footer_str$31930[ebp]
	push	eax
	mov	ecx, DWORD PTR _source_str$[ebp]
	push	ecx
	lea	ecx, DWORD PTR _source_footer$31932[ebp]
	call	?append@?$basic_string@DU?$char_traits@D@std@@V?$allocator@D@2@@std@@QAEAAV12@PBD@Z ; std::basic_string<char,std::char_traits<char>,std::allocator<char> >::append
	mov	ecx, eax
	call	?append@?$basic_string@DU?$char_traits@D@std@@V?$allocator@D@2@@std@@QAEAAV12@PBD@Z ; std::basic_string<char,std::char_traits<char>,std::allocator<char> >::append

; 210  : 
; 211  : 		const char *source_ptr = source_footer.c_str();

	lea	ecx, DWORD PTR _source_footer$31932[ebp]
	call	?c_str@?$basic_string@DU?$char_traits@D@std@@V?$allocator@D@2@@std@@QBEPBDXZ ; std::basic_string<char,std::char_traits<char>,std::allocator<char> >::c_str
	mov	DWORD PTR _source_ptr$31933[ebp], eax

; 212  : 
; 213  : 		program = clCreateProgramWithSource(context, 1, &source_ptr, NULL, &err);

	push	OFFSET _err
	push	0
	lea	eax, DWORD PTR _source_ptr$31933[ebp]
	push	eax
	push	1
	mov	ecx, DWORD PTR _context
	push	ecx
	call	_clCreateProgramWithSource@20
	mov	DWORD PTR _program, eax

; 214  : 
; 215  : 		delete[] source_str;

	mov	eax, DWORD PTR _source_str$[ebp]
	mov	DWORD PTR $T36602[ebp], eax
	mov	ecx, DWORD PTR $T36602[ebp]
	push	ecx
	call	??_V@YAXPAX@Z				; operator delete[]
	add	esp, 4

; 216  : 	}

	mov	BYTE PTR __$EHRec$[ebp+8], 0
	lea	ecx, DWORD PTR _source_footer$31932[ebp]
	call	??1?$basic_string@DU?$char_traits@D@std@@V?$allocator@D@2@@std@@QAE@XZ ; std::basic_string<char,std::char_traits<char>,std::allocator<char> >::~basic_string<char,std::char_traits<char>,std::allocator<char> >
$LN9@cl_build_p:

; 217  : 	
; 218  : 	if ( ! program || err != CL_SUCCESS)

	cmp	DWORD PTR _program, 0
	je	SHORT $LN6@cl_build_p
	cmp	DWORD PTR _err, 0
	je	SHORT $LN7@cl_build_p
$LN6@cl_build_p:

; 219  : 	{
; 220  : 		cl_print_error(err, "Error: failed to create compute program\n");

	mov	esi, esp
	push	OFFSET ??_C@_0CJ@FJBOGDEN@Error?3?5failed?5to?5create?5compute?5@
	mov	eax, DWORD PTR _err
	push	eax
	call	DWORD PTR _cl_print_error$[ebp]
	add	esp, 8
	cmp	esi, esp
	call	__RTC_CheckEsp

; 221  : 		return false;

	mov	BYTE PTR $T36603[ebp], 0
	mov	DWORD PTR __$EHRec$[ebp+8], -1
	lea	ecx, DWORD PTR _cached_source_path$[ebp]
	call	??1?$basic_string@DU?$char_traits@D@std@@V?$allocator@D@2@@std@@QAE@XZ ; std::basic_string<char,std::char_traits<char>,std::allocator<char> >::~basic_string<char,std::char_traits<char>,std::allocator<char> >
	mov	al, BYTE PTR $T36603[ebp]
	jmp	$LN18@cl_build_p
$LN7@cl_build_p:

; 222  : 	}
; 223  : 
; 224  : 	const char *options = "-cl-mad-enable -cl-unsafe-math-optimizations";

	mov	DWORD PTR _options$[ebp], OFFSET ??_C@_0CN@BGPKGJHL@?9cl?9mad?9enable?5?9cl?9unsafe?9math?9o@

; 225  : 
; 226  : 	err = clBuildProgram(program, 0, NULL, options, NULL, NULL);

	push	0
	push	0
	mov	eax, DWORD PTR _options$[ebp]
	push	eax
	push	0
	push	0
	mov	ecx, DWORD PTR _program
	push	ecx
	call	_clBuildProgram@24
	mov	DWORD PTR _err, eax

; 227  : 	size_t len;
; 228  : 	char buffer[1024 * 10]; // error message buffer, 10 KiB
; 229  : 	char *buffer_ptr = buffer;

	lea	eax, DWORD PTR _buffer$[ebp]
	mov	DWORD PTR _buffer_ptr$[ebp], eax

; 230  : 
; 231  : 	clGetProgramBuildInfo(program, device_id, CL_PROGRAM_BUILD_LOG, sizeof(buffer), buffer, &len);

	lea	eax, DWORD PTR _len$[ebp]
	push	eax
	lea	ecx, DWORD PTR _buffer$[ebp]
	push	ecx
	push	10240					; 00002800H
	push	4483					; 00001183H
	mov	edx, DWORD PTR _device_id
	push	edx
	mov	eax, DWORD PTR _program
	push	eax
	call	_clGetProgramBuildInfo@24
$LN5@cl_build_p:

; 232  : 
; 233  : 	// trim buffer
; 234  : 	while (buffer_ptr[0] == ' ' 
; 235  : 		|| buffer_ptr[0] == '\n' 
; 236  : 		|| buffer_ptr[0] == '\t' 
; 237  : 		|| buffer_ptr[0] == '\r')

	mov	eax, DWORD PTR _buffer_ptr$[ebp]
	movsx	ecx, BYTE PTR [eax]
	cmp	ecx, 32					; 00000020H
	je	SHORT $LN3@cl_build_p
	mov	eax, DWORD PTR _buffer_ptr$[ebp]
	movsx	ecx, BYTE PTR [eax]
	cmp	ecx, 10					; 0000000aH
	je	SHORT $LN3@cl_build_p
	mov	eax, DWORD PTR _buffer_ptr$[ebp]
	movsx	ecx, BYTE PTR [eax]
	cmp	ecx, 9
	je	SHORT $LN3@cl_build_p
	mov	eax, DWORD PTR _buffer_ptr$[ebp]
	movsx	ecx, BYTE PTR [eax]
	cmp	ecx, 13					; 0000000dH
	jne	SHORT $LN4@cl_build_p
$LN3@cl_build_p:

; 238  : 	{
; 239  : 		len--;

	mov	eax, DWORD PTR _len$[ebp]
	sub	eax, 1
	mov	DWORD PTR _len$[ebp], eax

; 240  : 		buffer_ptr += 1;

	mov	eax, DWORD PTR _buffer_ptr$[ebp]
	add	eax, 1
	mov	DWORD PTR _buffer_ptr$[ebp], eax

; 241  : 	}

	jmp	SHORT $LN5@cl_build_p
$LN4@cl_build_p:

; 242  : 
; 243  : 	if (len > 1)

	cmp	DWORD PTR _len$[ebp], 1
	jbe	SHORT $LN2@cl_build_p

; 244  : 	{
; 245  : 		printf("Build log:\n%s\n", buffer_ptr);

	mov	eax, DWORD PTR _buffer_ptr$[ebp]
	push	eax
	push	OFFSET ??_C@_0P@GJLBDKA@Build?5log?3?6?$CFs?6?$AA@
	call	_printf
	add	esp, 8
$LN2@cl_build_p:

; 246  : 	}
; 247  : 
; 248  : 	if (err != CL_SUCCESS)

	cmp	DWORD PTR _err, 0
	je	SHORT $LN1@cl_build_p

; 249  : 	{
; 250  : 		cl_print_error(err, "Error: failed to create program executable\n");

	mov	esi, esp
	push	OFFSET ??_C@_0CM@DELDPDPF@Error?3?5failed?5to?5create?5program?5@
	mov	eax, DWORD PTR _err
	push	eax
	call	DWORD PTR _cl_print_error$[ebp]
	add	esp, 8
	cmp	esi, esp
	call	__RTC_CheckEsp

; 251  : 		return false;

	mov	BYTE PTR $T36604[ebp], 0
	mov	DWORD PTR __$EHRec$[ebp+8], -1
	lea	ecx, DWORD PTR _cached_source_path$[ebp]
	call	??1?$basic_string@DU?$char_traits@D@std@@V?$allocator@D@2@@std@@QAE@XZ ; std::basic_string<char,std::char_traits<char>,std::allocator<char> >::~basic_string<char,std::char_traits<char>,std::allocator<char> >
	mov	al, BYTE PTR $T36604[ebp]
	jmp	SHORT $LN18@cl_build_p
$LN1@cl_build_p:

; 252  : 	}
; 253  : 
; 254  : #ifdef ENABLE_CACHING
; 255  : 	if ( ! cache_program)
; 256  : 	{
; 257  : 		return true;
; 258  : 	}
; 259  : 
; 260  : 	size_t binary_size;
; 261  : 	err = clGetProgramInfo(program, CL_PROGRAM_BINARY_SIZES, sizeof(binary_size), &binary_size, NULL);
; 262  : 	if (err != CL_SUCCESS)
; 263  : 	{
; 264  : 		printf("Warning: failed to retrive binary size\n");
; 265  : 		return true;
; 266  : 	}
; 267  : 
; 268  : 	char *binary_str = new char[binary_size];
; 269  : 	memset(binary_str, 0, binary_size);
; 270  : 	err = clGetProgramInfo(program, CL_PROGRAM_BINARIES, sizeof(size_t), &binary_str, NULL);
; 271  : 	if (err != CL_SUCCESS)
; 272  : 	{
; 273  : 		printf("Warning: failed to retrive binaries\n");
; 274  : 		return true;
; 275  : 	}
; 276  : 
; 277  : 	file_put_contents(cached_source_path.c_str(), binary_str, binary_size);
; 278  : 
; 279  :     delete[] binary_str;
; 280  : #endif
; 281  : 
; 282  : 	return true;

	mov	BYTE PTR $T36605[ebp], 1
	mov	DWORD PTR __$EHRec$[ebp+8], -1
	lea	ecx, DWORD PTR _cached_source_path$[ebp]
	call	??1?$basic_string@DU?$char_traits@D@std@@V?$allocator@D@2@@std@@QAE@XZ ; std::basic_string<char,std::char_traits<char>,std::allocator<char> >::~basic_string<char,std::char_traits<char>,std::allocator<char> >
	mov	al, BYTE PTR $T36605[ebp]
$LN18@cl_build_p:

; 283  : }

	push	edx
	mov	ecx, ebp
	push	eax
	lea	edx, DWORD PTR $LN31@cl_build_p
	call	@_RTC_CheckStackVars@8
	pop	eax
	pop	edx
	mov	ecx, DWORD PTR __$EHRec$[ebp]
	mov	DWORD PTR fs:0, ecx
	pop	ecx
	pop	edi
	pop	esi
	pop	ebx
	mov	ecx, DWORD PTR __$ArrayPad$[ebp]
	xor	ecx, ebp
	call	@__security_check_cookie@4
	add	esp, 10752				; 00002a00H
	cmp	ebp, esp
	call	__RTC_CheckEsp
	mov	esp, ebp
	pop	ebp
	ret	0
	npad	2
$LN31@cl_build_p:
	DD	7
	DD	$LN30@cl_build_p
$LN30@cl_build_p:
	DD	-36					; ffffffdcH
	DD	4
	DD	$LN22@cl_build_p
	DD	-100					; ffffff9cH
	DD	32					; 00000020H
	DD	$LN23@cl_build_p
	DD	-172					; ffffff54H
	DD	64					; 00000040H
	DD	$LN24@cl_build_p
	DD	-212					; ffffff2cH
	DD	32					; 00000020H
	DD	$LN25@cl_build_p
	DD	-224					; ffffff20H
	DD	4
	DD	$LN26@cl_build_p
	DD	-248					; ffffff08H
	DD	4
	DD	$LN27@cl_build_p
	DD	-10496					; ffffd700H
	DD	10240					; 00002800H
	DD	$LN28@cl_build_p
$LN28@cl_build_p:
	DB	98					; 00000062H
	DB	117					; 00000075H
	DB	102					; 00000066H
	DB	102					; 00000066H
	DB	101					; 00000065H
	DB	114					; 00000072H
	DB	0
$LN27@cl_build_p:
	DB	108					; 0000006cH
	DB	101					; 00000065H
	DB	110					; 0000006eH
	DB	0
$LN26@cl_build_p:
	DB	115					; 00000073H
	DB	111					; 0000006fH
	DB	117					; 00000075H
	DB	114					; 00000072H
	DB	99					; 00000063H
	DB	101					; 00000065H
	DB	95					; 0000005fH
	DB	112					; 00000070H
	DB	116					; 00000074H
	DB	114					; 00000072H
	DB	0
$LN25@cl_build_p:
	DB	115					; 00000073H
	DB	111					; 0000006fH
	DB	117					; 00000075H
	DB	114					; 00000072H
	DB	99					; 00000063H
	DB	101					; 00000065H
	DB	95					; 0000005fH
	DB	102					; 00000066H
	DB	111					; 0000006fH
	DB	111					; 0000006fH
	DB	116					; 00000074H
	DB	101					; 00000065H
	DB	114					; 00000072H
	DB	0
$LN24@cl_build_p:
	DB	102					; 00000066H
	DB	111					; 0000006fH
	DB	111					; 0000006fH
	DB	116					; 00000074H
	DB	101					; 00000065H
	DB	114					; 00000072H
	DB	95					; 0000005fH
	DB	115					; 00000073H
	DB	116					; 00000074H
	DB	114					; 00000072H
	DB	0
$LN23@cl_build_p:
	DB	99					; 00000063H
	DB	97					; 00000061H
	DB	99					; 00000063H
	DB	104					; 00000068H
	DB	101					; 00000065H
	DB	100					; 00000064H
	DB	95					; 0000005fH
	DB	115					; 00000073H
	DB	111					; 0000006fH
	DB	117					; 00000075H
	DB	114					; 00000072H
	DB	99					; 00000063H
	DB	101					; 00000065H
	DB	95					; 0000005fH
	DB	112					; 00000070H
	DB	97					; 00000061H
	DB	116					; 00000074H
	DB	104					; 00000068H
	DB	0
$LN22@cl_build_p:
	DB	115					; 00000073H
	DB	111					; 0000006fH
	DB	117					; 00000075H
	DB	114					; 00000072H
	DB	99					; 00000063H
	DB	101					; 00000065H
	DB	95					; 0000005fH
	DB	115					; 00000073H
	DB	105					; 00000069H
	DB	122					; 0000007aH
	DB	101					; 00000065H
	DB	0
_TEXT	ENDS
;	COMDAT text$x
text$x	SEGMENT
__unwindfunclet$?cl_build_program@@YA_N_N@Z$0:
	lea	ecx, DWORD PTR _cached_source_path$[ebp]
	jmp	??1?$basic_string@DU?$char_traits@D@std@@V?$allocator@D@2@@std@@QAE@XZ ; std::basic_string<char,std::char_traits<char>,std::allocator<char> >::~basic_string<char,std::char_traits<char>,std::allocator<char> >
__unwindfunclet$?cl_build_program@@YA_N_N@Z$1:
	lea	ecx, DWORD PTR _source_footer$31932[ebp]
	jmp	??1?$basic_string@DU?$char_traits@D@std@@V?$allocator@D@2@@std@@QAE@XZ ; std::basic_string<char,std::char_traits<char>,std::allocator<char> >::~basic_string<char,std::char_traits<char>,std::allocator<char> >
__ehhandler$?cl_build_program@@YA_N_N@Z:
	mov	edx, DWORD PTR [esp+8]
	lea	eax, DWORD PTR [edx+12]
	mov	ecx, DWORD PTR [edx-10756]
	xor	ecx, eax
	call	@__security_check_cookie@4
	mov	ecx, DWORD PTR [edx-4]
	xor	ecx, eax
	call	@__security_check_cookie@4
	mov	eax, OFFSET __ehfuncinfo$?cl_build_program@@YA_N_N@Z
	jmp	___CxxFrameHandler3
text$x	ENDS
?cl_build_program@@YA_N_N@Z ENDP			; cl_build_program
EXTRN	__time64:PROC
; Function compile flags: /Odtp /RTCsu /ZI
; File c:\program files (x86)\microsoft visual studio 10.0\vc\include\time.inl
;	COMDAT _time
_TEXT	SEGMENT
__Time$ = 8						; size = 4
_time	PROC						; COMDAT

; 132  : {

	push	ebp
	mov	ebp, esp
	sub	esp, 192				; 000000c0H
	push	ebx
	push	esi
	push	edi
	lea	edi, DWORD PTR [ebp-192]
	mov	ecx, 48					; 00000030H
	mov	eax, -858993460				; ccccccccH
	rep stosd

; 133  :     return _time64(_Time);

	mov	eax, DWORD PTR __Time$[ebp]
	push	eax
	call	__time64
	add	esp, 4

; 134  : }

	pop	edi
	pop	esi
	pop	ebx
	add	esp, 192				; 000000c0H
	cmp	ebp, esp
	call	__RTC_CheckEsp
	mov	esp, ebp
	pop	ebp
	ret	0
_time	ENDP
_TEXT	ENDS
PUBLIC	??_C@_0DM@PPODACDI@Error?3?5failed?5to?5bind?5kernel?5arg@ ; `string'
PUBLIC	??_C@_0DI@CHLJPCCN@Error?3?5failed?5to?5bind?5kernel?5arg@ ; `string'
PUBLIC	??_C@_0EA@GEPEPEEL@Error?3?5failed?5to?5allocate?5device@ ; `string'
PUBLIC	??_C@_0DM@EFGFDLFN@Error?3?5failed?5to?5allocate?5device@ ; `string'
PUBLIC	??_C@_0EK@CNFBLKHA@Error?3?5state?5length?5too?5small?0?5m@ ; `string'
PUBLIC	??_C@_0CN@NGOECMBE@Error?3?5failed?5to?5create?5compute?5@ ; `string'
PUBLIC	?cl_release_kernel@@YAXXZ			; cl_release_kernel
PUBLIC	?cl_init@@YA_NPADII_N@Z				; cl_init
EXTRN	_clSetKernelArg@16:PROC
EXTRN	_clCreateBuffer@24:PROC
EXTRN	_clCreateKernel@12:PROC
_BSS	SEGMENT
_roundkeys_length DD 01H DUP (?)
_state_length DD 01H DUP (?)
_state_length_padded DD 01H DUP (?)
_BSS	ENDS
;	COMDAT ??_C@_0DM@PPODACDI@Error?3?5failed?5to?5bind?5kernel?5arg@
; File c:\users\tdrol\documents\visual studio 2010\projects\analizator\analizator-bd-opencl\cl_encrypt.cpp
CONST	SEGMENT
??_C@_0DM@PPODACDI@Error?3?5failed?5to?5bind?5kernel?5arg@ DB 'Error: fai'
	DB	'led to bind kernel argument "mem_roundkeys" [#1]', 0aH, 00H ; `string'
CONST	ENDS
;	COMDAT ??_C@_0DI@CHLJPCCN@Error?3?5failed?5to?5bind?5kernel?5arg@
CONST	SEGMENT
??_C@_0DI@CHLJPCCN@Error?3?5failed?5to?5bind?5kernel?5arg@ DB 'Error: fai'
	DB	'led to bind kernel argument "mem_state" [#0]', 0aH, 00H ; `string'
CONST	ENDS
;	COMDAT ??_C@_0EA@GEPEPEEL@Error?3?5failed?5to?5allocate?5device@
CONST	SEGMENT
??_C@_0EA@GEPEPEEL@Error?3?5failed?5to?5allocate?5device@ DB 'Error: fail'
	DB	'ed to allocate device memory (roundkeys, size: %lu)', 0aH, 00H ; `string'
CONST	ENDS
;	COMDAT ??_C@_0DM@EFGFDLFN@Error?3?5failed?5to?5allocate?5device@
CONST	SEGMENT
??_C@_0DM@EFGFDLFN@Error?3?5failed?5to?5allocate?5device@ DB 'Error: fail'
	DB	'ed to allocate device memory (state, size: %lu)', 0aH, 00H ; `string'
CONST	ENDS
;	COMDAT ??_C@_0EK@CNFBLKHA@Error?3?5state?5length?5too?5small?0?5m@
CONST	SEGMENT
??_C@_0EK@CNFBLKHA@Error?3?5state?5length?5too?5small?0?5m@ DB 'Error: st'
	DB	'ate length too small, must be at least 16 bytes (128 bits) lo'
	DB	'ng', 0aH, 00H				; `string'
CONST	ENDS
;	COMDAT ??_C@_0CN@NGOECMBE@Error?3?5failed?5to?5create?5compute?5@
CONST	SEGMENT
??_C@_0CN@NGOECMBE@Error?3?5failed?5to?5create?5compute?5@ DB 'Error: fai'
	DB	'led to create compute kernel (%s)', 0aH, 00H ; `string'
; Function compile flags: /Odtp /RTCsu /ZI
CONST	ENDS
;	COMDAT ?cl_init@@YA_NPADII_N@Z
_TEXT	SEGMENT
_cl_print_error$ = -8					; size = 4
_kernel_name$ = 8					; size = 4
_state_length$ = 12					; size = 4
_roundkeys_length$ = 16					; size = 4
_silent$ = 20						; size = 1
?cl_init@@YA_NPADII_N@Z PROC				; cl_init, COMDAT

; 286  : {

	push	ebp
	mov	ebp, esp
	sub	esp, 204				; 000000ccH
	push	ebx
	push	esi
	push	edi
	lea	edi, DWORD PTR [ebp-204]
	mov	ecx, 51					; 00000033H
	mov	eax, -858993460				; ccccccccH
	rep stosd

; 287  : 	if (program == nullptr)

	cmp	DWORD PTR _program, 0
	jne	SHORT $LN11@cl_init

; 288  : 	{
; 289  : 		if ( ! cl_build_program(silent))

	movzx	eax, BYTE PTR _silent$[ebp]
	push	eax
	call	?cl_build_program@@YA_N_N@Z		; cl_build_program
	add	esp, 4
	movzx	ecx, al
	test	ecx, ecx
	jne	SHORT $LN10@cl_init

; 290  : 		{
; 291  : 			return false;

	xor	al, al
	jmp	$LN12@cl_init
$LN10@cl_init:

; 292  : 		}
; 293  : 	}
; 294  : 	else

	jmp	SHORT $LN9@cl_init
$LN11@cl_init:

; 295  : 	{
; 296  : 		cl_release_kernel();

	call	?cl_release_kernel@@YAXXZ		; cl_release_kernel
$LN9@cl_init:

; 297  : 	}
; 298  : 
; 299  : 	auto cl_print_error = ::cl_print_error;

	mov	DWORD PTR _cl_print_error$[ebp], OFFSET ?cl_print_error@@YAXHPBDZZ ; cl_print_error

; 300  : 	if (silent)

	movzx	eax, BYTE PTR _silent$[ebp]
	test	eax, eax
	je	SHORT $LN8@cl_init

; 301  : 	{
; 302  : 		cl_print_error = cl_print_error_silent;

	mov	DWORD PTR _cl_print_error$[ebp], OFFSET ?cl_print_error_silent@@YAXHPBDZZ ; cl_print_error_silent
$LN8@cl_init:

; 303  : 	}
; 304  : 
; 305  : 	// Create the compute kernel in the program
; 306  : 	kernel = clCreateKernel(program, kernel_name, &err);

	push	OFFSET _err
	mov	eax, DWORD PTR _kernel_name$[ebp]
	push	eax
	mov	ecx, DWORD PTR _program
	push	ecx
	call	_clCreateKernel@12
	mov	DWORD PTR _kernel, eax

; 307  : 	if ( ! kernel || err != CL_SUCCESS) {

	cmp	DWORD PTR _kernel, 0
	je	SHORT $LN6@cl_init
	cmp	DWORD PTR _err, 0
	je	SHORT $LN7@cl_init
$LN6@cl_init:

; 308  : 		cl_print_error(err, "Error: failed to create compute kernel (%s)\n", kernel_name);

	mov	esi, esp
	mov	eax, DWORD PTR _kernel_name$[ebp]
	push	eax
	push	OFFSET ??_C@_0CN@NGOECMBE@Error?3?5failed?5to?5create?5compute?5@
	mov	ecx, DWORD PTR _err
	push	ecx
	call	DWORD PTR _cl_print_error$[ebp]
	add	esp, 12					; 0000000cH
	cmp	esi, esp
	call	__RTC_CheckEsp

; 309  : 		return false;

	xor	al, al
	jmp	$LN12@cl_init
$LN7@cl_init:

; 310  : 	}
; 311  : 
; 312  : 	// Create buffers
; 313  : 	if (state_length < 16) // 128 bit / 8 = 16 bytes

	cmp	DWORD PTR _state_length$[ebp], 16	; 00000010H
	jae	SHORT $LN5@cl_init

; 314  : 	{
; 315  : 		cl_print_error(err, "Error: state length too small, must be at least 16 bytes (128 bits) long\n");

	mov	esi, esp
	push	OFFSET ??_C@_0EK@CNFBLKHA@Error?3?5state?5length?5too?5small?0?5m@
	mov	eax, DWORD PTR _err
	push	eax
	call	DWORD PTR _cl_print_error$[ebp]
	add	esp, 8
	cmp	esi, esp
	call	__RTC_CheckEsp

; 316  : 		return false;

	xor	al, al
	jmp	$LN12@cl_init
$LN5@cl_init:

; 317  : 	}
; 318  : 
; 319  : 	state_length_padded = ((size_t) (state_length / 16 + 256 - 1) / 256) * 256 * 16;

	mov	eax, DWORD PTR _state_length$[ebp]
	shr	eax, 4
	add	eax, 255				; 000000ffH
	shr	eax, 8
	shl	eax, 8
	shl	eax, 4
	mov	DWORD PTR _state_length_padded, eax

; 320  : 
; 321  : 	mem_state = clCreateBuffer(context, CL_MEM_READ_WRITE | CL_MEM_ALLOC_HOST_PTR, 
; 322  : 							   state_length_padded, NULL, &err);

	push	OFFSET _err
	push	0
	mov	eax, DWORD PTR _state_length_padded
	push	eax
	push	0
	push	17					; 00000011H
	mov	ecx, DWORD PTR _context
	push	ecx
	call	_clCreateBuffer@24
	mov	DWORD PTR _mem_state, eax

; 323  : 	if (err != CL_SUCCESS)

	cmp	DWORD PTR _err, 0
	je	SHORT $LN4@cl_init

; 324  : 	{
; 325  : 		cl_print_error(err,  "Error: failed to allocate device memory " \
; 326  : 					   "(state, size: %lu)\n", state_length);

	mov	esi, esp
	mov	eax, DWORD PTR _state_length$[ebp]
	push	eax
	push	OFFSET ??_C@_0DM@EFGFDLFN@Error?3?5failed?5to?5allocate?5device@
	mov	ecx, DWORD PTR _err
	push	ecx
	call	DWORD PTR _cl_print_error$[ebp]
	add	esp, 12					; 0000000cH
	cmp	esi, esp
	call	__RTC_CheckEsp

; 327  : 		return false;

	xor	al, al
	jmp	$LN12@cl_init
$LN4@cl_init:

; 328  : 	}
; 329  : 	::state_length = state_length;

	mov	eax, DWORD PTR _state_length$[ebp]
	mov	DWORD PTR _state_length, eax

; 330  : 
; 331  : 	mem_roundkeys = clCreateBuffer(context, CL_MEM_READ_ONLY, roundkeys_length,
; 332  : 								   NULL, &err);

	push	OFFSET _err
	push	0
	mov	eax, DWORD PTR _roundkeys_length$[ebp]
	push	eax
	push	0
	push	4
	mov	ecx, DWORD PTR _context
	push	ecx
	call	_clCreateBuffer@24
	mov	DWORD PTR _mem_roundkeys, eax

; 333  : 	if (err != CL_SUCCESS)

	cmp	DWORD PTR _err, 0
	je	SHORT $LN3@cl_init

; 334  : 	{
; 335  : 		cl_print_error(err, "Error: failed to allocate device memory " \
; 336  : 					   "(roundkeys, size: %lu)\n", roundkeys_length);

	mov	esi, esp
	mov	eax, DWORD PTR _roundkeys_length$[ebp]
	push	eax
	push	OFFSET ??_C@_0EA@GEPEPEEL@Error?3?5failed?5to?5allocate?5device@
	mov	ecx, DWORD PTR _err
	push	ecx
	call	DWORD PTR _cl_print_error$[ebp]
	add	esp, 12					; 0000000cH
	cmp	esi, esp
	call	__RTC_CheckEsp

; 337  : 		return false;

	xor	al, al
	jmp	$LN12@cl_init
$LN3@cl_init:

; 338  : 	}
; 339  : 	::roundkeys_length = roundkeys_length;

	mov	eax, DWORD PTR _roundkeys_length$[ebp]
	mov	DWORD PTR _roundkeys_length, eax

; 340  : 
; 341  : 	// Bind buffers
; 342  : 	err = clSetKernelArg(kernel, 0, sizeof(cl_mem), &mem_state);

	push	OFFSET _mem_state
	push	4
	push	0
	mov	eax, DWORD PTR _kernel
	push	eax
	call	_clSetKernelArg@16
	mov	DWORD PTR _err, eax

; 343  : 	if (err != CL_SUCCESS)

	cmp	DWORD PTR _err, 0
	je	SHORT $LN2@cl_init

; 344  : 	{
; 345  : 		cl_print_error(err, "Error: failed to bind kernel argument " \
; 346  : 					   "\"mem_state\" [#0]\n");

	mov	esi, esp
	push	OFFSET ??_C@_0DI@CHLJPCCN@Error?3?5failed?5to?5bind?5kernel?5arg@
	mov	eax, DWORD PTR _err
	push	eax
	call	DWORD PTR _cl_print_error$[ebp]
	add	esp, 8
	cmp	esi, esp
	call	__RTC_CheckEsp

; 347  : 		return false;

	xor	al, al
	jmp	SHORT $LN12@cl_init
$LN2@cl_init:

; 348  : 	}
; 349  : 
; 350  : 	err = clSetKernelArg(kernel, 1, sizeof(cl_mem), &mem_roundkeys);

	push	OFFSET _mem_roundkeys
	push	4
	push	1
	mov	eax, DWORD PTR _kernel
	push	eax
	call	_clSetKernelArg@16
	mov	DWORD PTR _err, eax

; 351  : 	if (err != CL_SUCCESS)

	cmp	DWORD PTR _err, 0
	je	SHORT $LN1@cl_init

; 352  : 	{
; 353  : 		cl_print_error(err, "Error: failed to bind kernel argument " \
; 354  : 					   "\"mem_roundkeys\" [#1]\n");

	mov	esi, esp
	push	OFFSET ??_C@_0DM@PPODACDI@Error?3?5failed?5to?5bind?5kernel?5arg@
	mov	eax, DWORD PTR _err
	push	eax
	call	DWORD PTR _cl_print_error$[ebp]
	add	esp, 8
	cmp	esi, esp
	call	__RTC_CheckEsp

; 355  : 		return false;

	xor	al, al
	jmp	SHORT $LN12@cl_init
$LN1@cl_init:

; 356  : 	}
; 357  : 
; 358  : 	return true;

	mov	al, 1
$LN12@cl_init:

; 359  : }

	pop	edi
	pop	esi
	pop	ebx
	add	esp, 204				; 000000ccH
	cmp	ebp, esp
	call	__RTC_CheckEsp
	mov	esp, ebp
	pop	ebp
	ret	0
?cl_init@@YA_NPADII_N@Z ENDP				; cl_init
_TEXT	ENDS
PUBLIC	??_C@_0BP@JLONFNKM@?5?5platform?5extensions?5?5?$CInone?$CJ?6?$AA@ ; `string'
PUBLIC	??_C@_0BL@LDJNFPEC@?5?5?5?5?5?5?5?5?5?5?5?5?5?5?5?5?5?5?5?5?5?5?5?$CFs?6?$AA@ ; `string'
PUBLIC	??_C@_0BL@LKCADNFO@?5?5platform?5extensions?5?5?$CFs?6?$AA@ ; `string'
PUBLIC	?strstr@@YAPADPADPBD@Z				; strstr
PUBLIC	??_C@_01CLKCMJKC@?5?$AA@			; `string'
PUBLIC	??_C@_0BL@LDDFDFOF@?5?5platform?5vendor?5?5?5?5?5?5?$CFs?6?$AA@ ; `string'
PUBLIC	??_C@_0BL@GPKPEBGN@?5?5platform?5name?5?5?5?5?5?5?5?5?$CFs?6?$AA@ ; `string'
PUBLIC	??_C@_0BL@DMCKCDBJ@?5?5platform?5version?5?5?5?5?5?$CFs?6?$AA@ ; `string'
PUBLIC	??_C@_0BL@KJLKBOKA@?5?5platform?5profile?5?5?5?5?5?$CFs?6?$AA@ ; `string'
PUBLIC	??_C@_0BB@IIGAPNEL@?6Platform?5info?3?6?$AA@	; `string'
PUBLIC	__$ArrayPad$
PUBLIC	?cl_print_platform_info@@YAXXZ			; cl_print_platform_info
EXTRN	_clGetPlatformInfo@20:PROC
;	COMDAT ??_C@_0BP@JLONFNKM@?5?5platform?5extensions?5?5?$CInone?$CJ?6?$AA@
CONST	SEGMENT
??_C@_0BP@JLONFNKM@?5?5platform?5extensions?5?5?$CInone?$CJ?6?$AA@ DB '  '
	DB	'platform extensions  (none)', 0aH, 00H	; `string'
CONST	ENDS
;	COMDAT ??_C@_0BL@LDJNFPEC@?5?5?5?5?5?5?5?5?5?5?5?5?5?5?5?5?5?5?5?5?5?5?5?$CFs?6?$AA@
CONST	SEGMENT
??_C@_0BL@LDJNFPEC@?5?5?5?5?5?5?5?5?5?5?5?5?5?5?5?5?5?5?5?5?5?5?5?$CFs?6?$AA@ DB ' '
	DB	'                      %s', 0aH, 00H		; `string'
CONST	ENDS
;	COMDAT ??_C@_0BL@LKCADNFO@?5?5platform?5extensions?5?5?$CFs?6?$AA@
CONST	SEGMENT
??_C@_0BL@LKCADNFO@?5?5platform?5extensions?5?5?$CFs?6?$AA@ DB '  platfor'
	DB	'm extensions  %s', 0aH, 00H			; `string'
CONST	ENDS
;	COMDAT ??_C@_01CLKCMJKC@?5?$AA@
CONST	SEGMENT
??_C@_01CLKCMJKC@?5?$AA@ DB ' ', 00H			; `string'
CONST	ENDS
;	COMDAT ??_C@_0BL@LDDFDFOF@?5?5platform?5vendor?5?5?5?5?5?5?$CFs?6?$AA@
CONST	SEGMENT
??_C@_0BL@LDDFDFOF@?5?5platform?5vendor?5?5?5?5?5?5?$CFs?6?$AA@ DB '  pla'
	DB	'tform vendor      %s', 0aH, 00H		; `string'
CONST	ENDS
;	COMDAT ??_C@_0BL@GPKPEBGN@?5?5platform?5name?5?5?5?5?5?5?5?5?$CFs?6?$AA@
CONST	SEGMENT
??_C@_0BL@GPKPEBGN@?5?5platform?5name?5?5?5?5?5?5?5?5?$CFs?6?$AA@ DB '  p'
	DB	'latform name        %s', 0aH, 00H		; `string'
CONST	ENDS
;	COMDAT ??_C@_0BL@DMCKCDBJ@?5?5platform?5version?5?5?5?5?5?$CFs?6?$AA@
CONST	SEGMENT
??_C@_0BL@DMCKCDBJ@?5?5platform?5version?5?5?5?5?5?$CFs?6?$AA@ DB '  plat'
	DB	'form version     %s', 0aH, 00H		; `string'
CONST	ENDS
;	COMDAT ??_C@_0BL@KJLKBOKA@?5?5platform?5profile?5?5?5?5?5?$CFs?6?$AA@
CONST	SEGMENT
??_C@_0BL@KJLKBOKA@?5?5platform?5profile?5?5?5?5?5?$CFs?6?$AA@ DB '  plat'
	DB	'form profile     %s', 0aH, 00H		; `string'
CONST	ENDS
;	COMDAT ??_C@_0BB@IIGAPNEL@?6Platform?5info?3?6?$AA@
CONST	SEGMENT
??_C@_0BB@IIGAPNEL@?6Platform?5info?3?6?$AA@ DB 0aH, 'Platform info:', 0aH
	DB	00H						; `string'
; Function compile flags: /Odtp /RTCsu /ZI
CONST	ENDS
;	COMDAT ?cl_print_platform_info@@YAXXZ
_TEXT	SEGMENT
_size$ = -10296						; size = 4
_pos$ = -10284						; size = 4
_offset$ = -10272					; size = 4
_param_value$ = -10260					; size = 10240
_param_value_size$ = -12				; size = 4
__$ArrayPad$ = -4					; size = 4
?cl_print_platform_info@@YAXXZ PROC			; cl_print_platform_info, COMDAT

; 362  : {

	push	ebp
	mov	ebp, esp
	mov	eax, 10492				; 000028fcH
	call	__chkstk
	push	ebx
	push	esi
	push	edi
	lea	edi, DWORD PTR [ebp-10492]
	mov	ecx, 2623				; 00000a3fH
	mov	eax, -858993460				; ccccccccH
	rep stosd
	mov	eax, DWORD PTR ___security_cookie
	xor	eax, ebp
	mov	DWORD PTR __$ArrayPad$[ebp], eax

; 363  : 	printf("\nPlatform info:\n");

	push	OFFSET ??_C@_0BB@IIGAPNEL@?6Platform?5info?3?6?$AA@
	call	_printf
	add	esp, 4

; 364  : 	const size_t param_value_size = 1024*10;

	mov	DWORD PTR _param_value_size$[ebp], 10240 ; 00002800H

; 365  : 	char param_value[param_value_size];
; 366  : 
; 367  : 	clGetPlatformInfo(platform_id, CL_PLATFORM_PROFILE,
; 368  :   						param_value_size, param_value, NULL);

	push	0
	lea	eax, DWORD PTR _param_value$[ebp]
	push	eax
	push	10240					; 00002800H
	push	2304					; 00000900H
	mov	ecx, DWORD PTR _platform_id
	push	ecx
	call	_clGetPlatformInfo@20

; 369  : 	printf("  platform profile     %s\n", param_value);

	lea	eax, DWORD PTR _param_value$[ebp]
	push	eax
	push	OFFSET ??_C@_0BL@KJLKBOKA@?5?5platform?5profile?5?5?5?5?5?$CFs?6?$AA@
	call	_printf
	add	esp, 8

; 370  : 
; 371  : 	clGetPlatformInfo(platform_id, CL_PLATFORM_VERSION,
; 372  :   						param_value_size, param_value, NULL);

	push	0
	lea	eax, DWORD PTR _param_value$[ebp]
	push	eax
	push	10240					; 00002800H
	push	2305					; 00000901H
	mov	ecx, DWORD PTR _platform_id
	push	ecx
	call	_clGetPlatformInfo@20

; 373  : 	printf("  platform version     %s\n", param_value);

	lea	eax, DWORD PTR _param_value$[ebp]
	push	eax
	push	OFFSET ??_C@_0BL@DMCKCDBJ@?5?5platform?5version?5?5?5?5?5?$CFs?6?$AA@
	call	_printf
	add	esp, 8

; 374  : 
; 375  : 	clGetPlatformInfo(platform_id, CL_PLATFORM_NAME,
; 376  :   						param_value_size, param_value, NULL);

	push	0
	lea	eax, DWORD PTR _param_value$[ebp]
	push	eax
	push	10240					; 00002800H
	push	2306					; 00000902H
	mov	ecx, DWORD PTR _platform_id
	push	ecx
	call	_clGetPlatformInfo@20

; 377  : 	printf("  platform name        %s\n", param_value);

	lea	eax, DWORD PTR _param_value$[ebp]
	push	eax
	push	OFFSET ??_C@_0BL@GPKPEBGN@?5?5platform?5name?5?5?5?5?5?5?5?5?$CFs?6?$AA@
	call	_printf
	add	esp, 8

; 378  : 
; 379  : 	clGetPlatformInfo(platform_id, CL_PLATFORM_VENDOR ,
; 380  :   						param_value_size, param_value, NULL);

	push	0
	lea	eax, DWORD PTR _param_value$[ebp]
	push	eax
	push	10240					; 00002800H
	push	2307					; 00000903H
	mov	ecx, DWORD PTR _platform_id
	push	ecx
	call	_clGetPlatformInfo@20

; 381  : 	printf("  platform vendor      %s\n", param_value);

	lea	eax, DWORD PTR _param_value$[ebp]
	push	eax
	push	OFFSET ??_C@_0BL@LDDFDFOF@?5?5platform?5vendor?5?5?5?5?5?5?$CFs?6?$AA@
	call	_printf
	add	esp, 8

; 382  : 
; 383  : 	int offset = 0;

	mov	DWORD PTR _offset$[ebp], 0

; 384  : 	char *pos;
; 385  : 	size_t size;
; 386  : 	clGetPlatformInfo(platform_id, CL_PLATFORM_EXTENSIONS,
; 387  :   						param_value_size, param_value, &size);

	lea	eax, DWORD PTR _size$[ebp]
	push	eax
	lea	ecx, DWORD PTR _param_value$[ebp]
	push	ecx
	push	10240					; 00002800H
	push	2308					; 00000904H
	mov	edx, DWORD PTR _platform_id
	push	edx
	call	_clGetPlatformInfo@20

; 388  : 
; 389  : 	pos = strstr(param_value + offset, " ");

	push	OFFSET ??_C@_01CLKCMJKC@?5?$AA@
	mov	eax, DWORD PTR _offset$[ebp]
	lea	ecx, DWORD PTR _param_value$[ebp+eax]
	push	ecx
	call	?strstr@@YAPADPADPBD@Z			; strstr
	add	esp, 8
	mov	DWORD PTR _pos$[ebp], eax

; 390  : 	if (pos != NULL && size > 0)

	cmp	DWORD PTR _pos$[ebp], 0
	je	$LN4@cl_print_p
	cmp	DWORD PTR _size$[ebp], 0
	jbe	$LN4@cl_print_p

; 391  : 	{
; 392  : 		*pos = '\0';

	mov	eax, DWORD PTR _pos$[ebp]
	mov	BYTE PTR [eax], 0

; 393  : 		
; 394  : 		printf("  platform extensions  %s\n", param_value);

	lea	eax, DWORD PTR _param_value$[ebp]
	push	eax
	push	OFFSET ??_C@_0BL@LKCADNFO@?5?5platform?5extensions?5?5?$CFs?6?$AA@
	call	_printf
	add	esp, 8

; 395  : 		offset = pos - param_value + 1;

	mov	eax, DWORD PTR _pos$[ebp]
	lea	ecx, DWORD PTR _param_value$[ebp]
	sub	eax, ecx
	add	eax, 1
	mov	DWORD PTR _offset$[ebp], eax
$LN3@cl_print_p:

; 396  : 
; 397  : 		while ((pos = strstr(param_value + offset, " ")) && pos < (param_value + size - 1))

	push	OFFSET ??_C@_01CLKCMJKC@?5?$AA@
	mov	eax, DWORD PTR _offset$[ebp]
	lea	ecx, DWORD PTR _param_value$[ebp+eax]
	push	ecx
	call	?strstr@@YAPADPADPBD@Z			; strstr
	add	esp, 8
	mov	DWORD PTR _pos$[ebp], eax
	cmp	DWORD PTR _pos$[ebp], 0
	je	SHORT $LN2@cl_print_p
	mov	eax, DWORD PTR _size$[ebp]
	lea	ecx, DWORD PTR _param_value$[ebp+eax-1]
	cmp	DWORD PTR _pos$[ebp], ecx
	jae	SHORT $LN2@cl_print_p

; 398  : 		{
; 399  : 			*pos = '\0';

	mov	eax, DWORD PTR _pos$[ebp]
	mov	BYTE PTR [eax], 0

; 400  : 
; 401  : 			printf("                       %s\n", param_value + offset);

	mov	eax, DWORD PTR _offset$[ebp]
	lea	ecx, DWORD PTR _param_value$[ebp+eax]
	push	ecx
	push	OFFSET ??_C@_0BL@LDJNFPEC@?5?5?5?5?5?5?5?5?5?5?5?5?5?5?5?5?5?5?5?5?5?5?5?$CFs?6?$AA@
	call	_printf
	add	esp, 8

; 402  : 
; 403  : 			offset = pos - param_value + 1;

	mov	eax, DWORD PTR _pos$[ebp]
	lea	ecx, DWORD PTR _param_value$[ebp]
	sub	eax, ecx
	add	eax, 1
	mov	DWORD PTR _offset$[ebp], eax

; 404  : 		}

	jmp	SHORT $LN3@cl_print_p
$LN2@cl_print_p:

; 405  : 	}
; 406  : 	else

	jmp	SHORT $LN5@cl_print_p
$LN4@cl_print_p:

; 407  : 	{
; 408  : 		printf("  platform extensions  (none)\n");

	push	OFFSET ??_C@_0BP@JLONFNKM@?5?5platform?5extensions?5?5?$CInone?$CJ?6?$AA@
	call	_printf
	add	esp, 4
$LN5@cl_print_p:

; 409  : 	}
; 410  : }

	push	edx
	mov	ecx, ebp
	push	eax
	lea	edx, DWORD PTR $LN10@cl_print_p
	call	@_RTC_CheckStackVars@8
	pop	eax
	pop	edx
	pop	edi
	pop	esi
	pop	ebx
	mov	ecx, DWORD PTR __$ArrayPad$[ebp]
	xor	ecx, ebp
	call	@__security_check_cookie@4
	add	esp, 10492				; 000028fcH
	cmp	ebp, esp
	call	__RTC_CheckEsp
	mov	esp, ebp
	pop	ebp
	ret	0
	npad	1
$LN10@cl_print_p:
	DD	2
	DD	$LN9@cl_print_p
$LN9@cl_print_p:
	DD	-10260					; ffffd7ecH
	DD	10240					; 00002800H
	DD	$LN7@cl_print_p
	DD	-10296					; ffffd7c8H
	DD	4
	DD	$LN8@cl_print_p
$LN8@cl_print_p:
	DB	115					; 00000073H
	DB	105					; 00000069H
	DB	122					; 0000007aH
	DB	101					; 00000065H
	DB	0
$LN7@cl_print_p:
	DB	112					; 00000070H
	DB	97					; 00000061H
	DB	114					; 00000072H
	DB	97					; 00000061H
	DB	109					; 0000006dH
	DB	95					; 0000005fH
	DB	118					; 00000076H
	DB	97					; 00000061H
	DB	108					; 0000006cH
	DB	117					; 00000075H
	DB	101					; 00000065H
	DB	0
?cl_print_platform_info@@YAXXZ ENDP			; cl_print_platform_info
_TEXT	ENDS
EXTRN	_strstr:PROC
; Function compile flags: /Odtp /RTCsu /ZI
; File c:\program files (x86)\microsoft visual studio 10.0\vc\include\string.h
;	COMDAT ?strstr@@YAPADPADPBD@Z
_TEXT	SEGMENT
__Str$ = 8						; size = 4
__SubStr$ = 12						; size = 4
?strstr@@YAPADPADPBD@Z PROC				; strstr, COMDAT

; 221  : 	{ return (char*)strstr((const char*)_Str, _SubStr); }

	push	ebp
	mov	ebp, esp
	sub	esp, 192				; 000000c0H
	push	ebx
	push	esi
	push	edi
	lea	edi, DWORD PTR [ebp-192]
	mov	ecx, 48					; 00000030H
	mov	eax, -858993460				; ccccccccH
	rep stosd
	mov	eax, DWORD PTR __SubStr$[ebp]
	push	eax
	mov	ecx, DWORD PTR __Str$[ebp]
	push	ecx
	call	_strstr
	add	esp, 8
	pop	edi
	pop	esi
	pop	ebx
	add	esp, 192				; 000000c0H
	cmp	ebp, esp
	call	__RTC_CheckEsp
	mov	esp, ebp
	pop	ebp
	ret	0
?strstr@@YAPADPADPBD@Z ENDP				; strstr
_TEXT	ENDS
PUBLIC	??_C@_0CD@NOOIMDDD@?5?5max?5clock?5frequency?5?5?5?5?5?5?$CFu?5MH@ ; `string'
PUBLIC	??_C@_0BP@NDMOHBPN@?5?5maximum?5work?9item?5sizes?5?5?$CFu?6?$AA@ ; `string'
PUBLIC	??_C@_0BP@DEPGPIEH@?5?5maximum?5work?9group?5size?5?5?$CFu?6?$AA@ ; `string'
PUBLIC	??_C@_0BP@ECPPJEF@?5?5maximum?5compute?5units?5?5?5?5?$CFu?6?$AA@ ; `string'
PUBLIC	??_C@_0BP@IGFCAEIH@?5?5address?5bits?5?5?5?5?5?5?5?5?5?5?5?5?5?$CFu?6?$AA@ ; `string'
PUBLIC	??_C@_0CE@MLIIKEEG@?5?5maximum?5avaible?5mem?5?5?5?5?5?5?$CF?42f?5@ ; `string'
PUBLIC	??_C@_0CE@CHKCHDNL@?5?5global?5mem?5cache?5size?5?5?5?5?$CF?42f?5@ ; `string'
PUBLIC	??_C@_0CE@DMBLFCEI@?5?5global?5memory?5size?5?5?5?5?5?5?5?$CF?42f?5@ ; `string'
PUBLIC	??_C@_0CE@CCJFOIDE@?5?5local?5memory?5size?5?5?5?5?5?5?5?5?$CF?42f?5@ ; `string'
PUBLIC	__real@4090000000000000
PUBLIC	??_C@_03FNDBJNEP@GiB?$AA@			; `string'
PUBLIC	??_C@_03DCIMHNCL@MiB?$AA@			; `string'
PUBLIC	??_C@_03BHOHCCPH@KiB?$AA@			; `string'
PUBLIC	??_C@_03ECGPNCBH@B?5?5?$AA@			; `string'
PUBLIC	??_C@_0BP@PFMNCOMH@?5?5driver?5version?5?5?5?5?5?5?5?5?5?5?5?$CFs?6?$AA@ ; `string'
PUBLIC	??_C@_0BP@KGKIBOBD@?5?5device?5version?5?5?5?5?5?5?5?5?5?5?5?$CFs?6?$AA@ ; `string'
PUBLIC	??_C@_0BP@GBJEKDAJ@?5?5device?5name?5?5?5?5?5?5?5?5?5?5?5?5?5?5?$CFs?6?$AA@ ; `string'
PUBLIC	??_C@_0P@LLKCIPKG@?6Device?5info?3?6?$AA@	; `string'
PUBLIC	__$ArrayPad$
PUBLIC	?cl_print_device_info@@YAXXZ			; cl_print_device_info
EXTRN	_clGetDeviceInfo@20:PROC
EXTRN	__fltused:DWORD
;	COMDAT ??_C@_0CD@NOOIMDDD@?5?5max?5clock?5frequency?5?5?5?5?5?5?$CFu?5MH@
; File c:\users\tdrol\documents\visual studio 2010\projects\analizator\analizator-bd-opencl\cl_encrypt.cpp
CONST	SEGMENT
??_C@_0CD@NOOIMDDD@?5?5max?5clock?5frequency?5?5?5?5?5?5?$CFu?5MH@ DB '  '
	DB	'max clock frequency      %u MHz', 0aH, 00H	; `string'
CONST	ENDS
;	COMDAT ??_C@_0BP@NDMOHBPN@?5?5maximum?5work?9item?5sizes?5?5?$CFu?6?$AA@
CONST	SEGMENT
??_C@_0BP@NDMOHBPN@?5?5maximum?5work?9item?5sizes?5?5?$CFu?6?$AA@ DB '  m'
	DB	'aximum work-item sizes  %u', 0aH, 00H	; `string'
CONST	ENDS
;	COMDAT ??_C@_0BP@DEPGPIEH@?5?5maximum?5work?9group?5size?5?5?$CFu?6?$AA@
CONST	SEGMENT
??_C@_0BP@DEPGPIEH@?5?5maximum?5work?9group?5size?5?5?$CFu?6?$AA@ DB '  m'
	DB	'aximum work-group size  %u', 0aH, 00H	; `string'
CONST	ENDS
;	COMDAT ??_C@_0BP@ECPPJEF@?5?5maximum?5compute?5units?5?5?5?5?$CFu?6?$AA@
CONST	SEGMENT
??_C@_0BP@ECPPJEF@?5?5maximum?5compute?5units?5?5?5?5?$CFu?6?$AA@ DB '  m'
	DB	'aximum compute units    %u', 0aH, 00H	; `string'
CONST	ENDS
;	COMDAT ??_C@_0BP@IGFCAEIH@?5?5address?5bits?5?5?5?5?5?5?5?5?5?5?5?5?5?$CFu?6?$AA@
CONST	SEGMENT
??_C@_0BP@IGFCAEIH@?5?5address?5bits?5?5?5?5?5?5?5?5?5?5?5?5?5?$CFu?6?$AA@ DB ' '
	DB	' address bits             %u', 0aH, 00H	; `string'
CONST	ENDS
;	COMDAT ??_C@_0CE@MLIIKEEG@?5?5maximum?5avaible?5mem?5?5?5?5?5?5?$CF?42f?5@
CONST	SEGMENT
??_C@_0CE@MLIIKEEG@?5?5maximum?5avaible?5mem?5?5?5?5?5?5?$CF?42f?5@ DB ' '
	DB	' maximum avaible mem      %.2f %s', 0aH, 00H ; `string'
CONST	ENDS
;	COMDAT ??_C@_0CE@CHKCHDNL@?5?5global?5mem?5cache?5size?5?5?5?5?$CF?42f?5@
CONST	SEGMENT
??_C@_0CE@CHKCHDNL@?5?5global?5mem?5cache?5size?5?5?5?5?$CF?42f?5@ DB '  '
	DB	'global mem cache size    %.2f %s', 0aH, 00H	; `string'
CONST	ENDS
;	COMDAT ??_C@_0CE@DMBLFCEI@?5?5global?5memory?5size?5?5?5?5?5?5?5?$CF?42f?5@
CONST	SEGMENT
??_C@_0CE@DMBLFCEI@?5?5global?5memory?5size?5?5?5?5?5?5?5?$CF?42f?5@ DB ' '
	DB	' global memory size       %.2f %s', 0aH, 00H ; `string'
CONST	ENDS
;	COMDAT ??_C@_0CE@CCJFOIDE@?5?5local?5memory?5size?5?5?5?5?5?5?5?5?$CF?42f?5@
CONST	SEGMENT
??_C@_0CE@CCJFOIDE@?5?5local?5memory?5size?5?5?5?5?5?5?5?5?$CF?42f?5@ DB ' '
	DB	' local memory size        %.2f %s', 0aH, 00H ; `string'
CONST	ENDS
;	COMDAT __real@4090000000000000
CONST	SEGMENT
__real@4090000000000000 DQ 04090000000000000r	; 1024
CONST	ENDS
;	COMDAT ??_C@_03FNDBJNEP@GiB?$AA@
CONST	SEGMENT
??_C@_03FNDBJNEP@GiB?$AA@ DB 'GiB', 00H			; `string'
CONST	ENDS
;	COMDAT ??_C@_03DCIMHNCL@MiB?$AA@
CONST	SEGMENT
??_C@_03DCIMHNCL@MiB?$AA@ DB 'MiB', 00H			; `string'
CONST	ENDS
;	COMDAT ??_C@_03BHOHCCPH@KiB?$AA@
CONST	SEGMENT
??_C@_03BHOHCCPH@KiB?$AA@ DB 'KiB', 00H			; `string'
CONST	ENDS
;	COMDAT ??_C@_03ECGPNCBH@B?5?5?$AA@
CONST	SEGMENT
??_C@_03ECGPNCBH@B?5?5?$AA@ DB 'B  ', 00H		; `string'
CONST	ENDS
;	COMDAT ??_C@_0BP@PFMNCOMH@?5?5driver?5version?5?5?5?5?5?5?5?5?5?5?5?$CFs?6?$AA@
CONST	SEGMENT
??_C@_0BP@PFMNCOMH@?5?5driver?5version?5?5?5?5?5?5?5?5?5?5?5?$CFs?6?$AA@ DB ' '
	DB	' driver version           %s', 0aH, 00H	; `string'
CONST	ENDS
;	COMDAT ??_C@_0BP@KGKIBOBD@?5?5device?5version?5?5?5?5?5?5?5?5?5?5?5?$CFs?6?$AA@
CONST	SEGMENT
??_C@_0BP@KGKIBOBD@?5?5device?5version?5?5?5?5?5?5?5?5?5?5?5?$CFs?6?$AA@ DB ' '
	DB	' device version           %s', 0aH, 00H	; `string'
CONST	ENDS
;	COMDAT ??_C@_0BP@GBJEKDAJ@?5?5device?5name?5?5?5?5?5?5?5?5?5?5?5?5?5?5?$CFs?6?$AA@
CONST	SEGMENT
??_C@_0BP@GBJEKDAJ@?5?5device?5name?5?5?5?5?5?5?5?5?5?5?5?5?5?5?$CFs?6?$AA@ DB ' '
	DB	' device name              %s', 0aH, 00H	; `string'
CONST	ENDS
;	COMDAT ??_C@_0P@LLKCIPKG@?6Device?5info?3?6?$AA@
CONST	SEGMENT
??_C@_0P@LLKCIPKG@?6Device?5info?3?6?$AA@ DB 0aH, 'Device info:', 0aH, 00H ; `string'
; Function compile flags: /Odtp /RTCsu /ZI
CONST	ENDS
;	COMDAT ?cl_print_device_info@@YAXXZ
_TEXT	SEGMENT
tv398 = -1504						; size = 8
tv377 = -1504						; size = 8
tv356 = -1504						; size = 8
tv335 = -1504						; size = 8
_i$32046 = -1300					; size = 4
_unit$32045 = -1288					; size = 4
_units$32044 = -1276					; size = 16
_memory$32042 = -1252					; size = 8
_i$32037 = -1236					; size = 4
_unit$32036 = -1224					; size = 4
_units$32035 = -1212					; size = 16
_memory$32033 = -1188					; size = 8
_i$32028 = -1172					; size = 4
_unit$32027 = -1160					; size = 4
_units$32026 = -1148					; size = 16
_memory$32024 = -1124					; size = 8
_i$32019 = -1108					; size = 4
_unit$32018 = -1096					; size = 4
_units$32013 = -1084					; size = 16
_memory$32011 = -1060					; size = 8
_param_string$ = -1044					; size = 1024
_param_value$ = -12					; size = 4
__$ArrayPad$ = -4					; size = 4
?cl_print_device_info@@YAXXZ PROC			; cl_print_device_info, COMDAT

; 413  : {

	push	ebp
	mov	ebp, esp
	sub	esp, 1504				; 000005e0H
	push	ebx
	push	esi
	push	edi
	lea	edi, DWORD PTR [ebp-1504]
	mov	ecx, 376				; 00000178H
	mov	eax, -858993460				; ccccccccH
	rep stosd
	mov	eax, DWORD PTR ___security_cookie
	xor	eax, ebp
	mov	DWORD PTR __$ArrayPad$[ebp], eax

; 414  : 	printf("\nDevice info:\n");

	push	OFFSET ??_C@_0P@LLKCIPKG@?6Device?5info?3?6?$AA@
	call	_printf
	add	esp, 4

; 415  : 	unsigned long int param_value;
; 416  : 	char param_string[1024];
; 417  : 
; 418  : 	clGetDeviceInfo(device_id, CL_DEVICE_NAME, sizeof(param_string) * 1024, &param_string, NULL);

	push	0
	lea	eax, DWORD PTR _param_string$[ebp]
	push	eax
	push	1048576					; 00100000H
	push	4139					; 0000102bH
	mov	ecx, DWORD PTR _device_id
	push	ecx
	call	_clGetDeviceInfo@20

; 419  : 	printf("  device name              %s\n", param_string);

	lea	eax, DWORD PTR _param_string$[ebp]
	push	eax
	push	OFFSET ??_C@_0BP@GBJEKDAJ@?5?5device?5name?5?5?5?5?5?5?5?5?5?5?5?5?5?5?$CFs?6?$AA@
	call	_printf
	add	esp, 8

; 420  : 
; 421  : 	clGetDeviceInfo(device_id, CL_DEVICE_VERSION, sizeof(param_string) * 1024, &param_string, NULL);

	push	0
	lea	eax, DWORD PTR _param_string$[ebp]
	push	eax
	push	1048576					; 00100000H
	push	4143					; 0000102fH
	mov	ecx, DWORD PTR _device_id
	push	ecx
	call	_clGetDeviceInfo@20

; 422  : 	printf("  device version           %s\n", param_string);

	lea	eax, DWORD PTR _param_string$[ebp]
	push	eax
	push	OFFSET ??_C@_0BP@KGKIBOBD@?5?5device?5version?5?5?5?5?5?5?5?5?5?5?5?$CFs?6?$AA@
	call	_printf
	add	esp, 8

; 423  : 
; 424  : 	clGetDeviceInfo(device_id, CL_DRIVER_VERSION, sizeof(param_string) * 1024, &param_string, NULL);

	push	0
	lea	eax, DWORD PTR _param_string$[ebp]
	push	eax
	push	1048576					; 00100000H
	push	4141					; 0000102dH
	mov	ecx, DWORD PTR _device_id
	push	ecx
	call	_clGetDeviceInfo@20

; 425  : 	printf("  driver version           %s\n", param_string);

	lea	eax, DWORD PTR _param_string$[ebp]
	push	eax
	push	OFFSET ??_C@_0BP@PFMNCOMH@?5?5driver?5version?5?5?5?5?5?5?5?5?5?5?5?$CFs?6?$AA@
	call	_printf
	add	esp, 8

; 426  : 
; 427  : 	param_value = clGetDeviceInfo(device_id, CL_DEVICE_LOCAL_MEM_SIZE, sizeof(param_value), &param_value, NULL);

	push	0
	lea	eax, DWORD PTR _param_value$[ebp]
	push	eax
	push	4
	push	4131					; 00001023H
	mov	ecx, DWORD PTR _device_id
	push	ecx
	call	_clGetDeviceInfo@20
	mov	DWORD PTR _param_value$[ebp], eax

; 428  : 	{
; 429  : 		double memory = (double) param_value;

	mov	eax, DWORD PTR _param_value$[ebp]
	mov	DWORD PTR tv335[ebp], eax
	mov	DWORD PTR tv335[ebp+4], 0
	fild	QWORD PTR tv335[ebp]
	fstp	QWORD PTR _memory$32011[ebp]

; 430  : 		char units[][4] = {"B  ", "KiB", "MiB", "GiB"};

	mov	eax, DWORD PTR ??_C@_03ECGPNCBH@B?5?5?$AA@
	mov	DWORD PTR _units$32013[ebp], eax
	mov	eax, DWORD PTR ??_C@_03BHOHCCPH@KiB?$AA@
	mov	DWORD PTR _units$32013[ebp+4], eax
	mov	eax, DWORD PTR ??_C@_03DCIMHNCL@MiB?$AA@
	mov	DWORD PTR _units$32013[ebp+8], eax
	mov	eax, DWORD PTR ??_C@_03FNDBJNEP@GiB?$AA@
	mov	DWORD PTR _units$32013[ebp+12], eax

; 431  : 		char *unit = units[0];

	lea	eax, DWORD PTR _units$32013[ebp]
	mov	DWORD PTR _unit$32018[ebp], eax

; 432  : 		for (int i = 1; memory >= 1024; i++)

	mov	DWORD PTR _i$32019[ebp], 1
	jmp	SHORT $LN12@cl_print_d
$LN11@cl_print_d:
	mov	eax, DWORD PTR _i$32019[ebp]
	add	eax, 1
	mov	DWORD PTR _i$32019[ebp], eax
$LN12@cl_print_d:
	fld	QWORD PTR __real@4090000000000000
	fcomp	QWORD PTR _memory$32011[ebp]
	fnstsw	ax
	test	ah, 65					; 00000041H
	jp	SHORT $LN10@cl_print_d

; 433  : 		{
; 434  : 			memory /= 1024;

	fld	QWORD PTR _memory$32011[ebp]
	fdiv	QWORD PTR __real@4090000000000000
	fstp	QWORD PTR _memory$32011[ebp]

; 435  : 			unit = units[i];

	mov	eax, DWORD PTR _i$32019[ebp]
	lea	ecx, DWORD PTR _units$32013[ebp+eax*4]
	mov	DWORD PTR _unit$32018[ebp], ecx

; 436  : 		}

	jmp	SHORT $LN11@cl_print_d
$LN10@cl_print_d:

; 437  : 		printf("  local memory size        %.2f %s\n", memory, unit);

	mov	eax, DWORD PTR _unit$32018[ebp]
	push	eax
	sub	esp, 8
	fld	QWORD PTR _memory$32011[ebp]
	fstp	QWORD PTR [esp]
	push	OFFSET ??_C@_0CE@CCJFOIDE@?5?5local?5memory?5size?5?5?5?5?5?5?5?5?$CF?42f?5@
	call	_printf
	add	esp, 16					; 00000010H

; 438  : 	}
; 439  : 
; 440  : 	clGetDeviceInfo(device_id, CL_DEVICE_GLOBAL_MEM_SIZE, sizeof(param_value), &param_value, NULL);

	push	0
	lea	eax, DWORD PTR _param_value$[ebp]
	push	eax
	push	4
	push	4127					; 0000101fH
	mov	ecx, DWORD PTR _device_id
	push	ecx
	call	_clGetDeviceInfo@20

; 441  : 	{
; 442  : 		double memory = (double) param_value;

	mov	eax, DWORD PTR _param_value$[ebp]
	mov	DWORD PTR tv356[ebp], eax
	mov	DWORD PTR tv356[ebp+4], 0
	fild	QWORD PTR tv356[ebp]
	fstp	QWORD PTR _memory$32024[ebp]

; 443  : 		char units[][4] = {"B  ", "KiB", "MiB", "GiB"};

	mov	eax, DWORD PTR ??_C@_03ECGPNCBH@B?5?5?$AA@
	mov	DWORD PTR _units$32026[ebp], eax
	mov	eax, DWORD PTR ??_C@_03BHOHCCPH@KiB?$AA@
	mov	DWORD PTR _units$32026[ebp+4], eax
	mov	eax, DWORD PTR ??_C@_03DCIMHNCL@MiB?$AA@
	mov	DWORD PTR _units$32026[ebp+8], eax
	mov	eax, DWORD PTR ??_C@_03FNDBJNEP@GiB?$AA@
	mov	DWORD PTR _units$32026[ebp+12], eax

; 444  : 		char *unit = units[0];

	lea	eax, DWORD PTR _units$32026[ebp]
	mov	DWORD PTR _unit$32027[ebp], eax

; 445  : 		for (int i = 1; memory >= 1024; i++)

	mov	DWORD PTR _i$32028[ebp], 1
	jmp	SHORT $LN9@cl_print_d
$LN8@cl_print_d:
	mov	eax, DWORD PTR _i$32028[ebp]
	add	eax, 1
	mov	DWORD PTR _i$32028[ebp], eax
$LN9@cl_print_d:
	fld	QWORD PTR __real@4090000000000000
	fcomp	QWORD PTR _memory$32024[ebp]
	fnstsw	ax
	test	ah, 65					; 00000041H
	jp	SHORT $LN7@cl_print_d

; 446  : 		{
; 447  : 			memory /= 1024;

	fld	QWORD PTR _memory$32024[ebp]
	fdiv	QWORD PTR __real@4090000000000000
	fstp	QWORD PTR _memory$32024[ebp]

; 448  : 			unit = units[i];

	mov	eax, DWORD PTR _i$32028[ebp]
	lea	ecx, DWORD PTR _units$32026[ebp+eax*4]
	mov	DWORD PTR _unit$32027[ebp], ecx

; 449  : 		}

	jmp	SHORT $LN8@cl_print_d
$LN7@cl_print_d:

; 450  : 		printf("  global memory size       %.2f %s\n", memory, unit);

	mov	eax, DWORD PTR _unit$32027[ebp]
	push	eax
	sub	esp, 8
	fld	QWORD PTR _memory$32024[ebp]
	fstp	QWORD PTR [esp]
	push	OFFSET ??_C@_0CE@DMBLFCEI@?5?5global?5memory?5size?5?5?5?5?5?5?5?$CF?42f?5@
	call	_printf
	add	esp, 16					; 00000010H

; 451  : 	}
; 452  : 
; 453  : 	clGetDeviceInfo(device_id, CL_DEVICE_GLOBAL_MEM_CACHE_SIZE, sizeof(param_value), &param_value, NULL);

	push	0
	lea	eax, DWORD PTR _param_value$[ebp]
	push	eax
	push	4
	push	4126					; 0000101eH
	mov	ecx, DWORD PTR _device_id
	push	ecx
	call	_clGetDeviceInfo@20

; 454  : 	{
; 455  : 		double memory = (double) param_value;

	mov	eax, DWORD PTR _param_value$[ebp]
	mov	DWORD PTR tv377[ebp], eax
	mov	DWORD PTR tv377[ebp+4], 0
	fild	QWORD PTR tv377[ebp]
	fstp	QWORD PTR _memory$32033[ebp]

; 456  : 		char units[][4] = {"B  ", "KiB", "MiB", "GiB"};

	mov	eax, DWORD PTR ??_C@_03ECGPNCBH@B?5?5?$AA@
	mov	DWORD PTR _units$32035[ebp], eax
	mov	eax, DWORD PTR ??_C@_03BHOHCCPH@KiB?$AA@
	mov	DWORD PTR _units$32035[ebp+4], eax
	mov	eax, DWORD PTR ??_C@_03DCIMHNCL@MiB?$AA@
	mov	DWORD PTR _units$32035[ebp+8], eax
	mov	eax, DWORD PTR ??_C@_03FNDBJNEP@GiB?$AA@
	mov	DWORD PTR _units$32035[ebp+12], eax

; 457  : 		char *unit = units[0];

	lea	eax, DWORD PTR _units$32035[ebp]
	mov	DWORD PTR _unit$32036[ebp], eax

; 458  : 		for (int i = 1; memory >= 1024; i++)

	mov	DWORD PTR _i$32037[ebp], 1
	jmp	SHORT $LN6@cl_print_d
$LN5@cl_print_d:
	mov	eax, DWORD PTR _i$32037[ebp]
	add	eax, 1
	mov	DWORD PTR _i$32037[ebp], eax
$LN6@cl_print_d:
	fld	QWORD PTR __real@4090000000000000
	fcomp	QWORD PTR _memory$32033[ebp]
	fnstsw	ax
	test	ah, 65					; 00000041H
	jp	SHORT $LN4@cl_print_d

; 459  : 		{
; 460  : 			memory /= 1024;

	fld	QWORD PTR _memory$32033[ebp]
	fdiv	QWORD PTR __real@4090000000000000
	fstp	QWORD PTR _memory$32033[ebp]

; 461  : 			unit = units[i];

	mov	eax, DWORD PTR _i$32037[ebp]
	lea	ecx, DWORD PTR _units$32035[ebp+eax*4]
	mov	DWORD PTR _unit$32036[ebp], ecx

; 462  : 		}

	jmp	SHORT $LN5@cl_print_d
$LN4@cl_print_d:

; 463  : 		printf("  global mem cache size    %.2f %s\n", memory, unit);

	mov	eax, DWORD PTR _unit$32036[ebp]
	push	eax
	sub	esp, 8
	fld	QWORD PTR _memory$32033[ebp]
	fstp	QWORD PTR [esp]
	push	OFFSET ??_C@_0CE@CHKCHDNL@?5?5global?5mem?5cache?5size?5?5?5?5?$CF?42f?5@
	call	_printf
	add	esp, 16					; 00000010H

; 464  : 	}
; 465  : 
; 466  : 	clGetDeviceInfo(device_id, CL_DEVICE_MAX_MEM_ALLOC_SIZE, sizeof(param_value), &param_value, NULL);

	push	0
	lea	eax, DWORD PTR _param_value$[ebp]
	push	eax
	push	4
	push	4112					; 00001010H
	mov	ecx, DWORD PTR _device_id
	push	ecx
	call	_clGetDeviceInfo@20

; 467  : 	{
; 468  : 		double memory = (double) param_value;

	mov	eax, DWORD PTR _param_value$[ebp]
	mov	DWORD PTR tv398[ebp], eax
	mov	DWORD PTR tv398[ebp+4], 0
	fild	QWORD PTR tv398[ebp]
	fstp	QWORD PTR _memory$32042[ebp]

; 469  : 		char units[][4] = {"B  ", "KiB", "MiB", "GiB"};

	mov	eax, DWORD PTR ??_C@_03ECGPNCBH@B?5?5?$AA@
	mov	DWORD PTR _units$32044[ebp], eax
	mov	eax, DWORD PTR ??_C@_03BHOHCCPH@KiB?$AA@
	mov	DWORD PTR _units$32044[ebp+4], eax
	mov	eax, DWORD PTR ??_C@_03DCIMHNCL@MiB?$AA@
	mov	DWORD PTR _units$32044[ebp+8], eax
	mov	eax, DWORD PTR ??_C@_03FNDBJNEP@GiB?$AA@
	mov	DWORD PTR _units$32044[ebp+12], eax

; 470  : 		char *unit = units[0];

	lea	eax, DWORD PTR _units$32044[ebp]
	mov	DWORD PTR _unit$32045[ebp], eax

; 471  : 		for (int i = 1; memory >= 1024; i++)

	mov	DWORD PTR _i$32046[ebp], 1
	jmp	SHORT $LN3@cl_print_d
$LN2@cl_print_d:
	mov	eax, DWORD PTR _i$32046[ebp]
	add	eax, 1
	mov	DWORD PTR _i$32046[ebp], eax
$LN3@cl_print_d:
	fld	QWORD PTR __real@4090000000000000
	fcomp	QWORD PTR _memory$32042[ebp]
	fnstsw	ax
	test	ah, 65					; 00000041H
	jp	SHORT $LN1@cl_print_d

; 472  : 		{
; 473  : 			memory /= 1024;

	fld	QWORD PTR _memory$32042[ebp]
	fdiv	QWORD PTR __real@4090000000000000
	fstp	QWORD PTR _memory$32042[ebp]

; 474  : 			unit = units[i];

	mov	eax, DWORD PTR _i$32046[ebp]
	lea	ecx, DWORD PTR _units$32044[ebp+eax*4]
	mov	DWORD PTR _unit$32045[ebp], ecx

; 475  : 		}

	jmp	SHORT $LN2@cl_print_d
$LN1@cl_print_d:

; 476  : 		printf("  maximum avaible mem      %.2f %s\n", memory, unit);

	mov	eax, DWORD PTR _unit$32045[ebp]
	push	eax
	sub	esp, 8
	fld	QWORD PTR _memory$32042[ebp]
	fstp	QWORD PTR [esp]
	push	OFFSET ??_C@_0CE@MLIIKEEG@?5?5maximum?5avaible?5mem?5?5?5?5?5?5?$CF?42f?5@
	call	_printf
	add	esp, 16					; 00000010H

; 477  : 	}
; 478  : 
; 479  : 	clGetDeviceInfo(device_id, CL_DEVICE_ADDRESS_BITS, sizeof(param_value), &param_value, NULL);

	push	0
	lea	eax, DWORD PTR _param_value$[ebp]
	push	eax
	push	4
	push	4109					; 0000100dH
	mov	ecx, DWORD PTR _device_id
	push	ecx
	call	_clGetDeviceInfo@20

; 480  : 	printf("  address bits             %u\n", param_value);

	mov	eax, DWORD PTR _param_value$[ebp]
	push	eax
	push	OFFSET ??_C@_0BP@IGFCAEIH@?5?5address?5bits?5?5?5?5?5?5?5?5?5?5?5?5?5?$CFu?6?$AA@
	call	_printf
	add	esp, 8

; 481  : 
; 482  : 	clGetDeviceInfo(device_id, CL_DEVICE_MAX_COMPUTE_UNITS, sizeof(param_value), &param_value, NULL);

	push	0
	lea	eax, DWORD PTR _param_value$[ebp]
	push	eax
	push	4
	push	4098					; 00001002H
	mov	ecx, DWORD PTR _device_id
	push	ecx
	call	_clGetDeviceInfo@20

; 483  : 	printf("  maximum compute units    %u\n", param_value);

	mov	eax, DWORD PTR _param_value$[ebp]
	push	eax
	push	OFFSET ??_C@_0BP@ECPPJEF@?5?5maximum?5compute?5units?5?5?5?5?$CFu?6?$AA@
	call	_printf
	add	esp, 8

; 484  : 
; 485  : 	clGetDeviceInfo(device_id, CL_DEVICE_MAX_WORK_GROUP_SIZE, sizeof(param_value), &param_value, NULL);

	push	0
	lea	eax, DWORD PTR _param_value$[ebp]
	push	eax
	push	4
	push	4100					; 00001004H
	mov	ecx, DWORD PTR _device_id
	push	ecx
	call	_clGetDeviceInfo@20

; 486  : 	printf("  maximum work-group size  %u\n", param_value);

	mov	eax, DWORD PTR _param_value$[ebp]
	push	eax
	push	OFFSET ??_C@_0BP@DEPGPIEH@?5?5maximum?5work?9group?5size?5?5?$CFu?6?$AA@
	call	_printf
	add	esp, 8

; 487  : 
; 488  : 	clGetDeviceInfo(device_id, CL_DEVICE_MAX_WORK_ITEM_SIZES, sizeof(param_value), &param_value, NULL);

	push	0
	lea	eax, DWORD PTR _param_value$[ebp]
	push	eax
	push	4
	push	4101					; 00001005H
	mov	ecx, DWORD PTR _device_id
	push	ecx
	call	_clGetDeviceInfo@20

; 489  : 	printf("  maximum work-item sizes  %u\n", param_value);

	mov	eax, DWORD PTR _param_value$[ebp]
	push	eax
	push	OFFSET ??_C@_0BP@NDMOHBPN@?5?5maximum?5work?9item?5sizes?5?5?$CFu?6?$AA@
	call	_printf
	add	esp, 8

; 490  : 
; 491  : 	clGetDeviceInfo(device_id, CL_DEVICE_MAX_CLOCK_FREQUENCY, sizeof(param_value), &param_value, NULL);

	push	0
	lea	eax, DWORD PTR _param_value$[ebp]
	push	eax
	push	4
	push	4108					; 0000100cH
	mov	ecx, DWORD PTR _device_id
	push	ecx
	call	_clGetDeviceInfo@20

; 492  : 	printf("  max clock frequency      %u MHz\n", param_value);

	mov	eax, DWORD PTR _param_value$[ebp]
	push	eax
	push	OFFSET ??_C@_0CD@NOOIMDDD@?5?5max?5clock?5frequency?5?5?5?5?5?5?$CFu?5MH@
	call	_printf
	add	esp, 8

; 493  : }

	push	edx
	mov	ecx, ebp
	push	eax
	lea	edx, DWORD PTR $LN22@cl_print_d
	call	@_RTC_CheckStackVars@8
	pop	eax
	pop	edx
	pop	edi
	pop	esi
	pop	ebx
	mov	ecx, DWORD PTR __$ArrayPad$[ebp]
	xor	ecx, ebp
	call	@__security_check_cookie@4
	add	esp, 1504				; 000005e0H
	cmp	ebp, esp
	call	__RTC_CheckEsp
	mov	esp, ebp
	pop	ebp
	ret	0
	npad	2
$LN22@cl_print_d:
	DD	6
	DD	$LN21@cl_print_d
$LN21@cl_print_d:
	DD	-12					; fffffff4H
	DD	4
	DD	$LN15@cl_print_d
	DD	-1044					; fffffbecH
	DD	1024					; 00000400H
	DD	$LN16@cl_print_d
	DD	-1084					; fffffbc4H
	DD	16					; 00000010H
	DD	$LN17@cl_print_d
	DD	-1148					; fffffb84H
	DD	16					; 00000010H
	DD	$LN18@cl_print_d
	DD	-1212					; fffffb44H
	DD	16					; 00000010H
	DD	$LN19@cl_print_d
	DD	-1276					; fffffb04H
	DD	16					; 00000010H
	DD	$LN20@cl_print_d
$LN20@cl_print_d:
	DB	117					; 00000075H
	DB	110					; 0000006eH
	DB	105					; 00000069H
	DB	116					; 00000074H
	DB	115					; 00000073H
	DB	0
$LN19@cl_print_d:
	DB	117					; 00000075H
	DB	110					; 0000006eH
	DB	105					; 00000069H
	DB	116					; 00000074H
	DB	115					; 00000073H
	DB	0
$LN18@cl_print_d:
	DB	117					; 00000075H
	DB	110					; 0000006eH
	DB	105					; 00000069H
	DB	116					; 00000074H
	DB	115					; 00000073H
	DB	0
$LN17@cl_print_d:
	DB	117					; 00000075H
	DB	110					; 0000006eH
	DB	105					; 00000069H
	DB	116					; 00000074H
	DB	115					; 00000073H
	DB	0
$LN16@cl_print_d:
	DB	112					; 00000070H
	DB	97					; 00000061H
	DB	114					; 00000072H
	DB	97					; 00000061H
	DB	109					; 0000006dH
	DB	95					; 0000005fH
	DB	115					; 00000073H
	DB	116					; 00000074H
	DB	114					; 00000072H
	DB	105					; 00000069H
	DB	110					; 0000006eH
	DB	103					; 00000067H
	DB	0
$LN15@cl_print_d:
	DB	112					; 00000070H
	DB	97					; 00000061H
	DB	114					; 00000072H
	DB	97					; 00000061H
	DB	109					; 0000006dH
	DB	95					; 0000005fH
	DB	118					; 00000076H
	DB	97					; 00000061H
	DB	108					; 0000006cH
	DB	117					; 00000075H
	DB	101					; 00000065H
	DB	0
?cl_print_device_info@@YAXXZ ENDP			; cl_print_device_info
_TEXT	ENDS
PUBLIC	??_C@_0CD@GFCIJBIF@Error?3?5failed?5to?5read?5from?5buffe@ ; `string'
PUBLIC	??_C@_0CB@EMODPKOD@Error?3?5failed?5to?5execute?5kernel?6@ ; `string'
PUBLIC	??_C@_0CM@BFFINMJB@Error?3?5failed?5write?5data?5to?5buff@ ; `string'
PUBLIC	??_C@_0DA@DJKOFONH@Error?3?5failed?5write?5data?5to?5buff@ ; `string'
PUBLIC	?cl_update@@YAXPAEPAI@Z				; cl_update
EXTRN	_clFinish@4:PROC
EXTRN	_clEnqueueReadBuffer@36:PROC
EXTRN	_clEnqueueNDRangeKernel@36:PROC
EXTRN	_clEnqueueWriteBuffer@36:PROC
;	COMDAT ??_C@_0CD@GFCIJBIF@Error?3?5failed?5to?5read?5from?5buffe@
CONST	SEGMENT
??_C@_0CD@GFCIJBIF@Error?3?5failed?5to?5read?5from?5buffe@ DB 'Error: fai'
	DB	'led to read from buffer', 0aH, 00H		; `string'
CONST	ENDS
;	COMDAT ??_C@_0CB@EMODPKOD@Error?3?5failed?5to?5execute?5kernel?6@
CONST	SEGMENT
??_C@_0CB@EMODPKOD@Error?3?5failed?5to?5execute?5kernel?6@ DB 'Error: fai'
	DB	'led to execute kernel', 0aH, 00H		; `string'
CONST	ENDS
;	COMDAT ??_C@_0CM@BFFINMJB@Error?3?5failed?5write?5data?5to?5buff@
CONST	SEGMENT
??_C@_0CM@BFFINMJB@Error?3?5failed?5write?5data?5to?5buff@ DB 'Error: fai'
	DB	'led write data to buffer (state)', 0aH, 00H	; `string'
CONST	ENDS
;	COMDAT ??_C@_0DA@DJKOFONH@Error?3?5failed?5write?5data?5to?5buff@
CONST	SEGMENT
??_C@_0DA@DJKOFONH@Error?3?5failed?5write?5data?5to?5buff@ DB 'Error: fai'
	DB	'led write data to buffer (roundkeys)', 0aH, 00H ; `string'
; Function compile flags: /Odtp /RTCsu /ZI
CONST	ENDS
;	COMDAT ?cl_update@@YAXPAEPAI@Z
_TEXT	SEGMENT
_global$ = -20						; size = 4
_local$ = -8						; size = 4
_text$ = 8						; size = 4
_roundkeys$ = 12					; size = 4
?cl_update@@YAXPAEPAI@Z PROC				; cl_update, COMDAT

; 496  : {

	push	ebp
	mov	ebp, esp
	sub	esp, 216				; 000000d8H
	push	ebx
	push	esi
	push	edi
	lea	edi, DWORD PTR [ebp-216]
	mov	ecx, 54					; 00000036H
	mov	eax, -858993460				; ccccccccH
	rep stosd

; 497  : 	size_t local = 256;

	mov	DWORD PTR _local$[ebp], 256		; 00000100H

; 498  : 	size_t global = state_length_padded / 16;

	mov	eax, DWORD PTR _state_length_padded
	shr	eax, 4
	mov	DWORD PTR _global$[ebp], eax

; 499  : 
; 500  : 	err = clEnqueueWriteBuffer(queue, mem_roundkeys, CL_FALSE, 0, roundkeys_length, 
; 501  : 							   roundkeys, 0, NULL, NULL);

	push	0
	push	0
	push	0
	mov	eax, DWORD PTR _roundkeys$[ebp]
	push	eax
	mov	ecx, DWORD PTR _roundkeys_length
	push	ecx
	push	0
	push	0
	mov	edx, DWORD PTR _mem_roundkeys
	push	edx
	mov	eax, DWORD PTR _queue
	push	eax
	call	_clEnqueueWriteBuffer@36
	mov	DWORD PTR _err, eax

; 502  : 	if (err != CL_SUCCESS) {

	cmp	DWORD PTR _err, 0
	je	SHORT $LN4@cl_update

; 503  : 		cl_print_error(err, "Error: failed write data to buffer (roundkeys)\n");

	push	OFFSET ??_C@_0DA@DJKOFONH@Error?3?5failed?5write?5data?5to?5buff@
	mov	eax, DWORD PTR _err
	push	eax
	call	?cl_print_error@@YAXHPBDZZ		; cl_print_error
	add	esp, 8
$LN4@cl_update:

; 504  : 	}
; 505  : 
; 506  : 	err = clEnqueueWriteBuffer(queue, mem_state, CL_FALSE, 0, state_length, text, 
; 507  : 							   0, NULL, NULL);

	push	0
	push	0
	push	0
	mov	eax, DWORD PTR _text$[ebp]
	push	eax
	mov	ecx, DWORD PTR _state_length
	push	ecx
	push	0
	push	0
	mov	edx, DWORD PTR _mem_state
	push	edx
	mov	eax, DWORD PTR _queue
	push	eax
	call	_clEnqueueWriteBuffer@36
	mov	DWORD PTR _err, eax

; 508  : 	if (err != CL_SUCCESS) {

	cmp	DWORD PTR _err, 0
	je	SHORT $LN3@cl_update

; 509  : 		cl_print_error(err, "Error: failed write data to buffer (state)\n");

	push	OFFSET ??_C@_0CM@BFFINMJB@Error?3?5failed?5write?5data?5to?5buff@
	mov	eax, DWORD PTR _err
	push	eax
	call	?cl_print_error@@YAXHPBDZZ		; cl_print_error
	add	esp, 8
$LN3@cl_update:

; 510  : 	}
; 511  : 
; 512  : 	err = clEnqueueNDRangeKernel(queue, kernel, 1, NULL, &global, &local, 0, NULL, NULL);

	push	0
	push	0
	push	0
	lea	eax, DWORD PTR _local$[ebp]
	push	eax
	lea	ecx, DWORD PTR _global$[ebp]
	push	ecx
	push	0
	push	1
	mov	edx, DWORD PTR _kernel
	push	edx
	mov	eax, DWORD PTR _queue
	push	eax
	call	_clEnqueueNDRangeKernel@36
	mov	DWORD PTR _err, eax

; 513  : 	if (err != CL_SUCCESS) {

	cmp	DWORD PTR _err, 0
	je	SHORT $LN2@cl_update

; 514  : 		cl_print_error(err, "Error: failed to execute kernel\n");

	push	OFFSET ??_C@_0CB@EMODPKOD@Error?3?5failed?5to?5execute?5kernel?6@
	mov	eax, DWORD PTR _err
	push	eax
	call	?cl_print_error@@YAXHPBDZZ		; cl_print_error
	add	esp, 8
$LN2@cl_update:

; 515  : 	}
; 516  : 
; 517  : 	err = clEnqueueReadBuffer(queue, mem_state, CL_TRUE, 0, state_length, text,
; 518  : 							  0, NULL, NULL);

	push	0
	push	0
	push	0
	mov	eax, DWORD PTR _text$[ebp]
	push	eax
	mov	ecx, DWORD PTR _state_length
	push	ecx
	push	0
	push	1
	mov	edx, DWORD PTR _mem_state
	push	edx
	mov	eax, DWORD PTR _queue
	push	eax
	call	_clEnqueueReadBuffer@36
	mov	DWORD PTR _err, eax

; 519  : 	if (err != CL_SUCCESS) {

	cmp	DWORD PTR _err, 0
	je	SHORT $LN1@cl_update

; 520  : 		cl_print_error(err, "Error: failed to read from buffer\n");

	push	OFFSET ??_C@_0CD@GFCIJBIF@Error?3?5failed?5to?5read?5from?5buffe@
	mov	eax, DWORD PTR _err
	push	eax
	call	?cl_print_error@@YAXHPBDZZ		; cl_print_error
	add	esp, 8
$LN1@cl_update:

; 521  : 	}
; 522  : 
; 523  : 	clFinish(queue);

	mov	eax, DWORD PTR _queue
	push	eax
	call	_clFinish@4

; 524  : }

	push	edx
	mov	ecx, ebp
	push	eax
	lea	edx, DWORD PTR $LN10@cl_update
	call	@_RTC_CheckStackVars@8
	pop	eax
	pop	edx
	pop	edi
	pop	esi
	pop	ebx
	add	esp, 216				; 000000d8H
	cmp	ebp, esp
	call	__RTC_CheckEsp
	mov	esp, ebp
	pop	ebp
	ret	0
	npad	3
$LN10@cl_update:
	DD	2
	DD	$LN9@cl_update
$LN9@cl_update:
	DD	-8					; fffffff8H
	DD	4
	DD	$LN7@cl_update
	DD	-20					; ffffffecH
	DD	4
	DD	$LN8@cl_update
$LN8@cl_update:
	DB	103					; 00000067H
	DB	108					; 0000006cH
	DB	111					; 0000006fH
	DB	98					; 00000062H
	DB	97					; 00000061H
	DB	108					; 0000006cH
	DB	0
$LN7@cl_update:
	DB	108					; 0000006cH
	DB	111					; 0000006fH
	DB	99					; 00000063H
	DB	97					; 00000061H
	DB	108					; 0000006cH
	DB	0
?cl_update@@YAXPAEPAI@Z ENDP				; cl_update
_TEXT	ENDS
EXTRN	_clReleaseKernel@4:PROC
EXTRN	_clReleaseMemObject@4:PROC
; Function compile flags: /Odtp /RTCsu /ZI
;	COMDAT ?cl_release_kernel@@YAXXZ
_TEXT	SEGMENT
?cl_release_kernel@@YAXXZ PROC				; cl_release_kernel, COMDAT

; 527  : {

	push	ebp
	mov	ebp, esp
	sub	esp, 192				; 000000c0H
	push	ebx
	push	esi
	push	edi
	lea	edi, DWORD PTR [ebp-192]
	mov	ecx, 48					; 00000030H
	mov	eax, -858993460				; ccccccccH
	rep stosd

; 528  : 	if (mem_state != nullptr)

	cmp	DWORD PTR _mem_state, 0
	je	SHORT $LN9@cl_release
$LN8@cl_release:

; 529  : 	{
; 530  : 		while (clReleaseMemObject(mem_state));

	mov	eax, DWORD PTR _mem_state
	push	eax
	call	_clReleaseMemObject@4
	test	eax, eax
	je	SHORT $LN7@cl_release
	jmp	SHORT $LN8@cl_release
$LN7@cl_release:

; 531  : 		mem_state = nullptr;

	mov	DWORD PTR _mem_state, 0
$LN9@cl_release:

; 532  : 	}
; 533  : 	
; 534  : 	if (mem_roundkeys != nullptr)

	cmp	DWORD PTR _mem_roundkeys, 0
	je	SHORT $LN6@cl_release
$LN5@cl_release:

; 535  : 	{
; 536  : 		while (clReleaseMemObject(mem_roundkeys));

	mov	eax, DWORD PTR _mem_roundkeys
	push	eax
	call	_clReleaseMemObject@4
	test	eax, eax
	je	SHORT $LN4@cl_release
	jmp	SHORT $LN5@cl_release
$LN4@cl_release:

; 537  : 		mem_roundkeys = nullptr;

	mov	DWORD PTR _mem_roundkeys, 0
$LN6@cl_release:

; 538  : 	}
; 539  : 
; 540  : 	if (kernel != nullptr)

	cmp	DWORD PTR _kernel, 0
	je	SHORT $LN10@cl_release
$LN2@cl_release:

; 541  : 	{
; 542  : 		while (clReleaseKernel(kernel));

	mov	eax, DWORD PTR _kernel
	push	eax
	call	_clReleaseKernel@4
	test	eax, eax
	je	SHORT $LN1@cl_release
	jmp	SHORT $LN2@cl_release
$LN1@cl_release:

; 543  : 		kernel = nullptr;

	mov	DWORD PTR _kernel, 0
$LN10@cl_release:

; 544  : 	}
; 545  : }

	pop	edi
	pop	esi
	pop	ebx
	add	esp, 192				; 000000c0H
	cmp	ebp, esp
	call	__RTC_CheckEsp
	mov	esp, ebp
	pop	ebp
	ret	0
?cl_release_kernel@@YAXXZ ENDP				; cl_release_kernel
_TEXT	ENDS
PUBLIC	?cl_release_all@@YAXXZ				; cl_release_all
EXTRN	_clReleaseContext@4:PROC
EXTRN	_clReleaseCommandQueue@4:PROC
EXTRN	_clReleaseProgram@4:PROC
; Function compile flags: /Odtp /RTCsu /ZI
;	COMDAT ?cl_release_all@@YAXXZ
_TEXT	SEGMENT
?cl_release_all@@YAXXZ PROC				; cl_release_all, COMDAT

; 548  : {

	push	ebp
	mov	ebp, esp
	sub	esp, 192				; 000000c0H
	push	ebx
	push	esi
	push	edi
	lea	edi, DWORD PTR [ebp-192]
	mov	ecx, 48					; 00000030H
	mov	eax, -858993460				; ccccccccH
	rep stosd

; 549  : 	cl_release_kernel();

	call	?cl_release_kernel@@YAXXZ		; cl_release_kernel

; 550  : 
; 551  : 	if (program != nullptr)

	cmp	DWORD PTR _program, 0
	je	SHORT $LN9@cl_release@2
$LN8@cl_release@2:

; 552  : 	{
; 553  : 		while (clReleaseProgram(program));

	mov	eax, DWORD PTR _program
	push	eax
	call	_clReleaseProgram@4
	test	eax, eax
	je	SHORT $LN7@cl_release@2
	jmp	SHORT $LN8@cl_release@2
$LN7@cl_release@2:

; 554  : 		program = nullptr;

	mov	DWORD PTR _program, 0
$LN9@cl_release@2:

; 555  : 	}
; 556  : 
; 557  : 	if (queue != nullptr)

	cmp	DWORD PTR _queue, 0
	je	SHORT $LN6@cl_release@2
$LN5@cl_release@2:

; 558  : 	{
; 559  : 		while (clReleaseCommandQueue(queue));

	mov	eax, DWORD PTR _queue
	push	eax
	call	_clReleaseCommandQueue@4
	test	eax, eax
	je	SHORT $LN4@cl_release@2
	jmp	SHORT $LN5@cl_release@2
$LN4@cl_release@2:

; 560  : 		queue = nullptr;

	mov	DWORD PTR _queue, 0
$LN6@cl_release@2:

; 561  : 	}
; 562  : 
; 563  : 	if (context != nullptr)

	cmp	DWORD PTR _context, 0
	je	SHORT $LN10@cl_release@2
$LN2@cl_release@2:

; 564  : 	{
; 565  : 		while (clReleaseContext(context));

	mov	eax, DWORD PTR _context
	push	eax
	call	_clReleaseContext@4
	test	eax, eax
	je	SHORT $LN1@cl_release@2
	jmp	SHORT $LN2@cl_release@2
$LN1@cl_release@2:

; 566  : 		context = nullptr;

	mov	DWORD PTR _context, 0
$LN10@cl_release@2:

; 567  : 	}
; 568  : }

	pop	edi
	pop	esi
	pop	ebx
	add	esp, 192				; 000000c0H
	cmp	ebp, esp
	call	__RTC_CheckEsp
	mov	esp, ebp
	pop	ebp
	ret	0
?cl_release_all@@YAXXZ ENDP				; cl_release_all
_TEXT	ENDS
PUBLIC	??1?$_String_val@DV?$allocator@D@std@@@std@@QAE@XZ ; std::_String_val<char,std::allocator<char> >::~_String_val<char,std::allocator<char> >
PUBLIC	?_Tidy@?$basic_string@DU?$char_traits@D@std@@V?$allocator@D@2@@std@@QAEX_NI@Z ; std::basic_string<char,std::char_traits<char>,std::allocator<char> >::_Tidy
PUBLIC	??0?$_String_val@DV?$allocator@D@std@@@std@@QAE@V?$allocator@D@1@@Z ; std::_String_val<char,std::allocator<char> >::_String_val<char,std::allocator<char> >
PUBLIC	??0?$allocator@D@std@@QAE@XZ			; std::allocator<char>::allocator<char>
;	COMDAT xdata$x
; File c:\program files (x86)\microsoft visual studio 10.0\vc\include\xstring
xdata$x	SEGMENT
__unwindtable$??0?$basic_string@DU?$char_traits@D@std@@V?$allocator@D@2@@std@@QAE@XZ DD 0ffffffffH
	DD	FLAT:__unwindfunclet$??0?$basic_string@DU?$char_traits@D@std@@V?$allocator@D@2@@std@@QAE@XZ$0
__ehfuncinfo$??0?$basic_string@DU?$char_traits@D@std@@V?$allocator@D@2@@std@@QAE@XZ DD 019930522H
	DD	01H
	DD	FLAT:__unwindtable$??0?$basic_string@DU?$char_traits@D@std@@V?$allocator@D@2@@std@@QAE@XZ
	DD	2 DUP(00H)
	DD	2 DUP(00H)
	DD	00H
	DD	01H
; Function compile flags: /Odtp /RTCsu /ZI
xdata$x	ENDS
;	COMDAT ??0?$basic_string@DU?$char_traits@D@std@@V?$allocator@D@2@@std@@QAE@XZ
_TEXT	SEGMENT
$T36663 = -224						; size = 4
_this$ = -20						; size = 4
__$EHRec$ = -12						; size = 12
??0?$basic_string@DU?$char_traits@D@std@@V?$allocator@D@2@@std@@QAE@XZ PROC ; std::basic_string<char,std::char_traits<char>,std::allocator<char> >::basic_string<char,std::char_traits<char>,std::allocator<char> >, COMDAT
; _this$ = ecx

; 550  : 		{	// construct empty string

	push	ebp
	mov	ebp, esp
	push	-1
	push	__ehhandler$??0?$basic_string@DU?$char_traits@D@std@@V?$allocator@D@2@@std@@QAE@XZ
	mov	eax, DWORD PTR fs:0
	push	eax
	sub	esp, 216				; 000000d8H
	push	ebx
	push	esi
	push	edi
	push	ecx
	lea	edi, DWORD PTR [ebp-228]
	mov	ecx, 54					; 00000036H
	mov	eax, -858993460				; ccccccccH
	rep stosd
	pop	ecx
	mov	eax, DWORD PTR ___security_cookie
	xor	eax, ebp
	push	eax
	lea	eax, DWORD PTR __$EHRec$[ebp]
	mov	DWORD PTR fs:0, eax
	mov	DWORD PTR _this$[ebp], ecx
	push	ecx
	mov	ecx, esp
	mov	DWORD PTR $T36663[ebp], esp
	call	??0?$allocator@D@std@@QAE@XZ		; std::allocator<char>::allocator<char>
	mov	ecx, DWORD PTR _this$[ebp]
	call	??0?$_String_val@DV?$allocator@D@std@@@std@@QAE@V?$allocator@D@1@@Z ; std::_String_val<char,std::allocator<char> >::_String_val<char,std::allocator<char> >
	mov	DWORD PTR __$EHRec$[ebp+8], 0

; 551  : 		_Tidy();

	push	0
	push	0
	mov	ecx, DWORD PTR _this$[ebp]
	call	?_Tidy@?$basic_string@DU?$char_traits@D@std@@V?$allocator@D@2@@std@@QAEX_NI@Z ; std::basic_string<char,std::char_traits<char>,std::allocator<char> >::_Tidy

; 552  : 		}

	mov	DWORD PTR __$EHRec$[ebp+8], -1
	mov	eax, DWORD PTR _this$[ebp]
	mov	ecx, DWORD PTR __$EHRec$[ebp]
	mov	DWORD PTR fs:0, ecx
	pop	ecx
	pop	edi
	pop	esi
	pop	ebx
	add	esp, 228				; 000000e4H
	cmp	ebp, esp
	call	__RTC_CheckEsp
	mov	esp, ebp
	pop	ebp
	ret	0
_TEXT	ENDS
;	COMDAT text$x
text$x	SEGMENT
__unwindfunclet$??0?$basic_string@DU?$char_traits@D@std@@V?$allocator@D@2@@std@@QAE@XZ$0:
	mov	ecx, DWORD PTR _this$[ebp]
	jmp	??1?$_String_val@DV?$allocator@D@std@@@std@@QAE@XZ ; std::_String_val<char,std::allocator<char> >::~_String_val<char,std::allocator<char> >
__ehhandler$??0?$basic_string@DU?$char_traits@D@std@@V?$allocator@D@2@@std@@QAE@XZ:
	mov	edx, DWORD PTR [esp+8]
	lea	eax, DWORD PTR [edx+12]
	mov	ecx, DWORD PTR [edx-232]
	xor	ecx, eax
	call	@__security_check_cookie@4
	mov	eax, OFFSET __ehfuncinfo$??0?$basic_string@DU?$char_traits@D@std@@V?$allocator@D@2@@std@@QAE@XZ
	jmp	___CxxFrameHandler3
text$x	ENDS
??0?$basic_string@DU?$char_traits@D@std@@V?$allocator@D@2@@std@@QAE@XZ ENDP ; std::basic_string<char,std::char_traits<char>,std::allocator<char> >::basic_string<char,std::char_traits<char>,std::allocator<char> >
PUBLIC	?assign@?$basic_string@DU?$char_traits@D@std@@V?$allocator@D@2@@std@@QAEAAV12@PBD@Z ; std::basic_string<char,std::char_traits<char>,std::allocator<char> >::assign
;	COMDAT xdata$x
xdata$x	SEGMENT
__unwindtable$??0?$basic_string@DU?$char_traits@D@std@@V?$allocator@D@2@@std@@QAE@PBD@Z DD 0ffffffffH
	DD	FLAT:__unwindfunclet$??0?$basic_string@DU?$char_traits@D@std@@V?$allocator@D@2@@std@@QAE@PBD@Z$0
__ehfuncinfo$??0?$basic_string@DU?$char_traits@D@std@@V?$allocator@D@2@@std@@QAE@PBD@Z DD 019930522H
	DD	01H
	DD	FLAT:__unwindtable$??0?$basic_string@DU?$char_traits@D@std@@V?$allocator@D@2@@std@@QAE@PBD@Z
	DD	2 DUP(00H)
	DD	2 DUP(00H)
	DD	00H
	DD	01H
; Function compile flags: /Odtp /RTCsu /ZI
xdata$x	ENDS
;	COMDAT ??0?$basic_string@DU?$char_traits@D@std@@V?$allocator@D@2@@std@@QAE@PBD@Z
_TEXT	SEGMENT
$T36673 = -224						; size = 4
_this$ = -20						; size = 4
__$EHRec$ = -12						; size = 12
__Ptr$ = 8						; size = 4
??0?$basic_string@DU?$char_traits@D@std@@V?$allocator@D@2@@std@@QAE@PBD@Z PROC ; std::basic_string<char,std::char_traits<char>,std::allocator<char> >::basic_string<char,std::char_traits<char>,std::allocator<char> >, COMDAT
; _this$ = ecx

; 592  : 		{	// construct from [_Ptr, <null>)

	push	ebp
	mov	ebp, esp
	push	-1
	push	__ehhandler$??0?$basic_string@DU?$char_traits@D@std@@V?$allocator@D@2@@std@@QAE@PBD@Z
	mov	eax, DWORD PTR fs:0
	push	eax
	sub	esp, 216				; 000000d8H
	push	ebx
	push	esi
	push	edi
	push	ecx
	lea	edi, DWORD PTR [ebp-228]
	mov	ecx, 54					; 00000036H
	mov	eax, -858993460				; ccccccccH
	rep stosd
	pop	ecx
	mov	eax, DWORD PTR ___security_cookie
	xor	eax, ebp
	push	eax
	lea	eax, DWORD PTR __$EHRec$[ebp]
	mov	DWORD PTR fs:0, eax
	mov	DWORD PTR _this$[ebp], ecx
	push	ecx
	mov	ecx, esp
	mov	DWORD PTR $T36673[ebp], esp
	call	??0?$allocator@D@std@@QAE@XZ		; std::allocator<char>::allocator<char>
	mov	ecx, DWORD PTR _this$[ebp]
	call	??0?$_String_val@DV?$allocator@D@std@@@std@@QAE@V?$allocator@D@1@@Z ; std::_String_val<char,std::allocator<char> >::_String_val<char,std::allocator<char> >
	mov	DWORD PTR __$EHRec$[ebp+8], 0

; 593  : 		_Tidy();

	push	0
	push	0
	mov	ecx, DWORD PTR _this$[ebp]
	call	?_Tidy@?$basic_string@DU?$char_traits@D@std@@V?$allocator@D@2@@std@@QAEX_NI@Z ; std::basic_string<char,std::char_traits<char>,std::allocator<char> >::_Tidy

; 594  : 		assign(_Ptr);

	mov	eax, DWORD PTR __Ptr$[ebp]
	push	eax
	mov	ecx, DWORD PTR _this$[ebp]
	call	?assign@?$basic_string@DU?$char_traits@D@std@@V?$allocator@D@2@@std@@QAEAAV12@PBD@Z ; std::basic_string<char,std::char_traits<char>,std::allocator<char> >::assign

; 595  : 		}

	mov	DWORD PTR __$EHRec$[ebp+8], -1
	mov	eax, DWORD PTR _this$[ebp]
	mov	ecx, DWORD PTR __$EHRec$[ebp]
	mov	DWORD PTR fs:0, ecx
	pop	ecx
	pop	edi
	pop	esi
	pop	ebx
	add	esp, 228				; 000000e4H
	cmp	ebp, esp
	call	__RTC_CheckEsp
	mov	esp, ebp
	pop	ebp
	ret	4
_TEXT	ENDS
;	COMDAT text$x
text$x	SEGMENT
__unwindfunclet$??0?$basic_string@DU?$char_traits@D@std@@V?$allocator@D@2@@std@@QAE@PBD@Z$0:
	mov	ecx, DWORD PTR _this$[ebp]
	jmp	??1?$_String_val@DV?$allocator@D@std@@@std@@QAE@XZ ; std::_String_val<char,std::allocator<char> >::~_String_val<char,std::allocator<char> >
__ehhandler$??0?$basic_string@DU?$char_traits@D@std@@V?$allocator@D@2@@std@@QAE@PBD@Z:
	mov	edx, DWORD PTR [esp+8]
	lea	eax, DWORD PTR [edx+12]
	mov	ecx, DWORD PTR [edx-232]
	xor	ecx, eax
	call	@__security_check_cookie@4
	mov	eax, OFFSET __ehfuncinfo$??0?$basic_string@DU?$char_traits@D@std@@V?$allocator@D@2@@std@@QAE@PBD@Z
	jmp	___CxxFrameHandler3
text$x	ENDS
??0?$basic_string@DU?$char_traits@D@std@@V?$allocator@D@2@@std@@QAE@PBD@Z ENDP ; std::basic_string<char,std::char_traits<char>,std::allocator<char> >::basic_string<char,std::char_traits<char>,std::allocator<char> >
;	COMDAT xdata$x
xdata$x	SEGMENT
__unwindtable$??1?$basic_string@DU?$char_traits@D@std@@V?$allocator@D@2@@std@@QAE@XZ DD 0ffffffffH
	DD	FLAT:__unwindfunclet$??1?$basic_string@DU?$char_traits@D@std@@V?$allocator@D@2@@std@@QAE@XZ$0
__ehfuncinfo$??1?$basic_string@DU?$char_traits@D@std@@V?$allocator@D@2@@std@@QAE@XZ DD 019930522H
	DD	01H
	DD	FLAT:__unwindtable$??1?$basic_string@DU?$char_traits@D@std@@V?$allocator@D@2@@std@@QAE@XZ
	DD	2 DUP(00H)
	DD	2 DUP(00H)
	DD	00H
	DD	01H
; Function compile flags: /Odtp /RTCsu /ZI
xdata$x	ENDS
;	COMDAT ??1?$basic_string@DU?$char_traits@D@std@@V?$allocator@D@2@@std@@QAE@XZ
_TEXT	SEGMENT
_this$ = -20						; size = 4
__$EHRec$ = -12						; size = 12
??1?$basic_string@DU?$char_traits@D@std@@V?$allocator@D@2@@std@@QAE@XZ PROC ; std::basic_string<char,std::char_traits<char>,std::allocator<char> >::~basic_string<char,std::char_traits<char>,std::allocator<char> >, COMDAT
; _this$ = ecx

; 753  : 		{	// destroy the string

	push	ebp
	mov	ebp, esp
	push	-1
	push	__ehhandler$??1?$basic_string@DU?$char_traits@D@std@@V?$allocator@D@2@@std@@QAE@XZ
	mov	eax, DWORD PTR fs:0
	push	eax
	sub	esp, 204				; 000000ccH
	push	ebx
	push	esi
	push	edi
	push	ecx
	lea	edi, DWORD PTR [ebp-216]
	mov	ecx, 51					; 00000033H
	mov	eax, -858993460				; ccccccccH
	rep stosd
	pop	ecx
	mov	eax, DWORD PTR ___security_cookie
	xor	eax, ebp
	push	eax
	lea	eax, DWORD PTR __$EHRec$[ebp]
	mov	DWORD PTR fs:0, eax
	mov	DWORD PTR _this$[ebp], ecx
	mov	DWORD PTR __$EHRec$[ebp+8], 0

; 754  : 		_Tidy(true);

	push	0
	push	1
	mov	ecx, DWORD PTR _this$[ebp]
	call	?_Tidy@?$basic_string@DU?$char_traits@D@std@@V?$allocator@D@2@@std@@QAEX_NI@Z ; std::basic_string<char,std::char_traits<char>,std::allocator<char> >::_Tidy

; 755  : 		}

	mov	DWORD PTR __$EHRec$[ebp+8], -1
	mov	ecx, DWORD PTR _this$[ebp]
	call	??1?$_String_val@DV?$allocator@D@std@@@std@@QAE@XZ ; std::_String_val<char,std::allocator<char> >::~_String_val<char,std::allocator<char> >
	mov	ecx, DWORD PTR __$EHRec$[ebp]
	mov	DWORD PTR fs:0, ecx
	pop	ecx
	pop	edi
	pop	esi
	pop	ebx
	add	esp, 216				; 000000d8H
	cmp	ebp, esp
	call	__RTC_CheckEsp
	mov	esp, ebp
	pop	ebp
	ret	0
_TEXT	ENDS
;	COMDAT text$x
text$x	SEGMENT
__unwindfunclet$??1?$basic_string@DU?$char_traits@D@std@@V?$allocator@D@2@@std@@QAE@XZ$0:
	mov	ecx, DWORD PTR _this$[ebp]
	jmp	??1?$_String_val@DV?$allocator@D@std@@@std@@QAE@XZ ; std::_String_val<char,std::allocator<char> >::~_String_val<char,std::allocator<char> >
__ehhandler$??1?$basic_string@DU?$char_traits@D@std@@V?$allocator@D@2@@std@@QAE@XZ:
	mov	edx, DWORD PTR [esp+8]
	lea	eax, DWORD PTR [edx+12]
	mov	ecx, DWORD PTR [edx-220]
	xor	ecx, eax
	call	@__security_check_cookie@4
	mov	eax, OFFSET __ehfuncinfo$??1?$basic_string@DU?$char_traits@D@std@@V?$allocator@D@2@@std@@QAE@XZ
	jmp	___CxxFrameHandler3
text$x	ENDS
??1?$basic_string@DU?$char_traits@D@std@@V?$allocator@D@2@@std@@QAE@XZ ENDP ; std::basic_string<char,std::char_traits<char>,std::allocator<char> >::~basic_string<char,std::char_traits<char>,std::allocator<char> >
; Function compile flags: /Odtp /RTCsu /ZI
;	COMDAT ??Y?$basic_string@DU?$char_traits@D@std@@V?$allocator@D@2@@std@@QAEAAV01@PBD@Z
_TEXT	SEGMENT
_this$ = -8						; size = 4
__Ptr$ = 8						; size = 4
??Y?$basic_string@DU?$char_traits@D@std@@V?$allocator@D@2@@std@@QAEAAV01@PBD@Z PROC ; std::basic_string<char,std::char_traits<char>,std::allocator<char> >::operator+=, COMDAT
; _this$ = ecx

; 783  : 		{	// append [_Ptr, <null>)

	push	ebp
	mov	ebp, esp
	sub	esp, 204				; 000000ccH
	push	ebx
	push	esi
	push	edi
	push	ecx
	lea	edi, DWORD PTR [ebp-204]
	mov	ecx, 51					; 00000033H
	mov	eax, -858993460				; ccccccccH
	rep stosd
	pop	ecx
	mov	DWORD PTR _this$[ebp], ecx

; 784  : 		return (append(_Ptr));

	mov	eax, DWORD PTR __Ptr$[ebp]
	push	eax
	mov	ecx, DWORD PTR _this$[ebp]
	call	?append@?$basic_string@DU?$char_traits@D@std@@V?$allocator@D@2@@std@@QAEAAV12@PBD@Z ; std::basic_string<char,std::char_traits<char>,std::allocator<char> >::append

; 785  : 		}

	pop	edi
	pop	esi
	pop	ebx
	add	esp, 204				; 000000ccH
	cmp	ebp, esp
	call	__RTC_CheckEsp
	mov	esp, ebp
	pop	ebp
	ret	4
??Y?$basic_string@DU?$char_traits@D@std@@V?$allocator@D@2@@std@@QAEAAV01@PBD@Z ENDP ; std::basic_string<char,std::char_traits<char>,std::allocator<char> >::operator+=
_TEXT	ENDS
PUBLIC	?append@?$basic_string@DU?$char_traits@D@std@@V?$allocator@D@2@@std@@QAEAAV12@PBDI@Z ; std::basic_string<char,std::char_traits<char>,std::allocator<char> >::append
PUBLIC	?length@?$char_traits@D@std@@SAIPBD@Z		; std::char_traits<char>::length
PUBLIC	??$_Debug_pointer@D@std@@YAXPBDPB_WI@Z		; std::_Debug_pointer<char>
PUBLIC	??_C@_1IO@GEGAMENF@?$AAc?$AA?3?$AA?2?$AAp?$AAr?$AAo?$AAg?$AAr?$AAa?$AAm?$AA?5?$AAf?$AAi?$AAl?$AAe?$AAs?$AA?5?$AA?$CI?$AAx?$AA8?$AA6?$AA?$CJ?$AA?2?$AAm?$AAi?$AAc?$AAr?$AAo?$AAs?$AAo?$AAf?$AAt@ ; `string'
;	COMDAT ??_C@_1IO@GEGAMENF@?$AAc?$AA?3?$AA?2?$AAp?$AAr?$AAo?$AAg?$AAr?$AAa?$AAm?$AA?5?$AAf?$AAi?$AAl?$AAe?$AAs?$AA?5?$AA?$CI?$AAx?$AA8?$AA6?$AA?$CJ?$AA?2?$AAm?$AAi?$AAc?$AAr?$AAo?$AAs?$AAo?$AAf?$AAt@
CONST	SEGMENT
??_C@_1IO@GEGAMENF@?$AAc?$AA?3?$AA?2?$AAp?$AAr?$AAo?$AAg?$AAr?$AAa?$AAm?$AA?5?$AAf?$AAi?$AAl?$AAe?$AAs?$AA?5?$AA?$CI?$AAx?$AA8?$AA6?$AA?$CJ?$AA?2?$AAm?$AAi?$AAc?$AAr?$AAo?$AAs?$AAo?$AAf?$AAt@ DB 'c'
	DB	00H, ':', 00H, '\', 00H, 'p', 00H, 'r', 00H, 'o', 00H, 'g', 00H
	DB	'r', 00H, 'a', 00H, 'm', 00H, ' ', 00H, 'f', 00H, 'i', 00H, 'l'
	DB	00H, 'e', 00H, 's', 00H, ' ', 00H, '(', 00H, 'x', 00H, '8', 00H
	DB	'6', 00H, ')', 00H, '\', 00H, 'm', 00H, 'i', 00H, 'c', 00H, 'r'
	DB	00H, 'o', 00H, 's', 00H, 'o', 00H, 'f', 00H, 't', 00H, ' ', 00H
	DB	'v', 00H, 'i', 00H, 's', 00H, 'u', 00H, 'a', 00H, 'l', 00H, ' '
	DB	00H, 's', 00H, 't', 00H, 'u', 00H, 'd', 00H, 'i', 00H, 'o', 00H
	DB	' ', 00H, '1', 00H, '0', 00H, '.', 00H, '0', 00H, '\', 00H, 'v'
	DB	00H, 'c', 00H, '\', 00H, 'i', 00H, 'n', 00H, 'c', 00H, 'l', 00H
	DB	'u', 00H, 'd', 00H, 'e', 00H, '\', 00H, 'x', 00H, 's', 00H, 't'
	DB	00H, 'r', 00H, 'i', 00H, 'n', 00H, 'g', 00H, 00H, 00H ; `string'
; Function compile flags: /Odtp /RTCsu /ZI
CONST	ENDS
;	COMDAT ?append@?$basic_string@DU?$char_traits@D@std@@V?$allocator@D@2@@std@@QAEAAV12@PBD@Z
_TEXT	SEGMENT
_this$ = -8						; size = 4
__Ptr$ = 8						; size = 4
?append@?$basic_string@DU?$char_traits@D@std@@V?$allocator@D@2@@std@@QAEAAV12@PBD@Z PROC ; std::basic_string<char,std::char_traits<char>,std::allocator<char> >::append, COMDAT
; _this$ = ecx

; 839  : 		{	// append [_Ptr, <null>)

	push	ebp
	mov	ebp, esp
	sub	esp, 204				; 000000ccH
	push	ebx
	push	esi
	push	edi
	push	ecx
	lea	edi, DWORD PTR [ebp-204]
	mov	ecx, 51					; 00000033H
	mov	eax, -858993460				; ccccccccH
	rep stosd
	pop	ecx
	mov	DWORD PTR _this$[ebp], ecx

; 840  : 		_DEBUG_POINTER(_Ptr);

	push	840					; 00000348H
	push	OFFSET ??_C@_1IO@GEGAMENF@?$AAc?$AA?3?$AA?2?$AAp?$AAr?$AAo?$AAg?$AAr?$AAa?$AAm?$AA?5?$AAf?$AAi?$AAl?$AAe?$AAs?$AA?5?$AA?$CI?$AAx?$AA8?$AA6?$AA?$CJ?$AA?2?$AAm?$AAi?$AAc?$AAr?$AAo?$AAs?$AAo?$AAf?$AAt@
	mov	eax, DWORD PTR __Ptr$[ebp]
	push	eax
	call	??$_Debug_pointer@D@std@@YAXPBDPB_WI@Z	; std::_Debug_pointer<char>
	add	esp, 12					; 0000000cH

; 841  : 		return (append(_Ptr, _Traits::length(_Ptr)));

	mov	eax, DWORD PTR __Ptr$[ebp]
	push	eax
	call	?length@?$char_traits@D@std@@SAIPBD@Z	; std::char_traits<char>::length
	add	esp, 4
	push	eax
	mov	ecx, DWORD PTR __Ptr$[ebp]
	push	ecx
	mov	ecx, DWORD PTR _this$[ebp]
	call	?append@?$basic_string@DU?$char_traits@D@std@@V?$allocator@D@2@@std@@QAEAAV12@PBDI@Z ; std::basic_string<char,std::char_traits<char>,std::allocator<char> >::append

; 842  : 		}

	pop	edi
	pop	esi
	pop	ebx
	add	esp, 204				; 000000ccH
	cmp	ebp, esp
	call	__RTC_CheckEsp
	mov	esp, ebp
	pop	ebp
	ret	4
?append@?$basic_string@DU?$char_traits@D@std@@V?$allocator@D@2@@std@@QAEAAV12@PBD@Z ENDP ; std::basic_string<char,std::char_traits<char>,std::allocator<char> >::append
; Function compile flags: /Odtp /RTCsu /ZI
; File c:\program files (x86)\microsoft visual studio 10.0\vc\include\iosfwd
_TEXT	ENDS
;	COMDAT ?length@?$char_traits@D@std@@SAIPBD@Z
_TEXT	SEGMENT
__First$ = 8						; size = 4
?length@?$char_traits@D@std@@SAIPBD@Z PROC		; std::char_traits<char>::length, COMDAT

; 490  : 		{	// find length of null-terminated string

	push	ebp
	mov	ebp, esp
	sub	esp, 192				; 000000c0H
	push	ebx
	push	esi
	push	edi
	lea	edi, DWORD PTR [ebp-192]
	mov	ecx, 48					; 00000030H
	mov	eax, -858993460				; ccccccccH
	rep stosd

; 491  : 		return (_CSTD strlen(_First));

	mov	eax, DWORD PTR __First$[ebp]
	push	eax
	call	_strlen
	add	esp, 4

; 492  : 		}

	pop	edi
	pop	esi
	pop	ebx
	add	esp, 192				; 000000c0H
	cmp	ebp, esp
	call	__RTC_CheckEsp
	mov	esp, ebp
	pop	ebp
	ret	0
?length@?$char_traits@D@std@@SAIPBD@Z ENDP		; std::char_traits<char>::length
_TEXT	ENDS
PUBLIC	?_Myptr@?$basic_string@DU?$char_traits@D@std@@V?$allocator@D@2@@std@@QBEPBDXZ ; std::basic_string<char,std::char_traits<char>,std::allocator<char> >::_Myptr
; Function compile flags: /Odtp /RTCsu /ZI
; File c:\program files (x86)\microsoft visual studio 10.0\vc\include\xstring
;	COMDAT ?c_str@?$basic_string@DU?$char_traits@D@std@@V?$allocator@D@2@@std@@QBEPBDXZ
_TEXT	SEGMENT
_this$ = -8						; size = 4
?c_str@?$basic_string@DU?$char_traits@D@std@@V?$allocator@D@2@@std@@QBEPBDXZ PROC ; std::basic_string<char,std::char_traits<char>,std::allocator<char> >::c_str, COMDAT
; _this$ = ecx

; 1496 : 		{	// return pointer to null-terminated nonmutable array

	push	ebp
	mov	ebp, esp
	sub	esp, 204				; 000000ccH
	push	ebx
	push	esi
	push	edi
	push	ecx
	lea	edi, DWORD PTR [ebp-204]
	mov	ecx, 51					; 00000033H
	mov	eax, -858993460				; ccccccccH
	rep stosd
	pop	ecx
	mov	DWORD PTR _this$[ebp], ecx

; 1497 : 		return (_Myptr());

	mov	ecx, DWORD PTR _this$[ebp]
	call	?_Myptr@?$basic_string@DU?$char_traits@D@std@@V?$allocator@D@2@@std@@QBEPBDXZ ; std::basic_string<char,std::char_traits<char>,std::allocator<char> >::_Myptr

; 1498 : 		}

	pop	edi
	pop	esi
	pop	ebx
	add	esp, 204				; 000000ccH
	cmp	ebp, esp
	call	__RTC_CheckEsp
	mov	esp, ebp
	pop	ebp
	ret	0
?c_str@?$basic_string@DU?$char_traits@D@std@@V?$allocator@D@2@@std@@QBEPBDXZ ENDP ; std::basic_string<char,std::char_traits<char>,std::allocator<char> >::c_str
_TEXT	ENDS
PUBLIC	?_Eos@?$basic_string@DU?$char_traits@D@std@@V?$allocator@D@2@@std@@QAEXI@Z ; std::basic_string<char,std::char_traits<char>,std::allocator<char> >::_Eos
PUBLIC	?_Grow@?$basic_string@DU?$char_traits@D@std@@V?$allocator@D@2@@std@@QAE_NI_N@Z ; std::basic_string<char,std::char_traits<char>,std::allocator<char> >::_Grow
; Function compile flags: /Odtp /RTCsu /ZI
;	COMDAT ?reserve@?$basic_string@DU?$char_traits@D@std@@V?$allocator@D@2@@std@@QAEXI@Z
_TEXT	SEGMENT
__Size$32334 = -20					; size = 4
_this$ = -8						; size = 4
__Newcap$ = 8						; size = 4
?reserve@?$basic_string@DU?$char_traits@D@std@@V?$allocator@D@2@@std@@QAEXI@Z PROC ; std::basic_string<char,std::char_traits<char>,std::allocator<char> >::reserve, COMDAT
; _this$ = ecx

; 1540 : 		{	// determine new minimum length of allocated storage

	push	ebp
	mov	ebp, esp
	sub	esp, 216				; 000000d8H
	push	ebx
	push	esi
	push	edi
	push	ecx
	lea	edi, DWORD PTR [ebp-216]
	mov	ecx, 54					; 00000036H
	mov	eax, -858993460				; ccccccccH
	rep stosd
	pop	ecx
	mov	DWORD PTR _this$[ebp], ecx

; 1541 : 		if (this->_Mysize <= _Newcap && this->_Myres != _Newcap)

	mov	eax, DWORD PTR _this$[ebp]
	mov	ecx, DWORD PTR [eax+20]
	cmp	ecx, DWORD PTR __Newcap$[ebp]
	ja	SHORT $LN3@reserve
	mov	eax, DWORD PTR _this$[ebp]
	mov	ecx, DWORD PTR [eax+24]
	cmp	ecx, DWORD PTR __Newcap$[ebp]
	je	SHORT $LN3@reserve

; 1542 : 			{	// change reservation
; 1543 : 			size_type _Size = this->_Mysize;

	mov	eax, DWORD PTR _this$[ebp]
	mov	ecx, DWORD PTR [eax+20]
	mov	DWORD PTR __Size$32334[ebp], ecx

; 1544 : 			if (_Grow(_Newcap, true))

	push	1
	mov	eax, DWORD PTR __Newcap$[ebp]
	push	eax
	mov	ecx, DWORD PTR _this$[ebp]
	call	?_Grow@?$basic_string@DU?$char_traits@D@std@@V?$allocator@D@2@@std@@QAE_NI_N@Z ; std::basic_string<char,std::char_traits<char>,std::allocator<char> >::_Grow
	movzx	ecx, al
	test	ecx, ecx
	je	SHORT $LN3@reserve

; 1545 : 				_Eos(_Size);

	mov	eax, DWORD PTR __Size$32334[ebp]
	push	eax
	mov	ecx, DWORD PTR _this$[ebp]
	call	?_Eos@?$basic_string@DU?$char_traits@D@std@@V?$allocator@D@2@@std@@QAEXI@Z ; std::basic_string<char,std::char_traits<char>,std::allocator<char> >::_Eos
$LN3@reserve:

; 1546 : 			}
; 1547 : 		}

	pop	edi
	pop	esi
	pop	ebx
	add	esp, 216				; 000000d8H
	cmp	ebp, esp
	call	__RTC_CheckEsp
	mov	esp, ebp
	pop	ebp
	ret	4
?reserve@?$basic_string@DU?$char_traits@D@std@@V?$allocator@D@2@@std@@QAEXI@Z ENDP ; std::basic_string<char,std::char_traits<char>,std::allocator<char> >::reserve
_TEXT	ENDS
PUBLIC	??1sentry@?$basic_ostream@DU?$char_traits@D@std@@@std@@QAE@XZ ; std::basic_ostream<char,std::char_traits<char> >::sentry::~sentry
PUBLIC	?setstate@?$basic_ios@DU?$char_traits@D@std@@@std@@QAEXH_N@Z ; std::basic_ios<char,std::char_traits<char> >::setstate
PUBLIC	?sputn@?$basic_streambuf@DU?$char_traits@D@std@@@std@@QAE_JPBD_J@Z ; std::basic_streambuf<char,std::char_traits<char> >::sputn
PUBLIC	?rdbuf@?$basic_ios@DU?$char_traits@D@std@@@std@@QBEPAV?$basic_streambuf@DU?$char_traits@D@std@@@2@XZ ; std::basic_ios<char,std::char_traits<char> >::rdbuf
PUBLIC	??Bsentry@?$basic_ostream@DU?$char_traits@D@std@@@std@@QBEPQ_Bool_struct@2@HXZ ; std::basic_ostream<char,std::char_traits<char> >::sentry::operator int std::_Bool_struct::*
PUBLIC	??0sentry@?$basic_ostream@DU?$char_traits@D@std@@@std@@QAE@AAV12@@Z ; std::basic_ostream<char,std::char_traits<char> >::sentry::sentry
PUBLIC	??_C@_1IO@LGPKEFMA@?$AAc?$AA?3?$AA?2?$AAp?$AAr?$AAo?$AAg?$AAr?$AAa?$AAm?$AA?5?$AAf?$AAi?$AAl?$AAe?$AAs?$AA?5?$AA?$CI?$AAx?$AA8?$AA6?$AA?$CJ?$AA?2?$AAm?$AAi?$AAc?$AAr?$AAo?$AAs?$AAo?$AAf?$AAt@ ; `string'
;	COMDAT ??_C@_1IO@LGPKEFMA@?$AAc?$AA?3?$AA?2?$AAp?$AAr?$AAo?$AAg?$AAr?$AAa?$AAm?$AA?5?$AAf?$AAi?$AAl?$AAe?$AAs?$AA?5?$AA?$CI?$AAx?$AA8?$AA6?$AA?$CJ?$AA?2?$AAm?$AAi?$AAc?$AAr?$AAo?$AAs?$AAo?$AAf?$AAt@
; File c:\program files (x86)\microsoft visual studio 10.0\vc\include\ostream
CONST	SEGMENT
??_C@_1IO@LGPKEFMA@?$AAc?$AA?3?$AA?2?$AAp?$AAr?$AAo?$AAg?$AAr?$AAa?$AAm?$AA?5?$AAf?$AAi?$AAl?$AAe?$AAs?$AA?5?$AA?$CI?$AAx?$AA8?$AA6?$AA?$CJ?$AA?2?$AAm?$AAi?$AAc?$AAr?$AAo?$AAs?$AAo?$AAf?$AAt@ DB 'c'
	DB	00H, ':', 00H, '\', 00H, 'p', 00H, 'r', 00H, 'o', 00H, 'g', 00H
	DB	'r', 00H, 'a', 00H, 'm', 00H, ' ', 00H, 'f', 00H, 'i', 00H, 'l'
	DB	00H, 'e', 00H, 's', 00H, ' ', 00H, '(', 00H, 'x', 00H, '8', 00H
	DB	'6', 00H, ')', 00H, '\', 00H, 'm', 00H, 'i', 00H, 'c', 00H, 'r'
	DB	00H, 'o', 00H, 's', 00H, 'o', 00H, 'f', 00H, 't', 00H, ' ', 00H
	DB	'v', 00H, 'i', 00H, 's', 00H, 'u', 00H, 'a', 00H, 'l', 00H, ' '
	DB	00H, 's', 00H, 't', 00H, 'u', 00H, 'd', 00H, 'i', 00H, 'o', 00H
	DB	' ', 00H, '1', 00H, '0', 00H, '.', 00H, '0', 00H, '\', 00H, 'v'
	DB	00H, 'c', 00H, '\', 00H, 'i', 00H, 'n', 00H, 'c', 00H, 'l', 00H
	DB	'u', 00H, 'd', 00H, 'e', 00H, '\', 00H, 'o', 00H, 's', 00H, 't'
	DB	00H, 'r', 00H, 'e', 00H, 'a', 00H, 'm', 00H, 00H, 00H ; `string'
CONST	ENDS
;	COMDAT xdata$x
xdata$x	SEGMENT
__catchsym$?write@?$basic_ostream@DU?$char_traits@D@std@@@std@@QAEAAV12@PBD_J@Z$3 DD 040H
	DD	00H
	DD	00H
	DD	FLAT:__catch$?write@?$basic_ostream@DU?$char_traits@D@std@@@std@@QAEAAV12@PBD_J@Z$0
__tryblocktable$?write@?$basic_ostream@DU?$char_traits@D@std@@@std@@QAEAAV12@PBD_J@Z DD 01H
	DD	01H
	DD	02H
	DD	01H
	DD	FLAT:__catchsym$?write@?$basic_ostream@DU?$char_traits@D@std@@@std@@QAEAAV12@PBD_J@Z$3
__unwindtable$?write@?$basic_ostream@DU?$char_traits@D@std@@@std@@QAEAAV12@PBD_J@Z DD 0ffffffffH
	DD	FLAT:__unwindfunclet$?write@?$basic_ostream@DU?$char_traits@D@std@@@std@@QAEAAV12@PBD_J@Z$2
	DD	00H
	DD	00H
	DD	00H
	DD	00H
__ehfuncinfo$?write@?$basic_ostream@DU?$char_traits@D@std@@@std@@QAEAAV12@PBD_J@Z DD 019930522H
	DD	03H
	DD	FLAT:__unwindtable$?write@?$basic_ostream@DU?$char_traits@D@std@@@std@@QAEAAV12@PBD_J@Z
	DD	01H
	DD	FLAT:__tryblocktable$?write@?$basic_ostream@DU?$char_traits@D@std@@@std@@QAEAAV12@PBD_J@Z
	DD	2 DUP(00H)
	DD	00H
	DD	01H
; Function compile flags: /Odtp /RTCsu /ZI
xdata$x	ENDS
;	COMDAT ?write@?$basic_ostream@DU?$char_traits@D@std@@@std@@QAEAAV12@PBD_J@Z
_TEXT	SEGMENT
tv152 = -272						; size = 8
tv69 = -264						; size = 4
$T36702 = -256						; size = 4
__Ok$ = -52						; size = 8
__State$ = -36						; size = 4
_this$ = -24						; size = 4
__$EHRec$ = -16						; size = 16
__Str$ = 8						; size = 4
__Count$ = 12						; size = 8
?write@?$basic_ostream@DU?$char_traits@D@std@@@std@@QAEAAV12@PBD_J@Z PROC ; std::basic_ostream<char,std::char_traits<char> >::write, COMDAT
; _this$ = ecx

; 546  : 		{	// insert _Count characters from array _Str

	push	ebp
	mov	ebp, esp
	push	-1
	push	__ehhandler$?write@?$basic_ostream@DU?$char_traits@D@std@@@std@@QAEAAV12@PBD_J@Z
	mov	eax, DWORD PTR fs:0
	push	eax
	push	ecx
	sub	esp, 256				; 00000100H
	push	ebx
	push	esi
	push	edi
	push	ecx
	lea	edi, DWORD PTR [ebp-272]
	mov	ecx, 64					; 00000040H
	mov	eax, -858993460				; ccccccccH
	rep stosd
	pop	ecx
	mov	eax, DWORD PTR ___security_cookie
	xor	eax, ebp
	push	eax
	lea	eax, DWORD PTR __$EHRec$[ebp+4]
	mov	DWORD PTR fs:0, eax
	mov	DWORD PTR __$EHRec$[ebp], esp
	mov	DWORD PTR _this$[ebp], ecx

; 547  :  #if _ITERATOR_DEBUG_LEVEL == 2
; 548  : 		if (0 < _Count)

	cmp	DWORD PTR __Count$[ebp+4], 0
	jl	SHORT $LN5@write
	jg	SHORT $LN14@write
	cmp	DWORD PTR __Count$[ebp], 0
	jbe	SHORT $LN5@write
$LN14@write:

; 549  : 			_DEBUG_POINTER(_Str);

	push	549					; 00000225H
	push	OFFSET ??_C@_1IO@LGPKEFMA@?$AAc?$AA?3?$AA?2?$AAp?$AAr?$AAo?$AAg?$AAr?$AAa?$AAm?$AA?5?$AAf?$AAi?$AAl?$AAe?$AAs?$AA?5?$AA?$CI?$AAx?$AA8?$AA6?$AA?$CJ?$AA?2?$AAm?$AAi?$AAc?$AAr?$AAo?$AAs?$AAo?$AAf?$AAt@
	mov	eax, DWORD PTR __Str$[ebp]
	push	eax
	call	??$_Debug_pointer@D@std@@YAXPBDPB_WI@Z	; std::_Debug_pointer<char>
	add	esp, 12					; 0000000cH
$LN5@write:

; 550  :  #endif /* _ITERATOR_DEBUG_LEVEL == 2 */
; 551  : 
; 552  : 		ios_base::iostate _State = ios_base::goodbit;

	mov	DWORD PTR __State$[ebp], 0

; 553  : 		const sentry _Ok(*this);

	mov	eax, DWORD PTR _this$[ebp]
	push	eax
	lea	ecx, DWORD PTR __Ok$[ebp]
	call	??0sentry@?$basic_ostream@DU?$char_traits@D@std@@@std@@QAE@AAV12@@Z ; std::basic_ostream<char,std::char_traits<char> >::sentry::sentry
	mov	DWORD PTR __$EHRec$[ebp+12], 0

; 554  : 
; 555  : 		if (!_Ok)

	lea	ecx, DWORD PTR __Ok$[ebp]
	call	??Bsentry@?$basic_ostream@DU?$char_traits@D@std@@@std@@QBEPQ_Bool_struct@2@HXZ ; std::basic_ostream<char,std::char_traits<char> >::sentry::operator int std::_Bool_struct::*
	cmp	eax, -1
	jne	SHORT $LN4@write

; 556  : 			_State |= ios_base::badbit;

	mov	eax, DWORD PTR __State$[ebp]
	or	eax, 4
	mov	DWORD PTR __State$[ebp], eax

; 557  : 		else

	jmp	$LN3@write
$LN4@write:

; 558  : 			{	// state okay, insert characters
; 559  : 			_TRY_IO_BEGIN

	mov	BYTE PTR __$EHRec$[ebp+12], 1

; 560  : 			if (_Myios::rdbuf()->sputn(_Str, _Count) != _Count)

	mov	eax, DWORD PTR _this$[ebp]
	mov	ecx, DWORD PTR [eax]
	mov	edx, DWORD PTR _this$[ebp]
	add	edx, DWORD PTR [ecx+4]
	mov	ecx, edx
	call	?rdbuf@?$basic_ios@DU?$char_traits@D@std@@@std@@QBEPAV?$basic_streambuf@DU?$char_traits@D@std@@@2@XZ ; std::basic_ios<char,std::char_traits<char> >::rdbuf
	mov	DWORD PTR tv69[ebp], eax
	mov	eax, DWORD PTR __Count$[ebp+4]
	push	eax
	mov	ecx, DWORD PTR __Count$[ebp]
	push	ecx
	mov	edx, DWORD PTR __Str$[ebp]
	push	edx
	mov	ecx, DWORD PTR tv69[ebp]
	call	?sputn@?$basic_streambuf@DU?$char_traits@D@std@@@std@@QAE_JPBD_J@Z ; std::basic_streambuf<char,std::char_traits<char> >::sputn
	mov	DWORD PTR tv152[ebp], eax
	mov	DWORD PTR tv152[ebp+4], edx
	mov	eax, DWORD PTR tv152[ebp]
	cmp	eax, DWORD PTR __Count$[ebp]
	jne	SHORT $LN15@write
	mov	ecx, DWORD PTR tv152[ebp+4]
	cmp	ecx, DWORD PTR __Count$[ebp+4]
	je	SHORT $LN1@write
$LN15@write:

; 561  : 				_State |= ios_base::badbit;

	mov	eax, DWORD PTR __State$[ebp]
	or	eax, 4
	mov	DWORD PTR __State$[ebp], eax
$LN1@write:
	jmp	SHORT $LN8@write
__catch$?write@?$basic_ostream@DU?$char_traits@D@std@@@std@@QAEAAV12@PBD_J@Z$0:

; 562  : 			_CATCH_IO_END

	push	1
	push	4
	mov	eax, DWORD PTR _this$[ebp]
	mov	ecx, DWORD PTR [eax]
	mov	edx, DWORD PTR _this$[ebp]
	add	edx, DWORD PTR [ecx+4]
	mov	ecx, edx
	call	?setstate@?$basic_ios@DU?$char_traits@D@std@@@std@@QAEXH_N@Z ; std::basic_ios<char,std::char_traits<char> >::setstate
	mov	DWORD PTR __$EHRec$[ebp+12], 0
	mov	eax, $LN3@write
	ret	0
$LN8@write:
	mov	DWORD PTR __$EHRec$[ebp+12], 0
$LN3@write:

; 563  : 			}
; 564  : 
; 565  : 		_Myios::setstate(_State);

	push	0
	mov	eax, DWORD PTR __State$[ebp]
	push	eax
	mov	ecx, DWORD PTR _this$[ebp]
	mov	edx, DWORD PTR [ecx]
	mov	ecx, DWORD PTR _this$[ebp]
	add	ecx, DWORD PTR [edx+4]
	call	?setstate@?$basic_ios@DU?$char_traits@D@std@@@std@@QAEXH_N@Z ; std::basic_ios<char,std::char_traits<char> >::setstate

; 566  : 		return (*this);

	mov	eax, DWORD PTR _this$[ebp]
	mov	DWORD PTR $T36702[ebp], eax
	mov	DWORD PTR __$EHRec$[ebp+12], -1
	lea	ecx, DWORD PTR __Ok$[ebp]
	call	??1sentry@?$basic_ostream@DU?$char_traits@D@std@@@std@@QAE@XZ ; std::basic_ostream<char,std::char_traits<char> >::sentry::~sentry
	mov	eax, DWORD PTR $T36702[ebp]

; 567  : 		}

	push	edx
	mov	ecx, ebp
	push	eax
	lea	edx, DWORD PTR $LN19@write
	call	@_RTC_CheckStackVars@8
	pop	eax
	pop	edx
	mov	ecx, DWORD PTR __$EHRec$[ebp+4]
	mov	DWORD PTR fs:0, ecx
	pop	ecx
	pop	edi
	pop	esi
	pop	ebx
	add	esp, 272				; 00000110H
	cmp	ebp, esp
	call	__RTC_CheckEsp
	mov	esp, ebp
	pop	ebp
	ret	12					; 0000000cH
	npad	1
$LN19@write:
	DD	1
	DD	$LN18@write
$LN18@write:
	DD	-52					; ffffffccH
	DD	8
	DD	$LN16@write
$LN16@write:
	DB	95					; 0000005fH
	DB	79					; 0000004fH
	DB	107					; 0000006bH
	DB	0
_TEXT	ENDS
;	COMDAT text$x
text$x	SEGMENT
__unwindfunclet$?write@?$basic_ostream@DU?$char_traits@D@std@@@std@@QAEAAV12@PBD_J@Z$2:
	lea	ecx, DWORD PTR __Ok$[ebp]
	jmp	??1sentry@?$basic_ostream@DU?$char_traits@D@std@@@std@@QAE@XZ ; std::basic_ostream<char,std::char_traits<char> >::sentry::~sentry
__ehhandler$?write@?$basic_ostream@DU?$char_traits@D@std@@@std@@QAEAAV12@PBD_J@Z:
	mov	edx, DWORD PTR [esp+8]
	lea	eax, DWORD PTR [edx+12]
	mov	ecx, DWORD PTR [edx-276]
	xor	ecx, eax
	call	@__security_check_cookie@4
	mov	eax, OFFSET __ehfuncinfo$?write@?$basic_ostream@DU?$char_traits@D@std@@@std@@QAEAAV12@PBD_J@Z
	jmp	___CxxFrameHandler3
text$x	ENDS
?write@?$basic_ostream@DU?$char_traits@D@std@@@std@@QAEAAV12@PBD_J@Z ENDP ; std::basic_ostream<char,std::char_traits<char> >::write
PUBLIC	??1ios_base@std@@UAE@XZ				; std::ios_base::~ios_base
PUBLIC	??_7?$basic_ios@DU?$char_traits@D@std@@@std@@6B@ ; std::basic_ios<char,std::char_traits<char> >::`vftable'
PUBLIC	??_R4?$basic_ios@DU?$char_traits@D@std@@@std@@6B@ ; std::basic_ios<char,std::char_traits<char> >::`RTTI Complete Object Locator'
PUBLIC	??_R0?AV?$basic_ios@DU?$char_traits@D@std@@@std@@@8 ; std::basic_ios<char,std::char_traits<char> > `RTTI Type Descriptor'
PUBLIC	??_R3?$basic_ios@DU?$char_traits@D@std@@@std@@8	; std::basic_ios<char,std::char_traits<char> >::`RTTI Class Hierarchy Descriptor'
PUBLIC	??_R2?$basic_ios@DU?$char_traits@D@std@@@std@@8	; std::basic_ios<char,std::char_traits<char> >::`RTTI Base Class Array'
PUBLIC	??_R1A@?0A@EA@?$basic_ios@DU?$char_traits@D@std@@@std@@8 ; std::basic_ios<char,std::char_traits<char> >::`RTTI Base Class Descriptor at (0,-1,0,64)'
PUBLIC	??_R1A@?0A@EA@ios_base@std@@8			; std::ios_base::`RTTI Base Class Descriptor at (0,-1,0,64)'
PUBLIC	??_R0?AVios_base@std@@@8			; std::ios_base `RTTI Type Descriptor'
PUBLIC	??_R3ios_base@std@@8				; std::ios_base::`RTTI Class Hierarchy Descriptor'
PUBLIC	??_R2ios_base@std@@8				; std::ios_base::`RTTI Base Class Array'
PUBLIC	??_R17?0A@EA@?$_Iosb@H@std@@8			; std::_Iosb<int>::`RTTI Base Class Descriptor at (8,-1,0,64)'
PUBLIC	??_R0?AV?$_Iosb@H@std@@@8			; std::_Iosb<int> `RTTI Type Descriptor'
PUBLIC	??_R3?$_Iosb@H@std@@8				; std::_Iosb<int>::`RTTI Class Hierarchy Descriptor'
PUBLIC	??_R2?$_Iosb@H@std@@8				; std::_Iosb<int>::`RTTI Base Class Array'
PUBLIC	??_R1A@?0A@EA@?$_Iosb@H@std@@8			; std::_Iosb<int>::`RTTI Base Class Descriptor at (0,-1,0,64)'
EXTRN	??_7type_info@@6B@:QWORD			; type_info::`vftable'
EXTRN	??_E?$basic_ios@DU?$char_traits@D@std@@@std@@UAEPAXI@Z:PROC ; std::basic_ios<char,std::char_traits<char> >::`vector deleting destructor'
;	COMDAT ??_R1A@?0A@EA@?$_Iosb@H@std@@8
; File c:\program files (x86)\microsoft visual studio 10.0\vc\include\ios
rdata$r	SEGMENT
??_R1A@?0A@EA@?$_Iosb@H@std@@8 DD FLAT:??_R0?AV?$_Iosb@H@std@@@8 ; std::_Iosb<int>::`RTTI Base Class Descriptor at (0,-1,0,64)'
	DD	00H
	DD	00H
	DD	0ffffffffH
	DD	00H
	DD	040H
	DD	FLAT:??_R3?$_Iosb@H@std@@8
rdata$r	ENDS
;	COMDAT ??_R2?$_Iosb@H@std@@8
rdata$r	SEGMENT
??_R2?$_Iosb@H@std@@8 DD FLAT:??_R1A@?0A@EA@?$_Iosb@H@std@@8 ; std::_Iosb<int>::`RTTI Base Class Array'
rdata$r	ENDS
;	COMDAT ??_R3?$_Iosb@H@std@@8
rdata$r	SEGMENT
??_R3?$_Iosb@H@std@@8 DD 00H				; std::_Iosb<int>::`RTTI Class Hierarchy Descriptor'
	DD	00H
	DD	01H
	DD	FLAT:??_R2?$_Iosb@H@std@@8
rdata$r	ENDS
;	COMDAT ??_R0?AV?$_Iosb@H@std@@@8
_DATA	SEGMENT
??_R0?AV?$_Iosb@H@std@@@8 DD FLAT:??_7type_info@@6B@	; std::_Iosb<int> `RTTI Type Descriptor'
	DD	00H
	DB	'.?AV?$_Iosb@H@std@@', 00H
_DATA	ENDS
;	COMDAT ??_R17?0A@EA@?$_Iosb@H@std@@8
rdata$r	SEGMENT
??_R17?0A@EA@?$_Iosb@H@std@@8 DD FLAT:??_R0?AV?$_Iosb@H@std@@@8 ; std::_Iosb<int>::`RTTI Base Class Descriptor at (8,-1,0,64)'
	DD	00H
	DD	08H
	DD	0ffffffffH
	DD	00H
	DD	040H
	DD	FLAT:??_R3?$_Iosb@H@std@@8
rdata$r	ENDS
;	COMDAT ??_R2ios_base@std@@8
rdata$r	SEGMENT
??_R2ios_base@std@@8 DD FLAT:??_R1A@?0A@EA@ios_base@std@@8 ; std::ios_base::`RTTI Base Class Array'
	DD	FLAT:??_R17?0A@EA@?$_Iosb@H@std@@8
rdata$r	ENDS
;	COMDAT ??_R3ios_base@std@@8
rdata$r	SEGMENT
??_R3ios_base@std@@8 DD 00H				; std::ios_base::`RTTI Class Hierarchy Descriptor'
	DD	00H
	DD	02H
	DD	FLAT:??_R2ios_base@std@@8
rdata$r	ENDS
;	COMDAT ??_R0?AVios_base@std@@@8
_DATA	SEGMENT
??_R0?AVios_base@std@@@8 DD FLAT:??_7type_info@@6B@	; std::ios_base `RTTI Type Descriptor'
	DD	00H
	DB	'.?AVios_base@std@@', 00H
_DATA	ENDS
;	COMDAT ??_R1A@?0A@EA@ios_base@std@@8
rdata$r	SEGMENT
??_R1A@?0A@EA@ios_base@std@@8 DD FLAT:??_R0?AVios_base@std@@@8 ; std::ios_base::`RTTI Base Class Descriptor at (0,-1,0,64)'
	DD	01H
	DD	00H
	DD	0ffffffffH
	DD	00H
	DD	040H
	DD	FLAT:??_R3ios_base@std@@8
rdata$r	ENDS
;	COMDAT ??_R1A@?0A@EA@?$basic_ios@DU?$char_traits@D@std@@@std@@8
rdata$r	SEGMENT
??_R1A@?0A@EA@?$basic_ios@DU?$char_traits@D@std@@@std@@8 DD FLAT:??_R0?AV?$basic_ios@DU?$char_traits@D@std@@@std@@@8 ; std::basic_ios<char,std::char_traits<char> >::`RTTI Base Class Descriptor at (0,-1,0,64)'
	DD	02H
	DD	00H
	DD	0ffffffffH
	DD	00H
	DD	040H
	DD	FLAT:??_R3?$basic_ios@DU?$char_traits@D@std@@@std@@8
rdata$r	ENDS
;	COMDAT ??_R2?$basic_ios@DU?$char_traits@D@std@@@std@@8
rdata$r	SEGMENT
??_R2?$basic_ios@DU?$char_traits@D@std@@@std@@8 DD FLAT:??_R1A@?0A@EA@?$basic_ios@DU?$char_traits@D@std@@@std@@8 ; std::basic_ios<char,std::char_traits<char> >::`RTTI Base Class Array'
	DD	FLAT:??_R1A@?0A@EA@ios_base@std@@8
	DD	FLAT:??_R17?0A@EA@?$_Iosb@H@std@@8
rdata$r	ENDS
;	COMDAT ??_R3?$basic_ios@DU?$char_traits@D@std@@@std@@8
rdata$r	SEGMENT
??_R3?$basic_ios@DU?$char_traits@D@std@@@std@@8 DD 00H	; std::basic_ios<char,std::char_traits<char> >::`RTTI Class Hierarchy Descriptor'
	DD	00H
	DD	03H
	DD	FLAT:??_R2?$basic_ios@DU?$char_traits@D@std@@@std@@8
rdata$r	ENDS
;	COMDAT ??_R0?AV?$basic_ios@DU?$char_traits@D@std@@@std@@@8
_DATA	SEGMENT
??_R0?AV?$basic_ios@DU?$char_traits@D@std@@@std@@@8 DD FLAT:??_7type_info@@6B@ ; std::basic_ios<char,std::char_traits<char> > `RTTI Type Descriptor'
	DD	00H
	DB	'.?AV?$basic_ios@DU?$char_traits@D@std@@@std@@', 00H
_DATA	ENDS
;	COMDAT ??_R4?$basic_ios@DU?$char_traits@D@std@@@std@@6B@
rdata$r	SEGMENT
??_R4?$basic_ios@DU?$char_traits@D@std@@@std@@6B@ DD 00H ; std::basic_ios<char,std::char_traits<char> >::`RTTI Complete Object Locator'
	DD	00H
	DD	00H
	DD	FLAT:??_R0?AV?$basic_ios@DU?$char_traits@D@std@@@std@@@8
	DD	FLAT:??_R3?$basic_ios@DU?$char_traits@D@std@@@std@@8
rdata$r	ENDS
;	COMDAT ??_7?$basic_ios@DU?$char_traits@D@std@@@std@@6B@
CONST	SEGMENT
??_7?$basic_ios@DU?$char_traits@D@std@@@std@@6B@ DD FLAT:??_R4?$basic_ios@DU?$char_traits@D@std@@@std@@6B@ ; std::basic_ios<char,std::char_traits<char> >::`vftable'
	DD	FLAT:??_E?$basic_ios@DU?$char_traits@D@std@@@std@@UAEPAXI@Z
; Function compile flags: /Odtp /RTCsu /ZI
CONST	ENDS
;	COMDAT ??1?$basic_ios@DU?$char_traits@D@std@@@std@@UAE@XZ
_TEXT	SEGMENT
_this$ = -8						; size = 4
??1?$basic_ios@DU?$char_traits@D@std@@@std@@UAE@XZ PROC	; std::basic_ios<char,std::char_traits<char> >::~basic_ios<char,std::char_traits<char> >, COMDAT
; _this$ = ecx

; 37   : 		{	// destroy the object

	push	ebp
	mov	ebp, esp
	sub	esp, 204				; 000000ccH
	push	ebx
	push	esi
	push	edi
	push	ecx
	lea	edi, DWORD PTR [ebp-204]
	mov	ecx, 51					; 00000033H
	mov	eax, -858993460				; ccccccccH
	rep stosd
	pop	ecx
	mov	DWORD PTR _this$[ebp], ecx
	mov	eax, DWORD PTR _this$[ebp]
	mov	DWORD PTR [eax], OFFSET ??_7?$basic_ios@DU?$char_traits@D@std@@@std@@6B@

; 38   : 		}

	mov	ecx, DWORD PTR _this$[ebp]
	call	??1ios_base@std@@UAE@XZ			; std::ios_base::~ios_base
	pop	edi
	pop	esi
	pop	ebx
	add	esp, 204				; 000000ccH
	cmp	ebp, esp
	call	__RTC_CheckEsp
	mov	esp, ebp
	pop	ebp
	ret	0
??1?$basic_ios@DU?$char_traits@D@std@@@std@@UAE@XZ ENDP	; std::basic_ios<char,std::char_traits<char> >::~basic_ios<char,std::char_traits<char> >
_TEXT	ENDS
PUBLIC	??_7ios_base@std@@6B@				; std::ios_base::`vftable'
PUBLIC	??_R4ios_base@std@@6B@				; std::ios_base::`RTTI Complete Object Locator'
EXTRN	?_Ios_base_dtor@ios_base@std@@CAXPAV12@@Z:PROC	; std::ios_base::_Ios_base_dtor
EXTRN	??_Eios_base@std@@UAEPAXI@Z:PROC		; std::ios_base::`vector deleting destructor'
;	COMDAT ??_R4ios_base@std@@6B@
; File c:\program files (x86)\microsoft visual studio 10.0\vc\include\xiosbase
rdata$r	SEGMENT
??_R4ios_base@std@@6B@ DD 00H				; std::ios_base::`RTTI Complete Object Locator'
	DD	00H
	DD	00H
	DD	FLAT:??_R0?AVios_base@std@@@8
	DD	FLAT:??_R3ios_base@std@@8
rdata$r	ENDS
;	COMDAT ??_7ios_base@std@@6B@
CONST	SEGMENT
??_7ios_base@std@@6B@ DD FLAT:??_R4ios_base@std@@6B@	; std::ios_base::`vftable'
	DD	FLAT:??_Eios_base@std@@UAEPAXI@Z
; Function compile flags: /Odtp /RTCsu /ZI
CONST	ENDS
;	COMDAT ??1ios_base@std@@UAE@XZ
_TEXT	SEGMENT
_this$ = -8						; size = 4
??1ios_base@std@@UAE@XZ PROC				; std::ios_base::~ios_base, COMDAT
; _this$ = ecx

; 540  : 		{	// destroy the object

	push	ebp
	mov	ebp, esp
	sub	esp, 204				; 000000ccH
	push	ebx
	push	esi
	push	edi
	push	ecx
	lea	edi, DWORD PTR [ebp-204]
	mov	ecx, 51					; 00000033H
	mov	eax, -858993460				; ccccccccH
	rep stosd
	pop	ecx
	mov	DWORD PTR _this$[ebp], ecx
	mov	eax, DWORD PTR _this$[ebp]
	mov	DWORD PTR [eax], OFFSET ??_7ios_base@std@@6B@

; 541  : 		_Ios_base_dtor(this);

	mov	eax, DWORD PTR _this$[ebp]
	push	eax
	call	?_Ios_base_dtor@ios_base@std@@CAXPAV12@@Z ; std::ios_base::_Ios_base_dtor
	add	esp, 4

; 542  : 		}

	pop	edi
	pop	esi
	pop	ebx
	add	esp, 204				; 000000ccH
	cmp	ebp, esp
	call	__RTC_CheckEsp
	mov	esp, ebp
	pop	ebp
	ret	0
??1ios_base@std@@UAE@XZ ENDP				; std::ios_base::~ios_base
_TEXT	ENDS
EXTRN	??3@YAXPAX@Z:PROC				; operator delete
; Function compile flags: /Odtp /RTCsu /ZI
;	COMDAT ??_Gios_base@std@@UAEPAXI@Z
_TEXT	SEGMENT
_this$ = -8						; size = 4
___flags$ = 8						; size = 4
??_Gios_base@std@@UAEPAXI@Z PROC			; std::ios_base::`scalar deleting destructor', COMDAT
; _this$ = ecx
	push	ebp
	mov	ebp, esp
	sub	esp, 204				; 000000ccH
	push	ebx
	push	esi
	push	edi
	push	ecx
	lea	edi, DWORD PTR [ebp-204]
	mov	ecx, 51					; 00000033H
	mov	eax, -858993460				; ccccccccH
	rep stosd
	pop	ecx
	mov	DWORD PTR _this$[ebp], ecx
	mov	ecx, DWORD PTR _this$[ebp]
	call	??1ios_base@std@@UAE@XZ			; std::ios_base::~ios_base
	mov	eax, DWORD PTR ___flags$[ebp]
	and	eax, 1
	je	SHORT $LN1@scalar
	mov	eax, DWORD PTR _this$[ebp]
	push	eax
	call	??3@YAXPAX@Z				; operator delete
	add	esp, 4
$LN1@scalar:
	mov	eax, DWORD PTR _this$[ebp]
	pop	edi
	pop	esi
	pop	ebx
	add	esp, 204				; 000000ccH
	cmp	ebp, esp
	call	__RTC_CheckEsp
	mov	esp, ebp
	pop	ebp
	ret	4
??_Gios_base@std@@UAEPAXI@Z ENDP			; std::ios_base::`scalar deleting destructor'
_TEXT	ENDS
PUBLIC	?clear@ios_base@std@@QAEXH_N@Z			; std::ios_base::clear
; Function compile flags: /Odtp /RTCsu /ZI
; File c:\program files (x86)\microsoft visual studio 10.0\vc\include\ios
;	COMDAT ?clear@?$basic_ios@DU?$char_traits@D@std@@@std@@QAEXH_N@Z
_TEXT	SEGMENT
tv73 = -208						; size = 4
_this$ = -8						; size = 4
__State$ = 8						; size = 4
__Reraise$ = 12						; size = 1
?clear@?$basic_ios@DU?$char_traits@D@std@@@std@@QAEXH_N@Z PROC ; std::basic_ios<char,std::char_traits<char> >::clear, COMDAT
; _this$ = ecx

; 42   : 		{	// set state, possibly reraise exception

	push	ebp
	mov	ebp, esp
	sub	esp, 208				; 000000d0H
	push	ebx
	push	esi
	push	edi
	push	ecx
	lea	edi, DWORD PTR [ebp-208]
	mov	ecx, 52					; 00000034H
	mov	eax, -858993460				; ccccccccH
	rep stosd
	pop	ecx
	mov	DWORD PTR _this$[ebp], ecx

; 43   : 		ios_base::clear((iostate)(_Mystrbuf == 0
; 44   : 			? (int)_State | (int)badbit : (int)_State), _Reraise);

	mov	eax, DWORD PTR _this$[ebp]
	cmp	DWORD PTR [eax+56], 0
	jne	SHORT $LN3@clear
	mov	ecx, DWORD PTR __State$[ebp]
	or	ecx, 4
	mov	DWORD PTR tv73[ebp], ecx
	jmp	SHORT $LN4@clear
$LN3@clear:
	mov	edx, DWORD PTR __State$[ebp]
	mov	DWORD PTR tv73[ebp], edx
$LN4@clear:
	movzx	eax, BYTE PTR __Reraise$[ebp]
	push	eax
	mov	ecx, DWORD PTR tv73[ebp]
	push	ecx
	mov	ecx, DWORD PTR _this$[ebp]
	call	?clear@ios_base@std@@QAEXH_N@Z		; std::ios_base::clear

; 45   : 		}

	pop	edi
	pop	esi
	pop	ebx
	add	esp, 208				; 000000d0H
	cmp	ebp, esp
	call	__RTC_CheckEsp
	mov	esp, ebp
	pop	ebp
	ret	8
?clear@?$basic_ios@DU?$char_traits@D@std@@@std@@QAEXH_N@Z ENDP ; std::basic_ios<char,std::char_traits<char> >::clear
_TEXT	ENDS
PUBLIC	??_C@_0BF@OOHOMBOF@ios_base?3?3eofbit?5set?$AA@	; `string'
PUBLIC	??_C@_0BG@FMKFHCIL@ios_base?3?3failbit?5set?$AA@ ; `string'
PUBLIC	__TI4?AVfailure@ios_base@std@@
PUBLIC	??0failure@ios_base@std@@QAE@PBDABVerror_code@2@@Z ; std::ios_base::failure::failure
PUBLIC	??_C@_0BF@PHHKMMFD@ios_base?3?3badbit?5set?$AA@	; `string'
PUBLIC	?make_error_code@std@@YA?AVerror_code@1@W4io_errc@31@@Z ; std::make_error_code
PUBLIC	??1failure@ios_base@std@@UAE@XZ			; std::ios_base::failure::~failure
PUBLIC	__CTA4?AVfailure@ios_base@std@@
PUBLIC	__CT??_R0?AVfailure@ios_base@std@@@8??0failure@ios_base@std@@QAE@ABV012@@Z20
PUBLIC	??_R0?AVfailure@ios_base@std@@@8		; std::ios_base::failure `RTTI Type Descriptor'
PUBLIC	??0failure@ios_base@std@@QAE@ABV012@@Z		; std::ios_base::failure::failure
PUBLIC	__CT??_R0?AVsystem_error@std@@@8??0system_error@std@@QAE@ABV01@@Z20
PUBLIC	??_R0?AVsystem_error@std@@@8			; std::system_error `RTTI Type Descriptor'
PUBLIC	??0system_error@std@@QAE@ABV01@@Z		; std::system_error::system_error
PUBLIC	__CT??_R0?AVruntime_error@std@@@8??0runtime_error@std@@QAE@ABV01@@Z12
PUBLIC	??_R0?AVruntime_error@std@@@8			; std::runtime_error `RTTI Type Descriptor'
PUBLIC	??0runtime_error@std@@QAE@ABV01@@Z		; std::runtime_error::runtime_error
PUBLIC	__CT??_R0?AVexception@std@@@8??0exception@std@@QAE@ABV01@@Z12
PUBLIC	??_R0?AVexception@std@@@8			; std::exception `RTTI Type Descriptor'
EXTRN	__CxxThrowException@8:PROC
EXTRN	??0exception@std@@QAE@ABV01@@Z:PROC		; std::exception::exception
;	COMDAT ??_R0?AVexception@std@@@8
; File c:\program files (x86)\microsoft visual studio 10.0\vc\include\xiosbase
_DATA	SEGMENT
??_R0?AVexception@std@@@8 DD FLAT:??_7type_info@@6B@	; std::exception `RTTI Type Descriptor'
	DD	00H
	DB	'.?AVexception@std@@', 00H
_DATA	ENDS
;	COMDAT __CT??_R0?AVexception@std@@@8??0exception@std@@QAE@ABV01@@Z12
xdata$x	SEGMENT
__CT??_R0?AVexception@std@@@8??0exception@std@@QAE@ABV01@@Z12 DD 00H
	DD	FLAT:??_R0?AVexception@std@@@8
	DD	00H
	DD	0ffffffffH
	ORG $+4
	DD	0cH
	DD	FLAT:??0exception@std@@QAE@ABV01@@Z
xdata$x	ENDS
;	COMDAT ??_R0?AVruntime_error@std@@@8
_DATA	SEGMENT
??_R0?AVruntime_error@std@@@8 DD FLAT:??_7type_info@@6B@ ; std::runtime_error `RTTI Type Descriptor'
	DD	00H
	DB	'.?AVruntime_error@std@@', 00H
_DATA	ENDS
;	COMDAT __CT??_R0?AVruntime_error@std@@@8??0runtime_error@std@@QAE@ABV01@@Z12
xdata$x	SEGMENT
__CT??_R0?AVruntime_error@std@@@8??0runtime_error@std@@QAE@ABV01@@Z12 DD 00H
	DD	FLAT:??_R0?AVruntime_error@std@@@8
	DD	00H
	DD	0ffffffffH
	ORG $+4
	DD	0cH
	DD	FLAT:??0runtime_error@std@@QAE@ABV01@@Z
xdata$x	ENDS
;	COMDAT ??_R0?AVsystem_error@std@@@8
_DATA	SEGMENT
??_R0?AVsystem_error@std@@@8 DD FLAT:??_7type_info@@6B@	; std::system_error `RTTI Type Descriptor'
	DD	00H
	DB	'.?AVsystem_error@std@@', 00H
_DATA	ENDS
;	COMDAT __CT??_R0?AVsystem_error@std@@@8??0system_error@std@@QAE@ABV01@@Z20
xdata$x	SEGMENT
__CT??_R0?AVsystem_error@std@@@8??0system_error@std@@QAE@ABV01@@Z20 DD 00H
	DD	FLAT:??_R0?AVsystem_error@std@@@8
	DD	00H
	DD	0ffffffffH
	ORG $+4
	DD	014H
	DD	FLAT:??0system_error@std@@QAE@ABV01@@Z
xdata$x	ENDS
;	COMDAT ??_R0?AVfailure@ios_base@std@@@8
_DATA	SEGMENT
??_R0?AVfailure@ios_base@std@@@8 DD FLAT:??_7type_info@@6B@ ; std::ios_base::failure `RTTI Type Descriptor'
	DD	00H
	DB	'.?AVfailure@ios_base@std@@', 00H
_DATA	ENDS
;	COMDAT __CT??_R0?AVfailure@ios_base@std@@@8??0failure@ios_base@std@@QAE@ABV012@@Z20
xdata$x	SEGMENT
__CT??_R0?AVfailure@ios_base@std@@@8??0failure@ios_base@std@@QAE@ABV012@@Z20 DD 00H
	DD	FLAT:??_R0?AVfailure@ios_base@std@@@8
	DD	00H
	DD	0ffffffffH
	ORG $+4
	DD	014H
	DD	FLAT:??0failure@ios_base@std@@QAE@ABV012@@Z
xdata$x	ENDS
;	COMDAT __CTA4?AVfailure@ios_base@std@@
xdata$x	SEGMENT
__CTA4?AVfailure@ios_base@std@@ DD 04H
	DD	FLAT:__CT??_R0?AVfailure@ios_base@std@@@8??0failure@ios_base@std@@QAE@ABV012@@Z20
	DD	FLAT:__CT??_R0?AVsystem_error@std@@@8??0system_error@std@@QAE@ABV01@@Z20
	DD	FLAT:__CT??_R0?AVruntime_error@std@@@8??0runtime_error@std@@QAE@ABV01@@Z12
	DD	FLAT:__CT??_R0?AVexception@std@@@8??0exception@std@@QAE@ABV01@@Z12
xdata$x	ENDS
;	COMDAT ??_C@_0BF@OOHOMBOF@ios_base?3?3eofbit?5set?$AA@
CONST	SEGMENT
??_C@_0BF@OOHOMBOF@ios_base?3?3eofbit?5set?$AA@ DB 'ios_base::eofbit set', 00H ; `string'
CONST	ENDS
;	COMDAT ??_C@_0BG@FMKFHCIL@ios_base?3?3failbit?5set?$AA@
CONST	SEGMENT
??_C@_0BG@FMKFHCIL@ios_base?3?3failbit?5set?$AA@ DB 'ios_base::failbit se'
	DB	't', 00H					; `string'
CONST	ENDS
;	COMDAT __TI4?AVfailure@ios_base@std@@
xdata$x	SEGMENT
__TI4?AVfailure@ios_base@std@@ DD 00H
	DD	FLAT:??1failure@ios_base@std@@UAE@XZ
	DD	00H
	DD	FLAT:__CTA4?AVfailure@ios_base@std@@
xdata$x	ENDS
;	COMDAT ??_C@_0BF@PHHKMMFD@ios_base?3?3badbit?5set?$AA@
CONST	SEGMENT
??_C@_0BF@PHHKMMFD@ios_base?3?3badbit?5set?$AA@ DB 'ios_base::badbit set', 00H ; `string'
; Function compile flags: /Odtp /RTCsu /ZI
CONST	ENDS
;	COMDAT ?clear@ios_base@std@@QAEXH_N@Z
_TEXT	SEGMENT
$T36736 = -332						; size = 20
$T36737 = -304						; size = 8
$T36738 = -288						; size = 20
$T36739 = -260						; size = 8
$T36740 = -244						; size = 20
$T36741 = -216						; size = 8
_this$ = -8						; size = 4
__State$ = 8						; size = 4
__Reraise$ = 12						; size = 1
?clear@ios_base@std@@QAEXH_N@Z PROC			; std::ios_base::clear, COMDAT
; _this$ = ecx

; 310  : 		{	// set state, possibly reraise exception

	push	ebp
	mov	ebp, esp
	sub	esp, 336				; 00000150H
	push	ebx
	push	esi
	push	edi
	push	ecx
	lea	edi, DWORD PTR [ebp-336]
	mov	ecx, 84					; 00000054H
	mov	eax, -858993460				; ccccccccH
	rep stosd
	pop	ecx
	mov	DWORD PTR _this$[ebp], ecx

; 311  : 		_Mystate = (iostate)(_State & _Statmask);

	mov	eax, DWORD PTR __State$[ebp]
	and	eax, 23					; 00000017H
	mov	ecx, DWORD PTR _this$[ebp]
	mov	DWORD PTR [ecx+12], eax

; 312  : 		if ((_Mystate & _Except) == 0)

	mov	eax, DWORD PTR _this$[ebp]
	mov	ecx, DWORD PTR _this$[ebp]
	mov	edx, DWORD PTR [eax+12]
	and	edx, DWORD PTR [ecx+16]
	jne	SHORT $LN8@clear@2
	jmp	$LN10@clear@2
$LN8@clear@2:

; 313  : 			;
; 314  : 		else if (_Reraise)

	movzx	eax, BYTE PTR __Reraise$[ebp]
	test	eax, eax
	je	SHORT $LN6@clear@2

; 315  : 			_RERAISE;

	push	0
	push	0
	call	__CxxThrowException@8
	jmp	$LN10@clear@2
$LN6@clear@2:

; 316  : 		else if (_Mystate & _Except & badbit)

	mov	eax, DWORD PTR _this$[ebp]
	mov	ecx, DWORD PTR _this$[ebp]
	mov	edx, DWORD PTR [eax+12]
	and	edx, DWORD PTR [ecx+16]
	and	edx, 4
	je	SHORT $LN4@clear@2

; 317  : 			_THROW_NCEE(failure, "ios_base::badbit set");

	push	1
	lea	eax, DWORD PTR $T36737[ebp]
	push	eax
	call	?make_error_code@std@@YA?AVerror_code@1@W4io_errc@31@@Z ; std::make_error_code
	add	esp, 8
	push	eax
	push	OFFSET ??_C@_0BF@PHHKMMFD@ios_base?3?3badbit?5set?$AA@
	lea	ecx, DWORD PTR $T36736[ebp]
	call	??0failure@ios_base@std@@QAE@PBDABVerror_code@2@@Z ; std::ios_base::failure::failure
	push	OFFSET __TI4?AVfailure@ios_base@std@@
	lea	ecx, DWORD PTR $T36736[ebp]
	push	ecx
	call	__CxxThrowException@8
	jmp	SHORT $LN10@clear@2
$LN4@clear@2:

; 318  : 		else if (_Mystate & _Except & failbit)

	mov	eax, DWORD PTR _this$[ebp]
	mov	ecx, DWORD PTR _this$[ebp]
	mov	edx, DWORD PTR [eax+12]
	and	edx, DWORD PTR [ecx+16]
	and	edx, 2
	je	SHORT $LN2@clear@2

; 319  : 			_THROW_NCEE(failure, "ios_base::failbit set");

	push	1
	lea	eax, DWORD PTR $T36739[ebp]
	push	eax
	call	?make_error_code@std@@YA?AVerror_code@1@W4io_errc@31@@Z ; std::make_error_code
	add	esp, 8
	push	eax
	push	OFFSET ??_C@_0BG@FMKFHCIL@ios_base?3?3failbit?5set?$AA@
	lea	ecx, DWORD PTR $T36738[ebp]
	call	??0failure@ios_base@std@@QAE@PBDABVerror_code@2@@Z ; std::ios_base::failure::failure
	push	OFFSET __TI4?AVfailure@ios_base@std@@
	lea	ecx, DWORD PTR $T36738[ebp]
	push	ecx
	call	__CxxThrowException@8

; 320  : 		else

	jmp	SHORT $LN10@clear@2
$LN2@clear@2:

; 321  : 			_THROW_NCEE(failure, "ios_base::eofbit set");

	push	1
	lea	eax, DWORD PTR $T36741[ebp]
	push	eax
	call	?make_error_code@std@@YA?AVerror_code@1@W4io_errc@31@@Z ; std::make_error_code
	add	esp, 8
	push	eax
	push	OFFSET ??_C@_0BF@OOHOMBOF@ios_base?3?3eofbit?5set?$AA@
	lea	ecx, DWORD PTR $T36740[ebp]
	call	??0failure@ios_base@std@@QAE@PBDABVerror_code@2@@Z ; std::ios_base::failure::failure
	push	OFFSET __TI4?AVfailure@ios_base@std@@
	lea	ecx, DWORD PTR $T36740[ebp]
	push	ecx
	call	__CxxThrowException@8
$LN10@clear@2:

; 322  : 		}

	pop	edi
	pop	esi
	pop	ebx
	add	esp, 336				; 00000150H
	cmp	ebp, esp
	call	__RTC_CheckEsp
	mov	esp, ebp
	pop	ebp
	ret	8
?clear@ios_base@std@@QAEXH_N@Z ENDP			; std::ios_base::clear
_TEXT	ENDS
PUBLIC	??_7runtime_error@std@@6B@			; std::runtime_error::`vftable'
PUBLIC	??_R4runtime_error@std@@6B@			; std::runtime_error::`RTTI Complete Object Locator'
PUBLIC	??_R3runtime_error@std@@8			; std::runtime_error::`RTTI Class Hierarchy Descriptor'
PUBLIC	??_R2runtime_error@std@@8			; std::runtime_error::`RTTI Base Class Array'
PUBLIC	??_R1A@?0A@EA@runtime_error@std@@8		; std::runtime_error::`RTTI Base Class Descriptor at (0,-1,0,64)'
PUBLIC	??_R1A@?0A@EA@exception@std@@8			; std::exception::`RTTI Base Class Descriptor at (0,-1,0,64)'
PUBLIC	??_R3exception@std@@8				; std::exception::`RTTI Class Hierarchy Descriptor'
PUBLIC	??_R2exception@std@@8				; std::exception::`RTTI Base Class Array'
EXTRN	??_Eruntime_error@std@@UAEPAXI@Z:PROC		; std::runtime_error::`vector deleting destructor'
EXTRN	?what@exception@std@@UBEPBDXZ:PROC		; std::exception::what
;	COMDAT ??_R2exception@std@@8
rdata$r	SEGMENT
??_R2exception@std@@8 DD FLAT:??_R1A@?0A@EA@exception@std@@8 ; std::exception::`RTTI Base Class Array'
rdata$r	ENDS
;	COMDAT ??_R3exception@std@@8
rdata$r	SEGMENT
??_R3exception@std@@8 DD 00H				; std::exception::`RTTI Class Hierarchy Descriptor'
	DD	00H
	DD	01H
	DD	FLAT:??_R2exception@std@@8
rdata$r	ENDS
;	COMDAT ??_R1A@?0A@EA@exception@std@@8
rdata$r	SEGMENT
??_R1A@?0A@EA@exception@std@@8 DD FLAT:??_R0?AVexception@std@@@8 ; std::exception::`RTTI Base Class Descriptor at (0,-1,0,64)'
	DD	00H
	DD	00H
	DD	0ffffffffH
	DD	00H
	DD	040H
	DD	FLAT:??_R3exception@std@@8
rdata$r	ENDS
;	COMDAT ??_R1A@?0A@EA@runtime_error@std@@8
rdata$r	SEGMENT
??_R1A@?0A@EA@runtime_error@std@@8 DD FLAT:??_R0?AVruntime_error@std@@@8 ; std::runtime_error::`RTTI Base Class Descriptor at (0,-1,0,64)'
	DD	01H
	DD	00H
	DD	0ffffffffH
	DD	00H
	DD	040H
	DD	FLAT:??_R3runtime_error@std@@8
rdata$r	ENDS
;	COMDAT ??_R2runtime_error@std@@8
rdata$r	SEGMENT
??_R2runtime_error@std@@8 DD FLAT:??_R1A@?0A@EA@runtime_error@std@@8 ; std::runtime_error::`RTTI Base Class Array'
	DD	FLAT:??_R1A@?0A@EA@exception@std@@8
rdata$r	ENDS
;	COMDAT ??_R3runtime_error@std@@8
rdata$r	SEGMENT
??_R3runtime_error@std@@8 DD 00H			; std::runtime_error::`RTTI Class Hierarchy Descriptor'
	DD	00H
	DD	02H
	DD	FLAT:??_R2runtime_error@std@@8
rdata$r	ENDS
;	COMDAT ??_R4runtime_error@std@@6B@
rdata$r	SEGMENT
??_R4runtime_error@std@@6B@ DD 00H			; std::runtime_error::`RTTI Complete Object Locator'
	DD	00H
	DD	00H
	DD	FLAT:??_R0?AVruntime_error@std@@@8
	DD	FLAT:??_R3runtime_error@std@@8
rdata$r	ENDS
;	COMDAT ??_7runtime_error@std@@6B@
CONST	SEGMENT
??_7runtime_error@std@@6B@ DD FLAT:??_R4runtime_error@std@@6B@ ; std::runtime_error::`vftable'
	DD	FLAT:??_Eruntime_error@std@@UAEPAXI@Z
	DD	FLAT:?what@exception@std@@UBEPBDXZ
; Function compile flags: /Odtp /RTCsu /ZI
CONST	ENDS
;	COMDAT ??0runtime_error@std@@QAE@ABV01@@Z
_TEXT	SEGMENT
_this$ = -8						; size = 4
___that$ = 8						; size = 4
??0runtime_error@std@@QAE@ABV01@@Z PROC			; std::runtime_error::runtime_error, COMDAT
; _this$ = ecx
	push	ebp
	mov	ebp, esp
	sub	esp, 204				; 000000ccH
	push	ebx
	push	esi
	push	edi
	push	ecx
	lea	edi, DWORD PTR [ebp-204]
	mov	ecx, 51					; 00000033H
	mov	eax, -858993460				; ccccccccH
	rep stosd
	pop	ecx
	mov	DWORD PTR _this$[ebp], ecx
	mov	eax, DWORD PTR ___that$[ebp]
	push	eax
	mov	ecx, DWORD PTR _this$[ebp]
	call	??0exception@std@@QAE@ABV01@@Z		; std::exception::exception
	mov	eax, DWORD PTR _this$[ebp]
	mov	DWORD PTR [eax], OFFSET ??_7runtime_error@std@@6B@
	mov	eax, DWORD PTR _this$[ebp]
	pop	edi
	pop	esi
	pop	ebx
	add	esp, 204				; 000000ccH
	cmp	ebp, esp
	call	__RTC_CheckEsp
	mov	esp, ebp
	pop	ebp
	ret	4
??0runtime_error@std@@QAE@ABV01@@Z ENDP			; std::runtime_error::runtime_error
_TEXT	ENDS
PUBLIC	??1runtime_error@std@@UAE@XZ			; std::runtime_error::~runtime_error
; Function compile flags: /Odtp /RTCsu /ZI
;	COMDAT ??_Gruntime_error@std@@UAEPAXI@Z
_TEXT	SEGMENT
_this$ = -8						; size = 4
___flags$ = 8						; size = 4
??_Gruntime_error@std@@UAEPAXI@Z PROC			; std::runtime_error::`scalar deleting destructor', COMDAT
; _this$ = ecx
	push	ebp
	mov	ebp, esp
	sub	esp, 204				; 000000ccH
	push	ebx
	push	esi
	push	edi
	push	ecx
	lea	edi, DWORD PTR [ebp-204]
	mov	ecx, 51					; 00000033H
	mov	eax, -858993460				; ccccccccH
	rep stosd
	pop	ecx
	mov	DWORD PTR _this$[ebp], ecx
	mov	ecx, DWORD PTR _this$[ebp]
	call	??1runtime_error@std@@UAE@XZ
	mov	eax, DWORD PTR ___flags$[ebp]
	and	eax, 1
	je	SHORT $LN1@scalar@2
	mov	eax, DWORD PTR _this$[ebp]
	push	eax
	call	??3@YAXPAX@Z				; operator delete
	add	esp, 4
$LN1@scalar@2:
	mov	eax, DWORD PTR _this$[ebp]
	pop	edi
	pop	esi
	pop	ebx
	add	esp, 204				; 000000ccH
	cmp	ebp, esp
	call	__RTC_CheckEsp
	mov	esp, ebp
	pop	ebp
	ret	4
??_Gruntime_error@std@@UAEPAXI@Z ENDP			; std::runtime_error::`scalar deleting destructor'
_TEXT	ENDS
EXTRN	??1exception@std@@UAE@XZ:PROC			; std::exception::~exception
; Function compile flags: /Odtp /RTCsu /ZI
;	COMDAT ??1runtime_error@std@@UAE@XZ
_TEXT	SEGMENT
_this$ = -8						; size = 4
??1runtime_error@std@@UAE@XZ PROC			; std::runtime_error::~runtime_error, COMDAT
; _this$ = ecx
	push	ebp
	mov	ebp, esp
	sub	esp, 204				; 000000ccH
	push	ebx
	push	esi
	push	edi
	push	ecx
	lea	edi, DWORD PTR [ebp-204]
	mov	ecx, 51					; 00000033H
	mov	eax, -858993460				; ccccccccH
	rep stosd
	pop	ecx
	mov	DWORD PTR _this$[ebp], ecx
	mov	ecx, DWORD PTR _this$[ebp]
	call	??1exception@std@@UAE@XZ		; std::exception::~exception
	pop	edi
	pop	esi
	pop	ebx
	add	esp, 204				; 000000ccH
	cmp	ebp, esp
	call	__RTC_CheckEsp
	mov	esp, ebp
	pop	ebp
	ret	0
??1runtime_error@std@@UAE@XZ ENDP			; std::runtime_error::~runtime_error
_TEXT	ENDS
PUBLIC	??0error_code@std@@QAE@HABVerror_category@1@@Z	; std::error_code::error_code
EXTRN	?iostream_category@std@@YAABVerror_category@1@XZ:PROC ; std::iostream_category
; Function compile flags: /Odtp /RTCsu /ZI
; File c:\program files (x86)\microsoft visual studio 10.0\vc\include\system_error
;	COMDAT ?make_error_code@std@@YA?AVerror_code@1@W4io_errc@31@@Z
_TEXT	SEGMENT
___$ReturnUdt$ = 8					; size = 4
__Errno$ = 12						; size = 4
?make_error_code@std@@YA?AVerror_code@1@W4io_errc@31@@Z PROC ; std::make_error_code, COMDAT

; 446  : 	{	// make an error_code

	push	ebp
	mov	ebp, esp
	sub	esp, 192				; 000000c0H
	push	ebx
	push	esi
	push	edi
	lea	edi, DWORD PTR [ebp-192]
	mov	ecx, 48					; 00000030H
	mov	eax, -858993460				; ccccccccH
	rep stosd

; 447  : 	return (error_code(_Errno, iostream_category()));

	call	?iostream_category@std@@YAABVerror_category@1@XZ ; std::iostream_category
	push	eax
	mov	eax, DWORD PTR __Errno$[ebp]
	push	eax
	mov	ecx, DWORD PTR ___$ReturnUdt$[ebp]
	call	??0error_code@std@@QAE@HABVerror_category@1@@Z ; std::error_code::error_code
	mov	eax, DWORD PTR ___$ReturnUdt$[ebp]

; 448  : 	}

	pop	edi
	pop	esi
	pop	ebx
	add	esp, 192				; 000000c0H
	cmp	ebp, esp
	call	__RTC_CheckEsp
	mov	esp, ebp
	pop	ebp
	ret	0
?make_error_code@std@@YA?AVerror_code@1@W4io_errc@31@@Z ENDP ; std::make_error_code
; Function compile flags: /Odtp /RTCsu /ZI
_TEXT	ENDS
;	COMDAT ??0error_code@std@@QAE@HABVerror_category@1@@Z
_TEXT	SEGMENT
_this$ = -8						; size = 4
__Val$ = 8						; size = 4
__Cat$ = 12						; size = 4
??0error_code@std@@QAE@HABVerror_category@1@@Z PROC	; std::error_code::error_code, COMDAT
; _this$ = ecx

; 204  : 		{	// construct from error code and category

	push	ebp
	mov	ebp, esp
	sub	esp, 204				; 000000ccH
	push	ebx
	push	esi
	push	edi
	push	ecx
	lea	edi, DWORD PTR [ebp-204]
	mov	ecx, 51					; 00000033H
	mov	eax, -858993460				; ccccccccH
	rep stosd
	pop	ecx
	mov	DWORD PTR _this$[ebp], ecx
	mov	eax, DWORD PTR _this$[ebp]
	mov	ecx, DWORD PTR __Val$[ebp]
	mov	DWORD PTR [eax], ecx
	mov	eax, DWORD PTR _this$[ebp]
	mov	ecx, DWORD PTR __Cat$[ebp]
	mov	DWORD PTR [eax+4], ecx

; 205  : 		}

	mov	eax, DWORD PTR _this$[ebp]
	pop	edi
	pop	esi
	pop	ebx
	mov	esp, ebp
	pop	ebp
	ret	8
??0error_code@std@@QAE@HABVerror_category@1@@Z ENDP	; std::error_code::error_code
_TEXT	ENDS
PUBLIC	??_7failure@ios_base@std@@6B@			; std::ios_base::failure::`vftable'
PUBLIC	??0system_error@std@@QAE@Verror_code@1@PBD@Z	; std::system_error::system_error
PUBLIC	??_R4failure@ios_base@std@@6B@			; std::ios_base::failure::`RTTI Complete Object Locator'
PUBLIC	??_R3failure@ios_base@std@@8			; std::ios_base::failure::`RTTI Class Hierarchy Descriptor'
PUBLIC	??_R2failure@ios_base@std@@8			; std::ios_base::failure::`RTTI Base Class Array'
PUBLIC	??_R1A@?0A@EA@failure@ios_base@std@@8		; std::ios_base::failure::`RTTI Base Class Descriptor at (0,-1,0,64)'
PUBLIC	??_R1A@?0A@EA@system_error@std@@8		; std::system_error::`RTTI Base Class Descriptor at (0,-1,0,64)'
PUBLIC	??_R3system_error@std@@8			; std::system_error::`RTTI Class Hierarchy Descriptor'
PUBLIC	??_R2system_error@std@@8			; std::system_error::`RTTI Base Class Array'
EXTRN	??_Efailure@ios_base@std@@UAEPAXI@Z:PROC	; std::ios_base::failure::`vector deleting destructor'
;	COMDAT ??_R2system_error@std@@8
; File c:\program files (x86)\microsoft visual studio 10.0\vc\include\xiosbase
rdata$r	SEGMENT
??_R2system_error@std@@8 DD FLAT:??_R1A@?0A@EA@system_error@std@@8 ; std::system_error::`RTTI Base Class Array'
	DD	FLAT:??_R1A@?0A@EA@runtime_error@std@@8
	DD	FLAT:??_R1A@?0A@EA@exception@std@@8
rdata$r	ENDS
;	COMDAT ??_R3system_error@std@@8
rdata$r	SEGMENT
??_R3system_error@std@@8 DD 00H				; std::system_error::`RTTI Class Hierarchy Descriptor'
	DD	00H
	DD	03H
	DD	FLAT:??_R2system_error@std@@8
rdata$r	ENDS
;	COMDAT ??_R1A@?0A@EA@system_error@std@@8
rdata$r	SEGMENT
??_R1A@?0A@EA@system_error@std@@8 DD FLAT:??_R0?AVsystem_error@std@@@8 ; std::system_error::`RTTI Base Class Descriptor at (0,-1,0,64)'
	DD	02H
	DD	00H
	DD	0ffffffffH
	DD	00H
	DD	040H
	DD	FLAT:??_R3system_error@std@@8
rdata$r	ENDS
;	COMDAT ??_R1A@?0A@EA@failure@ios_base@std@@8
rdata$r	SEGMENT
??_R1A@?0A@EA@failure@ios_base@std@@8 DD FLAT:??_R0?AVfailure@ios_base@std@@@8 ; std::ios_base::failure::`RTTI Base Class Descriptor at (0,-1,0,64)'
	DD	03H
	DD	00H
	DD	0ffffffffH
	DD	00H
	DD	040H
	DD	FLAT:??_R3failure@ios_base@std@@8
rdata$r	ENDS
;	COMDAT ??_R2failure@ios_base@std@@8
rdata$r	SEGMENT
??_R2failure@ios_base@std@@8 DD FLAT:??_R1A@?0A@EA@failure@ios_base@std@@8 ; std::ios_base::failure::`RTTI Base Class Array'
	DD	FLAT:??_R1A@?0A@EA@system_error@std@@8
	DD	FLAT:??_R1A@?0A@EA@runtime_error@std@@8
	DD	FLAT:??_R1A@?0A@EA@exception@std@@8
rdata$r	ENDS
;	COMDAT ??_R3failure@ios_base@std@@8
rdata$r	SEGMENT
??_R3failure@ios_base@std@@8 DD 00H			; std::ios_base::failure::`RTTI Class Hierarchy Descriptor'
	DD	00H
	DD	04H
	DD	FLAT:??_R2failure@ios_base@std@@8
rdata$r	ENDS
;	COMDAT ??_R4failure@ios_base@std@@6B@
rdata$r	SEGMENT
??_R4failure@ios_base@std@@6B@ DD 00H			; std::ios_base::failure::`RTTI Complete Object Locator'
	DD	00H
	DD	00H
	DD	FLAT:??_R0?AVfailure@ios_base@std@@@8
	DD	FLAT:??_R3failure@ios_base@std@@8
rdata$r	ENDS
;	COMDAT ??_7failure@ios_base@std@@6B@
CONST	SEGMENT
??_7failure@ios_base@std@@6B@ DD FLAT:??_R4failure@ios_base@std@@6B@ ; std::ios_base::failure::`vftable'
	DD	FLAT:??_Efailure@ios_base@std@@UAEPAXI@Z
	DD	FLAT:?what@exception@std@@UBEPBDXZ
; Function compile flags: /Odtp /RTCsu /ZI
CONST	ENDS
;	COMDAT ??0failure@ios_base@std@@QAE@PBDABVerror_code@2@@Z
_TEXT	SEGMENT
_this$ = -8						; size = 4
__Message$ = 8						; size = 4
__Errcode$ = 12						; size = 4
??0failure@ios_base@std@@QAE@PBDABVerror_code@2@@Z PROC	; std::ios_base::failure::failure, COMDAT
; _this$ = ecx

; 237  : 			{	// construct with message

	push	ebp
	mov	ebp, esp
	sub	esp, 204				; 000000ccH
	push	ebx
	push	esi
	push	edi
	push	ecx
	lea	edi, DWORD PTR [ebp-204]
	mov	ecx, 51					; 00000033H
	mov	eax, -858993460				; ccccccccH
	rep stosd
	pop	ecx
	mov	DWORD PTR _this$[ebp], ecx
	mov	eax, DWORD PTR __Message$[ebp]
	push	eax
	mov	ecx, DWORD PTR __Errcode$[ebp]
	mov	edx, DWORD PTR [ecx+4]
	push	edx
	mov	eax, DWORD PTR [ecx]
	push	eax
	mov	ecx, DWORD PTR _this$[ebp]
	call	??0system_error@std@@QAE@Verror_code@1@PBD@Z ; std::system_error::system_error
	mov	eax, DWORD PTR _this$[ebp]
	mov	DWORD PTR [eax], OFFSET ??_7failure@ios_base@std@@6B@

; 238  : 			}

	mov	eax, DWORD PTR _this$[ebp]
	pop	edi
	pop	esi
	pop	ebx
	add	esp, 204				; 000000ccH
	cmp	ebp, esp
	call	__RTC_CheckEsp
	mov	esp, ebp
	pop	ebp
	ret	8
??0failure@ios_base@std@@QAE@PBDABVerror_code@2@@Z ENDP	; std::ios_base::failure::failure
_TEXT	ENDS
PUBLIC	?_Makestr@system_error@std@@AAEXXZ		; std::system_error::_Makestr
PUBLIC	??_7system_error@std@@6B@			; std::system_error::`vftable'
PUBLIC	??0runtime_error@std@@QAE@PBD@Z			; std::runtime_error::runtime_error
PUBLIC	??_R4system_error@std@@6B@			; std::system_error::`RTTI Complete Object Locator'
EXTRN	??_Esystem_error@std@@UAEPAXI@Z:PROC		; std::system_error::`vector deleting destructor'
;	COMDAT ??_R4system_error@std@@6B@
; File c:\program files (x86)\microsoft visual studio 10.0\vc\include\system_error
rdata$r	SEGMENT
??_R4system_error@std@@6B@ DD 00H			; std::system_error::`RTTI Complete Object Locator'
	DD	00H
	DD	00H
	DD	FLAT:??_R0?AVsystem_error@std@@@8
	DD	FLAT:??_R3system_error@std@@8
rdata$r	ENDS
;	COMDAT ??_7system_error@std@@6B@
CONST	SEGMENT
??_7system_error@std@@6B@ DD FLAT:??_R4system_error@std@@6B@ ; std::system_error::`vftable'
	DD	FLAT:??_Esystem_error@std@@UAEPAXI@Z
	DD	FLAT:?what@exception@std@@UBEPBDXZ
CONST	ENDS
;	COMDAT xdata$x
xdata$x	SEGMENT
__unwindtable$??0system_error@std@@QAE@Verror_code@1@PBD@Z DD 0ffffffffH
	DD	FLAT:__unwindfunclet$??0system_error@std@@QAE@Verror_code@1@PBD@Z$0
__ehfuncinfo$??0system_error@std@@QAE@Verror_code@1@PBD@Z DD 019930522H
	DD	01H
	DD	FLAT:__unwindtable$??0system_error@std@@QAE@Verror_code@1@PBD@Z
	DD	2 DUP(00H)
	DD	2 DUP(00H)
	DD	00H
	DD	01H
; Function compile flags: /Odtp /RTCsu /ZI
xdata$x	ENDS
;	COMDAT ??0system_error@std@@QAE@Verror_code@1@PBD@Z
_TEXT	SEGMENT
_this$ = -20						; size = 4
__$EHRec$ = -12						; size = 12
__Errcode$ = 8						; size = 8
__Message$ = 16						; size = 4
??0system_error@std@@QAE@Verror_code@1@PBD@Z PROC	; std::system_error::system_error, COMDAT
; _this$ = ecx

; 516  : 		{	// construct from error code and message string

	push	ebp
	mov	ebp, esp
	push	-1
	push	__ehhandler$??0system_error@std@@QAE@Verror_code@1@PBD@Z
	mov	eax, DWORD PTR fs:0
	push	eax
	sub	esp, 204				; 000000ccH
	push	ebx
	push	esi
	push	edi
	push	ecx
	lea	edi, DWORD PTR [ebp-216]
	mov	ecx, 51					; 00000033H
	mov	eax, -858993460				; ccccccccH
	rep stosd
	pop	ecx
	mov	eax, DWORD PTR ___security_cookie
	xor	eax, ebp
	push	eax
	lea	eax, DWORD PTR __$EHRec$[ebp]
	mov	DWORD PTR fs:0, eax
	mov	DWORD PTR _this$[ebp], ecx
	mov	eax, DWORD PTR __Message$[ebp]
	push	eax
	mov	ecx, DWORD PTR _this$[ebp]
	call	??0runtime_error@std@@QAE@PBD@Z		; std::runtime_error::runtime_error
	mov	DWORD PTR __$EHRec$[ebp+8], 0
	mov	eax, DWORD PTR _this$[ebp]
	mov	DWORD PTR [eax], OFFSET ??_7system_error@std@@6B@
	mov	eax, DWORD PTR _this$[ebp]
	mov	ecx, DWORD PTR __Errcode$[ebp]
	mov	DWORD PTR [eax+12], ecx
	mov	edx, DWORD PTR __Errcode$[ebp+4]
	mov	DWORD PTR [eax+16], edx

; 517  : 		_Makestr();

	mov	ecx, DWORD PTR _this$[ebp]
	call	?_Makestr@system_error@std@@AAEXXZ	; std::system_error::_Makestr

; 518  : 		}

	mov	DWORD PTR __$EHRec$[ebp+8], -1
	mov	eax, DWORD PTR _this$[ebp]
	mov	ecx, DWORD PTR __$EHRec$[ebp]
	mov	DWORD PTR fs:0, ecx
	pop	ecx
	pop	edi
	pop	esi
	pop	ebx
	add	esp, 216				; 000000d8H
	cmp	ebp, esp
	call	__RTC_CheckEsp
	mov	esp, ebp
	pop	ebp
	ret	12					; 0000000cH
_TEXT	ENDS
;	COMDAT text$x
text$x	SEGMENT
__unwindfunclet$??0system_error@std@@QAE@Verror_code@1@PBD@Z$0:
	mov	ecx, DWORD PTR _this$[ebp]
	jmp	??1runtime_error@std@@UAE@XZ
__ehhandler$??0system_error@std@@QAE@Verror_code@1@PBD@Z:
	mov	edx, DWORD PTR [esp+8]
	lea	eax, DWORD PTR [edx+12]
	mov	ecx, DWORD PTR [edx-220]
	xor	ecx, eax
	call	@__security_check_cookie@4
	mov	eax, OFFSET __ehfuncinfo$??0system_error@std@@QAE@Verror_code@1@PBD@Z
	jmp	___CxxFrameHandler3
text$x	ENDS
??0system_error@std@@QAE@Verror_code@1@PBD@Z ENDP	; std::system_error::system_error
EXTRN	??0exception@std@@QAE@ABQBD@Z:PROC		; std::exception::exception
; Function compile flags: /Odtp /RTCsu /ZI
; File c:\program files (x86)\microsoft visual studio 10.0\vc\include\stdexcept
;	COMDAT ??0runtime_error@std@@QAE@PBD@Z
_TEXT	SEGMENT
_this$ = -8						; size = 4
__Message$ = 8						; size = 4
??0runtime_error@std@@QAE@PBD@Z PROC			; std::runtime_error::runtime_error, COMDAT
; _this$ = ecx

; 170  : 		{	// construct from message string

	push	ebp
	mov	ebp, esp
	sub	esp, 204				; 000000ccH
	push	ebx
	push	esi
	push	edi
	push	ecx
	lea	edi, DWORD PTR [ebp-204]
	mov	ecx, 51					; 00000033H
	mov	eax, -858993460				; ccccccccH
	rep stosd
	pop	ecx
	mov	DWORD PTR _this$[ebp], ecx
	lea	eax, DWORD PTR __Message$[ebp]
	push	eax
	mov	ecx, DWORD PTR _this$[ebp]
	call	??0exception@std@@QAE@ABQBD@Z		; std::exception::exception
	mov	eax, DWORD PTR _this$[ebp]
	mov	DWORD PTR [eax], OFFSET ??_7runtime_error@std@@6B@

; 171  : 		}

	mov	eax, DWORD PTR _this$[ebp]
	pop	edi
	pop	esi
	pop	ebx
	add	esp, 204				; 000000ccH
	cmp	ebp, esp
	call	__RTC_CheckEsp
	mov	esp, ebp
	pop	ebp
	ret	4
??0runtime_error@std@@QAE@PBD@Z ENDP			; std::runtime_error::runtime_error
; Function compile flags: /Odtp /RTCsu /ZI
; File c:\program files (x86)\microsoft visual studio 10.0\vc\include\system_error
_TEXT	ENDS
;	COMDAT ?_Makestr@system_error@std@@AAEXXZ
_TEXT	SEGMENT
_this$ = -8						; size = 4
?_Makestr@system_error@std@@AAEXXZ PROC			; std::system_error::_Makestr, COMDAT
; _this$ = ecx

; 562  : 		{	// compose error message

	push	ebp
	mov	ebp, esp
	sub	esp, 204				; 000000ccH
	push	ebx
	push	esi
	push	edi
	push	ecx
	lea	edi, DWORD PTR [ebp-204]
	mov	ecx, 51					; 00000033H
	mov	eax, -858993460				; ccccccccH
	rep stosd
	pop	ecx
	mov	DWORD PTR _this$[ebp], ecx

; 563  : //		_Mymes = this->runtime_error::what();
; 564  : //		if (!_Mymes.empty())
; 565  : //			_Mymes.append(": ");
; 566  : //		_Mymes.append(_Mycode.message());
; 567  : 		}

	pop	edi
	pop	esi
	pop	ebx
	mov	esp, ebp
	pop	ebp
	ret	0
?_Makestr@system_error@std@@AAEXXZ ENDP			; std::system_error::_Makestr
_TEXT	ENDS
PUBLIC	??1system_error@std@@UAE@XZ			; std::system_error::~system_error
; Function compile flags: /Odtp /RTCsu /ZI
;	COMDAT ??_Gsystem_error@std@@UAEPAXI@Z
_TEXT	SEGMENT
_this$ = -8						; size = 4
___flags$ = 8						; size = 4
??_Gsystem_error@std@@UAEPAXI@Z PROC			; std::system_error::`scalar deleting destructor', COMDAT
; _this$ = ecx
	push	ebp
	mov	ebp, esp
	sub	esp, 204				; 000000ccH
	push	ebx
	push	esi
	push	edi
	push	ecx
	lea	edi, DWORD PTR [ebp-204]
	mov	ecx, 51					; 00000033H
	mov	eax, -858993460				; ccccccccH
	rep stosd
	pop	ecx
	mov	DWORD PTR _this$[ebp], ecx
	mov	ecx, DWORD PTR _this$[ebp]
	call	??1system_error@std@@UAE@XZ
	mov	eax, DWORD PTR ___flags$[ebp]
	and	eax, 1
	je	SHORT $LN1@scalar@3
	mov	eax, DWORD PTR _this$[ebp]
	push	eax
	call	??3@YAXPAX@Z				; operator delete
	add	esp, 4
$LN1@scalar@3:
	mov	eax, DWORD PTR _this$[ebp]
	pop	edi
	pop	esi
	pop	ebx
	add	esp, 204				; 000000ccH
	cmp	ebp, esp
	call	__RTC_CheckEsp
	mov	esp, ebp
	pop	ebp
	ret	4
??_Gsystem_error@std@@UAEPAXI@Z ENDP			; std::system_error::`scalar deleting destructor'
; Function compile flags: /Odtp /RTCsu /ZI
_TEXT	ENDS
;	COMDAT ??1system_error@std@@UAE@XZ
_TEXT	SEGMENT
_this$ = -8						; size = 4
??1system_error@std@@UAE@XZ PROC			; std::system_error::~system_error, COMDAT
; _this$ = ecx
	push	ebp
	mov	ebp, esp
	sub	esp, 204				; 000000ccH
	push	ebx
	push	esi
	push	edi
	push	ecx
	lea	edi, DWORD PTR [ebp-204]
	mov	ecx, 51					; 00000033H
	mov	eax, -858993460				; ccccccccH
	rep stosd
	pop	ecx
	mov	DWORD PTR _this$[ebp], ecx
	mov	ecx, DWORD PTR _this$[ebp]
	call	??1runtime_error@std@@UAE@XZ
	pop	edi
	pop	esi
	pop	ebx
	add	esp, 204				; 000000ccH
	cmp	ebp, esp
	call	__RTC_CheckEsp
	mov	esp, ebp
	pop	ebp
	ret	0
??1system_error@std@@UAE@XZ ENDP			; std::system_error::~system_error
; Function compile flags: /Odtp /RTCsu /ZI
_TEXT	ENDS
;	COMDAT ??_Gfailure@ios_base@std@@UAEPAXI@Z
_TEXT	SEGMENT
_this$ = -8						; size = 4
___flags$ = 8						; size = 4
??_Gfailure@ios_base@std@@UAEPAXI@Z PROC		; std::ios_base::failure::`scalar deleting destructor', COMDAT
; _this$ = ecx
	push	ebp
	mov	ebp, esp
	sub	esp, 204				; 000000ccH
	push	ebx
	push	esi
	push	edi
	push	ecx
	lea	edi, DWORD PTR [ebp-204]
	mov	ecx, 51					; 00000033H
	mov	eax, -858993460				; ccccccccH
	rep stosd
	pop	ecx
	mov	DWORD PTR _this$[ebp], ecx
	mov	ecx, DWORD PTR _this$[ebp]
	call	??1failure@ios_base@std@@UAE@XZ
	mov	eax, DWORD PTR ___flags$[ebp]
	and	eax, 1
	je	SHORT $LN1@scalar@4
	mov	eax, DWORD PTR _this$[ebp]
	push	eax
	call	??3@YAXPAX@Z				; operator delete
	add	esp, 4
$LN1@scalar@4:
	mov	eax, DWORD PTR _this$[ebp]
	pop	edi
	pop	esi
	pop	ebx
	add	esp, 204				; 000000ccH
	cmp	ebp, esp
	call	__RTC_CheckEsp
	mov	esp, ebp
	pop	ebp
	ret	4
??_Gfailure@ios_base@std@@UAEPAXI@Z ENDP		; std::ios_base::failure::`scalar deleting destructor'
; Function compile flags: /Odtp /RTCsu /ZI
_TEXT	ENDS
;	COMDAT ??1failure@ios_base@std@@UAE@XZ
_TEXT	SEGMENT
_this$ = -8						; size = 4
??1failure@ios_base@std@@UAE@XZ PROC			; std::ios_base::failure::~failure, COMDAT
; _this$ = ecx
	push	ebp
	mov	ebp, esp
	sub	esp, 204				; 000000ccH
	push	ebx
	push	esi
	push	edi
	push	ecx
	lea	edi, DWORD PTR [ebp-204]
	mov	ecx, 51					; 00000033H
	mov	eax, -858993460				; ccccccccH
	rep stosd
	pop	ecx
	mov	DWORD PTR _this$[ebp], ecx
	mov	ecx, DWORD PTR _this$[ebp]
	call	??1system_error@std@@UAE@XZ
	pop	edi
	pop	esi
	pop	ebx
	add	esp, 204				; 000000ccH
	cmp	ebp, esp
	call	__RTC_CheckEsp
	mov	esp, ebp
	pop	ebp
	ret	0
??1failure@ios_base@std@@UAE@XZ ENDP			; std::ios_base::failure::~failure
; Function compile flags: /Odtp /RTCsu /ZI
_TEXT	ENDS
;	COMDAT ??0failure@ios_base@std@@QAE@ABV012@@Z
_TEXT	SEGMENT
_this$ = -8						; size = 4
___that$ = 8						; size = 4
??0failure@ios_base@std@@QAE@ABV012@@Z PROC		; std::ios_base::failure::failure, COMDAT
; _this$ = ecx
	push	ebp
	mov	ebp, esp
	sub	esp, 204				; 000000ccH
	push	ebx
	push	esi
	push	edi
	push	ecx
	lea	edi, DWORD PTR [ebp-204]
	mov	ecx, 51					; 00000033H
	mov	eax, -858993460				; ccccccccH
	rep stosd
	pop	ecx
	mov	DWORD PTR _this$[ebp], ecx
	mov	eax, DWORD PTR ___that$[ebp]
	push	eax
	mov	ecx, DWORD PTR _this$[ebp]
	call	??0system_error@std@@QAE@ABV01@@Z
	mov	eax, DWORD PTR _this$[ebp]
	mov	DWORD PTR [eax], OFFSET ??_7failure@ios_base@std@@6B@
	mov	eax, DWORD PTR _this$[ebp]
	pop	edi
	pop	esi
	pop	ebx
	add	esp, 204				; 000000ccH
	cmp	ebp, esp
	call	__RTC_CheckEsp
	mov	esp, ebp
	pop	ebp
	ret	4
??0failure@ios_base@std@@QAE@ABV012@@Z ENDP		; std::ios_base::failure::failure
; Function compile flags: /Odtp /RTCsu /ZI
_TEXT	ENDS
;	COMDAT ??0system_error@std@@QAE@ABV01@@Z
_TEXT	SEGMENT
_this$ = -8						; size = 4
___that$ = 8						; size = 4
??0system_error@std@@QAE@ABV01@@Z PROC			; std::system_error::system_error, COMDAT
; _this$ = ecx
	push	ebp
	mov	ebp, esp
	sub	esp, 204				; 000000ccH
	push	ebx
	push	esi
	push	edi
	push	ecx
	lea	edi, DWORD PTR [ebp-204]
	mov	ecx, 51					; 00000033H
	mov	eax, -858993460				; ccccccccH
	rep stosd
	pop	ecx
	mov	DWORD PTR _this$[ebp], ecx
	mov	eax, DWORD PTR ___that$[ebp]
	push	eax
	mov	ecx, DWORD PTR _this$[ebp]
	call	??0runtime_error@std@@QAE@ABV01@@Z
	mov	eax, DWORD PTR _this$[ebp]
	mov	DWORD PTR [eax], OFFSET ??_7system_error@std@@6B@
	mov	eax, DWORD PTR ___that$[ebp]
	mov	ecx, DWORD PTR [eax+12]
	mov	edx, DWORD PTR [eax+16]
	mov	eax, DWORD PTR _this$[ebp]
	mov	DWORD PTR [eax+12], ecx
	mov	DWORD PTR [eax+16], edx
	mov	eax, DWORD PTR _this$[ebp]
	pop	edi
	pop	esi
	pop	ebx
	add	esp, 204				; 000000ccH
	cmp	ebp, esp
	call	__RTC_CheckEsp
	mov	esp, ebp
	pop	ebp
	ret	4
??0system_error@std@@QAE@ABV01@@Z ENDP			; std::system_error::system_error
_TEXT	ENDS
PUBLIC	?rdstate@ios_base@std@@QBEHXZ			; std::ios_base::rdstate
; Function compile flags: /Odtp /RTCsu /ZI
; File c:\program files (x86)\microsoft visual studio 10.0\vc\include\ios
;	COMDAT ?setstate@?$basic_ios@DU?$char_traits@D@std@@@std@@QAEXH_N@Z
_TEXT	SEGMENT
_this$ = -8						; size = 4
__State$ = 8						; size = 4
__Reraise$ = 12						; size = 1
?setstate@?$basic_ios@DU?$char_traits@D@std@@@std@@QAEXH_N@Z PROC ; std::basic_ios<char,std::char_traits<char> >::setstate, COMDAT
; _this$ = ecx

; 54   : 		{	// merge _State into state, possible reraise exception

	push	ebp
	mov	ebp, esp
	sub	esp, 204				; 000000ccH
	push	ebx
	push	esi
	push	edi
	push	ecx
	lea	edi, DWORD PTR [ebp-204]
	mov	ecx, 51					; 00000033H
	mov	eax, -858993460				; ccccccccH
	rep stosd
	pop	ecx
	mov	DWORD PTR _this$[ebp], ecx

; 55   : 		if (_State != goodbit)

	cmp	DWORD PTR __State$[ebp], 0
	je	SHORT $LN2@setstate

; 56   : 			clear((iostate)((int)rdstate() | (int)_State), _Reraise);

	movzx	eax, BYTE PTR __Reraise$[ebp]
	push	eax
	mov	ecx, DWORD PTR _this$[ebp]
	call	?rdstate@ios_base@std@@QBEHXZ		; std::ios_base::rdstate
	or	eax, DWORD PTR __State$[ebp]
	push	eax
	mov	ecx, DWORD PTR _this$[ebp]
	call	?clear@?$basic_ios@DU?$char_traits@D@std@@@std@@QAEXH_N@Z ; std::basic_ios<char,std::char_traits<char> >::clear
$LN2@setstate:

; 57   : 		}

	pop	edi
	pop	esi
	pop	ebx
	add	esp, 204				; 000000ccH
	cmp	ebp, esp
	call	__RTC_CheckEsp
	mov	esp, ebp
	pop	ebp
	ret	8
?setstate@?$basic_ios@DU?$char_traits@D@std@@@std@@QAEXH_N@Z ENDP ; std::basic_ios<char,std::char_traits<char> >::setstate
; Function compile flags: /Odtp /RTCsu /ZI
; File c:\program files (x86)\microsoft visual studio 10.0\vc\include\xiosbase
_TEXT	ENDS
;	COMDAT ?rdstate@ios_base@std@@QBEHXZ
_TEXT	SEGMENT
_this$ = -8						; size = 4
?rdstate@ios_base@std@@QBEHXZ PROC			; std::ios_base::rdstate, COMDAT
; _this$ = ecx

; 335  : 		{	// return stream state

	push	ebp
	mov	ebp, esp
	sub	esp, 204				; 000000ccH
	push	ebx
	push	esi
	push	edi
	push	ecx
	lea	edi, DWORD PTR [ebp-204]
	mov	ecx, 51					; 00000033H
	mov	eax, -858993460				; ccccccccH
	rep stosd
	pop	ecx
	mov	DWORD PTR _this$[ebp], ecx

; 336  : 		return (_Mystate);

	mov	eax, DWORD PTR _this$[ebp]
	mov	eax, DWORD PTR [eax+12]

; 337  : 		}

	pop	edi
	pop	esi
	pop	ebx
	mov	esp, ebp
	pop	ebp
	ret	0
?rdstate@ios_base@std@@QBEHXZ ENDP			; std::ios_base::rdstate
; Function compile flags: /Odtp /RTCsu /ZI
; File c:\program files (x86)\microsoft visual studio 10.0\vc\include\ios
_TEXT	ENDS
;	COMDAT ?rdbuf@?$basic_ios@DU?$char_traits@D@std@@@std@@QBEPAV?$basic_streambuf@DU?$char_traits@D@std@@@2@XZ
_TEXT	SEGMENT
_this$ = -8						; size = 4
?rdbuf@?$basic_ios@DU?$char_traits@D@std@@@std@@QBEPAV?$basic_streambuf@DU?$char_traits@D@std@@@2@XZ PROC ; std::basic_ios<char,std::char_traits<char> >::rdbuf, COMDAT
; _this$ = ecx

; 85   : 		{	// return stream buffer pointer

	push	ebp
	mov	ebp, esp
	sub	esp, 204				; 000000ccH
	push	ebx
	push	esi
	push	edi
	push	ecx
	lea	edi, DWORD PTR [ebp-204]
	mov	ecx, 51					; 00000033H
	mov	eax, -858993460				; ccccccccH
	rep stosd
	pop	ecx
	mov	DWORD PTR _this$[ebp], ecx

; 86   : 		return (_Mystrbuf);

	mov	eax, DWORD PTR _this$[ebp]
	mov	eax, DWORD PTR [eax+56]

; 87   : 		}

	pop	edi
	pop	esi
	pop	ebx
	mov	esp, ebp
	pop	ebp
	ret	0
?rdbuf@?$basic_ios@DU?$char_traits@D@std@@@std@@QBEPAV?$basic_streambuf@DU?$char_traits@D@std@@@2@XZ ENDP ; std::basic_ios<char,std::char_traits<char> >::rdbuf
_TEXT	ENDS
PUBLIC	??1sentry@?$basic_istream@DU?$char_traits@D@std@@@std@@QAE@XZ ; std::basic_istream<char,std::char_traits<char> >::sentry::~sentry
PUBLIC	?sgetn@?$basic_streambuf@DU?$char_traits@D@std@@@std@@QAE_JPAD_J@Z ; std::basic_streambuf<char,std::char_traits<char> >::sgetn
PUBLIC	??Bsentry@?$basic_istream@DU?$char_traits@D@std@@@std@@QBEPQ_Bool_struct@2@HXZ ; std::basic_istream<char,std::char_traits<char> >::sentry::operator int std::_Bool_struct::*
PUBLIC	??0sentry@?$basic_istream@DU?$char_traits@D@std@@@std@@QAE@AAV12@_N@Z ; std::basic_istream<char,std::char_traits<char> >::sentry::sentry
PUBLIC	??$_Debug_pointer@D@std@@YAXPADPB_WI@Z		; std::_Debug_pointer<char>
PUBLIC	??_C@_1IO@OFGLCMCE@?$AAc?$AA?3?$AA?2?$AAp?$AAr?$AAo?$AAg?$AAr?$AAa?$AAm?$AA?5?$AAf?$AAi?$AAl?$AAe?$AAs?$AA?5?$AA?$CI?$AAx?$AA8?$AA6?$AA?$CJ?$AA?2?$AAm?$AAi?$AAc?$AAr?$AAo?$AAs?$AAo?$AAf?$AAt@ ; `string'
;	COMDAT ??_C@_1IO@OFGLCMCE@?$AAc?$AA?3?$AA?2?$AAp?$AAr?$AAo?$AAg?$AAr?$AAa?$AAm?$AA?5?$AAf?$AAi?$AAl?$AAe?$AAs?$AA?5?$AA?$CI?$AAx?$AA8?$AA6?$AA?$CJ?$AA?2?$AAm?$AAi?$AAc?$AAr?$AAo?$AAs?$AAo?$AAf?$AAt@
; File c:\program files (x86)\microsoft visual studio 10.0\vc\include\istream
CONST	SEGMENT
??_C@_1IO@OFGLCMCE@?$AAc?$AA?3?$AA?2?$AAp?$AAr?$AAo?$AAg?$AAr?$AAa?$AAm?$AA?5?$AAf?$AAi?$AAl?$AAe?$AAs?$AA?5?$AA?$CI?$AAx?$AA8?$AA6?$AA?$CJ?$AA?2?$AAm?$AAi?$AAc?$AAr?$AAo?$AAs?$AAo?$AAf?$AAt@ DB 'c'
	DB	00H, ':', 00H, '\', 00H, 'p', 00H, 'r', 00H, 'o', 00H, 'g', 00H
	DB	'r', 00H, 'a', 00H, 'm', 00H, ' ', 00H, 'f', 00H, 'i', 00H, 'l'
	DB	00H, 'e', 00H, 's', 00H, ' ', 00H, '(', 00H, 'x', 00H, '8', 00H
	DB	'6', 00H, ')', 00H, '\', 00H, 'm', 00H, 'i', 00H, 'c', 00H, 'r'
	DB	00H, 'o', 00H, 's', 00H, 'o', 00H, 'f', 00H, 't', 00H, ' ', 00H
	DB	'v', 00H, 'i', 00H, 's', 00H, 'u', 00H, 'a', 00H, 'l', 00H, ' '
	DB	00H, 's', 00H, 't', 00H, 'u', 00H, 'd', 00H, 'i', 00H, 'o', 00H
	DB	' ', 00H, '1', 00H, '0', 00H, '.', 00H, '0', 00H, '\', 00H, 'v'
	DB	00H, 'c', 00H, '\', 00H, 'i', 00H, 'n', 00H, 'c', 00H, 'l', 00H
	DB	'u', 00H, 'd', 00H, 'e', 00H, '\', 00H, 'i', 00H, 's', 00H, 't'
	DB	00H, 'r', 00H, 'e', 00H, 'a', 00H, 'm', 00H, 00H, 00H ; `string'
CONST	ENDS
;	COMDAT xdata$x
xdata$x	SEGMENT
__catchsym$?read@?$basic_istream@DU?$char_traits@D@std@@@std@@QAEAAV12@PAD_J@Z$3 DD 040H
	DD	00H
	DD	00H
	DD	FLAT:__catch$?read@?$basic_istream@DU?$char_traits@D@std@@@std@@QAEAAV12@PAD_J@Z$0
__tryblocktable$?read@?$basic_istream@DU?$char_traits@D@std@@@std@@QAEAAV12@PAD_J@Z DD 01H
	DD	01H
	DD	02H
	DD	01H
	DD	FLAT:__catchsym$?read@?$basic_istream@DU?$char_traits@D@std@@@std@@QAEAAV12@PAD_J@Z$3
__unwindtable$?read@?$basic_istream@DU?$char_traits@D@std@@@std@@QAEAAV12@PAD_J@Z DD 0ffffffffH
	DD	FLAT:__unwindfunclet$?read@?$basic_istream@DU?$char_traits@D@std@@@std@@QAEAAV12@PAD_J@Z$2
	DD	00H
	DD	00H
	DD	00H
	DD	00H
__ehfuncinfo$?read@?$basic_istream@DU?$char_traits@D@std@@@std@@QAEAAV12@PAD_J@Z DD 019930522H
	DD	03H
	DD	FLAT:__unwindtable$?read@?$basic_istream@DU?$char_traits@D@std@@@std@@QAEAAV12@PAD_J@Z
	DD	01H
	DD	FLAT:__tryblocktable$?read@?$basic_istream@DU?$char_traits@D@std@@@std@@QAEAAV12@PAD_J@Z
	DD	2 DUP(00H)
	DD	00H
	DD	01H
; Function compile flags: /Odtp /RTCsu /ZI
xdata$x	ENDS
;	COMDAT ?read@?$basic_istream@DU?$char_traits@D@std@@@std@@QAEAAV12@PAD_J@Z
_TEXT	SEGMENT
tv155 = -288						; size = 8
tv69 = -280						; size = 4
$T36795 = -272						; size = 4
__Num$32550 = -68					; size = 8
__Ok$ = -52						; size = 8
__State$ = -36						; size = 4
_this$ = -24						; size = 4
__$EHRec$ = -16						; size = 16
__Str$ = 8						; size = 4
__Count$ = 12						; size = 8
?read@?$basic_istream@DU?$char_traits@D@std@@@std@@QAEAAV12@PAD_J@Z PROC ; std::basic_istream<char,std::char_traits<char> >::read, COMDAT
; _this$ = ecx

; 707  : 		{	// read up to _Count characters into buffer

	push	ebp
	mov	ebp, esp
	push	-1
	push	__ehhandler$?read@?$basic_istream@DU?$char_traits@D@std@@@std@@QAEAAV12@PAD_J@Z
	mov	eax, DWORD PTR fs:0
	push	eax
	push	ecx
	sub	esp, 272				; 00000110H
	push	ebx
	push	esi
	push	edi
	push	ecx
	lea	edi, DWORD PTR [ebp-288]
	mov	ecx, 68					; 00000044H
	mov	eax, -858993460				; ccccccccH
	rep stosd
	pop	ecx
	mov	eax, DWORD PTR ___security_cookie
	xor	eax, ebp
	push	eax
	lea	eax, DWORD PTR __$EHRec$[ebp+4]
	mov	DWORD PTR fs:0, eax
	mov	DWORD PTR __$EHRec$[ebp], esp
	mov	DWORD PTR _this$[ebp], ecx

; 708  : 		_DEBUG_POINTER(_Str);

	push	708					; 000002c4H
	push	OFFSET ??_C@_1IO@OFGLCMCE@?$AAc?$AA?3?$AA?2?$AAp?$AAr?$AAo?$AAg?$AAr?$AAa?$AAm?$AA?5?$AAf?$AAi?$AAl?$AAe?$AAs?$AA?5?$AA?$CI?$AAx?$AA8?$AA6?$AA?$CJ?$AA?2?$AAm?$AAi?$AAc?$AAr?$AAo?$AAs?$AAo?$AAf?$AAt@
	mov	eax, DWORD PTR __Str$[ebp]
	push	eax
	call	??$_Debug_pointer@D@std@@YAXPADPB_WI@Z	; std::_Debug_pointer<char>
	add	esp, 12					; 0000000cH

; 709  : 		ios_base::iostate _State = ios_base::goodbit;

	mov	DWORD PTR __State$[ebp], 0

; 710  : 		_Chcount = 0;

	mov	eax, DWORD PTR _this$[ebp]
	mov	DWORD PTR [eax+8], 0
	mov	DWORD PTR [eax+12], 0

; 711  : 		const sentry _Ok(*this, true);

	push	1
	mov	eax, DWORD PTR _this$[ebp]
	push	eax
	lea	ecx, DWORD PTR __Ok$[ebp]
	call	??0sentry@?$basic_istream@DU?$char_traits@D@std@@@std@@QAE@AAV12@_N@Z ; std::basic_istream<char,std::char_traits<char> >::sentry::sentry
	mov	DWORD PTR __$EHRec$[ebp+12], 0

; 712  : 
; 713  : 		if (_Ok)

	lea	ecx, DWORD PTR __Ok$[ebp]
	call	??Bsentry@?$basic_istream@DU?$char_traits@D@std@@@std@@QBEPQ_Bool_struct@2@HXZ ; std::basic_istream<char,std::char_traits<char> >::sentry::operator int std::_Bool_struct::*
	cmp	eax, -1
	je	$LN3@read

; 714  : 			{	// state okay, use facet to extract
; 715  : 			_TRY_IO_BEGIN

	mov	BYTE PTR __$EHRec$[ebp+12], 1

; 716  : 			const streamsize _Num = _Myios::rdbuf()->sgetn(_Str, _Count);

	mov	eax, DWORD PTR _this$[ebp]
	mov	ecx, DWORD PTR [eax]
	mov	edx, DWORD PTR _this$[ebp]
	add	edx, DWORD PTR [ecx+4]
	mov	ecx, edx
	call	?rdbuf@?$basic_ios@DU?$char_traits@D@std@@@std@@QBEPAV?$basic_streambuf@DU?$char_traits@D@std@@@2@XZ ; std::basic_ios<char,std::char_traits<char> >::rdbuf
	mov	DWORD PTR tv69[ebp], eax
	mov	eax, DWORD PTR __Count$[ebp+4]
	push	eax
	mov	ecx, DWORD PTR __Count$[ebp]
	push	ecx
	mov	edx, DWORD PTR __Str$[ebp]
	push	edx
	mov	ecx, DWORD PTR tv69[ebp]
	call	?sgetn@?$basic_streambuf@DU?$char_traits@D@std@@@std@@QAE_JPAD_J@Z ; std::basic_streambuf<char,std::char_traits<char> >::sgetn
	mov	DWORD PTR tv155[ebp], eax
	mov	DWORD PTR tv155[ebp+4], edx
	mov	eax, DWORD PTR tv155[ebp]
	mov	DWORD PTR __Num$32550[ebp], eax
	mov	ecx, DWORD PTR tv155[ebp+4]
	mov	DWORD PTR __Num$32550[ebp+4], ecx

; 717  : 			_Chcount += _Num;

	mov	eax, DWORD PTR _this$[ebp]
	mov	ecx, DWORD PTR [eax+8]
	add	ecx, DWORD PTR __Num$32550[ebp]
	mov	edx, DWORD PTR [eax+12]
	adc	edx, DWORD PTR __Num$32550[ebp+4]
	mov	eax, DWORD PTR _this$[ebp]
	mov	DWORD PTR [eax+8], ecx
	mov	DWORD PTR [eax+12], edx

; 718  : 			if (_Num != _Count)

	mov	eax, DWORD PTR __Num$32550[ebp]
	cmp	eax, DWORD PTR __Count$[ebp]
	jne	SHORT $LN12@read
	mov	ecx, DWORD PTR __Num$32550[ebp+4]
	cmp	ecx, DWORD PTR __Count$[ebp+4]
	je	SHORT $LN1@read
$LN12@read:

; 719  : 				_State |= ios_base::eofbit | ios_base::failbit;	// short read

	mov	eax, DWORD PTR __State$[ebp]
	or	eax, 3
	mov	DWORD PTR __State$[ebp], eax
$LN1@read:
	jmp	SHORT $LN6@read
__catch$?read@?$basic_istream@DU?$char_traits@D@std@@@std@@QAEAAV12@PAD_J@Z$0:

; 720  : 			_CATCH_IO_END

	push	1
	push	4
	mov	eax, DWORD PTR _this$[ebp]
	mov	ecx, DWORD PTR [eax]
	mov	edx, DWORD PTR _this$[ebp]
	add	edx, DWORD PTR [ecx+4]
	mov	ecx, edx
	call	?setstate@?$basic_ios@DU?$char_traits@D@std@@@std@@QAEXH_N@Z ; std::basic_ios<char,std::char_traits<char> >::setstate
	mov	DWORD PTR __$EHRec$[ebp+12], 0
	mov	eax, $LN3@read
	ret	0
$LN6@read:
	mov	DWORD PTR __$EHRec$[ebp+12], 0
$LN3@read:

; 721  : 			}
; 722  : 
; 723  : 		_Myios::setstate(_State);

	push	0
	mov	eax, DWORD PTR __State$[ebp]
	push	eax
	mov	ecx, DWORD PTR _this$[ebp]
	mov	edx, DWORD PTR [ecx]
	mov	ecx, DWORD PTR _this$[ebp]
	add	ecx, DWORD PTR [edx+4]
	call	?setstate@?$basic_ios@DU?$char_traits@D@std@@@std@@QAEXH_N@Z ; std::basic_ios<char,std::char_traits<char> >::setstate

; 724  : 		return (*this);

	mov	eax, DWORD PTR _this$[ebp]
	mov	DWORD PTR $T36795[ebp], eax
	mov	DWORD PTR __$EHRec$[ebp+12], -1
	lea	ecx, DWORD PTR __Ok$[ebp]
	call	??1sentry@?$basic_istream@DU?$char_traits@D@std@@@std@@QAE@XZ
	mov	eax, DWORD PTR $T36795[ebp]

; 725  : 		}

	push	edx
	mov	ecx, ebp
	push	eax
	lea	edx, DWORD PTR $LN16@read
	call	@_RTC_CheckStackVars@8
	pop	eax
	pop	edx
	mov	ecx, DWORD PTR __$EHRec$[ebp+4]
	mov	DWORD PTR fs:0, ecx
	pop	ecx
	pop	edi
	pop	esi
	pop	ebx
	add	esp, 288				; 00000120H
	cmp	ebp, esp
	call	__RTC_CheckEsp
	mov	esp, ebp
	pop	ebp
	ret	12					; 0000000cH
	npad	2
$LN16@read:
	DD	1
	DD	$LN15@read
$LN15@read:
	DD	-52					; ffffffccH
	DD	8
	DD	$LN13@read
$LN13@read:
	DB	95					; 0000005fH
	DB	79					; 0000004fH
	DB	107					; 0000006bH
	DB	0
_TEXT	ENDS
;	COMDAT text$x
text$x	SEGMENT
__unwindfunclet$?read@?$basic_istream@DU?$char_traits@D@std@@@std@@QAEAAV12@PAD_J@Z$2:
	lea	ecx, DWORD PTR __Ok$[ebp]
	jmp	??1sentry@?$basic_istream@DU?$char_traits@D@std@@@std@@QAE@XZ
__ehhandler$?read@?$basic_istream@DU?$char_traits@D@std@@@std@@QAEAAV12@PAD_J@Z:
	mov	edx, DWORD PTR [esp+8]
	lea	eax, DWORD PTR [edx+12]
	mov	ecx, DWORD PTR [edx-292]
	xor	ecx, eax
	call	@__security_check_cookie@4
	mov	eax, OFFSET __ehfuncinfo$?read@?$basic_istream@DU?$char_traits@D@std@@@std@@QAEAAV12@PAD_J@Z
	jmp	___CxxFrameHandler3
text$x	ENDS
?read@?$basic_istream@DU?$char_traits@D@std@@@std@@QAEAAV12@PAD_J@Z ENDP ; std::basic_istream<char,std::char_traits<char> >::read
PUBLIC	??1_Sentry_base@?$basic_istream@DU?$char_traits@D@std@@@std@@QAE@XZ ; std::basic_istream<char,std::char_traits<char> >::_Sentry_base::~_Sentry_base
; Function compile flags: /Odtp /RTCsu /ZI
;	COMDAT ??1sentry@?$basic_istream@DU?$char_traits@D@std@@@std@@QAE@XZ
_TEXT	SEGMENT
_this$ = -8						; size = 4
??1sentry@?$basic_istream@DU?$char_traits@D@std@@@std@@QAE@XZ PROC ; std::basic_istream<char,std::char_traits<char> >::sentry::~sentry, COMDAT
; _this$ = ecx
	push	ebp
	mov	ebp, esp
	sub	esp, 204				; 000000ccH
	push	ebx
	push	esi
	push	edi
	push	ecx
	lea	edi, DWORD PTR [ebp-204]
	mov	ecx, 51					; 00000033H
	mov	eax, -858993460				; ccccccccH
	rep stosd
	pop	ecx
	mov	DWORD PTR _this$[ebp], ecx
	mov	ecx, DWORD PTR _this$[ebp]
	call	??1_Sentry_base@?$basic_istream@DU?$char_traits@D@std@@@std@@QAE@XZ ; std::basic_istream<char,std::char_traits<char> >::_Sentry_base::~_Sentry_base
	pop	edi
	pop	esi
	pop	ebx
	add	esp, 204				; 000000ccH
	cmp	ebp, esp
	call	__RTC_CheckEsp
	mov	esp, ebp
	pop	ebp
	ret	0
??1sentry@?$basic_istream@DU?$char_traits@D@std@@@std@@QAE@XZ ENDP ; std::basic_istream<char,std::char_traits<char> >::sentry::~sentry
_TEXT	ENDS
PUBLIC	?pubseekoff@?$basic_streambuf@DU?$char_traits@D@std@@@std@@QAE?AV?$fpos@H@2@_JHH@Z ; std::basic_streambuf<char,std::char_traits<char> >::pubseekoff
PUBLIC	?fail@ios_base@std@@QBE_NXZ			; std::ios_base::fail
EXTRN	?_BADOFF@std@@3_JB:QWORD			; std::_BADOFF
; Function compile flags: /Odtp /RTCsu /ZI
;	COMDAT ?seekg@?$basic_istream@DU?$char_traits@D@std@@@std@@QAEAAV12@_JH@Z
_TEXT	SEGMENT
tv165 = -244						; size = 8
$T36819 = -232						; size = 24
_this$ = -8						; size = 4
__Off$ = 8						; size = 8
__Way$ = 16						; size = 4
?seekg@?$basic_istream@DU?$char_traits@D@std@@@std@@QAEAAV12@_JH@Z PROC ; std::basic_istream<char,std::char_traits<char> >::seekg, COMDAT
; _this$ = ecx

; 841  : 		{	// change input stream position by _Off, according to _Way

	push	ebp
	mov	ebp, esp
	sub	esp, 244				; 000000f4H
	push	ebx
	push	esi
	push	edi
	push	ecx
	lea	edi, DWORD PTR [ebp-244]
	mov	ecx, 61					; 0000003dH
	mov	eax, -858993460				; ccccccccH
	rep stosd
	pop	ecx
	mov	DWORD PTR _this$[ebp], ecx

; 842  : 		if (!ios_base::fail()
; 843  : 			&& (off_type)_Myios::rdbuf()->pubseekoff(_Off, _Way,
; 844  : 				ios_base::in) == _BADOFF)

	mov	eax, DWORD PTR _this$[ebp]
	mov	ecx, DWORD PTR [eax]
	mov	edx, DWORD PTR _this$[ebp]
	add	edx, DWORD PTR [ecx+4]
	mov	ecx, edx
	call	?fail@ios_base@std@@QBE_NXZ		; std::ios_base::fail
	movzx	eax, al
	test	eax, eax
	jne	SHORT $LN1@seekg
	push	1
	mov	eax, DWORD PTR __Way$[ebp]
	push	eax
	mov	ecx, DWORD PTR __Off$[ebp+4]
	push	ecx
	mov	edx, DWORD PTR __Off$[ebp]
	push	edx
	lea	eax, DWORD PTR $T36819[ebp]
	push	eax
	mov	ecx, DWORD PTR _this$[ebp]
	mov	edx, DWORD PTR [ecx]
	mov	ecx, DWORD PTR _this$[ebp]
	add	ecx, DWORD PTR [edx+4]
	call	?rdbuf@?$basic_ios@DU?$char_traits@D@std@@@std@@QBEPAV?$basic_streambuf@DU?$char_traits@D@std@@@2@XZ ; std::basic_ios<char,std::char_traits<char> >::rdbuf
	mov	ecx, eax
	call	?pubseekoff@?$basic_streambuf@DU?$char_traits@D@std@@@std@@QAE?AV?$fpos@H@2@_JHH@Z ; std::basic_streambuf<char,std::char_traits<char> >::pubseekoff
	mov	ecx, eax
	call	??B?$fpos@H@std@@QBE_JXZ		; std::fpos<int>::operator __int64
	mov	DWORD PTR tv165[ebp], eax
	mov	DWORD PTR tv165[ebp+4], edx
	mov	eax, DWORD PTR tv165[ebp]
	cmp	eax, DWORD PTR ?_BADOFF@std@@3_JB
	jne	SHORT $LN1@seekg
	mov	ecx, DWORD PTR tv165[ebp+4]
	cmp	ecx, DWORD PTR ?_BADOFF@std@@3_JB+4
	jne	SHORT $LN1@seekg

; 845  : 			_Myios::setstate(ios_base::failbit);

	push	0
	push	2
	mov	eax, DWORD PTR _this$[ebp]
	mov	ecx, DWORD PTR [eax]
	mov	edx, DWORD PTR _this$[ebp]
	add	edx, DWORD PTR [ecx+4]
	mov	ecx, edx
	call	?setstate@?$basic_ios@DU?$char_traits@D@std@@@std@@QAEXH_N@Z ; std::basic_ios<char,std::char_traits<char> >::setstate
$LN1@seekg:

; 846  : 		return (*this);

	mov	eax, DWORD PTR _this$[ebp]

; 847  : 		}

	pop	edi
	pop	esi
	pop	ebx
	add	esp, 244				; 000000f4H
	cmp	ebp, esp
	call	__RTC_CheckEsp
	mov	esp, ebp
	pop	ebp
	ret	12					; 0000000cH
?seekg@?$basic_istream@DU?$char_traits@D@std@@@std@@QAEAAV12@_JH@Z ENDP ; std::basic_istream<char,std::char_traits<char> >::seekg
; Function compile flags: /Odtp /RTCsu /ZI
; File c:\program files (x86)\microsoft visual studio 10.0\vc\include\xiosbase
_TEXT	ENDS
;	COMDAT ?fail@ios_base@std@@QBE_NXZ
_TEXT	SEGMENT
_this$ = -8						; size = 4
?fail@ios_base@std@@QBE_NXZ PROC			; std::ios_base::fail, COMDAT
; _this$ = ecx

; 367  : 		{	// test if badbit or failbit is set in stream state

	push	ebp
	mov	ebp, esp
	sub	esp, 204				; 000000ccH
	push	ebx
	push	esi
	push	edi
	push	ecx
	lea	edi, DWORD PTR [ebp-204]
	mov	ecx, 51					; 00000033H
	mov	eax, -858993460				; ccccccccH
	rep stosd
	pop	ecx
	mov	DWORD PTR _this$[ebp], ecx

; 368  : 		return (((int)rdstate()
; 369  : 			& ((int)badbit | (int)failbit)) != 0);

	mov	ecx, DWORD PTR _this$[ebp]
	call	?rdstate@ios_base@std@@QBEHXZ		; std::ios_base::rdstate
	and	eax, 6
	neg	eax
	sbb	eax, eax
	neg	eax

; 370  : 		}

	pop	edi
	pop	esi
	pop	ebx
	add	esp, 204				; 000000ccH
	cmp	ebp, esp
	call	__RTC_CheckEsp
	mov	esp, ebp
	pop	ebp
	ret	0
?fail@ios_base@std@@QBE_NXZ ENDP			; std::ios_base::fail
_TEXT	ENDS
PUBLIC	??0?$fpos@H@std@@QAE@_J@Z			; std::fpos<int>::fpos<int>
; Function compile flags: /Odtp /RTCsu /ZI
; File c:\program files (x86)\microsoft visual studio 10.0\vc\include\istream
;	COMDAT ?tellg@?$basic_istream@DU?$char_traits@D@std@@@std@@QAE?AV?$fpos@H@2@XZ
_TEXT	SEGMENT
_this$ = -8						; size = 4
___$ReturnUdt$ = 8					; size = 4
?tellg@?$basic_istream@DU?$char_traits@D@std@@@std@@QAE?AV?$fpos@H@2@XZ PROC ; std::basic_istream<char,std::char_traits<char> >::tellg, COMDAT
; _this$ = ecx

; 850  : 		{	// return input stream position

	push	ebp
	mov	ebp, esp
	sub	esp, 204				; 000000ccH
	push	ebx
	push	esi
	push	edi
	push	ecx
	lea	edi, DWORD PTR [ebp-204]
	mov	ecx, 51					; 00000033H
	mov	eax, -858993460				; ccccccccH
	rep stosd
	pop	ecx
	mov	DWORD PTR _this$[ebp], ecx

; 851  : 		if (!ios_base::fail())

	mov	eax, DWORD PTR _this$[ebp]
	mov	ecx, DWORD PTR [eax]
	mov	edx, DWORD PTR _this$[ebp]
	add	edx, DWORD PTR [ecx+4]
	mov	ecx, edx
	call	?fail@ios_base@std@@QBE_NXZ		; std::ios_base::fail
	movzx	eax, al
	test	eax, eax
	jne	SHORT $LN2@tellg

; 852  : 			return (_Myios::rdbuf()->pubseekoff(0,
; 853  : 				ios_base::cur, ios_base::in));

	push	1
	push	1
	push	0
	push	0
	mov	eax, DWORD PTR ___$ReturnUdt$[ebp]
	push	eax
	mov	ecx, DWORD PTR _this$[ebp]
	mov	edx, DWORD PTR [ecx]
	mov	ecx, DWORD PTR _this$[ebp]
	add	ecx, DWORD PTR [edx+4]
	call	?rdbuf@?$basic_ios@DU?$char_traits@D@std@@@std@@QBEPAV?$basic_streambuf@DU?$char_traits@D@std@@@2@XZ ; std::basic_ios<char,std::char_traits<char> >::rdbuf
	mov	ecx, eax
	call	?pubseekoff@?$basic_streambuf@DU?$char_traits@D@std@@@std@@QAE?AV?$fpos@H@2@_JHH@Z ; std::basic_streambuf<char,std::char_traits<char> >::pubseekoff
	mov	eax, DWORD PTR ___$ReturnUdt$[ebp]
	jmp	SHORT $LN3@tellg

; 854  : 		else

	jmp	SHORT $LN3@tellg
$LN2@tellg:

; 855  : 			return (pos_type(_BADOFF));

	mov	eax, DWORD PTR ?_BADOFF@std@@3_JB+4
	push	eax
	mov	ecx, DWORD PTR ?_BADOFF@std@@3_JB
	push	ecx
	mov	ecx, DWORD PTR ___$ReturnUdt$[ebp]
	call	??0?$fpos@H@std@@QAE@_J@Z		; std::fpos<int>::fpos<int>
	mov	eax, DWORD PTR ___$ReturnUdt$[ebp]
$LN3@tellg:

; 856  : 		}

	pop	edi
	pop	esi
	pop	ebx
	add	esp, 204				; 000000ccH
	cmp	ebp, esp
	call	__RTC_CheckEsp
	mov	esp, ebp
	pop	ebp
	ret	4
?tellg@?$basic_istream@DU?$char_traits@D@std@@@std@@QAE?AV?$fpos@H@2@XZ ENDP ; std::basic_istream<char,std::char_traits<char> >::tellg
_TEXT	ENDS
PUBLIC	?_Ipfx@?$basic_istream@DU?$char_traits@D@std@@@std@@QAE_N_N@Z ; std::basic_istream<char,std::char_traits<char> >::_Ipfx
PUBLIC	??0_Sentry_base@?$basic_istream@DU?$char_traits@D@std@@@std@@QAE@AAV12@@Z ; std::basic_istream<char,std::char_traits<char> >::_Sentry_base::_Sentry_base
;	COMDAT xdata$x
xdata$x	SEGMENT
__unwindtable$??0sentry@?$basic_istream@DU?$char_traits@D@std@@@std@@QAE@AAV12@_N@Z DD 0ffffffffH
	DD	FLAT:__unwindfunclet$??0sentry@?$basic_istream@DU?$char_traits@D@std@@@std@@QAE@AAV12@_N@Z$0
__ehfuncinfo$??0sentry@?$basic_istream@DU?$char_traits@D@std@@@std@@QAE@AAV12@_N@Z DD 019930522H
	DD	01H
	DD	FLAT:__unwindtable$??0sentry@?$basic_istream@DU?$char_traits@D@std@@@std@@QAE@AAV12@_N@Z
	DD	2 DUP(00H)
	DD	2 DUP(00H)
	DD	00H
	DD	01H
; Function compile flags: /Odtp /RTCsu /ZI
xdata$x	ENDS
;	COMDAT ??0sentry@?$basic_istream@DU?$char_traits@D@std@@@std@@QAE@AAV12@_N@Z
_TEXT	SEGMENT
_this$ = -20						; size = 4
__$EHRec$ = -12						; size = 12
__Istr$ = 8						; size = 4
__Noskip$ = 12						; size = 1
??0sentry@?$basic_istream@DU?$char_traits@D@std@@@std@@QAE@AAV12@_N@Z PROC ; std::basic_istream<char,std::char_traits<char> >::sentry::sentry, COMDAT
; _this$ = ecx

; 99   : 			{	// construct locking and calling _Ipfx

	push	ebp
	mov	ebp, esp
	push	-1
	push	__ehhandler$??0sentry@?$basic_istream@DU?$char_traits@D@std@@@std@@QAE@AAV12@_N@Z
	mov	eax, DWORD PTR fs:0
	push	eax
	sub	esp, 204				; 000000ccH
	push	ebx
	push	esi
	push	edi
	push	ecx
	lea	edi, DWORD PTR [ebp-216]
	mov	ecx, 51					; 00000033H
	mov	eax, -858993460				; ccccccccH
	rep stosd
	pop	ecx
	mov	eax, DWORD PTR ___security_cookie
	xor	eax, ebp
	push	eax
	lea	eax, DWORD PTR __$EHRec$[ebp]
	mov	DWORD PTR fs:0, eax
	mov	DWORD PTR _this$[ebp], ecx
	mov	eax, DWORD PTR __Istr$[ebp]
	push	eax
	mov	ecx, DWORD PTR _this$[ebp]
	call	??0_Sentry_base@?$basic_istream@DU?$char_traits@D@std@@@std@@QAE@AAV12@@Z ; std::basic_istream<char,std::char_traits<char> >::_Sentry_base::_Sentry_base
	mov	DWORD PTR __$EHRec$[ebp+8], 0

; 100  : 			_Ok = this->_Myistr._Ipfx(_Noskip);

	movzx	eax, BYTE PTR __Noskip$[ebp]
	push	eax
	mov	ecx, DWORD PTR _this$[ebp]
	mov	ecx, DWORD PTR [ecx]
	call	?_Ipfx@?$basic_istream@DU?$char_traits@D@std@@@std@@QAE_N_N@Z ; std::basic_istream<char,std::char_traits<char> >::_Ipfx
	mov	edx, DWORD PTR _this$[ebp]
	mov	BYTE PTR [edx+4], al

; 101  : 			}

	mov	DWORD PTR __$EHRec$[ebp+8], -1
	mov	eax, DWORD PTR _this$[ebp]
	mov	ecx, DWORD PTR __$EHRec$[ebp]
	mov	DWORD PTR fs:0, ecx
	pop	ecx
	pop	edi
	pop	esi
	pop	ebx
	add	esp, 216				; 000000d8H
	cmp	ebp, esp
	call	__RTC_CheckEsp
	mov	esp, ebp
	pop	ebp
	ret	8
_TEXT	ENDS
;	COMDAT text$x
text$x	SEGMENT
__unwindfunclet$??0sentry@?$basic_istream@DU?$char_traits@D@std@@@std@@QAE@AAV12@_N@Z$0:
	mov	ecx, DWORD PTR _this$[ebp]
	jmp	??1_Sentry_base@?$basic_istream@DU?$char_traits@D@std@@@std@@QAE@XZ ; std::basic_istream<char,std::char_traits<char> >::_Sentry_base::~_Sentry_base
__ehhandler$??0sentry@?$basic_istream@DU?$char_traits@D@std@@@std@@QAE@AAV12@_N@Z:
	mov	edx, DWORD PTR [esp+8]
	lea	eax, DWORD PTR [edx+12]
	mov	ecx, DWORD PTR [edx-220]
	xor	ecx, eax
	call	@__security_check_cookie@4
	mov	eax, OFFSET __ehfuncinfo$??0sentry@?$basic_istream@DU?$char_traits@D@std@@@std@@QAE@AAV12@_N@Z
	jmp	___CxxFrameHandler3
text$x	ENDS
??0sentry@?$basic_istream@DU?$char_traits@D@std@@@std@@QAE@AAV12@_N@Z ENDP ; std::basic_istream<char,std::char_traits<char> >::sentry::sentry
; Function compile flags: /Odtp /RTCsu /ZI
;	COMDAT ??Bsentry@?$basic_istream@DU?$char_traits@D@std@@@std@@QBEPQ_Bool_struct@2@HXZ
_TEXT	SEGMENT
_this$ = -8						; size = 4
??Bsentry@?$basic_istream@DU?$char_traits@D@std@@@std@@QBEPQ_Bool_struct@2@HXZ PROC ; std::basic_istream<char,std::char_traits<char> >::sentry::operator int std::_Bool_struct::*, COMDAT
; _this$ = ecx

; 104  : 			{	// test if _Ipfx succeeded

	push	ebp
	mov	ebp, esp
	sub	esp, 204				; 000000ccH
	push	ebx
	push	esi
	push	edi
	push	ecx
	lea	edi, DWORD PTR [ebp-204]
	mov	ecx, 51					; 00000033H
	mov	eax, -858993460				; ccccccccH
	rep stosd
	pop	ecx
	mov	DWORD PTR _this$[ebp], ecx

; 105  : 			return (_Ok ? _CONVERTIBLE_TO_TRUE : 0);

	mov	eax, DWORD PTR _this$[ebp]
	movzx	eax, BYTE PTR [eax+4]
	neg	eax
	sbb	eax, eax
	neg	eax
	sub	eax, 1

; 106  : 			}

	pop	edi
	pop	esi
	pop	ebx
	mov	esp, ebp
	pop	ebp
	ret	0
??Bsentry@?$basic_istream@DU?$char_traits@D@std@@@std@@QBEPQ_Bool_struct@2@HXZ ENDP ; std::basic_istream<char,std::char_traits<char> >::sentry::operator int std::_Bool_struct::*
; Function compile flags: /Odtp /RTCsu /ZI
_TEXT	ENDS
;	COMDAT ??1_Sentry_base@?$basic_istream@DU?$char_traits@D@std@@@std@@QAE@XZ
_TEXT	SEGMENT
tv90 = -208						; size = 4
_this$ = -8						; size = 4
??1_Sentry_base@?$basic_istream@DU?$char_traits@D@std@@@std@@QAE@XZ PROC ; std::basic_istream<char,std::char_traits<char> >::_Sentry_base::~_Sentry_base, COMDAT
; _this$ = ecx

; 82   : 			{	// destroy after unlocking

	push	ebp
	mov	ebp, esp
	sub	esp, 208				; 000000d0H
	push	ebx
	push	esi
	push	edi
	push	ecx
	lea	edi, DWORD PTR [ebp-208]
	mov	ecx, 52					; 00000034H
	mov	eax, -858993460				; ccccccccH
	rep stosd
	pop	ecx
	mov	DWORD PTR _this$[ebp], ecx

; 83   : 			if (_Myistr.rdbuf() != 0)

	mov	eax, DWORD PTR _this$[ebp]
	mov	ecx, DWORD PTR [eax]
	mov	edx, DWORD PTR [ecx]
	mov	eax, DWORD PTR _this$[ebp]
	mov	ecx, DWORD PTR [eax]
	add	ecx, DWORD PTR [edx+4]
	call	?rdbuf@?$basic_ios@DU?$char_traits@D@std@@@std@@QBEPAV?$basic_streambuf@DU?$char_traits@D@std@@@2@XZ ; std::basic_ios<char,std::char_traits<char> >::rdbuf
	test	eax, eax
	je	SHORT $LN2@Sentry_bas

; 84   : 				_Myistr.rdbuf()->_Unlock();

	mov	eax, DWORD PTR _this$[ebp]
	mov	ecx, DWORD PTR [eax]
	mov	edx, DWORD PTR [ecx]
	mov	eax, DWORD PTR _this$[ebp]
	mov	ecx, DWORD PTR [eax]
	add	ecx, DWORD PTR [edx+4]
	call	?rdbuf@?$basic_ios@DU?$char_traits@D@std@@@std@@QBEPAV?$basic_streambuf@DU?$char_traits@D@std@@@2@XZ ; std::basic_ios<char,std::char_traits<char> >::rdbuf
	mov	DWORD PTR tv90[ebp], eax
	mov	ecx, DWORD PTR tv90[ebp]
	mov	edx, DWORD PTR [ecx]
	mov	esi, esp
	mov	ecx, DWORD PTR tv90[ebp]
	mov	eax, DWORD PTR [edx+8]
	call	eax
	cmp	esi, esp
	call	__RTC_CheckEsp
$LN2@Sentry_bas:

; 85   : 			}

	pop	edi
	pop	esi
	pop	ebx
	add	esp, 208				; 000000d0H
	cmp	ebp, esp
	call	__RTC_CheckEsp
	mov	esp, ebp
	pop	ebp
	ret	0
??1_Sentry_base@?$basic_istream@DU?$char_traits@D@std@@@std@@QAE@XZ ENDP ; std::basic_istream<char,std::char_traits<char> >::_Sentry_base::~_Sentry_base
_TEXT	ENDS
PUBLIC	??1?$basic_filebuf@DU?$char_traits@D@std@@@std@@UAE@XZ ; std::basic_filebuf<char,std::char_traits<char> >::~basic_filebuf<char,std::char_traits<char> >
PUBLIC	??1?$basic_iostream@DU?$char_traits@D@std@@@std@@UAE@XZ ; std::basic_iostream<char,std::char_traits<char> >::~basic_iostream<char,std::char_traits<char> >
PUBLIC	?open@?$basic_filebuf@DU?$char_traits@D@std@@@std@@QAEPAV12@PBDHH@Z ; std::basic_filebuf<char,std::char_traits<char> >::open
PUBLIC	??0?$basic_filebuf@DU?$char_traits@D@std@@@std@@QAE@PAU_iobuf@@@Z ; std::basic_filebuf<char,std::char_traits<char> >::basic_filebuf<char,std::char_traits<char> >
PUBLIC	??_7?$basic_fstream@DU?$char_traits@D@std@@@std@@6B@ ; std::basic_fstream<char,std::char_traits<char> >::`vftable'
PUBLIC	??0?$basic_iostream@DU?$char_traits@D@std@@@std@@QAE@PAV?$basic_streambuf@DU?$char_traits@D@std@@@1@@Z ; std::basic_iostream<char,std::char_traits<char> >::basic_iostream<char,std::char_traits<char> >
PUBLIC	??0?$basic_ios@DU?$char_traits@D@std@@@std@@IAE@XZ ; std::basic_ios<char,std::char_traits<char> >::basic_ios<char,std::char_traits<char> >
PUBLIC	??_8?$basic_fstream@DU?$char_traits@D@std@@@std@@7B?$basic_ostream@DU?$char_traits@D@std@@@1@@ ; std::basic_fstream<char,std::char_traits<char> >::`vbtable'
PUBLIC	??_8?$basic_fstream@DU?$char_traits@D@std@@@std@@7B?$basic_istream@DU?$char_traits@D@std@@@1@@ ; std::basic_fstream<char,std::char_traits<char> >::`vbtable'
PUBLIC	??_R4?$basic_fstream@DU?$char_traits@D@std@@@std@@6B@ ; std::basic_fstream<char,std::char_traits<char> >::`RTTI Complete Object Locator'
PUBLIC	??_R0?AV?$basic_fstream@DU?$char_traits@D@std@@@std@@@8 ; std::basic_fstream<char,std::char_traits<char> > `RTTI Type Descriptor'
PUBLIC	??_R3?$basic_fstream@DU?$char_traits@D@std@@@std@@8 ; std::basic_fstream<char,std::char_traits<char> >::`RTTI Class Hierarchy Descriptor'
PUBLIC	??_R2?$basic_fstream@DU?$char_traits@D@std@@@std@@8 ; std::basic_fstream<char,std::char_traits<char> >::`RTTI Base Class Array'
PUBLIC	??_R1A@?0A@EA@?$basic_fstream@DU?$char_traits@D@std@@@std@@8 ; std::basic_fstream<char,std::char_traits<char> >::`RTTI Base Class Descriptor at (0,-1,0,64)'
PUBLIC	??_R1A@?0A@EA@?$basic_iostream@DU?$char_traits@D@std@@@std@@8 ; std::basic_iostream<char,std::char_traits<char> >::`RTTI Base Class Descriptor at (0,-1,0,64)'
PUBLIC	??_R0?AV?$basic_iostream@DU?$char_traits@D@std@@@std@@@8 ; std::basic_iostream<char,std::char_traits<char> > `RTTI Type Descriptor'
PUBLIC	??_R3?$basic_iostream@DU?$char_traits@D@std@@@std@@8 ; std::basic_iostream<char,std::char_traits<char> >::`RTTI Class Hierarchy Descriptor'
PUBLIC	??_R2?$basic_iostream@DU?$char_traits@D@std@@@std@@8 ; std::basic_iostream<char,std::char_traits<char> >::`RTTI Base Class Array'
PUBLIC	??_R1A@?0A@EA@?$basic_istream@DU?$char_traits@D@std@@@std@@8 ; std::basic_istream<char,std::char_traits<char> >::`RTTI Base Class Descriptor at (0,-1,0,64)'
PUBLIC	??_R0?AV?$basic_istream@DU?$char_traits@D@std@@@std@@@8 ; std::basic_istream<char,std::char_traits<char> > `RTTI Type Descriptor'
PUBLIC	??_R3?$basic_istream@DU?$char_traits@D@std@@@std@@8 ; std::basic_istream<char,std::char_traits<char> >::`RTTI Class Hierarchy Descriptor'
PUBLIC	??_R2?$basic_istream@DU?$char_traits@D@std@@@std@@8 ; std::basic_istream<char,std::char_traits<char> >::`RTTI Base Class Array'
PUBLIC	??_R1A@A@3FA@?$basic_ios@DU?$char_traits@D@std@@@std@@8 ; std::basic_ios<char,std::char_traits<char> >::`RTTI Base Class Descriptor at (0,0,4,80)'
PUBLIC	??_R1A@A@3EA@ios_base@std@@8			; std::ios_base::`RTTI Base Class Descriptor at (0,0,4,64)'
PUBLIC	??_R17A@3EA@?$_Iosb@H@std@@8			; std::_Iosb<int>::`RTTI Base Class Descriptor at (8,0,4,64)'
PUBLIC	??_R1BA@?0A@EA@?$basic_ostream@DU?$char_traits@D@std@@@std@@8 ; std::basic_ostream<char,std::char_traits<char> >::`RTTI Base Class Descriptor at (16,-1,0,64)'
PUBLIC	??_R0?AV?$basic_ostream@DU?$char_traits@D@std@@@std@@@8 ; std::basic_ostream<char,std::char_traits<char> > `RTTI Type Descriptor'
PUBLIC	??_R3?$basic_ostream@DU?$char_traits@D@std@@@std@@8 ; std::basic_ostream<char,std::char_traits<char> >::`RTTI Class Hierarchy Descriptor'
PUBLIC	??_R2?$basic_ostream@DU?$char_traits@D@std@@@std@@8 ; std::basic_ostream<char,std::char_traits<char> >::`RTTI Base Class Array'
PUBLIC	??_R1A@?0A@EA@?$basic_ostream@DU?$char_traits@D@std@@@std@@8 ; std::basic_ostream<char,std::char_traits<char> >::`RTTI Base Class Descriptor at (0,-1,0,64)'
EXTRN	??_E?$basic_fstream@DU?$char_traits@D@std@@@std@@UAEPAXI@Z:PROC ; std::basic_fstream<char,std::char_traits<char> >::`vector deleting destructor'
;	COMDAT ??_R1A@?0A@EA@?$basic_ostream@DU?$char_traits@D@std@@@std@@8
; File c:\program files (x86)\microsoft visual studio 10.0\vc\include\fstream
rdata$r	SEGMENT
??_R1A@?0A@EA@?$basic_ostream@DU?$char_traits@D@std@@@std@@8 DD FLAT:??_R0?AV?$basic_ostream@DU?$char_traits@D@std@@@std@@@8 ; std::basic_ostream<char,std::char_traits<char> >::`RTTI Base Class Descriptor at (0,-1,0,64)'
	DD	03H
	DD	00H
	DD	0ffffffffH
	DD	00H
	DD	040H
	DD	FLAT:??_R3?$basic_ostream@DU?$char_traits@D@std@@@std@@8
rdata$r	ENDS
;	COMDAT ??_R2?$basic_ostream@DU?$char_traits@D@std@@@std@@8
rdata$r	SEGMENT
??_R2?$basic_ostream@DU?$char_traits@D@std@@@std@@8 DD FLAT:??_R1A@?0A@EA@?$basic_ostream@DU?$char_traits@D@std@@@std@@8 ; std::basic_ostream<char,std::char_traits<char> >::`RTTI Base Class Array'
	DD	FLAT:??_R1A@A@3FA@?$basic_ios@DU?$char_traits@D@std@@@std@@8
	DD	FLAT:??_R1A@A@3EA@ios_base@std@@8
	DD	FLAT:??_R17A@3EA@?$_Iosb@H@std@@8
rdata$r	ENDS
;	COMDAT ??_R3?$basic_ostream@DU?$char_traits@D@std@@@std@@8
rdata$r	SEGMENT
??_R3?$basic_ostream@DU?$char_traits@D@std@@@std@@8 DD 00H ; std::basic_ostream<char,std::char_traits<char> >::`RTTI Class Hierarchy Descriptor'
	DD	00H
	DD	04H
	DD	FLAT:??_R2?$basic_ostream@DU?$char_traits@D@std@@@std@@8
rdata$r	ENDS
;	COMDAT ??_R0?AV?$basic_ostream@DU?$char_traits@D@std@@@std@@@8
_DATA	SEGMENT
??_R0?AV?$basic_ostream@DU?$char_traits@D@std@@@std@@@8 DD FLAT:??_7type_info@@6B@ ; std::basic_ostream<char,std::char_traits<char> > `RTTI Type Descriptor'
	DD	00H
	DB	'.?AV?$basic_ostream@DU?$char_traits@D@std@@@std@@', 00H
_DATA	ENDS
;	COMDAT ??_R1BA@?0A@EA@?$basic_ostream@DU?$char_traits@D@std@@@std@@8
rdata$r	SEGMENT
??_R1BA@?0A@EA@?$basic_ostream@DU?$char_traits@D@std@@@std@@8 DD FLAT:??_R0?AV?$basic_ostream@DU?$char_traits@D@std@@@std@@@8 ; std::basic_ostream<char,std::char_traits<char> >::`RTTI Base Class Descriptor at (16,-1,0,64)'
	DD	03H
	DD	010H
	DD	0ffffffffH
	DD	00H
	DD	040H
	DD	FLAT:??_R3?$basic_ostream@DU?$char_traits@D@std@@@std@@8
rdata$r	ENDS
;	COMDAT ??_R17A@3EA@?$_Iosb@H@std@@8
rdata$r	SEGMENT
??_R17A@3EA@?$_Iosb@H@std@@8 DD FLAT:??_R0?AV?$_Iosb@H@std@@@8 ; std::_Iosb<int>::`RTTI Base Class Descriptor at (8,0,4,64)'
	DD	00H
	DD	08H
	DD	00H
	DD	04H
	DD	040H
	DD	FLAT:??_R3?$_Iosb@H@std@@8
rdata$r	ENDS
;	COMDAT ??_R1A@A@3EA@ios_base@std@@8
rdata$r	SEGMENT
??_R1A@A@3EA@ios_base@std@@8 DD FLAT:??_R0?AVios_base@std@@@8 ; std::ios_base::`RTTI Base Class Descriptor at (0,0,4,64)'
	DD	01H
	DD	00H
	DD	00H
	DD	04H
	DD	040H
	DD	FLAT:??_R3ios_base@std@@8
rdata$r	ENDS
;	COMDAT ??_R1A@A@3FA@?$basic_ios@DU?$char_traits@D@std@@@std@@8
rdata$r	SEGMENT
??_R1A@A@3FA@?$basic_ios@DU?$char_traits@D@std@@@std@@8 DD FLAT:??_R0?AV?$basic_ios@DU?$char_traits@D@std@@@std@@@8 ; std::basic_ios<char,std::char_traits<char> >::`RTTI Base Class Descriptor at (0,0,4,80)'
	DD	02H
	DD	00H
	DD	00H
	DD	04H
	DD	050H
	DD	FLAT:??_R3?$basic_ios@DU?$char_traits@D@std@@@std@@8
rdata$r	ENDS
;	COMDAT ??_R2?$basic_istream@DU?$char_traits@D@std@@@std@@8
rdata$r	SEGMENT
??_R2?$basic_istream@DU?$char_traits@D@std@@@std@@8 DD FLAT:??_R1A@?0A@EA@?$basic_istream@DU?$char_traits@D@std@@@std@@8 ; std::basic_istream<char,std::char_traits<char> >::`RTTI Base Class Array'
	DD	FLAT:??_R1A@A@3FA@?$basic_ios@DU?$char_traits@D@std@@@std@@8
	DD	FLAT:??_R1A@A@3EA@ios_base@std@@8
	DD	FLAT:??_R17A@3EA@?$_Iosb@H@std@@8
rdata$r	ENDS
;	COMDAT ??_R3?$basic_istream@DU?$char_traits@D@std@@@std@@8
rdata$r	SEGMENT
??_R3?$basic_istream@DU?$char_traits@D@std@@@std@@8 DD 00H ; std::basic_istream<char,std::char_traits<char> >::`RTTI Class Hierarchy Descriptor'
	DD	00H
	DD	04H
	DD	FLAT:??_R2?$basic_istream@DU?$char_traits@D@std@@@std@@8
rdata$r	ENDS
;	COMDAT ??_R0?AV?$basic_istream@DU?$char_traits@D@std@@@std@@@8
_DATA	SEGMENT
??_R0?AV?$basic_istream@DU?$char_traits@D@std@@@std@@@8 DD FLAT:??_7type_info@@6B@ ; std::basic_istream<char,std::char_traits<char> > `RTTI Type Descriptor'
	DD	00H
	DB	'.?AV?$basic_istream@DU?$char_traits@D@std@@@std@@', 00H
_DATA	ENDS
;	COMDAT ??_R1A@?0A@EA@?$basic_istream@DU?$char_traits@D@std@@@std@@8
rdata$r	SEGMENT
??_R1A@?0A@EA@?$basic_istream@DU?$char_traits@D@std@@@std@@8 DD FLAT:??_R0?AV?$basic_istream@DU?$char_traits@D@std@@@std@@@8 ; std::basic_istream<char,std::char_traits<char> >::`RTTI Base Class Descriptor at (0,-1,0,64)'
	DD	03H
	DD	00H
	DD	0ffffffffH
	DD	00H
	DD	040H
	DD	FLAT:??_R3?$basic_istream@DU?$char_traits@D@std@@@std@@8
rdata$r	ENDS
;	COMDAT ??_R2?$basic_iostream@DU?$char_traits@D@std@@@std@@8
rdata$r	SEGMENT
??_R2?$basic_iostream@DU?$char_traits@D@std@@@std@@8 DD FLAT:??_R1A@?0A@EA@?$basic_iostream@DU?$char_traits@D@std@@@std@@8 ; std::basic_iostream<char,std::char_traits<char> >::`RTTI Base Class Array'
	DD	FLAT:??_R1A@?0A@EA@?$basic_istream@DU?$char_traits@D@std@@@std@@8
	DD	FLAT:??_R1A@A@3FA@?$basic_ios@DU?$char_traits@D@std@@@std@@8
	DD	FLAT:??_R1A@A@3EA@ios_base@std@@8
	DD	FLAT:??_R17A@3EA@?$_Iosb@H@std@@8
	DD	FLAT:??_R1BA@?0A@EA@?$basic_ostream@DU?$char_traits@D@std@@@std@@8
	DD	FLAT:??_R1A@A@3FA@?$basic_ios@DU?$char_traits@D@std@@@std@@8
	DD	FLAT:??_R1A@A@3EA@ios_base@std@@8
	DD	FLAT:??_R17A@3EA@?$_Iosb@H@std@@8
rdata$r	ENDS
;	COMDAT ??_R3?$basic_iostream@DU?$char_traits@D@std@@@std@@8
rdata$r	SEGMENT
??_R3?$basic_iostream@DU?$char_traits@D@std@@@std@@8 DD 00H ; std::basic_iostream<char,std::char_traits<char> >::`RTTI Class Hierarchy Descriptor'
	DD	03H
	DD	09H
	DD	FLAT:??_R2?$basic_iostream@DU?$char_traits@D@std@@@std@@8
rdata$r	ENDS
;	COMDAT ??_R0?AV?$basic_iostream@DU?$char_traits@D@std@@@std@@@8
_DATA	SEGMENT
??_R0?AV?$basic_iostream@DU?$char_traits@D@std@@@std@@@8 DD FLAT:??_7type_info@@6B@ ; std::basic_iostream<char,std::char_traits<char> > `RTTI Type Descriptor'
	DD	00H
	DB	'.?AV?$basic_iostream@DU?$char_traits@D@std@@@std@@', 00H
_DATA	ENDS
;	COMDAT ??_R1A@?0A@EA@?$basic_iostream@DU?$char_traits@D@std@@@std@@8
rdata$r	SEGMENT
??_R1A@?0A@EA@?$basic_iostream@DU?$char_traits@D@std@@@std@@8 DD FLAT:??_R0?AV?$basic_iostream@DU?$char_traits@D@std@@@std@@@8 ; std::basic_iostream<char,std::char_traits<char> >::`RTTI Base Class Descriptor at (0,-1,0,64)'
	DD	08H
	DD	00H
	DD	0ffffffffH
	DD	00H
	DD	040H
	DD	FLAT:??_R3?$basic_iostream@DU?$char_traits@D@std@@@std@@8
rdata$r	ENDS
;	COMDAT ??_R1A@?0A@EA@?$basic_fstream@DU?$char_traits@D@std@@@std@@8
rdata$r	SEGMENT
??_R1A@?0A@EA@?$basic_fstream@DU?$char_traits@D@std@@@std@@8 DD FLAT:??_R0?AV?$basic_fstream@DU?$char_traits@D@std@@@std@@@8 ; std::basic_fstream<char,std::char_traits<char> >::`RTTI Base Class Descriptor at (0,-1,0,64)'
	DD	09H
	DD	00H
	DD	0ffffffffH
	DD	00H
	DD	040H
	DD	FLAT:??_R3?$basic_fstream@DU?$char_traits@D@std@@@std@@8
rdata$r	ENDS
;	COMDAT ??_R2?$basic_fstream@DU?$char_traits@D@std@@@std@@8
rdata$r	SEGMENT
??_R2?$basic_fstream@DU?$char_traits@D@std@@@std@@8 DD FLAT:??_R1A@?0A@EA@?$basic_fstream@DU?$char_traits@D@std@@@std@@8 ; std::basic_fstream<char,std::char_traits<char> >::`RTTI Base Class Array'
	DD	FLAT:??_R1A@?0A@EA@?$basic_iostream@DU?$char_traits@D@std@@@std@@8
	DD	FLAT:??_R1A@?0A@EA@?$basic_istream@DU?$char_traits@D@std@@@std@@8
	DD	FLAT:??_R1A@A@3FA@?$basic_ios@DU?$char_traits@D@std@@@std@@8
	DD	FLAT:??_R1A@A@3EA@ios_base@std@@8
	DD	FLAT:??_R17A@3EA@?$_Iosb@H@std@@8
	DD	FLAT:??_R1BA@?0A@EA@?$basic_ostream@DU?$char_traits@D@std@@@std@@8
	DD	FLAT:??_R1A@A@3FA@?$basic_ios@DU?$char_traits@D@std@@@std@@8
	DD	FLAT:??_R1A@A@3EA@ios_base@std@@8
	DD	FLAT:??_R17A@3EA@?$_Iosb@H@std@@8
rdata$r	ENDS
;	COMDAT ??_R3?$basic_fstream@DU?$char_traits@D@std@@@std@@8
rdata$r	SEGMENT
??_R3?$basic_fstream@DU?$char_traits@D@std@@@std@@8 DD 00H ; std::basic_fstream<char,std::char_traits<char> >::`RTTI Class Hierarchy Descriptor'
	DD	03H
	DD	0aH
	DD	FLAT:??_R2?$basic_fstream@DU?$char_traits@D@std@@@std@@8
rdata$r	ENDS
;	COMDAT ??_R0?AV?$basic_fstream@DU?$char_traits@D@std@@@std@@@8
_DATA	SEGMENT
??_R0?AV?$basic_fstream@DU?$char_traits@D@std@@@std@@@8 DD FLAT:??_7type_info@@6B@ ; std::basic_fstream<char,std::char_traits<char> > `RTTI Type Descriptor'
	DD	00H
	DB	'.?AV?$basic_fstream@DU?$char_traits@D@std@@@std@@', 00H
_DATA	ENDS
;	COMDAT ??_R4?$basic_fstream@DU?$char_traits@D@std@@@std@@6B@
rdata$r	SEGMENT
??_R4?$basic_fstream@DU?$char_traits@D@std@@@std@@6B@ DD 00H ; std::basic_fstream<char,std::char_traits<char> >::`RTTI Complete Object Locator'
	DD	070H
	DD	00H
	DD	FLAT:??_R0?AV?$basic_fstream@DU?$char_traits@D@std@@@std@@@8
	DD	FLAT:??_R3?$basic_fstream@DU?$char_traits@D@std@@@std@@8
rdata$r	ENDS
;	COMDAT ??_7?$basic_fstream@DU?$char_traits@D@std@@@std@@6B@
CONST	SEGMENT
??_7?$basic_fstream@DU?$char_traits@D@std@@@std@@6B@ DD FLAT:??_R4?$basic_fstream@DU?$char_traits@D@std@@@std@@6B@ ; std::basic_fstream<char,std::char_traits<char> >::`vftable'
	DD	FLAT:??_E?$basic_fstream@DU?$char_traits@D@std@@@std@@UAEPAXI@Z
CONST	ENDS
;	COMDAT ??_8?$basic_fstream@DU?$char_traits@D@std@@@std@@7B?$basic_ostream@DU?$char_traits@D@std@@@1@@
CONST	SEGMENT
??_8?$basic_fstream@DU?$char_traits@D@std@@@std@@7B?$basic_ostream@DU?$char_traits@D@std@@@1@@ DD 00H ; std::basic_fstream<char,std::char_traits<char> >::`vbtable'
	DD	060H
CONST	ENDS
;	COMDAT ??_8?$basic_fstream@DU?$char_traits@D@std@@@std@@7B?$basic_istream@DU?$char_traits@D@std@@@1@@
CONST	SEGMENT
??_8?$basic_fstream@DU?$char_traits@D@std@@@std@@7B?$basic_istream@DU?$char_traits@D@std@@@1@@ DD 00H ; std::basic_fstream<char,std::char_traits<char> >::`vbtable'
	DD	070H
CONST	ENDS
;	COMDAT xdata$x
xdata$x	SEGMENT
__unwindtable$??0?$basic_fstream@DU?$char_traits@D@std@@@std@@QAE@PBDHH@Z DD 0ffffffffH
	DD	FLAT:__unwindfunclet$??0?$basic_fstream@DU?$char_traits@D@std@@@std@@QAE@PBDHH@Z$0
	DD	00H
	DD	FLAT:__unwindfunclet$??0?$basic_fstream@DU?$char_traits@D@std@@@std@@QAE@PBDHH@Z$1
	DD	01H
	DD	FLAT:__unwindfunclet$??0?$basic_fstream@DU?$char_traits@D@std@@@std@@QAE@PBDHH@Z$2
__ehfuncinfo$??0?$basic_fstream@DU?$char_traits@D@std@@@std@@QAE@PBDHH@Z DD 019930522H
	DD	03H
	DD	FLAT:__unwindtable$??0?$basic_fstream@DU?$char_traits@D@std@@@std@@QAE@PBDHH@Z
	DD	2 DUP(00H)
	DD	2 DUP(00H)
	DD	00H
	DD	01H
; Function compile flags: /Odtp /RTCsu /ZI
xdata$x	ENDS
;	COMDAT ??0?$basic_fstream@DU?$char_traits@D@std@@@std@@QAE@PBDHH@Z
_TEXT	SEGMENT
$T36839 = -224						; size = 4
_this$ = -20						; size = 4
__$EHRec$ = -12						; size = 12
__Filename$ = 8						; size = 4
__Mode$ = 12						; size = 4
__Prot$ = 16						; size = 4
_$initVBases$ = 20					; size = 4
??0?$basic_fstream@DU?$char_traits@D@std@@@std@@QAE@PBDHH@Z PROC ; std::basic_fstream<char,std::char_traits<char> >::basic_fstream<char,std::char_traits<char> >, COMDAT
; _this$ = ecx

; 1171 : 		{	// construct with named file and specified mode

	push	ebp
	mov	ebp, esp
	push	-1
	push	__ehhandler$??0?$basic_fstream@DU?$char_traits@D@std@@@std@@QAE@PBDHH@Z
	mov	eax, DWORD PTR fs:0
	push	eax
	sub	esp, 216				; 000000d8H
	push	ebx
	push	esi
	push	edi
	push	ecx
	lea	edi, DWORD PTR [ebp-228]
	mov	ecx, 54					; 00000036H
	mov	eax, -858993460				; ccccccccH
	rep stosd
	pop	ecx
	mov	eax, DWORD PTR ___security_cookie
	xor	eax, ebp
	push	eax
	lea	eax, DWORD PTR __$EHRec$[ebp]
	mov	DWORD PTR fs:0, eax
	mov	DWORD PTR _this$[ebp], ecx
	mov	DWORD PTR $T36839[ebp], 0
	cmp	DWORD PTR _$initVBases$[ebp], 0
	je	SHORT $LN2@basic_fstr
	mov	eax, DWORD PTR _this$[ebp]
	mov	DWORD PTR [eax], OFFSET ??_8?$basic_fstream@DU?$char_traits@D@std@@@std@@7B?$basic_istream@DU?$char_traits@D@std@@@1@@
	mov	eax, DWORD PTR _this$[ebp]
	mov	DWORD PTR [eax+16], OFFSET ??_8?$basic_fstream@DU?$char_traits@D@std@@@std@@7B?$basic_ostream@DU?$char_traits@D@std@@@1@@
	mov	ecx, DWORD PTR _this$[ebp]
	add	ecx, 112				; 00000070H
	call	??0?$basic_ios@DU?$char_traits@D@std@@@std@@IAE@XZ ; std::basic_ios<char,std::char_traits<char> >::basic_ios<char,std::char_traits<char> >
	mov	DWORD PTR __$EHRec$[ebp+8], 0
	mov	eax, DWORD PTR $T36839[ebp]
	or	eax, 1
	mov	DWORD PTR $T36839[ebp], eax
$LN2@basic_fstr:
	push	0
	mov	eax, DWORD PTR _this$[ebp]
	add	eax, 24					; 00000018H
	push	eax
	mov	ecx, DWORD PTR _this$[ebp]
	call	??0?$basic_iostream@DU?$char_traits@D@std@@@std@@QAE@PAV?$basic_streambuf@DU?$char_traits@D@std@@@1@@Z ; std::basic_iostream<char,std::char_traits<char> >::basic_iostream<char,std::char_traits<char> >
	mov	DWORD PTR __$EHRec$[ebp+8], 1
	mov	eax, DWORD PTR _this$[ebp]
	mov	ecx, DWORD PTR [eax]
	mov	edx, DWORD PTR [ecx+4]
	mov	eax, DWORD PTR _this$[ebp]
	mov	DWORD PTR [eax+edx], OFFSET ??_7?$basic_fstream@DU?$char_traits@D@std@@@std@@6B@
	push	0
	mov	ecx, DWORD PTR _this$[ebp]
	add	ecx, 24					; 00000018H
	call	??0?$basic_filebuf@DU?$char_traits@D@std@@@std@@QAE@PAU_iobuf@@@Z ; std::basic_filebuf<char,std::char_traits<char> >::basic_filebuf<char,std::char_traits<char> >
	mov	BYTE PTR __$EHRec$[ebp+8], 2

; 1172 : 		if (_Filebuffer.open(_Filename, _Mode, _Prot) == 0)

	mov	eax, DWORD PTR __Prot$[ebp]
	push	eax
	mov	ecx, DWORD PTR __Mode$[ebp]
	push	ecx
	mov	edx, DWORD PTR __Filename$[ebp]
	push	edx
	mov	ecx, DWORD PTR _this$[ebp]
	add	ecx, 24					; 00000018H
	call	?open@?$basic_filebuf@DU?$char_traits@D@std@@@std@@QAEPAV12@PBDHH@Z ; std::basic_filebuf<char,std::char_traits<char> >::open
	test	eax, eax
	jne	SHORT $LN3@basic_fstr

; 1173 : 			_Myios::setstate(ios_base::failbit);

	push	0
	push	2
	mov	eax, DWORD PTR _this$[ebp]
	mov	ecx, DWORD PTR [eax]
	mov	edx, DWORD PTR _this$[ebp]
	add	edx, DWORD PTR [ecx+4]
	mov	ecx, edx
	call	?setstate@?$basic_ios@DU?$char_traits@D@std@@@std@@QAEXH_N@Z ; std::basic_ios<char,std::char_traits<char> >::setstate
$LN3@basic_fstr:

; 1174 : 		}

	mov	DWORD PTR __$EHRec$[ebp+8], -1
	mov	eax, DWORD PTR _this$[ebp]
	mov	ecx, DWORD PTR __$EHRec$[ebp]
	mov	DWORD PTR fs:0, ecx
	pop	ecx
	pop	edi
	pop	esi
	pop	ebx
	add	esp, 228				; 000000e4H
	cmp	ebp, esp
	call	__RTC_CheckEsp
	mov	esp, ebp
	pop	ebp
	ret	16					; 00000010H
_TEXT	ENDS
;	COMDAT text$x
text$x	SEGMENT
__unwindfunclet$??0?$basic_fstream@DU?$char_traits@D@std@@@std@@QAE@PBDHH@Z$0:
	mov	eax, DWORD PTR $T36839[ebp]
	and	eax, 1
	je	$LN6@basic_fstr
	and	DWORD PTR $T36839[ebp], -2		; fffffffeH
	mov	ecx, DWORD PTR _this$[ebp]
	add	ecx, 112				; 00000070H
	jmp	??1?$basic_ios@DU?$char_traits@D@std@@@std@@UAE@XZ ; std::basic_ios<char,std::char_traits<char> >::~basic_ios<char,std::char_traits<char> >
$LN6@basic_fstr:
	ret	0
__unwindfunclet$??0?$basic_fstream@DU?$char_traits@D@std@@@std@@QAE@PBDHH@Z$1:
	mov	ecx, DWORD PTR _this$[ebp]
	add	ecx, 24					; 00000018H
	jmp	??1?$basic_iostream@DU?$char_traits@D@std@@@std@@UAE@XZ ; std::basic_iostream<char,std::char_traits<char> >::~basic_iostream<char,std::char_traits<char> >
__unwindfunclet$??0?$basic_fstream@DU?$char_traits@D@std@@@std@@QAE@PBDHH@Z$2:
	mov	ecx, DWORD PTR _this$[ebp]
	add	ecx, 24					; 00000018H
	jmp	??1?$basic_filebuf@DU?$char_traits@D@std@@@std@@UAE@XZ ; std::basic_filebuf<char,std::char_traits<char> >::~basic_filebuf<char,std::char_traits<char> >
__ehhandler$??0?$basic_fstream@DU?$char_traits@D@std@@@std@@QAE@PBDHH@Z:
	mov	edx, DWORD PTR [esp+8]
	lea	eax, DWORD PTR [edx+12]
	mov	ecx, DWORD PTR [edx-232]
	xor	ecx, eax
	call	@__security_check_cookie@4
	mov	eax, OFFSET __ehfuncinfo$??0?$basic_fstream@DU?$char_traits@D@std@@@std@@QAE@PBDHH@Z
	jmp	___CxxFrameHandler3
text$x	ENDS
??0?$basic_fstream@DU?$char_traits@D@std@@@std@@QAE@PBDHH@Z ENDP ; std::basic_fstream<char,std::char_traits<char> >::basic_fstream<char,std::char_traits<char> >
;	COMDAT xdata$x
xdata$x	SEGMENT
__unwindtable$??1?$basic_fstream@DU?$char_traits@D@std@@@std@@UAE@XZ DD 0ffffffffH
	DD	FLAT:__unwindfunclet$??1?$basic_fstream@DU?$char_traits@D@std@@@std@@UAE@XZ$0
__ehfuncinfo$??1?$basic_fstream@DU?$char_traits@D@std@@@std@@UAE@XZ DD 019930522H
	DD	01H
	DD	FLAT:__unwindtable$??1?$basic_fstream@DU?$char_traits@D@std@@@std@@UAE@XZ
	DD	2 DUP(00H)
	DD	2 DUP(00H)
	DD	00H
	DD	01H
; Function compile flags: /Odtp /RTCsu /ZI
xdata$x	ENDS
;	COMDAT ??1?$basic_fstream@DU?$char_traits@D@std@@@std@@UAE@XZ
_TEXT	SEGMENT
_this$ = -20						; size = 4
__$EHRec$ = -12						; size = 12
??1?$basic_fstream@DU?$char_traits@D@std@@@std@@UAE@XZ PROC ; std::basic_fstream<char,std::char_traits<char> >::~basic_fstream<char,std::char_traits<char> >, COMDAT
; _this$ = ecx

; 1302 : 		{	// destroy the object

	push	ebp
	mov	ebp, esp
	push	-1
	push	__ehhandler$??1?$basic_fstream@DU?$char_traits@D@std@@@std@@UAE@XZ
	mov	eax, DWORD PTR fs:0
	push	eax
	sub	esp, 204				; 000000ccH
	push	ebx
	push	esi
	push	edi
	push	ecx
	lea	edi, DWORD PTR [ebp-216]
	mov	ecx, 51					; 00000033H
	mov	eax, -858993460				; ccccccccH
	rep stosd
	pop	ecx
	mov	eax, DWORD PTR ___security_cookie
	xor	eax, ebp
	push	eax
	lea	eax, DWORD PTR __$EHRec$[ebp]
	mov	DWORD PTR fs:0, eax
	mov	DWORD PTR _this$[ebp], ecx
	mov	eax, DWORD PTR _this$[ebp]
	mov	ecx, DWORD PTR [eax-112]
	mov	edx, DWORD PTR [ecx+4]
	mov	eax, DWORD PTR _this$[ebp]
	mov	DWORD PTR [eax+edx-112], OFFSET ??_7?$basic_fstream@DU?$char_traits@D@std@@@std@@6B@
	mov	DWORD PTR __$EHRec$[ebp+8], 0

; 1303 : 		}

	mov	ecx, DWORD PTR _this$[ebp]
	sub	ecx, 88					; 00000058H
	call	??1?$basic_filebuf@DU?$char_traits@D@std@@@std@@UAE@XZ ; std::basic_filebuf<char,std::char_traits<char> >::~basic_filebuf<char,std::char_traits<char> >
	mov	DWORD PTR __$EHRec$[ebp+8], -1
	mov	ecx, DWORD PTR _this$[ebp]
	sub	ecx, 88					; 00000058H
	call	??1?$basic_iostream@DU?$char_traits@D@std@@@std@@UAE@XZ ; std::basic_iostream<char,std::char_traits<char> >::~basic_iostream<char,std::char_traits<char> >
	mov	ecx, DWORD PTR __$EHRec$[ebp]
	mov	DWORD PTR fs:0, ecx
	pop	ecx
	pop	edi
	pop	esi
	pop	ebx
	add	esp, 216				; 000000d8H
	cmp	ebp, esp
	call	__RTC_CheckEsp
	mov	esp, ebp
	pop	ebp
	ret	0
_TEXT	ENDS
;	COMDAT text$x
text$x	SEGMENT
__unwindfunclet$??1?$basic_fstream@DU?$char_traits@D@std@@@std@@UAE@XZ$0:
	mov	ecx, DWORD PTR _this$[ebp]
	sub	ecx, 88					; 00000058H
	jmp	??1?$basic_iostream@DU?$char_traits@D@std@@@std@@UAE@XZ ; std::basic_iostream<char,std::char_traits<char> >::~basic_iostream<char,std::char_traits<char> >
__ehhandler$??1?$basic_fstream@DU?$char_traits@D@std@@@std@@UAE@XZ:
	mov	edx, DWORD PTR [esp+8]
	lea	eax, DWORD PTR [edx+12]
	mov	ecx, DWORD PTR [edx-220]
	xor	ecx, eax
	call	@__security_check_cookie@4
	mov	eax, OFFSET __ehfuncinfo$??1?$basic_fstream@DU?$char_traits@D@std@@@std@@UAE@XZ
	jmp	___CxxFrameHandler3
text$x	ENDS
??1?$basic_fstream@DU?$char_traits@D@std@@@std@@UAE@XZ ENDP ; std::basic_fstream<char,std::char_traits<char> >::~basic_fstream<char,std::char_traits<char> >
PUBLIC	?is_open@?$basic_filebuf@DU?$char_traits@D@std@@@std@@QBE_NXZ ; std::basic_filebuf<char,std::char_traits<char> >::is_open
; Function compile flags: /Odtp /RTCsu /ZI
;	COMDAT ?is_open@?$basic_fstream@DU?$char_traits@D@std@@@std@@QBE_NXZ
_TEXT	SEGMENT
_this$ = -8						; size = 4
?is_open@?$basic_fstream@DU?$char_traits@D@std@@@std@@QBE_NXZ PROC ; std::basic_fstream<char,std::char_traits<char> >::is_open, COMDAT
; _this$ = ecx

; 1311 : 		{	// test if C stream has been opened

	push	ebp
	mov	ebp, esp
	sub	esp, 204				; 000000ccH
	push	ebx
	push	esi
	push	edi
	push	ecx
	lea	edi, DWORD PTR [ebp-204]
	mov	ecx, 51					; 00000033H
	mov	eax, -858993460				; ccccccccH
	rep stosd
	pop	ecx
	mov	DWORD PTR _this$[ebp], ecx

; 1312 : 		return (_Filebuffer.is_open());

	mov	ecx, DWORD PTR _this$[ebp]
	add	ecx, 24					; 00000018H
	call	?is_open@?$basic_filebuf@DU?$char_traits@D@std@@@std@@QBE_NXZ ; std::basic_filebuf<char,std::char_traits<char> >::is_open

; 1313 : 		}

	pop	edi
	pop	esi
	pop	ebx
	add	esp, 204				; 000000ccH
	cmp	ebp, esp
	call	__RTC_CheckEsp
	mov	esp, ebp
	pop	ebp
	ret	0
?is_open@?$basic_fstream@DU?$char_traits@D@std@@@std@@QBE_NXZ ENDP ; std::basic_fstream<char,std::char_traits<char> >::is_open
; Function compile flags: /Odtp /RTCsu /ZI
_TEXT	ENDS
;	COMDAT ?open@?$basic_fstream@DU?$char_traits@D@std@@@std@@QAEXPBDHH@Z
_TEXT	SEGMENT
_this$ = -8						; size = 4
__Filename$ = 8						; size = 4
__Mode$ = 12						; size = 4
__Prot$ = 16						; size = 4
?open@?$basic_fstream@DU?$char_traits@D@std@@@std@@QAEXPBDHH@Z PROC ; std::basic_fstream<char,std::char_traits<char> >::open, COMDAT
; _this$ = ecx

; 1318 : 		{	// open a C stream with specified mode

	push	ebp
	mov	ebp, esp
	sub	esp, 204				; 000000ccH
	push	ebx
	push	esi
	push	edi
	push	ecx
	lea	edi, DWORD PTR [ebp-204]
	mov	ecx, 51					; 00000033H
	mov	eax, -858993460				; ccccccccH
	rep stosd
	pop	ecx
	mov	DWORD PTR _this$[ebp], ecx

; 1319 : 		if (_Filebuffer.open(_Filename, _Mode, _Prot) == 0)

	mov	eax, DWORD PTR __Prot$[ebp]
	push	eax
	mov	ecx, DWORD PTR __Mode$[ebp]
	push	ecx
	mov	edx, DWORD PTR __Filename$[ebp]
	push	edx
	mov	ecx, DWORD PTR _this$[ebp]
	add	ecx, 24					; 00000018H
	call	?open@?$basic_filebuf@DU?$char_traits@D@std@@@std@@QAEPAV12@PBDHH@Z ; std::basic_filebuf<char,std::char_traits<char> >::open
	test	eax, eax
	jne	SHORT $LN2@open

; 1320 : 			_Myios::setstate(ios_base::failbit);

	push	0
	push	2
	mov	eax, DWORD PTR _this$[ebp]
	mov	ecx, DWORD PTR [eax]
	mov	edx, DWORD PTR _this$[ebp]
	add	edx, DWORD PTR [ecx+4]
	mov	ecx, edx
	call	?setstate@?$basic_ios@DU?$char_traits@D@std@@@std@@QAEXH_N@Z ; std::basic_ios<char,std::char_traits<char> >::setstate

; 1321 : 		else

	jmp	SHORT $LN3@open
$LN2@open:

; 1322 : 			_Myios::clear();	// added with C++0X

	push	0
	push	0
	mov	eax, DWORD PTR _this$[ebp]
	mov	ecx, DWORD PTR [eax]
	mov	edx, DWORD PTR _this$[ebp]
	add	edx, DWORD PTR [ecx+4]
	mov	ecx, edx
	call	?clear@?$basic_ios@DU?$char_traits@D@std@@@std@@QAEXH_N@Z ; std::basic_ios<char,std::char_traits<char> >::clear
$LN3@open:

; 1323 : 		}

	pop	edi
	pop	esi
	pop	ebx
	add	esp, 204				; 000000ccH
	cmp	ebp, esp
	call	__RTC_CheckEsp
	mov	esp, ebp
	pop	ebp
	ret	12					; 0000000cH
?open@?$basic_fstream@DU?$char_traits@D@std@@@std@@QAEXPBDHH@Z ENDP ; std::basic_fstream<char,std::char_traits<char> >::open
_TEXT	ENDS
PUBLIC	?close@?$basic_filebuf@DU?$char_traits@D@std@@@std@@QAEPAV12@XZ ; std::basic_filebuf<char,std::char_traits<char> >::close
; Function compile flags: /Odtp /RTCsu /ZI
;	COMDAT ?close@?$basic_fstream@DU?$char_traits@D@std@@@std@@QAEXXZ
_TEXT	SEGMENT
_this$ = -8						; size = 4
?close@?$basic_fstream@DU?$char_traits@D@std@@@std@@QAEXXZ PROC ; std::basic_fstream<char,std::char_traits<char> >::close, COMDAT
; _this$ = ecx

; 1340 : 		{	// close the C stream

	push	ebp
	mov	ebp, esp
	sub	esp, 204				; 000000ccH
	push	ebx
	push	esi
	push	edi
	push	ecx
	lea	edi, DWORD PTR [ebp-204]
	mov	ecx, 51					; 00000033H
	mov	eax, -858993460				; ccccccccH
	rep stosd
	pop	ecx
	mov	DWORD PTR _this$[ebp], ecx

; 1341 : 		if (_Filebuffer.close() == 0)

	mov	ecx, DWORD PTR _this$[ebp]
	add	ecx, 24					; 00000018H
	call	?close@?$basic_filebuf@DU?$char_traits@D@std@@@std@@QAEPAV12@XZ ; std::basic_filebuf<char,std::char_traits<char> >::close
	test	eax, eax
	jne	SHORT $LN2@close

; 1342 : 			_Myios::setstate(ios_base::failbit);

	push	0
	push	2
	mov	eax, DWORD PTR _this$[ebp]
	mov	ecx, DWORD PTR [eax]
	mov	edx, DWORD PTR _this$[ebp]
	add	edx, DWORD PTR [ecx+4]
	mov	ecx, edx
	call	?setstate@?$basic_ios@DU?$char_traits@D@std@@@std@@QAEXH_N@Z ; std::basic_ios<char,std::char_traits<char> >::setstate
$LN2@close:

; 1343 : 		}

	pop	edi
	pop	esi
	pop	ebx
	add	esp, 204				; 000000ccH
	cmp	ebp, esp
	call	__RTC_CheckEsp
	mov	esp, ebp
	pop	ebp
	ret	0
?close@?$basic_fstream@DU?$char_traits@D@std@@@std@@QAEXXZ ENDP ; std::basic_fstream<char,std::char_traits<char> >::close
_TEXT	ENDS
PUBLIC	??1?$basic_istream@DU?$char_traits@D@std@@@std@@UAE@XZ ; std::basic_istream<char,std::char_traits<char> >::~basic_istream<char,std::char_traits<char> >
PUBLIC	??1?$basic_ostream@DU?$char_traits@D@std@@@std@@UAE@XZ ; std::basic_ostream<char,std::char_traits<char> >::~basic_ostream<char,std::char_traits<char> >
PUBLIC	??_7?$basic_iostream@DU?$char_traits@D@std@@@std@@6B@ ; std::basic_iostream<char,std::char_traits<char> >::`vftable'
PUBLIC	??_R4?$basic_iostream@DU?$char_traits@D@std@@@std@@6B@ ; std::basic_iostream<char,std::char_traits<char> >::`RTTI Complete Object Locator'
EXTRN	??_E?$basic_iostream@DU?$char_traits@D@std@@@std@@UAEPAXI@Z:PROC ; std::basic_iostream<char,std::char_traits<char> >::`vector deleting destructor'
;	COMDAT ??_R4?$basic_iostream@DU?$char_traits@D@std@@@std@@6B@
; File c:\program files (x86)\microsoft visual studio 10.0\vc\include\istream
rdata$r	SEGMENT
??_R4?$basic_iostream@DU?$char_traits@D@std@@@std@@6B@ DD 00H ; std::basic_iostream<char,std::char_traits<char> >::`RTTI Complete Object Locator'
	DD	018H
	DD	00H
	DD	FLAT:??_R0?AV?$basic_iostream@DU?$char_traits@D@std@@@std@@@8
	DD	FLAT:??_R3?$basic_iostream@DU?$char_traits@D@std@@@std@@8
rdata$r	ENDS
;	COMDAT ??_7?$basic_iostream@DU?$char_traits@D@std@@@std@@6B@
CONST	SEGMENT
??_7?$basic_iostream@DU?$char_traits@D@std@@@std@@6B@ DD FLAT:??_R4?$basic_iostream@DU?$char_traits@D@std@@@std@@6B@ ; std::basic_iostream<char,std::char_traits<char> >::`vftable'
	DD	FLAT:??_E?$basic_iostream@DU?$char_traits@D@std@@@std@@UAEPAXI@Z
CONST	ENDS
;	COMDAT xdata$x
xdata$x	SEGMENT
__unwindtable$??1?$basic_iostream@DU?$char_traits@D@std@@@std@@UAE@XZ DD 0ffffffffH
	DD	FLAT:__unwindfunclet$??1?$basic_iostream@DU?$char_traits@D@std@@@std@@UAE@XZ$0
__ehfuncinfo$??1?$basic_iostream@DU?$char_traits@D@std@@@std@@UAE@XZ DD 019930522H
	DD	01H
	DD	FLAT:__unwindtable$??1?$basic_iostream@DU?$char_traits@D@std@@@std@@UAE@XZ
	DD	2 DUP(00H)
	DD	2 DUP(00H)
	DD	00H
	DD	01H
; Function compile flags: /Odtp /RTCsu /ZI
xdata$x	ENDS
;	COMDAT ??1?$basic_iostream@DU?$char_traits@D@std@@@std@@UAE@XZ
_TEXT	SEGMENT
_this$ = -20						; size = 4
__$EHRec$ = -12						; size = 12
??1?$basic_iostream@DU?$char_traits@D@std@@@std@@UAE@XZ PROC ; std::basic_iostream<char,std::char_traits<char> >::~basic_iostream<char,std::char_traits<char> >, COMDAT
; _this$ = ecx

; 963  : 		{	// destroy the object

	push	ebp
	mov	ebp, esp
	push	-1
	push	__ehhandler$??1?$basic_iostream@DU?$char_traits@D@std@@@std@@UAE@XZ
	mov	eax, DWORD PTR fs:0
	push	eax
	sub	esp, 204				; 000000ccH
	push	ebx
	push	esi
	push	edi
	push	ecx
	lea	edi, DWORD PTR [ebp-216]
	mov	ecx, 51					; 00000033H
	mov	eax, -858993460				; ccccccccH
	rep stosd
	pop	ecx
	mov	eax, DWORD PTR ___security_cookie
	xor	eax, ebp
	push	eax
	lea	eax, DWORD PTR __$EHRec$[ebp]
	mov	DWORD PTR fs:0, eax
	mov	DWORD PTR _this$[ebp], ecx
	mov	eax, DWORD PTR _this$[ebp]
	mov	ecx, DWORD PTR [eax-24]
	mov	edx, DWORD PTR [ecx+4]
	mov	eax, DWORD PTR _this$[ebp]
	mov	DWORD PTR [eax+edx-24], OFFSET ??_7?$basic_iostream@DU?$char_traits@D@std@@@std@@6B@
	mov	DWORD PTR __$EHRec$[ebp+8], 0

; 964  : 		}

	mov	ecx, DWORD PTR _this$[ebp]
	call	??1?$basic_ostream@DU?$char_traits@D@std@@@std@@UAE@XZ ; std::basic_ostream<char,std::char_traits<char> >::~basic_ostream<char,std::char_traits<char> >
	mov	DWORD PTR __$EHRec$[ebp+8], -1
	mov	ecx, DWORD PTR _this$[ebp]
	sub	ecx, 8
	call	??1?$basic_istream@DU?$char_traits@D@std@@@std@@UAE@XZ ; std::basic_istream<char,std::char_traits<char> >::~basic_istream<char,std::char_traits<char> >
	mov	ecx, DWORD PTR __$EHRec$[ebp]
	mov	DWORD PTR fs:0, ecx
	pop	ecx
	pop	edi
	pop	esi
	pop	ebx
	add	esp, 216				; 000000d8H
	cmp	ebp, esp
	call	__RTC_CheckEsp
	mov	esp, ebp
	pop	ebp
	ret	0
_TEXT	ENDS
;	COMDAT text$x
text$x	SEGMENT
__unwindfunclet$??1?$basic_iostream@DU?$char_traits@D@std@@@std@@UAE@XZ$0:
	mov	ecx, DWORD PTR _this$[ebp]
	sub	ecx, 8
	jmp	??1?$basic_istream@DU?$char_traits@D@std@@@std@@UAE@XZ ; std::basic_istream<char,std::char_traits<char> >::~basic_istream<char,std::char_traits<char> >
__ehhandler$??1?$basic_iostream@DU?$char_traits@D@std@@@std@@UAE@XZ:
	mov	edx, DWORD PTR [esp+8]
	lea	eax, DWORD PTR [edx+12]
	mov	ecx, DWORD PTR [edx-220]
	xor	ecx, eax
	call	@__security_check_cookie@4
	mov	eax, OFFSET __ehfuncinfo$??1?$basic_iostream@DU?$char_traits@D@std@@@std@@UAE@XZ
	jmp	___CxxFrameHandler3
text$x	ENDS
??1?$basic_iostream@DU?$char_traits@D@std@@@std@@UAE@XZ ENDP ; std::basic_iostream<char,std::char_traits<char> >::~basic_iostream<char,std::char_traits<char> >
PUBLIC	??_7?$basic_ostream@DU?$char_traits@D@std@@@std@@6B@ ; std::basic_ostream<char,std::char_traits<char> >::`vftable'
PUBLIC	??_R4?$basic_ostream@DU?$char_traits@D@std@@@std@@6B@ ; std::basic_ostream<char,std::char_traits<char> >::`RTTI Complete Object Locator'
EXTRN	??_E?$basic_ostream@DU?$char_traits@D@std@@@std@@UAEPAXI@Z:PROC ; std::basic_ostream<char,std::char_traits<char> >::`vector deleting destructor'
;	COMDAT ??_R4?$basic_ostream@DU?$char_traits@D@std@@@std@@6B@
; File c:\program files (x86)\microsoft visual studio 10.0\vc\include\ostream
rdata$r	SEGMENT
??_R4?$basic_ostream@DU?$char_traits@D@std@@@std@@6B@ DD 00H ; std::basic_ostream<char,std::char_traits<char> >::`RTTI Complete Object Locator'
	DD	08H
	DD	00H
	DD	FLAT:??_R0?AV?$basic_ostream@DU?$char_traits@D@std@@@std@@@8
	DD	FLAT:??_R3?$basic_ostream@DU?$char_traits@D@std@@@std@@8
rdata$r	ENDS
;	COMDAT ??_7?$basic_ostream@DU?$char_traits@D@std@@@std@@6B@
CONST	SEGMENT
??_7?$basic_ostream@DU?$char_traits@D@std@@@std@@6B@ DD FLAT:??_R4?$basic_ostream@DU?$char_traits@D@std@@@std@@6B@ ; std::basic_ostream<char,std::char_traits<char> >::`vftable'
	DD	FLAT:??_E?$basic_ostream@DU?$char_traits@D@std@@@std@@UAEPAXI@Z
; Function compile flags: /Odtp /RTCsu /ZI
CONST	ENDS
;	COMDAT ??1?$basic_ostream@DU?$char_traits@D@std@@@std@@UAE@XZ
_TEXT	SEGMENT
_this$ = -8						; size = 4
??1?$basic_ostream@DU?$char_traits@D@std@@@std@@UAE@XZ PROC ; std::basic_ostream<char,std::char_traits<char> >::~basic_ostream<char,std::char_traits<char> >, COMDAT
; _this$ = ecx

; 79   : 		{	// destroy the object

	push	ebp
	mov	ebp, esp
	sub	esp, 204				; 000000ccH
	push	ebx
	push	esi
	push	edi
	push	ecx
	lea	edi, DWORD PTR [ebp-204]
	mov	ecx, 51					; 00000033H
	mov	eax, -858993460				; ccccccccH
	rep stosd
	pop	ecx
	mov	DWORD PTR _this$[ebp], ecx
	mov	eax, DWORD PTR _this$[ebp]
	mov	ecx, DWORD PTR [eax-8]
	mov	edx, DWORD PTR [ecx+4]
	mov	eax, DWORD PTR _this$[ebp]
	mov	DWORD PTR [eax+edx-8], OFFSET ??_7?$basic_ostream@DU?$char_traits@D@std@@@std@@6B@

; 80   : 		}

	pop	edi
	pop	esi
	pop	ebx
	mov	esp, ebp
	pop	ebp
	ret	0
??1?$basic_ostream@DU?$char_traits@D@std@@@std@@UAE@XZ ENDP ; std::basic_ostream<char,std::char_traits<char> >::~basic_ostream<char,std::char_traits<char> >
_TEXT	ENDS
PUBLIC	??_7?$basic_istream@DU?$char_traits@D@std@@@std@@6B@ ; std::basic_istream<char,std::char_traits<char> >::`vftable'
PUBLIC	??_R4?$basic_istream@DU?$char_traits@D@std@@@std@@6B@ ; std::basic_istream<char,std::char_traits<char> >::`RTTI Complete Object Locator'
EXTRN	??_E?$basic_istream@DU?$char_traits@D@std@@@std@@UAEPAXI@Z:PROC ; std::basic_istream<char,std::char_traits<char> >::`vector deleting destructor'
;	COMDAT ??_R4?$basic_istream@DU?$char_traits@D@std@@@std@@6B@
; File c:\program files (x86)\microsoft visual studio 10.0\vc\include\istream
rdata$r	SEGMENT
??_R4?$basic_istream@DU?$char_traits@D@std@@@std@@6B@ DD 00H ; std::basic_istream<char,std::char_traits<char> >::`RTTI Complete Object Locator'
	DD	010H
	DD	00H
	DD	FLAT:??_R0?AV?$basic_istream@DU?$char_traits@D@std@@@std@@@8
	DD	FLAT:??_R3?$basic_istream@DU?$char_traits@D@std@@@std@@8
rdata$r	ENDS
;	COMDAT ??_7?$basic_istream@DU?$char_traits@D@std@@@std@@6B@
CONST	SEGMENT
??_7?$basic_istream@DU?$char_traits@D@std@@@std@@6B@ DD FLAT:??_R4?$basic_istream@DU?$char_traits@D@std@@@std@@6B@ ; std::basic_istream<char,std::char_traits<char> >::`vftable'
	DD	FLAT:??_E?$basic_istream@DU?$char_traits@D@std@@@std@@UAEPAXI@Z
; Function compile flags: /Odtp /RTCsu /ZI
CONST	ENDS
;	COMDAT ??1?$basic_istream@DU?$char_traits@D@std@@@std@@UAE@XZ
_TEXT	SEGMENT
_this$ = -8						; size = 4
??1?$basic_istream@DU?$char_traits@D@std@@@std@@UAE@XZ PROC ; std::basic_istream<char,std::char_traits<char> >::~basic_istream<char,std::char_traits<char> >, COMDAT
; _this$ = ecx

; 63   : 		{	// destroy the object

	push	ebp
	mov	ebp, esp
	sub	esp, 204				; 000000ccH
	push	ebx
	push	esi
	push	edi
	push	ecx
	lea	edi, DWORD PTR [ebp-204]
	mov	ecx, 51					; 00000033H
	mov	eax, -858993460				; ccccccccH
	rep stosd
	pop	ecx
	mov	DWORD PTR _this$[ebp], ecx
	mov	eax, DWORD PTR _this$[ebp]
	mov	ecx, DWORD PTR [eax-16]
	mov	edx, DWORD PTR [ecx+4]
	mov	eax, DWORD PTR _this$[ebp]
	mov	DWORD PTR [eax+edx-16], OFFSET ??_7?$basic_istream@DU?$char_traits@D@std@@@std@@6B@

; 64   : 		}

	pop	edi
	pop	esi
	pop	ebx
	mov	esp, ebp
	pop	ebp
	ret	0
??1?$basic_istream@DU?$char_traits@D@std@@@std@@UAE@XZ ENDP ; std::basic_istream<char,std::char_traits<char> >::~basic_istream<char,std::char_traits<char> >
_TEXT	ENDS
PUBLIC	??1?$basic_streambuf@DU?$char_traits@D@std@@@std@@UAE@XZ ; std::basic_streambuf<char,std::char_traits<char> >::~basic_streambuf<char,std::char_traits<char> >
PUBLIC	?_Reset_back@?$basic_filebuf@DU?$char_traits@D@std@@@std@@AAEXXZ ; std::basic_filebuf<char,std::char_traits<char> >::_Reset_back
PUBLIC	??_7?$basic_filebuf@DU?$char_traits@D@std@@@std@@6B@ ; std::basic_filebuf<char,std::char_traits<char> >::`vftable'
PUBLIC	??_R4?$basic_filebuf@DU?$char_traits@D@std@@@std@@6B@ ; std::basic_filebuf<char,std::char_traits<char> >::`RTTI Complete Object Locator'
PUBLIC	??_R0?AV?$basic_filebuf@DU?$char_traits@D@std@@@std@@@8 ; std::basic_filebuf<char,std::char_traits<char> > `RTTI Type Descriptor'
PUBLIC	??_R3?$basic_filebuf@DU?$char_traits@D@std@@@std@@8 ; std::basic_filebuf<char,std::char_traits<char> >::`RTTI Class Hierarchy Descriptor'
PUBLIC	??_R2?$basic_filebuf@DU?$char_traits@D@std@@@std@@8 ; std::basic_filebuf<char,std::char_traits<char> >::`RTTI Base Class Array'
PUBLIC	??_R1A@?0A@EA@?$basic_filebuf@DU?$char_traits@D@std@@@std@@8 ; std::basic_filebuf<char,std::char_traits<char> >::`RTTI Base Class Descriptor at (0,-1,0,64)'
PUBLIC	??_R1A@?0A@EA@?$basic_streambuf@DU?$char_traits@D@std@@@std@@8 ; std::basic_streambuf<char,std::char_traits<char> >::`RTTI Base Class Descriptor at (0,-1,0,64)'
PUBLIC	??_R0?AV?$basic_streambuf@DU?$char_traits@D@std@@@std@@@8 ; std::basic_streambuf<char,std::char_traits<char> > `RTTI Type Descriptor'
PUBLIC	??_R3?$basic_streambuf@DU?$char_traits@D@std@@@std@@8 ; std::basic_streambuf<char,std::char_traits<char> >::`RTTI Class Hierarchy Descriptor'
PUBLIC	??_R2?$basic_streambuf@DU?$char_traits@D@std@@@std@@8 ; std::basic_streambuf<char,std::char_traits<char> >::`RTTI Base Class Array'
PUBLIC	?_Lock@?$basic_filebuf@DU?$char_traits@D@std@@@std@@UAEXXZ ; std::basic_filebuf<char,std::char_traits<char> >::_Lock
PUBLIC	?_Unlock@?$basic_filebuf@DU?$char_traits@D@std@@@std@@UAEXXZ ; std::basic_filebuf<char,std::char_traits<char> >::_Unlock
PUBLIC	?overflow@?$basic_filebuf@DU?$char_traits@D@std@@@std@@MAEHH@Z ; std::basic_filebuf<char,std::char_traits<char> >::overflow
PUBLIC	?pbackfail@?$basic_filebuf@DU?$char_traits@D@std@@@std@@MAEHH@Z ; std::basic_filebuf<char,std::char_traits<char> >::pbackfail
PUBLIC	?showmanyc@?$basic_streambuf@DU?$char_traits@D@std@@@std@@MAE_JXZ ; std::basic_streambuf<char,std::char_traits<char> >::showmanyc
PUBLIC	?underflow@?$basic_filebuf@DU?$char_traits@D@std@@@std@@MAEHXZ ; std::basic_filebuf<char,std::char_traits<char> >::underflow
PUBLIC	?uflow@?$basic_filebuf@DU?$char_traits@D@std@@@std@@MAEHXZ ; std::basic_filebuf<char,std::char_traits<char> >::uflow
PUBLIC	?xsgetn@?$basic_streambuf@DU?$char_traits@D@std@@@std@@MAE_JPAD_J@Z ; std::basic_streambuf<char,std::char_traits<char> >::xsgetn
PUBLIC	?xsputn@?$basic_streambuf@DU?$char_traits@D@std@@@std@@MAE_JPBD_J@Z ; std::basic_streambuf<char,std::char_traits<char> >::xsputn
PUBLIC	?seekoff@?$basic_filebuf@DU?$char_traits@D@std@@@std@@MAE?AV?$fpos@H@2@_JHH@Z ; std::basic_filebuf<char,std::char_traits<char> >::seekoff
PUBLIC	?seekpos@?$basic_filebuf@DU?$char_traits@D@std@@@std@@MAE?AV?$fpos@H@2@V32@H@Z ; std::basic_filebuf<char,std::char_traits<char> >::seekpos
PUBLIC	?setbuf@?$basic_filebuf@DU?$char_traits@D@std@@@std@@MAEPAV?$basic_streambuf@DU?$char_traits@D@std@@@2@PAD_J@Z ; std::basic_filebuf<char,std::char_traits<char> >::setbuf
PUBLIC	?sync@?$basic_filebuf@DU?$char_traits@D@std@@@std@@MAEHXZ ; std::basic_filebuf<char,std::char_traits<char> >::sync
PUBLIC	?imbue@?$basic_filebuf@DU?$char_traits@D@std@@@std@@MAEXABVlocale@2@@Z ; std::basic_filebuf<char,std::char_traits<char> >::imbue
EXTRN	??_E?$basic_filebuf@DU?$char_traits@D@std@@@std@@UAEPAXI@Z:PROC ; std::basic_filebuf<char,std::char_traits<char> >::`vector deleting destructor'
;	COMDAT ??_R2?$basic_streambuf@DU?$char_traits@D@std@@@std@@8
; File c:\program files (x86)\microsoft visual studio 10.0\vc\include\fstream
rdata$r	SEGMENT
??_R2?$basic_streambuf@DU?$char_traits@D@std@@@std@@8 DD FLAT:??_R1A@?0A@EA@?$basic_streambuf@DU?$char_traits@D@std@@@std@@8 ; std::basic_streambuf<char,std::char_traits<char> >::`RTTI Base Class Array'
rdata$r	ENDS
;	COMDAT ??_R3?$basic_streambuf@DU?$char_traits@D@std@@@std@@8
rdata$r	SEGMENT
??_R3?$basic_streambuf@DU?$char_traits@D@std@@@std@@8 DD 00H ; std::basic_streambuf<char,std::char_traits<char> >::`RTTI Class Hierarchy Descriptor'
	DD	00H
	DD	01H
	DD	FLAT:??_R2?$basic_streambuf@DU?$char_traits@D@std@@@std@@8
rdata$r	ENDS
;	COMDAT ??_R0?AV?$basic_streambuf@DU?$char_traits@D@std@@@std@@@8
_DATA	SEGMENT
??_R0?AV?$basic_streambuf@DU?$char_traits@D@std@@@std@@@8 DD FLAT:??_7type_info@@6B@ ; std::basic_streambuf<char,std::char_traits<char> > `RTTI Type Descriptor'
	DD	00H
	DB	'.?AV?$basic_streambuf@DU?$char_traits@D@std@@@std@@', 00H
_DATA	ENDS
;	COMDAT ??_R1A@?0A@EA@?$basic_streambuf@DU?$char_traits@D@std@@@std@@8
rdata$r	SEGMENT
??_R1A@?0A@EA@?$basic_streambuf@DU?$char_traits@D@std@@@std@@8 DD FLAT:??_R0?AV?$basic_streambuf@DU?$char_traits@D@std@@@std@@@8 ; std::basic_streambuf<char,std::char_traits<char> >::`RTTI Base Class Descriptor at (0,-1,0,64)'
	DD	00H
	DD	00H
	DD	0ffffffffH
	DD	00H
	DD	040H
	DD	FLAT:??_R3?$basic_streambuf@DU?$char_traits@D@std@@@std@@8
rdata$r	ENDS
;	COMDAT ??_R1A@?0A@EA@?$basic_filebuf@DU?$char_traits@D@std@@@std@@8
rdata$r	SEGMENT
??_R1A@?0A@EA@?$basic_filebuf@DU?$char_traits@D@std@@@std@@8 DD FLAT:??_R0?AV?$basic_filebuf@DU?$char_traits@D@std@@@std@@@8 ; std::basic_filebuf<char,std::char_traits<char> >::`RTTI Base Class Descriptor at (0,-1,0,64)'
	DD	01H
	DD	00H
	DD	0ffffffffH
	DD	00H
	DD	040H
	DD	FLAT:??_R3?$basic_filebuf@DU?$char_traits@D@std@@@std@@8
rdata$r	ENDS
;	COMDAT ??_R2?$basic_filebuf@DU?$char_traits@D@std@@@std@@8
rdata$r	SEGMENT
??_R2?$basic_filebuf@DU?$char_traits@D@std@@@std@@8 DD FLAT:??_R1A@?0A@EA@?$basic_filebuf@DU?$char_traits@D@std@@@std@@8 ; std::basic_filebuf<char,std::char_traits<char> >::`RTTI Base Class Array'
	DD	FLAT:??_R1A@?0A@EA@?$basic_streambuf@DU?$char_traits@D@std@@@std@@8
rdata$r	ENDS
;	COMDAT ??_R3?$basic_filebuf@DU?$char_traits@D@std@@@std@@8
rdata$r	SEGMENT
??_R3?$basic_filebuf@DU?$char_traits@D@std@@@std@@8 DD 00H ; std::basic_filebuf<char,std::char_traits<char> >::`RTTI Class Hierarchy Descriptor'
	DD	00H
	DD	02H
	DD	FLAT:??_R2?$basic_filebuf@DU?$char_traits@D@std@@@std@@8
rdata$r	ENDS
;	COMDAT ??_R0?AV?$basic_filebuf@DU?$char_traits@D@std@@@std@@@8
_DATA	SEGMENT
??_R0?AV?$basic_filebuf@DU?$char_traits@D@std@@@std@@@8 DD FLAT:??_7type_info@@6B@ ; std::basic_filebuf<char,std::char_traits<char> > `RTTI Type Descriptor'
	DD	00H
	DB	'.?AV?$basic_filebuf@DU?$char_traits@D@std@@@std@@', 00H
_DATA	ENDS
;	COMDAT ??_R4?$basic_filebuf@DU?$char_traits@D@std@@@std@@6B@
rdata$r	SEGMENT
??_R4?$basic_filebuf@DU?$char_traits@D@std@@@std@@6B@ DD 00H ; std::basic_filebuf<char,std::char_traits<char> >::`RTTI Complete Object Locator'
	DD	00H
	DD	00H
	DD	FLAT:??_R0?AV?$basic_filebuf@DU?$char_traits@D@std@@@std@@@8
	DD	FLAT:??_R3?$basic_filebuf@DU?$char_traits@D@std@@@std@@8
rdata$r	ENDS
;	COMDAT ??_7?$basic_filebuf@DU?$char_traits@D@std@@@std@@6B@
CONST	SEGMENT
??_7?$basic_filebuf@DU?$char_traits@D@std@@@std@@6B@ DD FLAT:??_R4?$basic_filebuf@DU?$char_traits@D@std@@@std@@6B@ ; std::basic_filebuf<char,std::char_traits<char> >::`vftable'
	DD	FLAT:??_E?$basic_filebuf@DU?$char_traits@D@std@@@std@@UAEPAXI@Z
	DD	FLAT:?_Lock@?$basic_filebuf@DU?$char_traits@D@std@@@std@@UAEXXZ
	DD	FLAT:?_Unlock@?$basic_filebuf@DU?$char_traits@D@std@@@std@@UAEXXZ
	DD	FLAT:?overflow@?$basic_filebuf@DU?$char_traits@D@std@@@std@@MAEHH@Z
	DD	FLAT:?pbackfail@?$basic_filebuf@DU?$char_traits@D@std@@@std@@MAEHH@Z
	DD	FLAT:?showmanyc@?$basic_streambuf@DU?$char_traits@D@std@@@std@@MAE_JXZ
	DD	FLAT:?underflow@?$basic_filebuf@DU?$char_traits@D@std@@@std@@MAEHXZ
	DD	FLAT:?uflow@?$basic_filebuf@DU?$char_traits@D@std@@@std@@MAEHXZ
	DD	FLAT:?xsgetn@?$basic_streambuf@DU?$char_traits@D@std@@@std@@MAE_JPAD_J@Z
	DD	FLAT:?xsputn@?$basic_streambuf@DU?$char_traits@D@std@@@std@@MAE_JPBD_J@Z
	DD	FLAT:?seekoff@?$basic_filebuf@DU?$char_traits@D@std@@@std@@MAE?AV?$fpos@H@2@_JHH@Z
	DD	FLAT:?seekpos@?$basic_filebuf@DU?$char_traits@D@std@@@std@@MAE?AV?$fpos@H@2@V32@H@Z
	DD	FLAT:?setbuf@?$basic_filebuf@DU?$char_traits@D@std@@@std@@MAEPAV?$basic_streambuf@DU?$char_traits@D@std@@@2@PAD_J@Z
	DD	FLAT:?sync@?$basic_filebuf@DU?$char_traits@D@std@@@std@@MAEHXZ
	DD	FLAT:?imbue@?$basic_filebuf@DU?$char_traits@D@std@@@std@@MAEXABVlocale@2@@Z
CONST	ENDS
;	COMDAT xdata$x
xdata$x	SEGMENT
__unwindtable$??1?$basic_filebuf@DU?$char_traits@D@std@@@std@@UAE@XZ DD 0ffffffffH
	DD	FLAT:__unwindfunclet$??1?$basic_filebuf@DU?$char_traits@D@std@@@std@@UAE@XZ$0
__ehfuncinfo$??1?$basic_filebuf@DU?$char_traits@D@std@@@std@@UAE@XZ DD 019930522H
	DD	01H
	DD	FLAT:__unwindtable$??1?$basic_filebuf@DU?$char_traits@D@std@@@std@@UAE@XZ
	DD	2 DUP(00H)
	DD	2 DUP(00H)
	DD	00H
	DD	01H
; Function compile flags: /Odtp /RTCsu /ZI
xdata$x	ENDS
;	COMDAT ??1?$basic_filebuf@DU?$char_traits@D@std@@@std@@UAE@XZ
_TEXT	SEGMENT
_this$ = -20						; size = 4
__$EHRec$ = -12						; size = 12
??1?$basic_filebuf@DU?$char_traits@D@std@@@std@@UAE@XZ PROC ; std::basic_filebuf<char,std::char_traits<char> >::~basic_filebuf<char,std::char_traits<char> >, COMDAT
; _this$ = ecx

; 143  : 		{	// destroy the object

	push	ebp
	mov	ebp, esp
	push	-1
	push	__ehhandler$??1?$basic_filebuf@DU?$char_traits@D@std@@@std@@UAE@XZ
	mov	eax, DWORD PTR fs:0
	push	eax
	sub	esp, 204				; 000000ccH
	push	ebx
	push	esi
	push	edi
	push	ecx
	lea	edi, DWORD PTR [ebp-216]
	mov	ecx, 51					; 00000033H
	mov	eax, -858993460				; ccccccccH
	rep stosd
	pop	ecx
	mov	eax, DWORD PTR ___security_cookie
	xor	eax, ebp
	push	eax
	lea	eax, DWORD PTR __$EHRec$[ebp]
	mov	DWORD PTR fs:0, eax
	mov	DWORD PTR _this$[ebp], ecx
	mov	eax, DWORD PTR _this$[ebp]
	mov	DWORD PTR [eax], OFFSET ??_7?$basic_filebuf@DU?$char_traits@D@std@@@std@@6B@
	mov	DWORD PTR __$EHRec$[ebp+8], 0

; 144  : 		if (_Myfile != 0)

	mov	eax, DWORD PTR _this$[ebp]
	cmp	DWORD PTR [eax+84], 0
	je	SHORT $LN2@basic_file

; 145  : 			_Reset_back();	// revert from _Mychar buffer

	mov	ecx, DWORD PTR _this$[ebp]
	call	?_Reset_back@?$basic_filebuf@DU?$char_traits@D@std@@@std@@AAEXXZ ; std::basic_filebuf<char,std::char_traits<char> >::_Reset_back
$LN2@basic_file:

; 146  : 		if (_Closef)

	mov	eax, DWORD PTR _this$[ebp]
	movzx	ecx, BYTE PTR [eax+80]
	test	ecx, ecx
	je	SHORT $LN3@basic_file

; 147  : 			close();

	mov	ecx, DWORD PTR _this$[ebp]
	call	?close@?$basic_filebuf@DU?$char_traits@D@std@@@std@@QAEPAV12@XZ ; std::basic_filebuf<char,std::char_traits<char> >::close
$LN3@basic_file:

; 148  : 		}

	mov	DWORD PTR __$EHRec$[ebp+8], -1
	mov	ecx, DWORD PTR _this$[ebp]
	call	??1?$basic_streambuf@DU?$char_traits@D@std@@@std@@UAE@XZ ; std::basic_streambuf<char,std::char_traits<char> >::~basic_streambuf<char,std::char_traits<char> >
	mov	ecx, DWORD PTR __$EHRec$[ebp]
	mov	DWORD PTR fs:0, ecx
	pop	ecx
	pop	edi
	pop	esi
	pop	ebx
	add	esp, 216				; 000000d8H
	cmp	ebp, esp
	call	__RTC_CheckEsp
	mov	esp, ebp
	pop	ebp
	ret	0
_TEXT	ENDS
;	COMDAT text$x
text$x	SEGMENT
__unwindfunclet$??1?$basic_filebuf@DU?$char_traits@D@std@@@std@@UAE@XZ$0:
	mov	ecx, DWORD PTR _this$[ebp]
	jmp	??1?$basic_streambuf@DU?$char_traits@D@std@@@std@@UAE@XZ ; std::basic_streambuf<char,std::char_traits<char> >::~basic_streambuf<char,std::char_traits<char> >
__ehhandler$??1?$basic_filebuf@DU?$char_traits@D@std@@@std@@UAE@XZ:
	mov	edx, DWORD PTR [esp+8]
	lea	eax, DWORD PTR [edx+12]
	mov	ecx, DWORD PTR [edx-220]
	xor	ecx, eax
	call	@__security_check_cookie@4
	mov	eax, OFFSET __ehfuncinfo$??1?$basic_filebuf@DU?$char_traits@D@std@@@std@@UAE@XZ
	jmp	___CxxFrameHandler3
text$x	ENDS
??1?$basic_filebuf@DU?$char_traits@D@std@@@std@@UAE@XZ ENDP ; std::basic_filebuf<char,std::char_traits<char> >::~basic_filebuf<char,std::char_traits<char> >
PUBLIC	??$_DebugHeapDelete@Vlocale@std@@@std@@YAXPAVlocale@0@@Z ; std::_DebugHeapDelete<std::locale>
PUBLIC	??_7?$basic_streambuf@DU?$char_traits@D@std@@@std@@6B@ ; std::basic_streambuf<char,std::char_traits<char> >::`vftable'
PUBLIC	??_R4?$basic_streambuf@DU?$char_traits@D@std@@@std@@6B@ ; std::basic_streambuf<char,std::char_traits<char> >::`RTTI Complete Object Locator'
PUBLIC	?_Lock@?$basic_streambuf@DU?$char_traits@D@std@@@std@@UAEXXZ ; std::basic_streambuf<char,std::char_traits<char> >::_Lock
PUBLIC	?_Unlock@?$basic_streambuf@DU?$char_traits@D@std@@@std@@UAEXXZ ; std::basic_streambuf<char,std::char_traits<char> >::_Unlock
PUBLIC	?overflow@?$basic_streambuf@DU?$char_traits@D@std@@@std@@MAEHH@Z ; std::basic_streambuf<char,std::char_traits<char> >::overflow
PUBLIC	?pbackfail@?$basic_streambuf@DU?$char_traits@D@std@@@std@@MAEHH@Z ; std::basic_streambuf<char,std::char_traits<char> >::pbackfail
PUBLIC	?underflow@?$basic_streambuf@DU?$char_traits@D@std@@@std@@MAEHXZ ; std::basic_streambuf<char,std::char_traits<char> >::underflow
PUBLIC	?uflow@?$basic_streambuf@DU?$char_traits@D@std@@@std@@MAEHXZ ; std::basic_streambuf<char,std::char_traits<char> >::uflow
PUBLIC	?seekoff@?$basic_streambuf@DU?$char_traits@D@std@@@std@@MAE?AV?$fpos@H@2@_JHH@Z ; std::basic_streambuf<char,std::char_traits<char> >::seekoff
PUBLIC	?seekpos@?$basic_streambuf@DU?$char_traits@D@std@@@std@@MAE?AV?$fpos@H@2@V32@H@Z ; std::basic_streambuf<char,std::char_traits<char> >::seekpos
PUBLIC	?setbuf@?$basic_streambuf@DU?$char_traits@D@std@@@std@@MAEPAV12@PAD_J@Z ; std::basic_streambuf<char,std::char_traits<char> >::setbuf
PUBLIC	?sync@?$basic_streambuf@DU?$char_traits@D@std@@@std@@MAEHXZ ; std::basic_streambuf<char,std::char_traits<char> >::sync
PUBLIC	?imbue@?$basic_streambuf@DU?$char_traits@D@std@@@std@@MAEXABVlocale@2@@Z ; std::basic_streambuf<char,std::char_traits<char> >::imbue
EXTRN	??1_Mutex@std@@QAE@XZ:PROC			; std::_Mutex::~_Mutex
EXTRN	??_E?$basic_streambuf@DU?$char_traits@D@std@@@std@@UAEPAXI@Z:PROC ; std::basic_streambuf<char,std::char_traits<char> >::`vector deleting destructor'
;	COMDAT ??_R4?$basic_streambuf@DU?$char_traits@D@std@@@std@@6B@
; File c:\program files (x86)\microsoft visual studio 10.0\vc\include\streambuf
rdata$r	SEGMENT
??_R4?$basic_streambuf@DU?$char_traits@D@std@@@std@@6B@ DD 00H ; std::basic_streambuf<char,std::char_traits<char> >::`RTTI Complete Object Locator'
	DD	00H
	DD	00H
	DD	FLAT:??_R0?AV?$basic_streambuf@DU?$char_traits@D@std@@@std@@@8
	DD	FLAT:??_R3?$basic_streambuf@DU?$char_traits@D@std@@@std@@8
rdata$r	ENDS
;	COMDAT ??_7?$basic_streambuf@DU?$char_traits@D@std@@@std@@6B@
CONST	SEGMENT
??_7?$basic_streambuf@DU?$char_traits@D@std@@@std@@6B@ DD FLAT:??_R4?$basic_streambuf@DU?$char_traits@D@std@@@std@@6B@ ; std::basic_streambuf<char,std::char_traits<char> >::`vftable'
	DD	FLAT:??_E?$basic_streambuf@DU?$char_traits@D@std@@@std@@UAEPAXI@Z
	DD	FLAT:?_Lock@?$basic_streambuf@DU?$char_traits@D@std@@@std@@UAEXXZ
	DD	FLAT:?_Unlock@?$basic_streambuf@DU?$char_traits@D@std@@@std@@UAEXXZ
	DD	FLAT:?overflow@?$basic_streambuf@DU?$char_traits@D@std@@@std@@MAEHH@Z
	DD	FLAT:?pbackfail@?$basic_streambuf@DU?$char_traits@D@std@@@std@@MAEHH@Z
	DD	FLAT:?showmanyc@?$basic_streambuf@DU?$char_traits@D@std@@@std@@MAE_JXZ
	DD	FLAT:?underflow@?$basic_streambuf@DU?$char_traits@D@std@@@std@@MAEHXZ
	DD	FLAT:?uflow@?$basic_streambuf@DU?$char_traits@D@std@@@std@@MAEHXZ
	DD	FLAT:?xsgetn@?$basic_streambuf@DU?$char_traits@D@std@@@std@@MAE_JPAD_J@Z
	DD	FLAT:?xsputn@?$basic_streambuf@DU?$char_traits@D@std@@@std@@MAE_JPBD_J@Z
	DD	FLAT:?seekoff@?$basic_streambuf@DU?$char_traits@D@std@@@std@@MAE?AV?$fpos@H@2@_JHH@Z
	DD	FLAT:?seekpos@?$basic_streambuf@DU?$char_traits@D@std@@@std@@MAE?AV?$fpos@H@2@V32@H@Z
	DD	FLAT:?setbuf@?$basic_streambuf@DU?$char_traits@D@std@@@std@@MAEPAV12@PAD_J@Z
	DD	FLAT:?sync@?$basic_streambuf@DU?$char_traits@D@std@@@std@@MAEHXZ
	DD	FLAT:?imbue@?$basic_streambuf@DU?$char_traits@D@std@@@std@@MAEXABVlocale@2@@Z
CONST	ENDS
;	COMDAT xdata$x
xdata$x	SEGMENT
__unwindtable$??1?$basic_streambuf@DU?$char_traits@D@std@@@std@@UAE@XZ DD 0ffffffffH
	DD	FLAT:__unwindfunclet$??1?$basic_streambuf@DU?$char_traits@D@std@@@std@@UAE@XZ$0
__ehfuncinfo$??1?$basic_streambuf@DU?$char_traits@D@std@@@std@@UAE@XZ DD 019930522H
	DD	01H
	DD	FLAT:__unwindtable$??1?$basic_streambuf@DU?$char_traits@D@std@@@std@@UAE@XZ
	DD	2 DUP(00H)
	DD	2 DUP(00H)
	DD	00H
	DD	01H
; Function compile flags: /Odtp /RTCsu /ZI
xdata$x	ENDS
;	COMDAT ??1?$basic_streambuf@DU?$char_traits@D@std@@@std@@UAE@XZ
_TEXT	SEGMENT
_this$ = -20						; size = 4
__$EHRec$ = -12						; size = 12
??1?$basic_streambuf@DU?$char_traits@D@std@@@std@@UAE@XZ PROC ; std::basic_streambuf<char,std::char_traits<char> >::~basic_streambuf<char,std::char_traits<char> >, COMDAT
; _this$ = ecx

; 79   : 		{	// destroy the object

	push	ebp
	mov	ebp, esp
	push	-1
	push	__ehhandler$??1?$basic_streambuf@DU?$char_traits@D@std@@@std@@UAE@XZ
	mov	eax, DWORD PTR fs:0
	push	eax
	sub	esp, 204				; 000000ccH
	push	ebx
	push	esi
	push	edi
	push	ecx
	lea	edi, DWORD PTR [ebp-216]
	mov	ecx, 51					; 00000033H
	mov	eax, -858993460				; ccccccccH
	rep stosd
	pop	ecx
	mov	eax, DWORD PTR ___security_cookie
	xor	eax, ebp
	push	eax
	lea	eax, DWORD PTR __$EHRec$[ebp]
	mov	DWORD PTR fs:0, eax
	mov	DWORD PTR _this$[ebp], ecx
	mov	eax, DWORD PTR _this$[ebp]
	mov	DWORD PTR [eax], OFFSET ??_7?$basic_streambuf@DU?$char_traits@D@std@@@std@@6B@
	mov	DWORD PTR __$EHRec$[ebp+8], 0

; 80   : 		_DELETE_CRT(_Plocale);

	mov	eax, DWORD PTR _this$[ebp]
	mov	ecx, DWORD PTR [eax+56]
	push	ecx
	call	??$_DebugHeapDelete@Vlocale@std@@@std@@YAXPAVlocale@0@@Z ; std::_DebugHeapDelete<std::locale>
	add	esp, 4

; 81   : 		}

	mov	DWORD PTR __$EHRec$[ebp+8], -1
	mov	ecx, DWORD PTR _this$[ebp]
	add	ecx, 4
	call	??1_Mutex@std@@QAE@XZ			; std::_Mutex::~_Mutex
	mov	ecx, DWORD PTR __$EHRec$[ebp]
	mov	DWORD PTR fs:0, ecx
	pop	ecx
	pop	edi
	pop	esi
	pop	ebx
	add	esp, 216				; 000000d8H
	cmp	ebp, esp
	call	__RTC_CheckEsp
	mov	esp, ebp
	pop	ebp
	ret	0
_TEXT	ENDS
;	COMDAT text$x
text$x	SEGMENT
__unwindfunclet$??1?$basic_streambuf@DU?$char_traits@D@std@@@std@@UAE@XZ$0:
	mov	ecx, DWORD PTR _this$[ebp]
	add	ecx, 4
	jmp	??1_Mutex@std@@QAE@XZ			; std::_Mutex::~_Mutex
__ehhandler$??1?$basic_streambuf@DU?$char_traits@D@std@@@std@@UAE@XZ:
	mov	edx, DWORD PTR [esp+8]
	lea	eax, DWORD PTR [edx+12]
	mov	ecx, DWORD PTR [edx-220]
	xor	ecx, eax
	call	@__security_check_cookie@4
	mov	eax, OFFSET __ehfuncinfo$??1?$basic_streambuf@DU?$char_traits@D@std@@@std@@UAE@XZ
	jmp	___CxxFrameHandler3
text$x	ENDS
??1?$basic_streambuf@DU?$char_traits@D@std@@@std@@UAE@XZ ENDP ; std::basic_streambuf<char,std::char_traits<char> >::~basic_streambuf<char,std::char_traits<char> >
EXTRN	?_Lock@_Mutex@std@@QAEXXZ:PROC			; std::_Mutex::_Lock
; Function compile flags: /Odtp /RTCsu /ZI
;	COMDAT ?_Lock@?$basic_streambuf@DU?$char_traits@D@std@@@std@@UAEXXZ
_TEXT	SEGMENT
_this$ = -8						; size = 4
?_Lock@?$basic_streambuf@DU?$char_traits@D@std@@@std@@UAEXXZ PROC ; std::basic_streambuf<char,std::char_traits<char> >::_Lock, COMDAT
; _this$ = ecx

; 206  : 		{	// set the thread lock

	push	ebp
	mov	ebp, esp
	sub	esp, 204				; 000000ccH
	push	ebx
	push	esi
	push	edi
	push	ecx
	lea	edi, DWORD PTR [ebp-204]
	mov	ecx, 51					; 00000033H
	mov	eax, -858993460				; ccccccccH
	rep stosd
	pop	ecx
	mov	DWORD PTR _this$[ebp], ecx

; 207  : 		_Mylock._Lock();

	mov	ecx, DWORD PTR _this$[ebp]
	add	ecx, 4
	call	?_Lock@_Mutex@std@@QAEXXZ		; std::_Mutex::_Lock

; 208  : 		}

	pop	edi
	pop	esi
	pop	ebx
	add	esp, 204				; 000000ccH
	cmp	ebp, esp
	call	__RTC_CheckEsp
	mov	esp, ebp
	pop	ebp
	ret	0
?_Lock@?$basic_streambuf@DU?$char_traits@D@std@@@std@@UAEXXZ ENDP ; std::basic_streambuf<char,std::char_traits<char> >::_Lock
_TEXT	ENDS
EXTRN	?_Unlock@_Mutex@std@@QAEXXZ:PROC		; std::_Mutex::_Unlock
; Function compile flags: /Odtp /RTCsu /ZI
;	COMDAT ?_Unlock@?$basic_streambuf@DU?$char_traits@D@std@@@std@@UAEXXZ
_TEXT	SEGMENT
_this$ = -8						; size = 4
?_Unlock@?$basic_streambuf@DU?$char_traits@D@std@@@std@@UAEXXZ PROC ; std::basic_streambuf<char,std::char_traits<char> >::_Unlock, COMDAT
; _this$ = ecx

; 211  : 		{	// clear the thread lock

	push	ebp
	mov	ebp, esp
	sub	esp, 204				; 000000ccH
	push	ebx
	push	esi
	push	edi
	push	ecx
	lea	edi, DWORD PTR [ebp-204]
	mov	ecx, 51					; 00000033H
	mov	eax, -858993460				; ccccccccH
	rep stosd
	pop	ecx
	mov	DWORD PTR _this$[ebp], ecx

; 212  : 		_Mylock._Unlock();

	mov	ecx, DWORD PTR _this$[ebp]
	add	ecx, 4
	call	?_Unlock@_Mutex@std@@QAEXXZ		; std::_Mutex::_Unlock

; 213  : 		}

	pop	edi
	pop	esi
	pop	ebx
	add	esp, 204				; 000000ccH
	cmp	ebp, esp
	call	__RTC_CheckEsp
	mov	esp, ebp
	pop	ebp
	ret	0
?_Unlock@?$basic_streambuf@DU?$char_traits@D@std@@@std@@UAEXXZ ENDP ; std::basic_streambuf<char,std::char_traits<char> >::_Unlock
_TEXT	ENDS
PUBLIC	?eof@?$char_traits@D@std@@SAHXZ			; std::char_traits<char>::eof
; Function compile flags: /Odtp /RTCsu /ZI
;	COMDAT ?overflow@?$basic_streambuf@DU?$char_traits@D@std@@@std@@MAEHH@Z
_TEXT	SEGMENT
_this$ = -8						; size = 4
___formal$ = 8						; size = 4
?overflow@?$basic_streambuf@DU?$char_traits@D@std@@@std@@MAEHH@Z PROC ; std::basic_streambuf<char,std::char_traits<char> >::overflow, COMDAT
; _this$ = ecx

; 337  : 		{	// put a character to stream (always fail)

	push	ebp
	mov	ebp, esp
	sub	esp, 204				; 000000ccH
	push	ebx
	push	esi
	push	edi
	push	ecx
	lea	edi, DWORD PTR [ebp-204]
	mov	ecx, 51					; 00000033H
	mov	eax, -858993460				; ccccccccH
	rep stosd
	pop	ecx
	mov	DWORD PTR _this$[ebp], ecx

; 338  : 		return (_Traits::eof());

	call	?eof@?$char_traits@D@std@@SAHXZ		; std::char_traits<char>::eof

; 339  : 		}

	pop	edi
	pop	esi
	pop	ebx
	add	esp, 204				; 000000ccH
	cmp	ebp, esp
	call	__RTC_CheckEsp
	mov	esp, ebp
	pop	ebp
	ret	4
?overflow@?$basic_streambuf@DU?$char_traits@D@std@@@std@@MAEHH@Z ENDP ; std::basic_streambuf<char,std::char_traits<char> >::overflow
; Function compile flags: /Odtp /RTCsu /ZI
; File c:\program files (x86)\microsoft visual studio 10.0\vc\include\iosfwd
_TEXT	ENDS
;	COMDAT ?eof@?$char_traits@D@std@@SAHXZ
_TEXT	SEGMENT
?eof@?$char_traits@D@std@@SAHXZ PROC			; std::char_traits<char>::eof, COMDAT

; 562  : 		{	// return end-of-file metacharacter

	push	ebp
	mov	ebp, esp
	sub	esp, 192				; 000000c0H
	push	ebx
	push	esi
	push	edi
	lea	edi, DWORD PTR [ebp-192]
	mov	ecx, 48					; 00000030H
	mov	eax, -858993460				; ccccccccH
	rep stosd

; 563  : 		return (EOF);

	or	eax, -1

; 564  : 		}

	pop	edi
	pop	esi
	pop	ebx
	mov	esp, ebp
	pop	ebp
	ret	0
?eof@?$char_traits@D@std@@SAHXZ ENDP			; std::char_traits<char>::eof
; Function compile flags: /Odtp /RTCsu /ZI
; File c:\program files (x86)\microsoft visual studio 10.0\vc\include\streambuf
_TEXT	ENDS
;	COMDAT ?pbackfail@?$basic_streambuf@DU?$char_traits@D@std@@@std@@MAEHH@Z
_TEXT	SEGMENT
_this$ = -8						; size = 4
___formal$ = 8						; size = 4
?pbackfail@?$basic_streambuf@DU?$char_traits@D@std@@@std@@MAEHH@Z PROC ; std::basic_streambuf<char,std::char_traits<char> >::pbackfail, COMDAT
; _this$ = ecx

; 342  : 		{	// put a character back to stream (always fail)

	push	ebp
	mov	ebp, esp
	sub	esp, 204				; 000000ccH
	push	ebx
	push	esi
	push	edi
	push	ecx
	lea	edi, DWORD PTR [ebp-204]
	mov	ecx, 51					; 00000033H
	mov	eax, -858993460				; ccccccccH
	rep stosd
	pop	ecx
	mov	DWORD PTR _this$[ebp], ecx

; 343  : 		return (_Traits::eof());

	call	?eof@?$char_traits@D@std@@SAHXZ		; std::char_traits<char>::eof

; 344  : 		}

	pop	edi
	pop	esi
	pop	ebx
	add	esp, 204				; 000000ccH
	cmp	ebp, esp
	call	__RTC_CheckEsp
	mov	esp, ebp
	pop	ebp
	ret	4
?pbackfail@?$basic_streambuf@DU?$char_traits@D@std@@@std@@MAEHH@Z ENDP ; std::basic_streambuf<char,std::char_traits<char> >::pbackfail
; Function compile flags: /Odtp /RTCsu /ZI
_TEXT	ENDS
;	COMDAT ?showmanyc@?$basic_streambuf@DU?$char_traits@D@std@@@std@@MAE_JXZ
_TEXT	SEGMENT
_this$ = -8						; size = 4
?showmanyc@?$basic_streambuf@DU?$char_traits@D@std@@@std@@MAE_JXZ PROC ; std::basic_streambuf<char,std::char_traits<char> >::showmanyc, COMDAT
; _this$ = ecx

; 347  : 		{	// return count of input characters

	push	ebp
	mov	ebp, esp
	sub	esp, 204				; 000000ccH
	push	ebx
	push	esi
	push	edi
	push	ecx
	lea	edi, DWORD PTR [ebp-204]
	mov	ecx, 51					; 00000033H
	mov	eax, -858993460				; ccccccccH
	rep stosd
	pop	ecx
	mov	DWORD PTR _this$[ebp], ecx

; 348  : 		return (0);

	xor	eax, eax
	xor	edx, edx

; 349  : 		}

	pop	edi
	pop	esi
	pop	ebx
	mov	esp, ebp
	pop	ebp
	ret	0
?showmanyc@?$basic_streambuf@DU?$char_traits@D@std@@@std@@MAE_JXZ ENDP ; std::basic_streambuf<char,std::char_traits<char> >::showmanyc
; Function compile flags: /Odtp /RTCsu /ZI
_TEXT	ENDS
;	COMDAT ?underflow@?$basic_streambuf@DU?$char_traits@D@std@@@std@@MAEHXZ
_TEXT	SEGMENT
_this$ = -8						; size = 4
?underflow@?$basic_streambuf@DU?$char_traits@D@std@@@std@@MAEHXZ PROC ; std::basic_streambuf<char,std::char_traits<char> >::underflow, COMDAT
; _this$ = ecx

; 352  : 		{	// get a character from stream, but don't point past it

	push	ebp
	mov	ebp, esp
	sub	esp, 204				; 000000ccH
	push	ebx
	push	esi
	push	edi
	push	ecx
	lea	edi, DWORD PTR [ebp-204]
	mov	ecx, 51					; 00000033H
	mov	eax, -858993460				; ccccccccH
	rep stosd
	pop	ecx
	mov	DWORD PTR _this$[ebp], ecx

; 353  : 		return (_Traits::eof());

	call	?eof@?$char_traits@D@std@@SAHXZ		; std::char_traits<char>::eof

; 354  : 		}

	pop	edi
	pop	esi
	pop	ebx
	add	esp, 204				; 000000ccH
	cmp	ebp, esp
	call	__RTC_CheckEsp
	mov	esp, ebp
	pop	ebp
	ret	0
?underflow@?$basic_streambuf@DU?$char_traits@D@std@@@std@@MAEHXZ ENDP ; std::basic_streambuf<char,std::char_traits<char> >::underflow
_TEXT	ENDS
PUBLIC	?to_int_type@?$char_traits@D@std@@SAHABD@Z	; std::char_traits<char>::to_int_type
PUBLIC	?_Gninc@?$basic_streambuf@DU?$char_traits@D@std@@@std@@IAEPADXZ ; std::basic_streambuf<char,std::char_traits<char> >::_Gninc
PUBLIC	?eq_int_type@?$char_traits@D@std@@SA_NABH0@Z	; std::char_traits<char>::eq_int_type
; Function compile flags: /Odtp /RTCsu /ZI
;	COMDAT ?uflow@?$basic_streambuf@DU?$char_traits@D@std@@@std@@MAEHXZ
_TEXT	SEGMENT
tv79 = -232						; size = 4
$T36914 = -224						; size = 4
$T36915 = -212						; size = 4
_this$ = -8						; size = 4
?uflow@?$basic_streambuf@DU?$char_traits@D@std@@@std@@MAEHXZ PROC ; std::basic_streambuf<char,std::char_traits<char> >::uflow, COMDAT
; _this$ = ecx

; 357  : 		{	// get a character from stream, point past it

	push	ebp
	mov	ebp, esp
	sub	esp, 232				; 000000e8H
	push	ebx
	push	esi
	push	edi
	push	ecx
	lea	edi, DWORD PTR [ebp-232]
	mov	ecx, 58					; 0000003aH
	mov	eax, -858993460				; ccccccccH
	rep stosd
	pop	ecx
	mov	DWORD PTR _this$[ebp], ecx

; 358  : 		return (_Traits::eq_int_type(_Traits::eof(), underflow())
; 359  : 			? _Traits::eof() : _Traits::to_int_type(*_Gninc()));

	mov	eax, DWORD PTR _this$[ebp]
	mov	edx, DWORD PTR [eax]
	mov	esi, esp
	mov	ecx, DWORD PTR _this$[ebp]
	mov	eax, DWORD PTR [edx+24]
	call	eax
	cmp	esi, esp
	call	__RTC_CheckEsp
	mov	DWORD PTR $T36914[ebp], eax
	call	?eof@?$char_traits@D@std@@SAHXZ		; std::char_traits<char>::eof
	mov	DWORD PTR $T36915[ebp], eax
	lea	ecx, DWORD PTR $T36914[ebp]
	push	ecx
	lea	edx, DWORD PTR $T36915[ebp]
	push	edx
	call	?eq_int_type@?$char_traits@D@std@@SA_NABH0@Z ; std::char_traits<char>::eq_int_type
	add	esp, 8
	movzx	eax, al
	test	eax, eax
	je	SHORT $LN3@uflow
	call	?eof@?$char_traits@D@std@@SAHXZ		; std::char_traits<char>::eof
	mov	DWORD PTR tv79[ebp], eax
	jmp	SHORT $LN4@uflow
$LN3@uflow:
	mov	ecx, DWORD PTR _this$[ebp]
	call	?_Gninc@?$basic_streambuf@DU?$char_traits@D@std@@@std@@IAEPADXZ ; std::basic_streambuf<char,std::char_traits<char> >::_Gninc
	push	eax
	call	?to_int_type@?$char_traits@D@std@@SAHABD@Z ; std::char_traits<char>::to_int_type
	add	esp, 4
	mov	DWORD PTR tv79[ebp], eax
$LN4@uflow:
	mov	eax, DWORD PTR tv79[ebp]

; 360  : 		}

	pop	edi
	pop	esi
	pop	ebx
	add	esp, 232				; 000000e8H
	cmp	ebp, esp
	call	__RTC_CheckEsp
	mov	esp, ebp
	pop	ebp
	ret	0
?uflow@?$basic_streambuf@DU?$char_traits@D@std@@@std@@MAEHXZ ENDP ; std::basic_streambuf<char,std::char_traits<char> >::uflow
; Function compile flags: /Odtp /RTCsu /ZI
; File c:\program files (x86)\microsoft visual studio 10.0\vc\include\iosfwd
_TEXT	ENDS
;	COMDAT ?to_int_type@?$char_traits@D@std@@SAHABD@Z
_TEXT	SEGMENT
__Ch$ = 8						; size = 4
?to_int_type@?$char_traits@D@std@@SAHABD@Z PROC		; std::char_traits<char>::to_int_type, COMDAT

; 546  : 		{	// convert character to metacharacter

	push	ebp
	mov	ebp, esp
	sub	esp, 192				; 000000c0H
	push	ebx
	push	esi
	push	edi
	lea	edi, DWORD PTR [ebp-192]
	mov	ecx, 48					; 00000030H
	mov	eax, -858993460				; ccccccccH
	rep stosd

; 547  : 		return ((unsigned char)_Ch);

	mov	eax, DWORD PTR __Ch$[ebp]
	movzx	eax, BYTE PTR [eax]

; 548  : 		}

	pop	edi
	pop	esi
	pop	ebx
	mov	esp, ebp
	pop	ebp
	ret	0
?to_int_type@?$char_traits@D@std@@SAHABD@Z ENDP		; std::char_traits<char>::to_int_type
; Function compile flags: /Odtp /RTCsu /ZI
_TEXT	ENDS
;	COMDAT ?eq_int_type@?$char_traits@D@std@@SA_NABH0@Z
_TEXT	SEGMENT
__Left$ = 8						; size = 4
__Right$ = 12						; size = 4
?eq_int_type@?$char_traits@D@std@@SA_NABH0@Z PROC	; std::char_traits<char>::eq_int_type, COMDAT

; 552  : 		{	// test for metacharacter equality

	push	ebp
	mov	ebp, esp
	sub	esp, 192				; 000000c0H
	push	ebx
	push	esi
	push	edi
	lea	edi, DWORD PTR [ebp-192]
	mov	ecx, 48					; 00000030H
	mov	eax, -858993460				; ccccccccH
	rep stosd

; 553  : 		return (_Left == _Right);

	mov	eax, DWORD PTR __Left$[ebp]
	mov	ecx, DWORD PTR __Right$[ebp]
	mov	edx, DWORD PTR [eax]
	xor	eax, eax
	cmp	edx, DWORD PTR [ecx]
	sete	al

; 554  : 		}

	pop	edi
	pop	esi
	pop	ebx
	mov	esp, ebp
	pop	ebp
	ret	0
?eq_int_type@?$char_traits@D@std@@SA_NABH0@Z ENDP	; std::char_traits<char>::eq_int_type
_TEXT	ENDS
PUBLIC	?to_char_type@?$char_traits@D@std@@SADABH@Z	; std::char_traits<char>::to_char_type
PUBLIC	?gbump@?$basic_streambuf@DU?$char_traits@D@std@@@std@@IAEXH@Z ; std::basic_streambuf<char,std::char_traits<char> >::gbump
PUBLIC	?copy@?$char_traits@D@std@@SAPADPADPBDI@Z	; std::char_traits<char>::copy
PUBLIC	?gptr@?$basic_streambuf@DU?$char_traits@D@std@@@std@@IBEPADXZ ; std::basic_streambuf<char,std::char_traits<char> >::gptr
PUBLIC	?_Gnavail@?$basic_streambuf@DU?$char_traits@D@std@@@std@@IBE_JXZ ; std::basic_streambuf<char,std::char_traits<char> >::_Gnavail
; Function compile flags: /Odtp /RTCsu /ZI
; File c:\program files (x86)\microsoft visual studio 10.0\vc\include\streambuf
;	COMDAT ?xsgetn@?$basic_streambuf@DU?$char_traits@D@std@@@std@@MAE_JPAD_J@Z
_TEXT	SEGMENT
$T36924 = -256						; size = 4
__Copied$ = -52						; size = 8
__Size$ = -36						; size = 8
__Meta$ = -20						; size = 4
_this$ = -8						; size = 4
__Ptr$ = 8						; size = 4
__Count$ = 12						; size = 8
?xsgetn@?$basic_streambuf@DU?$char_traits@D@std@@@std@@MAE_JPAD_J@Z PROC ; std::basic_streambuf<char,std::char_traits<char> >::xsgetn, COMDAT
; _this$ = ecx

; 364  : 		{	// get _Count characters from stream

	push	ebp
	mov	ebp, esp
	sub	esp, 260				; 00000104H
	push	ebx
	push	esi
	push	edi
	push	ecx
	lea	edi, DWORD PTR [ebp-260]
	mov	ecx, 65					; 00000041H
	mov	eax, -858993460				; ccccccccH
	rep stosd
	pop	ecx
	mov	DWORD PTR _this$[ebp], ecx

; 365  : 		int_type _Meta;
; 366  : 		streamsize _Size, _Copied;
; 367  : 
; 368  : 		for (_Copied = 0; 0 < _Count; )

	mov	DWORD PTR __Copied$[ebp], 0
	mov	DWORD PTR __Copied$[ebp+4], 0
$LN7@xsgetn:
	cmp	DWORD PTR __Count$[ebp+4], 0
	jl	$LN6@xsgetn
	jg	SHORT $LN10@xsgetn
	cmp	DWORD PTR __Count$[ebp], 0
	jbe	$LN6@xsgetn
$LN10@xsgetn:

; 369  : 			if (0 < (_Size = _Gnavail()))

	mov	ecx, DWORD PTR _this$[ebp]
	call	?_Gnavail@?$basic_streambuf@DU?$char_traits@D@std@@@std@@IBE_JXZ ; std::basic_streambuf<char,std::char_traits<char> >::_Gnavail
	mov	DWORD PTR __Size$[ebp], eax
	mov	DWORD PTR __Size$[ebp+4], edx
	cmp	DWORD PTR __Size$[ebp+4], 0
	jl	SHORT $LN5@xsgetn
	jg	SHORT $LN11@xsgetn
	cmp	DWORD PTR __Size$[ebp], 0
	jbe	SHORT $LN5@xsgetn
$LN11@xsgetn:

; 370  : 				{	// copy from read buffer
; 371  : 				if (_Count < _Size)

	mov	eax, DWORD PTR __Count$[ebp+4]
	cmp	eax, DWORD PTR __Size$[ebp+4]
	jg	SHORT $LN4@xsgetn
	jl	SHORT $LN12@xsgetn
	mov	ecx, DWORD PTR __Count$[ebp]
	cmp	ecx, DWORD PTR __Size$[ebp]
	jae	SHORT $LN4@xsgetn
$LN12@xsgetn:

; 372  : 					_Size = _Count;

	mov	eax, DWORD PTR __Count$[ebp]
	mov	DWORD PTR __Size$[ebp], eax
	mov	ecx, DWORD PTR __Count$[ebp+4]
	mov	DWORD PTR __Size$[ebp+4], ecx
$LN4@xsgetn:

; 373  : 				_Traits::copy(_Ptr, gptr(), (size_t)_Size);

	mov	eax, DWORD PTR __Size$[ebp]
	push	eax
	mov	ecx, DWORD PTR _this$[ebp]
	call	?gptr@?$basic_streambuf@DU?$char_traits@D@std@@@std@@IBEPADXZ ; std::basic_streambuf<char,std::char_traits<char> >::gptr
	push	eax
	mov	ecx, DWORD PTR __Ptr$[ebp]
	push	ecx
	call	?copy@?$char_traits@D@std@@SAPADPADPBDI@Z ; std::char_traits<char>::copy
	add	esp, 12					; 0000000cH

; 374  : 				_Ptr += _Size;

	mov	eax, DWORD PTR __Size$[ebp]
	add	eax, DWORD PTR __Ptr$[ebp]
	mov	DWORD PTR __Ptr$[ebp], eax

; 375  : 				_Copied += _Size;

	mov	eax, DWORD PTR __Copied$[ebp]
	add	eax, DWORD PTR __Size$[ebp]
	mov	ecx, DWORD PTR __Copied$[ebp+4]
	adc	ecx, DWORD PTR __Size$[ebp+4]
	mov	DWORD PTR __Copied$[ebp], eax
	mov	DWORD PTR __Copied$[ebp+4], ecx

; 376  : 				_Count -= _Size;

	mov	eax, DWORD PTR __Count$[ebp]
	sub	eax, DWORD PTR __Size$[ebp]
	mov	ecx, DWORD PTR __Count$[ebp+4]
	sbb	ecx, DWORD PTR __Size$[ebp+4]
	mov	DWORD PTR __Count$[ebp], eax
	mov	DWORD PTR __Count$[ebp+4], ecx

; 377  : 				gbump((int)_Size);

	mov	eax, DWORD PTR __Size$[ebp]
	push	eax
	mov	ecx, DWORD PTR _this$[ebp]
	call	?gbump@?$basic_streambuf@DU?$char_traits@D@std@@@std@@IAEXH@Z ; std::basic_streambuf<char,std::char_traits<char> >::gbump
	jmp	$LN3@xsgetn
$LN5@xsgetn:

; 378  : 				}
; 379  : 			else if (_Traits::eq_int_type(_Traits::eof(), _Meta = uflow()))

	mov	eax, DWORD PTR _this$[ebp]
	mov	edx, DWORD PTR [eax]
	mov	esi, esp
	mov	ecx, DWORD PTR _this$[ebp]
	mov	eax, DWORD PTR [edx+28]
	call	eax
	cmp	esi, esp
	call	__RTC_CheckEsp
	mov	DWORD PTR __Meta$[ebp], eax
	call	?eof@?$char_traits@D@std@@SAHXZ		; std::char_traits<char>::eof
	mov	DWORD PTR $T36924[ebp], eax
	lea	ecx, DWORD PTR __Meta$[ebp]
	push	ecx
	lea	edx, DWORD PTR $T36924[ebp]
	push	edx
	call	?eq_int_type@?$char_traits@D@std@@SA_NABH0@Z ; std::char_traits<char>::eq_int_type
	add	esp, 8
	movzx	eax, al
	test	eax, eax
	je	SHORT $LN2@xsgetn

; 380  : 				break;	// end of file, quit

	jmp	SHORT $LN6@xsgetn

; 381  : 			else

	jmp	SHORT $LN3@xsgetn
$LN2@xsgetn:

; 382  : 				{	// get a single character
; 383  : 				*_Ptr++ = _Traits::to_char_type(_Meta);

	lea	eax, DWORD PTR __Meta$[ebp]
	push	eax
	call	?to_char_type@?$char_traits@D@std@@SADABH@Z ; std::char_traits<char>::to_char_type
	add	esp, 4
	mov	ecx, DWORD PTR __Ptr$[ebp]
	mov	BYTE PTR [ecx], al
	mov	edx, DWORD PTR __Ptr$[ebp]
	add	edx, 1
	mov	DWORD PTR __Ptr$[ebp], edx

; 384  : 				++_Copied;

	mov	eax, DWORD PTR __Copied$[ebp]
	add	eax, 1
	mov	ecx, DWORD PTR __Copied$[ebp+4]
	adc	ecx, 0
	mov	DWORD PTR __Copied$[ebp], eax
	mov	DWORD PTR __Copied$[ebp+4], ecx

; 385  : 				--_Count;

	mov	eax, DWORD PTR __Count$[ebp]
	sub	eax, 1
	mov	ecx, DWORD PTR __Count$[ebp+4]
	sbb	ecx, 0
	mov	DWORD PTR __Count$[ebp], eax
	mov	DWORD PTR __Count$[ebp+4], ecx
$LN3@xsgetn:

; 386  : 				}

	jmp	$LN7@xsgetn
$LN6@xsgetn:

; 387  : 
; 388  : 		return (_Copied);

	mov	eax, DWORD PTR __Copied$[ebp]
	mov	edx, DWORD PTR __Copied$[ebp+4]

; 389  : 		}

	push	edx
	mov	ecx, ebp
	push	eax
	lea	edx, DWORD PTR $LN15@xsgetn
	call	@_RTC_CheckStackVars@8
	pop	eax
	pop	edx
	pop	edi
	pop	esi
	pop	ebx
	add	esp, 260				; 00000104H
	cmp	ebp, esp
	call	__RTC_CheckEsp
	mov	esp, ebp
	pop	ebp
	ret	12					; 0000000cH
	npad	2
$LN15@xsgetn:
	DD	1
	DD	$LN14@xsgetn
$LN14@xsgetn:
	DD	-20					; ffffffecH
	DD	4
	DD	$LN13@xsgetn
$LN13@xsgetn:
	DB	95					; 0000005fH
	DB	77					; 0000004dH
	DB	101					; 00000065H
	DB	116					; 00000074H
	DB	97					; 00000061H
	DB	0
?xsgetn@?$basic_streambuf@DU?$char_traits@D@std@@@std@@MAE_JPAD_J@Z ENDP ; std::basic_streambuf<char,std::char_traits<char> >::xsgetn
_TEXT	ENDS
EXTRN	_memcpy:PROC
; Function compile flags: /Odtp /RTCsu /ZI
; File c:\program files (x86)\microsoft visual studio 10.0\vc\include\iosfwd
;	COMDAT ?copy@?$char_traits@D@std@@SAPADPADPBDI@Z
_TEXT	SEGMENT
__First1$ = 8						; size = 4
__First2$ = 12						; size = 4
__Count$ = 16						; size = 4
?copy@?$char_traits@D@std@@SAPADPADPBDI@Z PROC		; std::char_traits<char>::copy, COMDAT

; 496  : 		{	// copy [_First1, _First1 + _Count) to [_First2, ...)

	push	ebp
	mov	ebp, esp
	sub	esp, 192				; 000000c0H
	push	ebx
	push	esi
	push	edi
	lea	edi, DWORD PTR [ebp-192]
	mov	ecx, 48					; 00000030H
	mov	eax, -858993460				; ccccccccH
	rep stosd

; 497  : 		return ((_Elem *)_CSTD memcpy(_First1, _First2, _Count));

	mov	eax, DWORD PTR __Count$[ebp]
	push	eax
	mov	ecx, DWORD PTR __First2$[ebp]
	push	ecx
	mov	edx, DWORD PTR __First1$[ebp]
	push	edx
	call	_memcpy
	add	esp, 12					; 0000000cH

; 498  : 		}

	pop	edi
	pop	esi
	pop	ebx
	add	esp, 192				; 000000c0H
	cmp	ebp, esp
	call	__RTC_CheckEsp
	mov	esp, ebp
	pop	ebp
	ret	0
?copy@?$char_traits@D@std@@SAPADPADPBDI@Z ENDP		; std::char_traits<char>::copy
; Function compile flags: /Odtp /RTCsu /ZI
_TEXT	ENDS
;	COMDAT ?to_char_type@?$char_traits@D@std@@SADABH@Z
_TEXT	SEGMENT
__Meta$ = 8						; size = 4
?to_char_type@?$char_traits@D@std@@SADABH@Z PROC	; std::char_traits<char>::to_char_type, COMDAT

; 541  : 		{	// convert metacharacter to character

	push	ebp
	mov	ebp, esp
	sub	esp, 192				; 000000c0H
	push	ebx
	push	esi
	push	edi
	lea	edi, DWORD PTR [ebp-192]
	mov	ecx, 48					; 00000030H
	mov	eax, -858993460				; ccccccccH
	rep stosd

; 542  : 		return ((_Elem)_Meta);

	mov	eax, DWORD PTR __Meta$[ebp]
	mov	al, BYTE PTR [eax]

; 543  : 		}

	pop	edi
	pop	esi
	pop	ebx
	mov	esp, ebp
	pop	ebp
	ret	0
?to_char_type@?$char_traits@D@std@@SADABH@Z ENDP	; std::char_traits<char>::to_char_type
_TEXT	ENDS
PUBLIC	?pbump@?$basic_streambuf@DU?$char_traits@D@std@@@std@@IAEXH@Z ; std::basic_streambuf<char,std::char_traits<char> >::pbump
PUBLIC	?pptr@?$basic_streambuf@DU?$char_traits@D@std@@@std@@IBEPADXZ ; std::basic_streambuf<char,std::char_traits<char> >::pptr
PUBLIC	?_Pnavail@?$basic_streambuf@DU?$char_traits@D@std@@@std@@IBE_JXZ ; std::basic_streambuf<char,std::char_traits<char> >::_Pnavail
; Function compile flags: /Odtp /RTCsu /ZI
; File c:\program files (x86)\microsoft visual studio 10.0\vc\include\streambuf
;	COMDAT ?xsputn@?$basic_streambuf@DU?$char_traits@D@std@@@std@@MAE_JPBD_J@Z
_TEXT	SEGMENT
$T36937 = -256						; size = 4
$T36938 = -244						; size = 4
__Copied$ = -40						; size = 8
__Size$ = -24						; size = 8
_this$ = -8						; size = 4
__Ptr$ = 8						; size = 4
__Count$ = 12						; size = 8
?xsputn@?$basic_streambuf@DU?$char_traits@D@std@@@std@@MAE_JPBD_J@Z PROC ; std::basic_streambuf<char,std::char_traits<char> >::xsputn, COMDAT
; _this$ = ecx

; 393  : 		{	// put _Count characters to stream

	push	ebp
	mov	ebp, esp
	sub	esp, 260				; 00000104H
	push	ebx
	push	esi
	push	edi
	push	ecx
	lea	edi, DWORD PTR [ebp-260]
	mov	ecx, 65					; 00000041H
	mov	eax, -858993460				; ccccccccH
	rep stosd
	pop	ecx
	mov	DWORD PTR _this$[ebp], ecx

; 394  : 		streamsize _Size, _Copied;
; 395  : 
; 396  : 		for (_Copied = 0; 0 < _Count; )

	mov	DWORD PTR __Copied$[ebp], 0
	mov	DWORD PTR __Copied$[ebp+4], 0
$LN7@xsputn:
	cmp	DWORD PTR __Count$[ebp+4], 0
	jl	$LN6@xsputn
	jg	SHORT $LN10@xsputn
	cmp	DWORD PTR __Count$[ebp], 0
	jbe	$LN6@xsputn
$LN10@xsputn:

; 397  : 			if (0 < (_Size = _Pnavail()))

	mov	ecx, DWORD PTR _this$[ebp]
	call	?_Pnavail@?$basic_streambuf@DU?$char_traits@D@std@@@std@@IBE_JXZ ; std::basic_streambuf<char,std::char_traits<char> >::_Pnavail
	mov	DWORD PTR __Size$[ebp], eax
	mov	DWORD PTR __Size$[ebp+4], edx
	cmp	DWORD PTR __Size$[ebp+4], 0
	jl	SHORT $LN5@xsputn
	jg	SHORT $LN11@xsputn
	cmp	DWORD PTR __Size$[ebp], 0
	jbe	SHORT $LN5@xsputn
$LN11@xsputn:

; 398  : 				{	// copy to write buffer
; 399  : 				if (_Count < _Size)

	mov	eax, DWORD PTR __Count$[ebp+4]
	cmp	eax, DWORD PTR __Size$[ebp+4]
	jg	SHORT $LN4@xsputn
	jl	SHORT $LN12@xsputn
	mov	ecx, DWORD PTR __Count$[ebp]
	cmp	ecx, DWORD PTR __Size$[ebp]
	jae	SHORT $LN4@xsputn
$LN12@xsputn:

; 400  : 					_Size = _Count;

	mov	eax, DWORD PTR __Count$[ebp]
	mov	DWORD PTR __Size$[ebp], eax
	mov	ecx, DWORD PTR __Count$[ebp+4]
	mov	DWORD PTR __Size$[ebp+4], ecx
$LN4@xsputn:

; 401  : 				_Traits::copy(pptr(), _Ptr, (size_t)_Size);

	mov	eax, DWORD PTR __Size$[ebp]
	push	eax
	mov	ecx, DWORD PTR __Ptr$[ebp]
	push	ecx
	mov	ecx, DWORD PTR _this$[ebp]
	call	?pptr@?$basic_streambuf@DU?$char_traits@D@std@@@std@@IBEPADXZ ; std::basic_streambuf<char,std::char_traits<char> >::pptr
	push	eax
	call	?copy@?$char_traits@D@std@@SAPADPADPBDI@Z ; std::char_traits<char>::copy
	add	esp, 12					; 0000000cH

; 402  : 				_Ptr += _Size;

	mov	eax, DWORD PTR __Size$[ebp]
	add	eax, DWORD PTR __Ptr$[ebp]
	mov	DWORD PTR __Ptr$[ebp], eax

; 403  : 				_Copied += _Size;

	mov	eax, DWORD PTR __Copied$[ebp]
	add	eax, DWORD PTR __Size$[ebp]
	mov	ecx, DWORD PTR __Copied$[ebp+4]
	adc	ecx, DWORD PTR __Size$[ebp+4]
	mov	DWORD PTR __Copied$[ebp], eax
	mov	DWORD PTR __Copied$[ebp+4], ecx

; 404  : 				_Count -= _Size;

	mov	eax, DWORD PTR __Count$[ebp]
	sub	eax, DWORD PTR __Size$[ebp]
	mov	ecx, DWORD PTR __Count$[ebp+4]
	sbb	ecx, DWORD PTR __Size$[ebp+4]
	mov	DWORD PTR __Count$[ebp], eax
	mov	DWORD PTR __Count$[ebp+4], ecx

; 405  : 				pbump((int)_Size);

	mov	eax, DWORD PTR __Size$[ebp]
	push	eax
	mov	ecx, DWORD PTR _this$[ebp]
	call	?pbump@?$basic_streambuf@DU?$char_traits@D@std@@@std@@IAEXH@Z ; std::basic_streambuf<char,std::char_traits<char> >::pbump

; 406  : 				}
; 407  : 			else if (_Traits::eq_int_type(_Traits::eof(),

	jmp	$LN3@xsputn
$LN5@xsputn:

; 408  : 				overflow(_Traits::to_int_type(*_Ptr))))

	mov	eax, DWORD PTR __Ptr$[ebp]
	push	eax
	call	?to_int_type@?$char_traits@D@std@@SAHABD@Z ; std::char_traits<char>::to_int_type
	add	esp, 4
	mov	esi, esp
	push	eax
	mov	ecx, DWORD PTR _this$[ebp]
	mov	edx, DWORD PTR [ecx]
	mov	ecx, DWORD PTR _this$[ebp]
	mov	eax, DWORD PTR [edx+12]
	call	eax
	cmp	esi, esp
	call	__RTC_CheckEsp
	mov	DWORD PTR $T36937[ebp], eax
	call	?eof@?$char_traits@D@std@@SAHXZ		; std::char_traits<char>::eof
	mov	DWORD PTR $T36938[ebp], eax
	lea	ecx, DWORD PTR $T36937[ebp]
	push	ecx
	lea	edx, DWORD PTR $T36938[ebp]
	push	edx
	call	?eq_int_type@?$char_traits@D@std@@SA_NABH0@Z ; std::char_traits<char>::eq_int_type
	add	esp, 8
	movzx	eax, al
	test	eax, eax
	je	SHORT $LN2@xsputn

; 409  : 				break;	// single character put failed, quit

	jmp	SHORT $LN6@xsputn

; 410  : 			else

	jmp	SHORT $LN3@xsputn
$LN2@xsputn:

; 411  : 				{	// count character successfully put
; 412  : 				++_Ptr;

	mov	eax, DWORD PTR __Ptr$[ebp]
	add	eax, 1
	mov	DWORD PTR __Ptr$[ebp], eax

; 413  : 				++_Copied;

	mov	eax, DWORD PTR __Copied$[ebp]
	add	eax, 1
	mov	ecx, DWORD PTR __Copied$[ebp+4]
	adc	ecx, 0
	mov	DWORD PTR __Copied$[ebp], eax
	mov	DWORD PTR __Copied$[ebp+4], ecx

; 414  : 				--_Count;

	mov	eax, DWORD PTR __Count$[ebp]
	sub	eax, 1
	mov	ecx, DWORD PTR __Count$[ebp+4]
	sbb	ecx, 0
	mov	DWORD PTR __Count$[ebp], eax
	mov	DWORD PTR __Count$[ebp+4], ecx
$LN3@xsputn:

; 415  : 				}

	jmp	$LN7@xsputn
$LN6@xsputn:

; 416  : 
; 417  : 		return (_Copied);

	mov	eax, DWORD PTR __Copied$[ebp]
	mov	edx, DWORD PTR __Copied$[ebp+4]

; 418  : 		}

	pop	edi
	pop	esi
	pop	ebx
	add	esp, 260				; 00000104H
	cmp	ebp, esp
	call	__RTC_CheckEsp
	mov	esp, ebp
	pop	ebp
	ret	12					; 0000000cH
?xsputn@?$basic_streambuf@DU?$char_traits@D@std@@@std@@MAE_JPBD_J@Z ENDP ; std::basic_streambuf<char,std::char_traits<char> >::xsputn
; Function compile flags: /Odtp /RTCsu /ZI
_TEXT	ENDS
;	COMDAT ?seekoff@?$basic_streambuf@DU?$char_traits@D@std@@@std@@MAE?AV?$fpos@H@2@_JHH@Z
_TEXT	SEGMENT
_this$ = -8						; size = 4
___$ReturnUdt$ = 8					; size = 4
___formal$ = 12						; size = 8
___formal$ = 20						; size = 4
___formal$ = 24						; size = 4
?seekoff@?$basic_streambuf@DU?$char_traits@D@std@@@std@@MAE?AV?$fpos@H@2@_JHH@Z PROC ; std::basic_streambuf<char,std::char_traits<char> >::seekoff, COMDAT
; _this$ = ecx

; 423  : 		{	// change position by offset, according to way and mode

	push	ebp
	mov	ebp, esp
	sub	esp, 204				; 000000ccH
	push	ebx
	push	esi
	push	edi
	push	ecx
	lea	edi, DWORD PTR [ebp-204]
	mov	ecx, 51					; 00000033H
	mov	eax, -858993460				; ccccccccH
	rep stosd
	pop	ecx
	mov	DWORD PTR _this$[ebp], ecx

; 424  : 		return (streampos(_BADOFF));

	mov	eax, DWORD PTR ?_BADOFF@std@@3_JB+4
	push	eax
	mov	ecx, DWORD PTR ?_BADOFF@std@@3_JB
	push	ecx
	mov	ecx, DWORD PTR ___$ReturnUdt$[ebp]
	call	??0?$fpos@H@std@@QAE@_J@Z		; std::fpos<int>::fpos<int>
	mov	eax, DWORD PTR ___$ReturnUdt$[ebp]

; 425  : 		}

	pop	edi
	pop	esi
	pop	ebx
	add	esp, 204				; 000000ccH
	cmp	ebp, esp
	call	__RTC_CheckEsp
	mov	esp, ebp
	pop	ebp
	ret	20					; 00000014H
?seekoff@?$basic_streambuf@DU?$char_traits@D@std@@@std@@MAE?AV?$fpos@H@2@_JHH@Z ENDP ; std::basic_streambuf<char,std::char_traits<char> >::seekoff
; Function compile flags: /Odtp /RTCsu /ZI
_TEXT	ENDS
;	COMDAT ?seekpos@?$basic_streambuf@DU?$char_traits@D@std@@@std@@MAE?AV?$fpos@H@2@V32@H@Z
_TEXT	SEGMENT
_this$ = -8						; size = 4
___$ReturnUdt$ = 8					; size = 4
___formal$ = 12						; size = 24
___formal$ = 36						; size = 4
?seekpos@?$basic_streambuf@DU?$char_traits@D@std@@@std@@MAE?AV?$fpos@H@2@V32@H@Z PROC ; std::basic_streambuf<char,std::char_traits<char> >::seekpos, COMDAT
; _this$ = ecx

; 429  : 		{	// change to specified position, according to mode

	push	ebp
	mov	ebp, esp
	sub	esp, 204				; 000000ccH
	push	ebx
	push	esi
	push	edi
	push	ecx
	lea	edi, DWORD PTR [ebp-204]
	mov	ecx, 51					; 00000033H
	mov	eax, -858993460				; ccccccccH
	rep stosd
	pop	ecx
	mov	DWORD PTR _this$[ebp], ecx

; 430  : 		return (streampos(_BADOFF));

	mov	eax, DWORD PTR ?_BADOFF@std@@3_JB+4
	push	eax
	mov	ecx, DWORD PTR ?_BADOFF@std@@3_JB
	push	ecx
	mov	ecx, DWORD PTR ___$ReturnUdt$[ebp]
	call	??0?$fpos@H@std@@QAE@_J@Z		; std::fpos<int>::fpos<int>
	mov	eax, DWORD PTR ___$ReturnUdt$[ebp]

; 431  : 		}

	pop	edi
	pop	esi
	pop	ebx
	add	esp, 204				; 000000ccH
	cmp	ebp, esp
	call	__RTC_CheckEsp
	mov	esp, ebp
	pop	ebp
	ret	32					; 00000020H
?seekpos@?$basic_streambuf@DU?$char_traits@D@std@@@std@@MAE?AV?$fpos@H@2@V32@H@Z ENDP ; std::basic_streambuf<char,std::char_traits<char> >::seekpos
; Function compile flags: /Odtp /RTCsu /ZI
_TEXT	ENDS
;	COMDAT ?setbuf@?$basic_streambuf@DU?$char_traits@D@std@@@std@@MAEPAV12@PAD_J@Z
_TEXT	SEGMENT
_this$ = -8						; size = 4
___formal$ = 8						; size = 4
___formal$ = 12						; size = 8
?setbuf@?$basic_streambuf@DU?$char_traits@D@std@@@std@@MAEPAV12@PAD_J@Z PROC ; std::basic_streambuf<char,std::char_traits<char> >::setbuf, COMDAT
; _this$ = ecx

; 434  : 		{	// offer buffer to external agent (do nothing)

	push	ebp
	mov	ebp, esp
	sub	esp, 204				; 000000ccH
	push	ebx
	push	esi
	push	edi
	push	ecx
	lea	edi, DWORD PTR [ebp-204]
	mov	ecx, 51					; 00000033H
	mov	eax, -858993460				; ccccccccH
	rep stosd
	pop	ecx
	mov	DWORD PTR _this$[ebp], ecx

; 435  : 		return (this);

	mov	eax, DWORD PTR _this$[ebp]

; 436  : 		}

	pop	edi
	pop	esi
	pop	ebx
	mov	esp, ebp
	pop	ebp
	ret	12					; 0000000cH
?setbuf@?$basic_streambuf@DU?$char_traits@D@std@@@std@@MAEPAV12@PAD_J@Z ENDP ; std::basic_streambuf<char,std::char_traits<char> >::setbuf
; Function compile flags: /Odtp /RTCsu /ZI
_TEXT	ENDS
;	COMDAT ?sync@?$basic_streambuf@DU?$char_traits@D@std@@@std@@MAEHXZ
_TEXT	SEGMENT
_this$ = -8						; size = 4
?sync@?$basic_streambuf@DU?$char_traits@D@std@@@std@@MAEHXZ PROC ; std::basic_streambuf<char,std::char_traits<char> >::sync, COMDAT
; _this$ = ecx

; 439  : 		{	// synchronize with external agent (do nothing)

	push	ebp
	mov	ebp, esp
	sub	esp, 204				; 000000ccH
	push	ebx
	push	esi
	push	edi
	push	ecx
	lea	edi, DWORD PTR [ebp-204]
	mov	ecx, 51					; 00000033H
	mov	eax, -858993460				; ccccccccH
	rep stosd
	pop	ecx
	mov	DWORD PTR _this$[ebp], ecx

; 440  : 		return (0);

	xor	eax, eax

; 441  : 		}

	pop	edi
	pop	esi
	pop	ebx
	mov	esp, ebp
	pop	ebp
	ret	0
?sync@?$basic_streambuf@DU?$char_traits@D@std@@@std@@MAEHXZ ENDP ; std::basic_streambuf<char,std::char_traits<char> >::sync
; Function compile flags: /Odtp /RTCsu /ZI
_TEXT	ENDS
;	COMDAT ?imbue@?$basic_streambuf@DU?$char_traits@D@std@@@std@@MAEXABVlocale@2@@Z
_TEXT	SEGMENT
_this$ = -8						; size = 4
___formal$ = 8						; size = 4
?imbue@?$basic_streambuf@DU?$char_traits@D@std@@@std@@MAEXABVlocale@2@@Z PROC ; std::basic_streambuf<char,std::char_traits<char> >::imbue, COMDAT
; _this$ = ecx

; 444  : 		{	// set locale to argument (do nothing)

	push	ebp
	mov	ebp, esp
	sub	esp, 204				; 000000ccH
	push	ebx
	push	esi
	push	edi
	push	ecx
	lea	edi, DWORD PTR [ebp-204]
	mov	ecx, 51					; 00000033H
	mov	eax, -858993460				; ccccccccH
	rep stosd
	pop	ecx
	mov	DWORD PTR _this$[ebp], ecx

; 445  : 		}

	pop	edi
	pop	esi
	pop	ebx
	mov	esp, ebp
	pop	ebp
	ret	4
?imbue@?$basic_streambuf@DU?$char_traits@D@std@@@std@@MAEXABVlocale@2@@Z ENDP ; std::basic_streambuf<char,std::char_traits<char> >::imbue
_TEXT	ENDS
EXTRN	__lock_file:PROC
; Function compile flags: /Odtp /RTCsu /ZI
; File c:\program files (x86)\microsoft visual studio 10.0\vc\include\fstream
;	COMDAT ?_Lock@?$basic_filebuf@DU?$char_traits@D@std@@@std@@UAEXXZ
_TEXT	SEGMENT
_this$ = -8						; size = 4
?_Lock@?$basic_filebuf@DU?$char_traits@D@std@@@std@@UAEXXZ PROC ; std::basic_filebuf<char,std::char_traits<char> >::_Lock, COMDAT
; _this$ = ecx

; 308  : 		{	// lock file instead of stream buffer

	push	ebp
	mov	ebp, esp
	sub	esp, 204				; 000000ccH
	push	ebx
	push	esi
	push	edi
	push	ecx
	lea	edi, DWORD PTR [ebp-204]
	mov	ecx, 51					; 00000033H
	mov	eax, -858993460				; ccccccccH
	rep stosd
	pop	ecx
	mov	DWORD PTR _this$[ebp], ecx

; 309  : 		if (_Myfile)

	mov	eax, DWORD PTR _this$[ebp]
	cmp	DWORD PTR [eax+84], 0
	je	SHORT $LN2@Lock

; 310  : 			_CSTD _lock_file(_Myfile);

	mov	eax, DWORD PTR _this$[ebp]
	mov	ecx, DWORD PTR [eax+84]
	push	ecx
	call	__lock_file
	add	esp, 4
$LN2@Lock:

; 311  : 		}

	pop	edi
	pop	esi
	pop	ebx
	add	esp, 204				; 000000ccH
	cmp	ebp, esp
	call	__RTC_CheckEsp
	mov	esp, ebp
	pop	ebp
	ret	0
?_Lock@?$basic_filebuf@DU?$char_traits@D@std@@@std@@UAEXXZ ENDP ; std::basic_filebuf<char,std::char_traits<char> >::_Lock
_TEXT	ENDS
EXTRN	__unlock_file:PROC
; Function compile flags: /Odtp /RTCsu /ZI
;	COMDAT ?_Unlock@?$basic_filebuf@DU?$char_traits@D@std@@@std@@UAEXXZ
_TEXT	SEGMENT
_this$ = -8						; size = 4
?_Unlock@?$basic_filebuf@DU?$char_traits@D@std@@@std@@UAEXXZ PROC ; std::basic_filebuf<char,std::char_traits<char> >::_Unlock, COMDAT
; _this$ = ecx

; 314  : 		{	// unlock file instead of stream buffer

	push	ebp
	mov	ebp, esp
	sub	esp, 204				; 000000ccH
	push	ebx
	push	esi
	push	edi
	push	ecx
	lea	edi, DWORD PTR [ebp-204]
	mov	ecx, 51					; 00000033H
	mov	eax, -858993460				; ccccccccH
	rep stosd
	pop	ecx
	mov	DWORD PTR _this$[ebp], ecx

; 315  : 		if (_Myfile)

	mov	eax, DWORD PTR _this$[ebp]
	cmp	DWORD PTR [eax+84], 0
	je	SHORT $LN2@Unlock

; 316  : 			_CSTD _unlock_file(_Myfile);

	mov	eax, DWORD PTR _this$[ebp]
	mov	ecx, DWORD PTR [eax+84]
	push	ecx
	call	__unlock_file
	add	esp, 4
$LN2@Unlock:

; 317  : 		}

	pop	edi
	pop	esi
	pop	ebx
	add	esp, 204				; 000000ccH
	cmp	ebp, esp
	call	__RTC_CheckEsp
	mov	esp, ebp
	pop	ebp
	ret	0
?_Unlock@?$basic_filebuf@DU?$char_traits@D@std@@@std@@UAEXXZ ENDP ; std::basic_filebuf<char,std::char_traits<char> >::_Unlock
_TEXT	ENDS
PUBLIC	?append@?$basic_string@DU?$char_traits@D@std@@V?$allocator@D@2@@std@@QAEAAV12@ID@Z ; std::basic_string<char,std::char_traits<char>,std::allocator<char> >::append
PUBLIC	??1?$_String_iterator@DU?$char_traits@D@std@@V?$allocator@D@2@@std@@QAE@XZ ; std::_String_iterator<char,std::char_traits<char>,std::allocator<char> >::~_String_iterator<char,std::char_traits<char>,std::allocator<char> >
PUBLIC	?out@?$codecvt@DDH@std@@QBEHAAHPBD1AAPBDPAD3AAPAD@Z ; std::codecvt<char,char,int>::out
PUBLIC	?size@?$basic_string@DU?$char_traits@D@std@@V?$allocator@D@2@@std@@QBEIXZ ; std::basic_string<char,std::char_traits<char>,std::allocator<char> >::size
PUBLIC	??D?$_String_iterator@DU?$char_traits@D@std@@V?$allocator@D@2@@std@@QBEAADXZ ; std::_String_iterator<char,std::char_traits<char>,std::allocator<char> >::operator*
PUBLIC	?begin@?$basic_string@DU?$char_traits@D@std@@V?$allocator@D@2@@std@@QAE?AV?$_String_iterator@DU?$char_traits@D@std@@V?$allocator@D@2@@2@XZ ; std::basic_string<char,std::char_traits<char>,std::allocator<char> >::begin
PUBLIC	??0?$basic_string@DU?$char_traits@D@std@@V?$allocator@D@2@@std@@QAE@ID@Z ; std::basic_string<char,std::char_traits<char>,std::allocator<char> >::basic_string<char,std::char_traits<char>,std::allocator<char> >
PUBLIC	??$_Fputc@D@std@@YA_NDPAU_iobuf@@@Z		; std::_Fputc<char>
PUBLIC	?_Pninc@?$basic_streambuf@DU?$char_traits@D@std@@@std@@IAEPADXZ ; std::basic_streambuf<char,std::char_traits<char> >::_Pninc
PUBLIC	?epptr@?$basic_streambuf@DU?$char_traits@D@std@@@std@@IBEPADXZ ; std::basic_streambuf<char,std::char_traits<char> >::epptr
PUBLIC	?not_eof@?$char_traits@D@std@@SAHABH@Z		; std::char_traits<char>::not_eof
PUBLIC	__$ArrayPad$
EXTRN	_fwrite:PROC
;	COMDAT xdata$x
xdata$x	SEGMENT
__ehfuncinfo$?overflow@?$basic_filebuf@DU?$char_traits@D@std@@@std@@MAEHH@Z DD 019930522H
	DD	05H
	DD	FLAT:__unwindtable$?overflow@?$basic_filebuf@DU?$char_traits@D@std@@@std@@MAEHH@Z
	DD	2 DUP(00H)
	DD	2 DUP(00H)
	DD	00H
	DD	01H
__unwindtable$?overflow@?$basic_filebuf@DU?$char_traits@D@std@@@std@@MAEHH@Z DD 0ffffffffH
	DD	FLAT:__unwindfunclet$?overflow@?$basic_filebuf@DU?$char_traits@D@std@@@std@@MAEHH@Z$0
	DD	00H
	DD	FLAT:__unwindfunclet$?overflow@?$basic_filebuf@DU?$char_traits@D@std@@@std@@MAEHH@Z$1
	DD	01H
	DD	FLAT:__unwindfunclet$?overflow@?$basic_filebuf@DU?$char_traits@D@std@@@std@@MAEHH@Z$2
	DD	00H
	DD	FLAT:__unwindfunclet$?overflow@?$basic_filebuf@DU?$char_traits@D@std@@@std@@MAEHH@Z$3
	DD	00H
	DD	FLAT:__unwindfunclet$?overflow@?$basic_filebuf@DU?$char_traits@D@std@@@std@@MAEHH@Z$4
; Function compile flags: /Odtp /RTCsu /ZI
xdata$x	ENDS
;	COMDAT ?overflow@?$basic_filebuf@DU?$char_traits@D@std@@@std@@MAEHH@Z
_TEXT	SEGMENT
tv184 = -528						; size = 4
tv239 = -524						; size = 4
tv254 = -520						; size = 4
tv208 = -520						; size = 4
tv246 = -516						; size = 4
tv241 = -516						; size = 4
tv237 = -516						; size = 4
tv256 = -512						; size = 4
tv255 = -512						; size = 4
tv230 = -512						; size = 4
tv151 = -512						; size = 4
tv147 = -512						; size = 4
$T36959 = -504						; size = 4
$T36962 = -492						; size = 4
$T36963 = -480						; size = 12
$T36964 = -460						; size = 12
$T36965 = -440						; size = 12
$T36966 = -417						; size = 1
$T36967 = -408						; size = 12
$T36970 = -388						; size = 4
$T36971 = -376						; size = 4
$T36972 = -364						; size = 4
$T36973 = -352						; size = 4
$T36976 = -340						; size = 4
$T36981 = -328						; size = 4
__Count$32958 = -124					; size = 4
__Str$32863 = -112					; size = 32
__Dest$32862 = -72					; size = 4
__Src$32861 = -60					; size = 4
__Ch$32860 = -45					; size = 1
__STRING_INC$32859 = -36				; size = 4
_this$ = -24						; size = 4
__$ArrayPad$ = -16					; size = 4
__$EHRec$ = -12						; size = 12
__Meta$ = 8						; size = 4
?overflow@?$basic_filebuf@DU?$char_traits@D@std@@@std@@MAEHH@Z PROC ; std::basic_filebuf<char,std::char_traits<char> >::overflow, COMDAT
; _this$ = ecx

; 322  : 		{	// put an element to stream

	push	ebp
	mov	ebp, esp
	push	-1
	push	__ehhandler$?overflow@?$basic_filebuf@DU?$char_traits@D@std@@@std@@MAEHH@Z
	mov	eax, DWORD PTR fs:0
	push	eax
	sub	esp, 516				; 00000204H
	push	ebx
	push	esi
	push	edi
	push	ecx
	lea	edi, DWORD PTR [ebp-528]
	mov	ecx, 129				; 00000081H
	mov	eax, -858993460				; ccccccccH
	rep stosd
	pop	ecx
	mov	eax, DWORD PTR ___security_cookie
	xor	eax, ebp
	mov	DWORD PTR __$ArrayPad$[ebp], eax
	push	eax
	lea	eax, DWORD PTR __$EHRec$[ebp]
	mov	DWORD PTR fs:0, eax
	mov	DWORD PTR _this$[ebp], ecx
	mov	DWORD PTR $T36981[ebp], 0

; 323  : 		if (_Traits::eq_int_type(_Traits::eof(), _Meta))

	call	?eof@?$char_traits@D@std@@SAHXZ		; std::char_traits<char>::eof
	mov	DWORD PTR $T36959[ebp], eax
	lea	eax, DWORD PTR __Meta$[ebp]
	push	eax
	lea	ecx, DWORD PTR $T36959[ebp]
	push	ecx
	call	?eq_int_type@?$char_traits@D@std@@SA_NABH0@Z ; std::char_traits<char>::eq_int_type
	add	esp, 8
	movzx	edx, al
	test	edx, edx
	je	SHORT $LN20@overflow

; 324  : 			return (_Traits::not_eof(_Meta));	// EOF, return success code

	lea	eax, DWORD PTR __Meta$[ebp]
	push	eax
	call	?not_eof@?$char_traits@D@std@@SAHABH@Z	; std::char_traits<char>::not_eof
	add	esp, 4
	jmp	$LN21@overflow

; 325  : 		else if (_Mysb::pptr() != 0

	jmp	SHORT $LN19@overflow
$LN20@overflow:

; 326  : 			&& _Mysb::pptr() < _Mysb::epptr())

	mov	ecx, DWORD PTR _this$[ebp]
	call	?pptr@?$basic_streambuf@DU?$char_traits@D@std@@@std@@IBEPADXZ ; std::basic_streambuf<char,std::char_traits<char> >::pptr
	test	eax, eax
	je	SHORT $LN18@overflow
	mov	ecx, DWORD PTR _this$[ebp]
	call	?pptr@?$basic_streambuf@DU?$char_traits@D@std@@@std@@IBEPADXZ ; std::basic_streambuf<char,std::char_traits<char> >::pptr
	mov	esi, eax
	mov	ecx, DWORD PTR _this$[ebp]
	call	?epptr@?$basic_streambuf@DU?$char_traits@D@std@@@std@@IBEPADXZ ; std::basic_streambuf<char,std::char_traits<char> >::epptr
	cmp	esi, eax
	jae	SHORT $LN18@overflow

; 327  : 			{	// room in buffer, store it
; 328  : 			*_Mysb::_Pninc() = _Traits::to_char_type(_Meta);

	lea	eax, DWORD PTR __Meta$[ebp]
	push	eax
	call	?to_char_type@?$char_traits@D@std@@SADABH@Z ; std::char_traits<char>::to_char_type
	add	esp, 4
	mov	bl, al
	mov	ecx, DWORD PTR _this$[ebp]
	call	?_Pninc@?$basic_streambuf@DU?$char_traits@D@std@@@std@@IAEPADXZ ; std::basic_streambuf<char,std::char_traits<char> >::_Pninc
	mov	BYTE PTR [eax], bl

; 329  : 			return (_Meta);

	mov	eax, DWORD PTR __Meta$[ebp]
	jmp	$LN21@overflow
	jmp	SHORT $LN19@overflow
$LN18@overflow:

; 330  : 			}
; 331  : 		else if (_Myfile == 0)

	mov	eax, DWORD PTR _this$[ebp]
	cmp	DWORD PTR [eax+84], 0
	jne	SHORT $LN19@overflow

; 332  : 			return (_Traits::eof());	// no open C stream, fail

	call	?eof@?$char_traits@D@std@@SAHXZ		; std::char_traits<char>::eof
	jmp	$LN21@overflow
$LN19@overflow:

; 333  : 		_Reset_back();	// revert from _Mychar buffer

	mov	ecx, DWORD PTR _this$[ebp]
	call	?_Reset_back@?$basic_filebuf@DU?$char_traits@D@std@@@std@@AAEXXZ ; std::basic_filebuf<char,std::char_traits<char> >::_Reset_back

; 334  : 		if (_Pcvt == 0)

	mov	eax, DWORD PTR _this$[ebp]
	cmp	DWORD PTR [eax+68], 0
	jne	SHORT $LN15@overflow

; 335  : 			return (_Fputc(_Traits::to_char_type(_Meta), _Myfile)
; 336  : 				? _Meta : _Traits::eof());	// no codecvt facet, put as is

	mov	eax, DWORD PTR _this$[ebp]
	mov	ecx, DWORD PTR [eax+84]
	push	ecx
	lea	edx, DWORD PTR __Meta$[ebp]
	push	edx
	call	?to_char_type@?$char_traits@D@std@@SADABH@Z ; std::char_traits<char>::to_char_type
	add	esp, 4
	movzx	eax, al
	push	eax
	call	??$_Fputc@D@std@@YA_NDPAU_iobuf@@@Z	; std::_Fputc<char>
	add	esp, 8
	movzx	ecx, al
	test	ecx, ecx
	je	SHORT $LN23@overflow
	mov	edx, DWORD PTR __Meta$[ebp]
	mov	DWORD PTR tv147[ebp], edx
	jmp	SHORT $LN24@overflow
$LN23@overflow:
	call	?eof@?$char_traits@D@std@@SAHXZ		; std::char_traits<char>::eof
	mov	DWORD PTR tv147[ebp], eax
$LN24@overflow:
	mov	eax, DWORD PTR tv147[ebp]
	jmp	$LN21@overflow

; 337  : 		else

	jmp	$LN21@overflow
$LN15@overflow:

; 338  : 			{	// put using codecvt facet
; 339  : 			const int _STRING_INC = 8;

	mov	DWORD PTR __STRING_INC$32859[ebp], 8

; 340  : 			const _Elem _Ch = _Traits::to_char_type(_Meta);

	lea	eax, DWORD PTR __Meta$[ebp]
	push	eax
	call	?to_char_type@?$char_traits@D@std@@SADABH@Z ; std::char_traits<char>::to_char_type
	add	esp, 4
	mov	BYTE PTR __Ch$32860[ebp], al

; 341  : 			const _Elem *_Src;
; 342  : 			char *_Dest;
; 343  : 
; 344  : 			string _Str(_STRING_INC, '\0');

	push	0
	push	8
	lea	ecx, DWORD PTR __Str$32863[ebp]
	call	??0?$basic_string@DU?$char_traits@D@std@@V?$allocator@D@2@@std@@QAE@ID@Z ; std::basic_string<char,std::char_traits<char>,std::allocator<char> >::basic_string<char,std::char_traits<char>,std::allocator<char> >
	mov	DWORD PTR __$EHRec$[ebp+8], 0
$LN13@overflow:

; 345  : 			for (; ; )
; 346  : 				switch (_Pcvt->out(_State,
; 347  : 					&_Ch, &_Ch + 1, _Src,
; 348  : 					&*_Str.begin(), &*_Str.begin() + _Str.size(), _Dest))

	lea	eax, DWORD PTR __Dest$32862[ebp]
	push	eax
	lea	ecx, DWORD PTR $T36963[ebp]
	push	ecx
	lea	ecx, DWORD PTR __Str$32863[ebp]
	call	?begin@?$basic_string@DU?$char_traits@D@std@@V?$allocator@D@2@@std@@QAE?AV?$_String_iterator@DU?$char_traits@D@std@@V?$allocator@D@2@@2@XZ ; std::basic_string<char,std::char_traits<char>,std::allocator<char> >::begin
	mov	DWORD PTR tv151[ebp], eax
	mov	edx, DWORD PTR tv151[ebp]
	mov	DWORD PTR tv237[ebp], edx
	mov	BYTE PTR __$EHRec$[ebp+8], 1
	mov	ecx, DWORD PTR tv237[ebp]
	call	??D?$_String_iterator@DU?$char_traits@D@std@@V?$allocator@D@2@@std@@QBEAADXZ ; std::_String_iterator<char,std::char_traits<char>,std::allocator<char> >::operator*
	mov	esi, eax
	lea	ecx, DWORD PTR __Str$32863[ebp]
	call	?size@?$basic_string@DU?$char_traits@D@std@@V?$allocator@D@2@@std@@QBEIXZ ; std::basic_string<char,std::char_traits<char>,std::allocator<char> >::size
	add	esi, eax
	push	esi
	lea	eax, DWORD PTR $T36964[ebp]
	push	eax
	lea	ecx, DWORD PTR __Str$32863[ebp]
	call	?begin@?$basic_string@DU?$char_traits@D@std@@V?$allocator@D@2@@std@@QAE?AV?$_String_iterator@DU?$char_traits@D@std@@V?$allocator@D@2@@2@XZ ; std::basic_string<char,std::char_traits<char>,std::allocator<char> >::begin
	mov	DWORD PTR tv254[ebp], eax
	mov	ecx, DWORD PTR tv254[ebp]
	mov	DWORD PTR tv239[ebp], ecx
	mov	BYTE PTR __$EHRec$[ebp+8], 2
	mov	ecx, DWORD PTR tv239[ebp]
	call	??D?$_String_iterator@DU?$char_traits@D@std@@V?$allocator@D@2@@std@@QBEAADXZ ; std::_String_iterator<char,std::char_traits<char>,std::allocator<char> >::operator*
	push	eax
	lea	edx, DWORD PTR __Src$32861[ebp]
	push	edx
	lea	eax, DWORD PTR __Ch$32860[ebp+1]
	push	eax
	lea	ecx, DWORD PTR __Ch$32860[ebp]
	push	ecx
	mov	edx, DWORD PTR _this$[ebp]
	add	edx, 76					; 0000004cH
	push	edx
	mov	eax, DWORD PTR _this$[ebp]
	mov	ecx, DWORD PTR [eax+68]
	call	?out@?$codecvt@DDH@std@@QBEHAAHPBD1AAPBDPAD3AAPAD@Z ; std::codecvt<char,char,int>::out
	mov	DWORD PTR $T36962[ebp], eax
	mov	BYTE PTR __$EHRec$[ebp+8], 1
	lea	ecx, DWORD PTR $T36964[ebp]
	call	??1?$_String_iterator@DU?$char_traits@D@std@@V?$allocator@D@2@@std@@QAE@XZ
	mov	BYTE PTR __$EHRec$[ebp+8], 0
	lea	ecx, DWORD PTR $T36963[ebp]
	call	??1?$_String_iterator@DU?$char_traits@D@std@@V?$allocator@D@2@@std@@QAE@XZ
	mov	ecx, DWORD PTR $T36962[ebp]
	mov	DWORD PTR tv184[ebp], ecx
	cmp	DWORD PTR tv184[ebp], 0
	jl	$LN1@overflow
	cmp	DWORD PTR tv184[ebp], 1
	jle	SHORT $LN9@overflow
	cmp	DWORD PTR tv184[ebp], 3
	je	$LN2@overflow
	jmp	$LN1@overflow
$LN9@overflow:

; 349  : 				{	// test result of converting one element
; 350  : 				case codecvt_base::partial:
; 351  : 				case codecvt_base::ok:
; 352  : 					{	// converted something, try to put it out
; 353  : 					size_t _Count = _Dest - &*_Str.begin();

	lea	eax, DWORD PTR $T36965[ebp]
	push	eax
	lea	ecx, DWORD PTR __Str$32863[ebp]
	call	?begin@?$basic_string@DU?$char_traits@D@std@@V?$allocator@D@2@@std@@QAE?AV?$_String_iterator@DU?$char_traits@D@std@@V?$allocator@D@2@@2@XZ ; std::basic_string<char,std::char_traits<char>,std::allocator<char> >::begin
	mov	DWORD PTR tv255[ebp], eax
	mov	ecx, DWORD PTR tv255[ebp]
	mov	DWORD PTR tv241[ebp], ecx
	mov	BYTE PTR __$EHRec$[ebp+8], 3
	mov	ecx, DWORD PTR tv241[ebp]
	call	??D?$_String_iterator@DU?$char_traits@D@std@@V?$allocator@D@2@@std@@QBEAADXZ ; std::_String_iterator<char,std::char_traits<char>,std::allocator<char> >::operator*
	mov	edx, DWORD PTR __Dest$32862[ebp]
	sub	edx, eax
	mov	DWORD PTR __Count$32958[ebp], edx
	mov	BYTE PTR __$EHRec$[ebp+8], 0
	lea	ecx, DWORD PTR $T36965[ebp]
	call	??1?$_String_iterator@DU?$char_traits@D@std@@V?$allocator@D@2@@std@@QAE@XZ

; 354  : 					if (0 < _Count && _Count !=
; 355  : 						fwrite(&*_Str.begin(), 1, _Count, _Myfile))

	cmp	DWORD PTR __Count$32958[ebp], 0
	jbe	SHORT $LN25@overflow
	mov	eax, DWORD PTR _this$[ebp]
	mov	ecx, DWORD PTR [eax+84]
	push	ecx
	mov	edx, DWORD PTR __Count$32958[ebp]
	push	edx
	push	1
	lea	eax, DWORD PTR $T36967[ebp]
	push	eax
	lea	ecx, DWORD PTR __Str$32863[ebp]
	call	?begin@?$basic_string@DU?$char_traits@D@std@@V?$allocator@D@2@@std@@QAE?AV?$_String_iterator@DU?$char_traits@D@std@@V?$allocator@D@2@@2@XZ ; std::basic_string<char,std::char_traits<char>,std::allocator<char> >::begin
	mov	DWORD PTR tv256[ebp], eax
	mov	ecx, DWORD PTR tv256[ebp]
	mov	DWORD PTR tv246[ebp], ecx
	mov	BYTE PTR __$EHRec$[ebp+8], 4
	mov	edx, DWORD PTR $T36981[ebp]
	or	edx, 1
	mov	DWORD PTR $T36981[ebp], edx
	mov	ecx, DWORD PTR tv246[ebp]
	call	??D?$_String_iterator@DU?$char_traits@D@std@@V?$allocator@D@2@@std@@QBEAADXZ ; std::_String_iterator<char,std::char_traits<char>,std::allocator<char> >::operator*
	push	eax
	call	_fwrite
	add	esp, 16					; 00000010H
	cmp	DWORD PTR __Count$32958[ebp], eax
	je	SHORT $LN25@overflow
	mov	DWORD PTR tv208[ebp], 1
	jmp	SHORT $LN26@overflow
$LN25@overflow:
	mov	DWORD PTR tv208[ebp], 0
$LN26@overflow:
	mov	al, BYTE PTR tv208[ebp]
	mov	BYTE PTR $T36966[ebp], al
	mov	DWORD PTR __$EHRec$[ebp+8], 0
	mov	ecx, DWORD PTR $T36981[ebp]
	and	ecx, 1
	je	SHORT $LN35@overflow
	and	DWORD PTR $T36981[ebp], -2		; fffffffeH
	lea	ecx, DWORD PTR $T36967[ebp]
	call	??1?$_String_iterator@DU?$char_traits@D@std@@V?$allocator@D@2@@std@@QAE@XZ
$LN35@overflow:
	movzx	edx, BYTE PTR $T36966[ebp]
	test	edx, edx
	je	SHORT $LN8@overflow

; 356  : 						return (_Traits::eof());	// write failed

	call	?eof@?$char_traits@D@std@@SAHXZ		; std::char_traits<char>::eof
	mov	DWORD PTR $T36970[ebp], eax
	mov	DWORD PTR __$EHRec$[ebp+8], -1
	lea	ecx, DWORD PTR __Str$32863[ebp]
	call	??1?$basic_string@DU?$char_traits@D@std@@V?$allocator@D@2@@std@@QAE@XZ ; std::basic_string<char,std::char_traits<char>,std::allocator<char> >::~basic_string<char,std::char_traits<char>,std::allocator<char> >
	mov	eax, DWORD PTR $T36970[ebp]
	jmp	$LN21@overflow
$LN8@overflow:

; 357  : 
; 358  : 					_Wrotesome = true;	// write succeeded

	mov	eax, DWORD PTR _this$[ebp]
	mov	BYTE PTR [eax+73], 1

; 359  : 					if (_Src != &_Ch)

	mov	eax, DWORD PTR __Src$32861[ebp]
	lea	ecx, DWORD PTR __Ch$32860[ebp]
	cmp	eax, ecx
	je	SHORT $LN7@overflow

; 360  : 						return (_Meta);	// converted whole element

	mov	eax, DWORD PTR __Meta$[ebp]
	mov	DWORD PTR $T36971[ebp], eax
	mov	DWORD PTR __$EHRec$[ebp+8], -1
	lea	ecx, DWORD PTR __Str$32863[ebp]
	call	??1?$basic_string@DU?$char_traits@D@std@@V?$allocator@D@2@@std@@QAE@XZ ; std::basic_string<char,std::char_traits<char>,std::allocator<char> >::~basic_string<char,std::char_traits<char>,std::allocator<char> >
	mov	eax, DWORD PTR $T36971[ebp]
	jmp	$LN21@overflow
$LN7@overflow:

; 361  : 
; 362  : 					if (0 < _Count)

	cmp	DWORD PTR __Count$32958[ebp], 0
	jbe	SHORT $LN6@overflow
	jmp	SHORT $LN5@overflow
$LN6@overflow:

; 363  : 						;
; 364  : 					else if (_Str.size() < 4 * _STRING_INC)

	lea	ecx, DWORD PTR __Str$32863[ebp]
	call	?size@?$basic_string@DU?$char_traits@D@std@@V?$allocator@D@2@@std@@QBEIXZ ; std::basic_string<char,std::char_traits<char>,std::allocator<char> >::size
	cmp	eax, 32					; 00000020H
	jae	SHORT $LN4@overflow

; 365  : 						_Str.append(_STRING_INC, '\0');	// try with more space

	push	0
	push	8
	lea	ecx, DWORD PTR __Str$32863[ebp]
	call	?append@?$basic_string@DU?$char_traits@D@std@@V?$allocator@D@2@@std@@QAEAAV12@ID@Z ; std::basic_string<char,std::char_traits<char>,std::allocator<char> >::append

; 366  : 					else

	jmp	SHORT $LN5@overflow
$LN4@overflow:

; 367  : 						return (_Traits::eof());	// conversion failed

	call	?eof@?$char_traits@D@std@@SAHXZ		; std::char_traits<char>::eof
	mov	DWORD PTR $T36972[ebp], eax
	mov	DWORD PTR __$EHRec$[ebp+8], -1
	lea	ecx, DWORD PTR __Str$32863[ebp]
	call	??1?$basic_string@DU?$char_traits@D@std@@V?$allocator@D@2@@std@@QAE@XZ ; std::basic_string<char,std::char_traits<char>,std::allocator<char> >::~basic_string<char,std::char_traits<char>,std::allocator<char> >
	mov	eax, DWORD PTR $T36972[ebp]
	jmp	$LN21@overflow
$LN5@overflow:

; 368  : 					break;

	jmp	SHORT $LN10@overflow
$LN2@overflow:

; 369  : 					}
; 370  : 
; 371  : 				case codecvt_base::noconv:
; 372  : 					return (_Fputc(_Ch, _Myfile) ? _Meta
; 373  : 						: _Traits::eof());	// no conversion, put as is

	mov	eax, DWORD PTR _this$[ebp]
	mov	ecx, DWORD PTR [eax+84]
	push	ecx
	movzx	edx, BYTE PTR __Ch$32860[ebp]
	push	edx
	call	??$_Fputc@D@std@@YA_NDPAU_iobuf@@@Z	; std::_Fputc<char>
	add	esp, 8
	movzx	eax, al
	test	eax, eax
	je	SHORT $LN27@overflow
	mov	ecx, DWORD PTR __Meta$[ebp]
	mov	DWORD PTR tv230[ebp], ecx
	jmp	SHORT $LN28@overflow
$LN27@overflow:
	call	?eof@?$char_traits@D@std@@SAHXZ		; std::char_traits<char>::eof
	mov	DWORD PTR tv230[ebp], eax
$LN28@overflow:
	mov	edx, DWORD PTR tv230[ebp]
	mov	DWORD PTR $T36973[ebp], edx
	mov	DWORD PTR __$EHRec$[ebp+8], -1
	lea	ecx, DWORD PTR __Str$32863[ebp]
	call	??1?$basic_string@DU?$char_traits@D@std@@V?$allocator@D@2@@std@@QAE@XZ ; std::basic_string<char,std::char_traits<char>,std::allocator<char> >::~basic_string<char,std::char_traits<char>,std::allocator<char> >
	mov	eax, DWORD PTR $T36973[ebp]
	jmp	SHORT $LN21@overflow
$LN1@overflow:

; 374  : 
; 375  : 				default:
; 376  : 					return (_Traits::eof());	// conversion failed

	call	?eof@?$char_traits@D@std@@SAHXZ		; std::char_traits<char>::eof
	mov	DWORD PTR $T36976[ebp], eax
	mov	DWORD PTR __$EHRec$[ebp+8], -1
	lea	ecx, DWORD PTR __Str$32863[ebp]
	call	??1?$basic_string@DU?$char_traits@D@std@@V?$allocator@D@2@@std@@QAE@XZ ; std::basic_string<char,std::char_traits<char>,std::allocator<char> >::~basic_string<char,std::char_traits<char>,std::allocator<char> >
	mov	eax, DWORD PTR $T36976[ebp]
	jmp	SHORT $LN21@overflow
$LN10@overflow:

; 377  : 				}

	jmp	$LN13@overflow

; 378  : 			}

	mov	DWORD PTR __$EHRec$[ebp+8], -1
	lea	ecx, DWORD PTR __Str$32863[ebp]
	call	??1?$basic_string@DU?$char_traits@D@std@@V?$allocator@D@2@@std@@QAE@XZ ; std::basic_string<char,std::char_traits<char>,std::allocator<char> >::~basic_string<char,std::char_traits<char>,std::allocator<char> >
$LN21@overflow:

; 379  : 		}

	push	edx
	mov	ecx, ebp
	push	eax
	lea	edx, DWORD PTR $LN42@overflow
	call	@_RTC_CheckStackVars@8
	pop	eax
	pop	edx
	mov	ecx, DWORD PTR __$EHRec$[ebp]
	mov	DWORD PTR fs:0, ecx
	pop	ecx
	pop	edi
	pop	esi
	pop	ebx
	mov	ecx, DWORD PTR __$ArrayPad$[ebp]
	xor	ecx, ebp
	call	@__security_check_cookie@4
	add	esp, 528				; 00000210H
	cmp	ebp, esp
	call	__RTC_CheckEsp
	mov	esp, ebp
	pop	ebp
	ret	4
	npad	3
$LN42@overflow:
	DD	4
	DD	$LN41@overflow
$LN41@overflow:
	DD	-45					; ffffffd3H
	DD	1
	DD	$LN36@overflow
	DD	-60					; ffffffc4H
	DD	4
	DD	$LN37@overflow
	DD	-72					; ffffffb8H
	DD	4
	DD	$LN38@overflow
	DD	-112					; ffffff90H
	DD	32					; 00000020H
	DD	$LN39@overflow
$LN39@overflow:
	DB	95					; 0000005fH
	DB	83					; 00000053H
	DB	116					; 00000074H
	DB	114					; 00000072H
	DB	0
$LN38@overflow:
	DB	95					; 0000005fH
	DB	68					; 00000044H
	DB	101					; 00000065H
	DB	115					; 00000073H
	DB	116					; 00000074H
	DB	0
$LN37@overflow:
	DB	95					; 0000005fH
	DB	83					; 00000053H
	DB	114					; 00000072H
	DB	99					; 00000063H
	DB	0
$LN36@overflow:
	DB	95					; 0000005fH
	DB	67					; 00000043H
	DB	104					; 00000068H
	DB	0
_TEXT	ENDS
;	COMDAT text$x
text$x	SEGMENT
__unwindfunclet$?overflow@?$basic_filebuf@DU?$char_traits@D@std@@@std@@MAEHH@Z$0:
	lea	ecx, DWORD PTR __Str$32863[ebp]
	jmp	??1?$basic_string@DU?$char_traits@D@std@@V?$allocator@D@2@@std@@QAE@XZ ; std::basic_string<char,std::char_traits<char>,std::allocator<char> >::~basic_string<char,std::char_traits<char>,std::allocator<char> >
__unwindfunclet$?overflow@?$basic_filebuf@DU?$char_traits@D@std@@@std@@MAEHH@Z$1:
	lea	ecx, DWORD PTR $T36963[ebp]
	jmp	??1?$_String_iterator@DU?$char_traits@D@std@@V?$allocator@D@2@@std@@QAE@XZ
__unwindfunclet$?overflow@?$basic_filebuf@DU?$char_traits@D@std@@@std@@MAEHH@Z$2:
	lea	ecx, DWORD PTR $T36964[ebp]
	jmp	??1?$_String_iterator@DU?$char_traits@D@std@@V?$allocator@D@2@@std@@QAE@XZ
__unwindfunclet$?overflow@?$basic_filebuf@DU?$char_traits@D@std@@@std@@MAEHH@Z$3:
	lea	ecx, DWORD PTR $T36965[ebp]
	jmp	??1?$_String_iterator@DU?$char_traits@D@std@@V?$allocator@D@2@@std@@QAE@XZ
__unwindfunclet$?overflow@?$basic_filebuf@DU?$char_traits@D@std@@@std@@MAEHH@Z$4:
	mov	eax, DWORD PTR $T36981[ebp]
	and	eax, 1
	je	$LN34@overflow
	and	DWORD PTR $T36981[ebp], -2		; fffffffeH
	lea	ecx, DWORD PTR $T36967[ebp]
	jmp	??1?$_String_iterator@DU?$char_traits@D@std@@V?$allocator@D@2@@std@@QAE@XZ
$LN34@overflow:
	ret	0
__ehhandler$?overflow@?$basic_filebuf@DU?$char_traits@D@std@@@std@@MAEHH@Z:
	mov	edx, DWORD PTR [esp+8]
	lea	eax, DWORD PTR [edx+12]
	mov	ecx, DWORD PTR [edx-532]
	xor	ecx, eax
	call	@__security_check_cookie@4
	mov	ecx, DWORD PTR [edx-4]
	xor	ecx, eax
	call	@__security_check_cookie@4
	mov	eax, OFFSET __ehfuncinfo$?overflow@?$basic_filebuf@DU?$char_traits@D@std@@@std@@MAEHH@Z
	jmp	___CxxFrameHandler3
text$x	ENDS
?overflow@?$basic_filebuf@DU?$char_traits@D@std@@@std@@MAEHH@Z ENDP ; std::basic_filebuf<char,std::char_traits<char> >::overflow
; Function compile flags: /Odtp /RTCsu /ZI
; File c:\program files (x86)\microsoft visual studio 10.0\vc\include\iosfwd
;	COMDAT ?not_eof@?$char_traits@D@std@@SAHABH@Z
_TEXT	SEGMENT
tv69 = -196						; size = 4
__Meta$ = 8						; size = 4
?not_eof@?$char_traits@D@std@@SAHABH@Z PROC		; std::char_traits<char>::not_eof, COMDAT

; 557  : 		{	// return anything but EOF

	push	ebp
	mov	ebp, esp
	sub	esp, 196				; 000000c4H
	push	ebx
	push	esi
	push	edi
	lea	edi, DWORD PTR [ebp-196]
	mov	ecx, 49					; 00000031H
	mov	eax, -858993460				; ccccccccH
	rep stosd

; 558  : 		return (_Meta != eof() ? _Meta : !eof());

	call	?eof@?$char_traits@D@std@@SAHXZ		; std::char_traits<char>::eof
	mov	ecx, DWORD PTR __Meta$[ebp]
	cmp	DWORD PTR [ecx], eax
	je	SHORT $LN3@not_eof
	mov	edx, DWORD PTR __Meta$[ebp]
	mov	eax, DWORD PTR [edx]
	mov	DWORD PTR tv69[ebp], eax
	jmp	SHORT $LN4@not_eof
$LN3@not_eof:
	call	?eof@?$char_traits@D@std@@SAHXZ		; std::char_traits<char>::eof
	neg	eax
	sbb	eax, eax
	add	eax, 1
	mov	DWORD PTR tv69[ebp], eax
$LN4@not_eof:
	mov	eax, DWORD PTR tv69[ebp]

; 559  : 		}

	pop	edi
	pop	esi
	pop	ebx
	add	esp, 196				; 000000c4H
	cmp	ebp, esp
	call	__RTC_CheckEsp
	mov	esp, ebp
	pop	ebp
	ret	0
?not_eof@?$char_traits@D@std@@SAHABH@Z ENDP		; std::char_traits<char>::not_eof
_TEXT	ENDS
EXTRN	_fputc:PROC
; Function compile flags: /Odtp /RTCsu /ZI
; File c:\program files (x86)\microsoft visual studio 10.0\vc\include\fstream
;	COMDAT ??$_Fputc@D@std@@YA_NDPAU_iobuf@@@Z
_TEXT	SEGMENT
__Byte$ = 8						; size = 1
__File$ = 12						; size = 4
??$_Fputc@D@std@@YA_NDPAU_iobuf@@@Z PROC		; std::_Fputc<char>, COMDAT

; 80   : 	{	// put a char element to a C stream

	push	ebp
	mov	ebp, esp
	sub	esp, 192				; 000000c0H
	push	ebx
	push	esi
	push	edi
	lea	edi, DWORD PTR [ebp-192]
	mov	ecx, 48					; 00000030H
	mov	eax, -858993460				; ccccccccH
	rep stosd

; 81   : 	return (fputc(_Byte, _File) != EOF);

	mov	eax, DWORD PTR __File$[ebp]
	push	eax
	movsx	ecx, BYTE PTR __Byte$[ebp]
	push	ecx
	call	_fputc
	add	esp, 8
	xor	edx, edx
	cmp	eax, -1
	setne	dl
	mov	al, dl

; 82   : 	}

	pop	edi
	pop	esi
	pop	ebx
	add	esp, 192				; 000000c0H
	cmp	ebp, esp
	call	__RTC_CheckEsp
	mov	esp, ebp
	pop	ebp
	ret	0
??$_Fputc@D@std@@YA_NDPAU_iobuf@@@Z ENDP		; std::_Fputc<char>
_TEXT	ENDS
PUBLIC	?_Set_back@?$basic_filebuf@DU?$char_traits@D@std@@@std@@AAEXXZ ; std::basic_filebuf<char,std::char_traits<char> >::_Set_back
PUBLIC	??$_Ungetc@D@std@@YA_NABDPAU_iobuf@@@Z		; std::_Ungetc<char>
PUBLIC	?_Gndec@?$basic_streambuf@DU?$char_traits@D@std@@@std@@IAEPADXZ ; std::basic_streambuf<char,std::char_traits<char> >::_Gndec
PUBLIC	?eback@?$basic_streambuf@DU?$char_traits@D@std@@@std@@IBEPADXZ ; std::basic_streambuf<char,std::char_traits<char> >::eback
; Function compile flags: /Odtp /RTCsu /ZI
;	COMDAT ?pbackfail@?$basic_filebuf@DU?$char_traits@D@std@@@std@@MAEHH@Z
_TEXT	SEGMENT
$T37005 = -248						; size = 4
$T37006 = -236						; size = 4
$T37007 = -224						; size = 4
$T37008 = -209						; size = 1
_this$ = -8						; size = 4
__Meta$ = 8						; size = 4
?pbackfail@?$basic_filebuf@DU?$char_traits@D@std@@@std@@MAEHH@Z PROC ; std::basic_filebuf<char,std::char_traits<char> >::pbackfail, COMDAT
; _this$ = ecx

; 383  : 		{	// put an element back to stream

	push	ebp
	mov	ebp, esp
	sub	esp, 252				; 000000fcH
	push	ebx
	push	esi
	push	edi
	push	ecx
	lea	edi, DWORD PTR [ebp-252]
	mov	ecx, 63					; 0000003fH
	mov	eax, -858993460				; ccccccccH
	rep stosd
	pop	ecx
	mov	DWORD PTR _this$[ebp], ecx

; 384  : 		if (_Mysb::gptr() != 0
; 385  : 			&& _Mysb::eback() < _Mysb::gptr()
; 386  : 			&& (_Traits::eq_int_type(_Traits::eof(), _Meta)
; 387  : 			|| _Traits::eq_int_type(_Traits::to_int_type(_Mysb::gptr()[-1]),
; 388  : 				_Meta)))

	mov	ecx, DWORD PTR _this$[ebp]
	call	?gptr@?$basic_streambuf@DU?$char_traits@D@std@@@std@@IBEPADXZ ; std::basic_streambuf<char,std::char_traits<char> >::gptr
	test	eax, eax
	je	$LN10@pbackfail
	mov	ecx, DWORD PTR _this$[ebp]
	call	?eback@?$basic_streambuf@DU?$char_traits@D@std@@@std@@IBEPADXZ ; std::basic_streambuf<char,std::char_traits<char> >::eback
	mov	esi, eax
	mov	ecx, DWORD PTR _this$[ebp]
	call	?gptr@?$basic_streambuf@DU?$char_traits@D@std@@@std@@IBEPADXZ ; std::basic_streambuf<char,std::char_traits<char> >::gptr
	cmp	esi, eax
	jae	SHORT $LN10@pbackfail
	call	?eof@?$char_traits@D@std@@SAHXZ		; std::char_traits<char>::eof
	mov	DWORD PTR $T37005[ebp], eax
	lea	eax, DWORD PTR __Meta$[ebp]
	push	eax
	lea	ecx, DWORD PTR $T37005[ebp]
	push	ecx
	call	?eq_int_type@?$char_traits@D@std@@SA_NABH0@Z ; std::char_traits<char>::eq_int_type
	add	esp, 8
	movzx	edx, al
	test	edx, edx
	jne	SHORT $LN9@pbackfail
	mov	ecx, DWORD PTR _this$[ebp]
	call	?gptr@?$basic_streambuf@DU?$char_traits@D@std@@@std@@IBEPADXZ ; std::basic_streambuf<char,std::char_traits<char> >::gptr
	sub	eax, 1
	push	eax
	call	?to_int_type@?$char_traits@D@std@@SAHABD@Z ; std::char_traits<char>::to_int_type
	add	esp, 4
	mov	DWORD PTR $T37006[ebp], eax
	lea	eax, DWORD PTR __Meta$[ebp]
	push	eax
	lea	ecx, DWORD PTR $T37006[ebp]
	push	ecx
	call	?eq_int_type@?$char_traits@D@std@@SA_NABH0@Z ; std::char_traits<char>::eq_int_type
	add	esp, 8
	movzx	edx, al
	test	edx, edx
	je	SHORT $LN10@pbackfail
$LN9@pbackfail:

; 389  : 			{	// just back up position
; 390  : 			_Mysb::_Gndec();

	mov	ecx, DWORD PTR _this$[ebp]
	call	?_Gndec@?$basic_streambuf@DU?$char_traits@D@std@@@std@@IAEPADXZ ; std::basic_streambuf<char,std::char_traits<char> >::_Gndec

; 391  : 			return (_Traits::not_eof(_Meta));

	lea	eax, DWORD PTR __Meta$[ebp]
	push	eax
	call	?not_eof@?$char_traits@D@std@@SAHABH@Z	; std::char_traits<char>::not_eof
	add	esp, 4
	jmp	$LN11@pbackfail
	jmp	$LN11@pbackfail
$LN10@pbackfail:

; 392  : 			}
; 393  : 		else if (_Myfile == 0 || _Traits::eq_int_type(_Traits::eof(), _Meta))

	mov	eax, DWORD PTR _this$[ebp]
	cmp	DWORD PTR [eax+84], 0
	je	SHORT $LN6@pbackfail
	call	?eof@?$char_traits@D@std@@SAHXZ		; std::char_traits<char>::eof
	mov	DWORD PTR $T37007[ebp], eax
	lea	eax, DWORD PTR __Meta$[ebp]
	push	eax
	lea	ecx, DWORD PTR $T37007[ebp]
	push	ecx
	call	?eq_int_type@?$char_traits@D@std@@SA_NABH0@Z ; std::char_traits<char>::eq_int_type
	add	esp, 8
	movzx	edx, al
	test	edx, edx
	je	SHORT $LN7@pbackfail
$LN6@pbackfail:

; 394  : 			return (_Traits::eof());	// no open C stream or EOF, fail

	call	?eof@?$char_traits@D@std@@SAHXZ		; std::char_traits<char>::eof
	jmp	SHORT $LN11@pbackfail
	jmp	SHORT $LN11@pbackfail
$LN7@pbackfail:

; 395  : 		else if (_Pcvt == 0 && _Ungetc(_Traits::to_char_type(_Meta), _Myfile))

	mov	eax, DWORD PTR _this$[ebp]
	cmp	DWORD PTR [eax+68], 0
	jne	SHORT $LN4@pbackfail
	lea	eax, DWORD PTR __Meta$[ebp]
	push	eax
	call	?to_char_type@?$char_traits@D@std@@SADABH@Z ; std::char_traits<char>::to_char_type
	add	esp, 4
	mov	BYTE PTR $T37008[ebp], al
	mov	ecx, DWORD PTR _this$[ebp]
	mov	edx, DWORD PTR [ecx+84]
	push	edx
	lea	eax, DWORD PTR $T37008[ebp]
	push	eax
	call	??$_Ungetc@D@std@@YA_NABDPAU_iobuf@@@Z	; std::_Ungetc<char>
	add	esp, 8
	movzx	ecx, al
	test	ecx, ecx
	je	SHORT $LN4@pbackfail

; 396  : 			return (_Meta);	// no facet and unget succeeded, return

	mov	eax, DWORD PTR __Meta$[ebp]
	jmp	SHORT $LN11@pbackfail
	jmp	SHORT $LN11@pbackfail
$LN4@pbackfail:

; 397  : 		else if (_Mysb::gptr() != &_Mychar)

	mov	ecx, DWORD PTR _this$[ebp]
	call	?gptr@?$basic_streambuf@DU?$char_traits@D@std@@@std@@IBEPADXZ ; std::basic_streambuf<char,std::char_traits<char> >::gptr
	mov	ecx, DWORD PTR _this$[ebp]
	add	ecx, 72					; 00000048H
	cmp	eax, ecx
	je	SHORT $LN2@pbackfail

; 398  : 			{	// putback to _Mychar
; 399  : 			_Mychar = _Traits::to_char_type(_Meta);

	lea	eax, DWORD PTR __Meta$[ebp]
	push	eax
	call	?to_char_type@?$char_traits@D@std@@SADABH@Z ; std::char_traits<char>::to_char_type
	add	esp, 4
	mov	ecx, DWORD PTR _this$[ebp]
	mov	BYTE PTR [ecx+72], al

; 400  : 			_Set_back();	// switch to _Mychar buffer

	mov	ecx, DWORD PTR _this$[ebp]
	call	?_Set_back@?$basic_filebuf@DU?$char_traits@D@std@@@std@@AAEXXZ ; std::basic_filebuf<char,std::char_traits<char> >::_Set_back

; 401  : 			return (_Meta);

	mov	eax, DWORD PTR __Meta$[ebp]
	jmp	SHORT $LN11@pbackfail

; 402  : 			}
; 403  : 		else

	jmp	SHORT $LN11@pbackfail
$LN2@pbackfail:

; 404  : 			return (_Traits::eof());	// nowhere to put back

	call	?eof@?$char_traits@D@std@@SAHXZ		; std::char_traits<char>::eof
$LN11@pbackfail:

; 405  : 		}

	pop	edi
	pop	esi
	pop	ebx
	add	esp, 252				; 000000fcH
	cmp	ebp, esp
	call	__RTC_CheckEsp
	mov	esp, ebp
	pop	ebp
	ret	4
?pbackfail@?$basic_filebuf@DU?$char_traits@D@std@@@std@@MAEHH@Z ENDP ; std::basic_filebuf<char,std::char_traits<char> >::pbackfail
_TEXT	ENDS
EXTRN	_ungetc:PROC
; Function compile flags: /Odtp /RTCsu /ZI
;	COMDAT ??$_Ungetc@D@std@@YA_NABDPAU_iobuf@@@Z
_TEXT	SEGMENT
__Byte$ = 8						; size = 4
__File$ = 12						; size = 4
??$_Ungetc@D@std@@YA_NABDPAU_iobuf@@@Z PROC		; std::_Ungetc<char>, COMDAT

; 104  : 	{	// put back a char element to a C stream

	push	ebp
	mov	ebp, esp
	sub	esp, 192				; 000000c0H
	push	ebx
	push	esi
	push	edi
	lea	edi, DWORD PTR [ebp-192]
	mov	ecx, 48					; 00000030H
	mov	eax, -858993460				; ccccccccH
	rep stosd

; 105  : 	return (ungetc((unsigned char)_Byte, _File) != EOF);

	mov	eax, DWORD PTR __File$[ebp]
	push	eax
	mov	ecx, DWORD PTR __Byte$[ebp]
	movzx	edx, BYTE PTR [ecx]
	push	edx
	call	_ungetc
	add	esp, 8
	xor	ecx, ecx
	cmp	eax, -1
	setne	cl
	mov	al, cl

; 106  : 	}

	pop	edi
	pop	esi
	pop	ebx
	add	esp, 192				; 000000c0H
	cmp	ebp, esp
	call	__RTC_CheckEsp
	mov	esp, ebp
	pop	ebp
	ret	0
??$_Ungetc@D@std@@YA_NABDPAU_iobuf@@@Z ENDP		; std::_Ungetc<char>
_TEXT	ENDS
PUBLIC	?egptr@?$basic_streambuf@DU?$char_traits@D@std@@@std@@IBEPADXZ ; std::basic_streambuf<char,std::char_traits<char> >::egptr
; Function compile flags: /Odtp /RTCsu /ZI
;	COMDAT ?underflow@?$basic_filebuf@DU?$char_traits@D@std@@@std@@MAEHXZ
_TEXT	SEGMENT
$T37013 = -224						; size = 4
__Meta$ = -20						; size = 4
_this$ = -8						; size = 4
?underflow@?$basic_filebuf@DU?$char_traits@D@std@@@std@@MAEHXZ PROC ; std::basic_filebuf<char,std::char_traits<char> >::underflow, COMDAT
; _this$ = ecx

; 408  : 		{	// get an element from stream, but don't point past it

	push	ebp
	mov	ebp, esp
	sub	esp, 228				; 000000e4H
	push	ebx
	push	esi
	push	edi
	push	ecx
	lea	edi, DWORD PTR [ebp-228]
	mov	ecx, 57					; 00000039H
	mov	eax, -858993460				; ccccccccH
	rep stosd
	pop	ecx
	mov	DWORD PTR _this$[ebp], ecx

; 409  : 		int_type _Meta;
; 410  : 		if (_Mysb::gptr() != 0
; 411  : 			&& _Mysb::gptr() < _Mysb::egptr())

	mov	ecx, DWORD PTR _this$[ebp]
	call	?gptr@?$basic_streambuf@DU?$char_traits@D@std@@@std@@IBEPADXZ ; std::basic_streambuf<char,std::char_traits<char> >::gptr
	test	eax, eax
	je	SHORT $LN4@underflow
	mov	ecx, DWORD PTR _this$[ebp]
	call	?gptr@?$basic_streambuf@DU?$char_traits@D@std@@@std@@IBEPADXZ ; std::basic_streambuf<char,std::char_traits<char> >::gptr
	mov	esi, eax
	mov	ecx, DWORD PTR _this$[ebp]
	call	?egptr@?$basic_streambuf@DU?$char_traits@D@std@@@std@@IBEPADXZ ; std::basic_streambuf<char,std::char_traits<char> >::egptr
	cmp	esi, eax
	jae	SHORT $LN4@underflow

; 412  : 			return (_Traits::to_int_type(*_Mysb::gptr()));	// return buffered

	mov	ecx, DWORD PTR _this$[ebp]
	call	?gptr@?$basic_streambuf@DU?$char_traits@D@std@@@std@@IBEPADXZ ; std::basic_streambuf<char,std::char_traits<char> >::gptr
	push	eax
	call	?to_int_type@?$char_traits@D@std@@SAHABD@Z ; std::char_traits<char>::to_int_type
	add	esp, 4
	jmp	SHORT $LN5@underflow
	jmp	SHORT $LN5@underflow
$LN4@underflow:

; 413  : 		else if (_Traits::eq_int_type(_Traits::eof(), _Meta = uflow()))

	mov	eax, DWORD PTR _this$[ebp]
	mov	edx, DWORD PTR [eax]
	mov	esi, esp
	mov	ecx, DWORD PTR _this$[ebp]
	mov	eax, DWORD PTR [edx+28]
	call	eax
	cmp	esi, esp
	call	__RTC_CheckEsp
	mov	DWORD PTR __Meta$[ebp], eax
	call	?eof@?$char_traits@D@std@@SAHXZ		; std::char_traits<char>::eof
	mov	DWORD PTR $T37013[ebp], eax
	lea	ecx, DWORD PTR __Meta$[ebp]
	push	ecx
	lea	edx, DWORD PTR $T37013[ebp]
	push	edx
	call	?eq_int_type@?$char_traits@D@std@@SA_NABH0@Z ; std::char_traits<char>::eq_int_type
	add	esp, 8
	movzx	eax, al
	test	eax, eax
	je	SHORT $LN2@underflow

; 414  : 			return (_Meta);	// uflow failed, return EOF

	mov	eax, DWORD PTR __Meta$[ebp]
	jmp	SHORT $LN5@underflow

; 415  : 		else

	jmp	SHORT $LN5@underflow
$LN2@underflow:

; 416  : 			{	// get a char, don't point past it
; 417  : 			pbackfail(_Meta);

	mov	esi, esp
	mov	eax, DWORD PTR __Meta$[ebp]
	push	eax
	mov	ecx, DWORD PTR _this$[ebp]
	mov	edx, DWORD PTR [ecx]
	mov	ecx, DWORD PTR _this$[ebp]
	mov	eax, DWORD PTR [edx+16]
	call	eax
	cmp	esi, esp
	call	__RTC_CheckEsp

; 418  : 			return (_Meta);

	mov	eax, DWORD PTR __Meta$[ebp]
$LN5@underflow:

; 419  : 			}
; 420  : 		}

	push	edx
	mov	ecx, ebp
	push	eax
	lea	edx, DWORD PTR $LN9@underflow
	call	@_RTC_CheckStackVars@8
	pop	eax
	pop	edx
	pop	edi
	pop	esi
	pop	ebx
	add	esp, 228				; 000000e4H
	cmp	ebp, esp
	call	__RTC_CheckEsp
	mov	esp, ebp
	pop	ebp
	ret	0
	npad	3
$LN9@underflow:
	DD	1
	DD	$LN8@underflow
$LN8@underflow:
	DD	-20					; ffffffecH
	DD	4
	DD	$LN7@underflow
$LN7@underflow:
	DB	95					; 0000005fH
	DB	77					; 0000004dH
	DB	101					; 00000065H
	DB	116					; 00000074H
	DB	97					; 00000061H
	DB	0
?underflow@?$basic_filebuf@DU?$char_traits@D@std@@@std@@MAEHXZ ENDP ; std::basic_filebuf<char,std::char_traits<char> >::underflow
_TEXT	ENDS
PUBLIC	?erase@?$basic_string@DU?$char_traits@D@std@@V?$allocator@D@2@@std@@QAEAAV12@II@Z ; std::basic_string<char,std::char_traits<char>,std::allocator<char> >::erase
PUBLIC	?in@?$codecvt@DDH@std@@QBEHAAHPBD1AAPBDPAD3AAPAD@Z ; std::codecvt<char,char,int>::in
PUBLIC	??$_Fgetc@D@std@@YA_NAADPAU_iobuf@@@Z		; std::_Fgetc<char>
PUBLIC	__$ArrayPad$
EXTRN	_memcpy_s:PROC
EXTRN	_fgetc:PROC
;	COMDAT xdata$x
xdata$x	SEGMENT
__ehfuncinfo$?uflow@?$basic_filebuf@DU?$char_traits@D@std@@@std@@MAEHXZ DD 019930522H
	DD	06H
	DD	FLAT:__unwindtable$?uflow@?$basic_filebuf@DU?$char_traits@D@std@@@std@@MAEHXZ
	DD	2 DUP(00H)
	DD	2 DUP(00H)
	DD	00H
	DD	01H
__unwindtable$?uflow@?$basic_filebuf@DU?$char_traits@D@std@@@std@@MAEHXZ DD 0ffffffffH
	DD	FLAT:__unwindfunclet$?uflow@?$basic_filebuf@DU?$char_traits@D@std@@@std@@MAEHXZ$0
	DD	00H
	DD	FLAT:__unwindfunclet$?uflow@?$basic_filebuf@DU?$char_traits@D@std@@@std@@MAEHXZ$1
	DD	01H
	DD	FLAT:__unwindfunclet$?uflow@?$basic_filebuf@DU?$char_traits@D@std@@@std@@MAEHXZ$2
	DD	00H
	DD	FLAT:__unwindfunclet$?uflow@?$basic_filebuf@DU?$char_traits@D@std@@@std@@MAEHXZ$3
	DD	00H
	DD	FLAT:__unwindfunclet$?uflow@?$basic_filebuf@DU?$char_traits@D@std@@@std@@MAEHXZ$4
	DD	00H
	DD	FLAT:__unwindfunclet$?uflow@?$basic_filebuf@DU?$char_traits@D@std@@@std@@MAEHXZ$5
; Function compile flags: /Odtp /RTCsu /ZI
xdata$x	ENDS
;	COMDAT ?uflow@?$basic_filebuf@DU?$char_traits@D@std@@@std@@MAEHXZ
_TEXT	SEGMENT
tv180 = -512						; size = 4
tv238 = -508						; size = 4
tv248 = -504						; size = 4
tv245 = -500						; size = 4
tv243 = -500						; size = 4
tv240 = -500						; size = 4
tv236 = -500						; size = 4
tv251 = -496						; size = 4
tv250 = -496						; size = 4
tv249 = -496						; size = 4
tv141 = -496						; size = 4
tv139 = -496						; size = 4
$T37022 = -488						; size = 4
$T37023 = -476						; size = 4
$T37024 = -464						; size = 12
$T37025 = -444						; size = 12
$T37026 = -424						; size = 12
$T37027 = -404						; size = 4
$T37028 = -392						; size = 12
$T37029 = -372						; size = 12
$T37030 = -352						; size = 4
$T37031 = -340						; size = 4
__Meta$33015 = -136					; size = 4
__Nleft$33014 = -124					; size = 4
__Src$33013 = -112					; size = 4
__Dest$33012 = -100					; size = 4
__Ch$33011 = -85					; size = 1
__Str$33007 = -76					; size = 32
__Ch$33005 = -33					; size = 1
_this$ = -24						; size = 4
__$ArrayPad$ = -16					; size = 4
__$EHRec$ = -12						; size = 12
?uflow@?$basic_filebuf@DU?$char_traits@D@std@@@std@@MAEHXZ PROC ; std::basic_filebuf<char,std::char_traits<char> >::uflow, COMDAT
; _this$ = ecx

; 423  : 		{	// get an element from stream, point past it

	push	ebp
	mov	ebp, esp
	push	-1
	push	__ehhandler$?uflow@?$basic_filebuf@DU?$char_traits@D@std@@@std@@MAEHXZ
	mov	eax, DWORD PTR fs:0
	push	eax
	sub	esp, 500				; 000001f4H
	push	ebx
	push	esi
	push	edi
	push	ecx
	lea	edi, DWORD PTR [ebp-512]
	mov	ecx, 125				; 0000007dH
	mov	eax, -858993460				; ccccccccH
	rep stosd
	pop	ecx
	mov	eax, DWORD PTR ___security_cookie
	xor	eax, ebp
	mov	DWORD PTR __$ArrayPad$[ebp], eax
	push	eax
	lea	eax, DWORD PTR __$EHRec$[ebp]
	mov	DWORD PTR fs:0, eax
	mov	DWORD PTR _this$[ebp], ecx

; 424  : 		if (_Mysb::gptr() != 0
; 425  : 			&& _Mysb::gptr() < _Mysb::egptr())

	mov	ecx, DWORD PTR _this$[ebp]
	call	?gptr@?$basic_streambuf@DU?$char_traits@D@std@@@std@@IBEPADXZ ; std::basic_streambuf<char,std::char_traits<char> >::gptr
	test	eax, eax
	je	SHORT $LN18@uflow@2
	mov	ecx, DWORD PTR _this$[ebp]
	call	?gptr@?$basic_streambuf@DU?$char_traits@D@std@@@std@@IBEPADXZ ; std::basic_streambuf<char,std::char_traits<char> >::gptr
	mov	esi, eax
	mov	ecx, DWORD PTR _this$[ebp]
	call	?egptr@?$basic_streambuf@DU?$char_traits@D@std@@@std@@IBEPADXZ ; std::basic_streambuf<char,std::char_traits<char> >::egptr
	cmp	esi, eax
	jae	SHORT $LN18@uflow@2

; 426  : 			return (_Traits::to_int_type(
; 427  : 				*_Mysb::_Gninc()));	// return buffered

	mov	ecx, DWORD PTR _this$[ebp]
	call	?_Gninc@?$basic_streambuf@DU?$char_traits@D@std@@@std@@IAEPADXZ ; std::basic_streambuf<char,std::char_traits<char> >::_Gninc
	push	eax
	call	?to_int_type@?$char_traits@D@std@@SAHABD@Z ; std::char_traits<char>::to_int_type
	add	esp, 4
	jmp	$LN19@uflow@2
	jmp	SHORT $LN17@uflow@2
$LN18@uflow@2:

; 428  : 		else if (_Myfile == 0)

	mov	eax, DWORD PTR _this$[ebp]
	cmp	DWORD PTR [eax+84], 0
	jne	SHORT $LN17@uflow@2

; 429  : 			return (_Traits::eof());	// no open C stream, fail

	call	?eof@?$char_traits@D@std@@SAHXZ		; std::char_traits<char>::eof
	jmp	$LN19@uflow@2
$LN17@uflow@2:

; 430  : 		_Reset_back();	// revert from _Mychar buffer

	mov	ecx, DWORD PTR _this$[ebp]
	call	?_Reset_back@?$basic_filebuf@DU?$char_traits@D@std@@@std@@AAEXXZ ; std::basic_filebuf<char,std::char_traits<char> >::_Reset_back

; 431  : 		if (_Pcvt == 0)

	mov	eax, DWORD PTR _this$[ebp]
	cmp	DWORD PTR [eax+68], 0
	jne	SHORT $LN15@uflow@2

; 432  : 			{	// no codecvt facet, just get it
; 433  : 			_Elem _Ch = 0;

	mov	BYTE PTR __Ch$33005[ebp], 0

; 434  : 			return (_Fgetc(_Ch, _Myfile) ? _Traits::to_int_type(_Ch)
; 435  : 				: _Traits::eof());

	mov	eax, DWORD PTR _this$[ebp]
	mov	ecx, DWORD PTR [eax+84]
	push	ecx
	lea	edx, DWORD PTR __Ch$33005[ebp]
	push	edx
	call	??$_Fgetc@D@std@@YA_NAADPAU_iobuf@@@Z	; std::_Fgetc<char>
	add	esp, 8
	movzx	eax, al
	test	eax, eax
	je	SHORT $LN21@uflow@2
	lea	ecx, DWORD PTR __Ch$33005[ebp]
	push	ecx
	call	?to_int_type@?$char_traits@D@std@@SAHABD@Z ; std::char_traits<char>::to_int_type
	add	esp, 4
	mov	DWORD PTR tv139[ebp], eax
	jmp	SHORT $LN22@uflow@2
$LN21@uflow@2:
	call	?eof@?$char_traits@D@std@@SAHXZ		; std::char_traits<char>::eof
	mov	DWORD PTR tv139[ebp], eax
$LN22@uflow@2:
	mov	eax, DWORD PTR tv139[ebp]
	jmp	$LN19@uflow@2

; 436  : 			}
; 437  : 		else

	jmp	$LN19@uflow@2
$LN15@uflow@2:

; 438  : 			{	// build string until codecvt succeeds
; 439  : 			string _Str;

	lea	ecx, DWORD PTR __Str$33007[ebp]
	call	??0?$basic_string@DU?$char_traits@D@std@@V?$allocator@D@2@@std@@QAE@XZ ; std::basic_string<char,std::char_traits<char>,std::allocator<char> >::basic_string<char,std::char_traits<char>,std::allocator<char> >
	mov	DWORD PTR __$EHRec$[ebp+8], 0
$LN13@uflow@2:

; 440  : 
; 441  : 			for (; ; )
; 442  : 				{	// get using codecvt facet
; 443  : 				_Elem _Ch, *_Dest;
; 444  : 				const char *_Src;
; 445  : 				int _Nleft;
; 446  : 				int _Meta = fgetc(_Myfile);

	mov	eax, DWORD PTR _this$[ebp]
	mov	ecx, DWORD PTR [eax+84]
	push	ecx
	call	_fgetc
	add	esp, 4
	mov	DWORD PTR __Meta$33015[ebp], eax

; 447  : 
; 448  : 				if (_Meta == EOF)

	cmp	DWORD PTR __Meta$33015[ebp], -1
	jne	SHORT $LN11@uflow@2

; 449  : 					return (_Traits::eof());	// partial char?

	call	?eof@?$char_traits@D@std@@SAHXZ		; std::char_traits<char>::eof
	mov	DWORD PTR $T37022[ebp], eax
	mov	DWORD PTR __$EHRec$[ebp+8], -1
	lea	ecx, DWORD PTR __Str$33007[ebp]
	call	??1?$basic_string@DU?$char_traits@D@std@@V?$allocator@D@2@@std@@QAE@XZ ; std::basic_string<char,std::char_traits<char>,std::allocator<char> >::~basic_string<char,std::char_traits<char>,std::allocator<char> >
	mov	eax, DWORD PTR $T37022[ebp]
	jmp	$LN19@uflow@2
$LN11@uflow@2:

; 450  : 
; 451  : 				_Str.append(1, (char)_Meta);	// append byte and convert

	movzx	eax, BYTE PTR __Meta$33015[ebp]
	push	eax
	push	1
	lea	ecx, DWORD PTR __Str$33007[ebp]
	call	?append@?$basic_string@DU?$char_traits@D@std@@V?$allocator@D@2@@std@@QAEAAV12@ID@Z ; std::basic_string<char,std::char_traits<char>,std::allocator<char> >::append

; 452  : 				switch (_Pcvt->in(_State,
; 453  : 					&*_Str.begin(), &*_Str.begin() + _Str.size(), _Src,
; 454  : 					&_Ch, &_Ch + 1, _Dest))

	lea	eax, DWORD PTR __Dest$33012[ebp]
	push	eax
	lea	ecx, DWORD PTR __Ch$33011[ebp+1]
	push	ecx
	lea	edx, DWORD PTR __Ch$33011[ebp]
	push	edx
	lea	eax, DWORD PTR __Src$33013[ebp]
	push	eax
	lea	ecx, DWORD PTR $T37024[ebp]
	push	ecx
	lea	ecx, DWORD PTR __Str$33007[ebp]
	call	?begin@?$basic_string@DU?$char_traits@D@std@@V?$allocator@D@2@@std@@QAE?AV?$_String_iterator@DU?$char_traits@D@std@@V?$allocator@D@2@@2@XZ ; std::basic_string<char,std::char_traits<char>,std::allocator<char> >::begin
	mov	DWORD PTR tv141[ebp], eax
	mov	edx, DWORD PTR tv141[ebp]
	mov	DWORD PTR tv236[ebp], edx
	mov	BYTE PTR __$EHRec$[ebp+8], 1
	mov	ecx, DWORD PTR tv236[ebp]
	call	??D?$_String_iterator@DU?$char_traits@D@std@@V?$allocator@D@2@@std@@QBEAADXZ ; std::_String_iterator<char,std::char_traits<char>,std::allocator<char> >::operator*
	mov	esi, eax
	lea	ecx, DWORD PTR __Str$33007[ebp]
	call	?size@?$basic_string@DU?$char_traits@D@std@@V?$allocator@D@2@@std@@QBEIXZ ; std::basic_string<char,std::char_traits<char>,std::allocator<char> >::size
	add	esi, eax
	push	esi
	lea	eax, DWORD PTR $T37025[ebp]
	push	eax
	lea	ecx, DWORD PTR __Str$33007[ebp]
	call	?begin@?$basic_string@DU?$char_traits@D@std@@V?$allocator@D@2@@std@@QAE?AV?$_String_iterator@DU?$char_traits@D@std@@V?$allocator@D@2@@2@XZ ; std::basic_string<char,std::char_traits<char>,std::allocator<char> >::begin
	mov	DWORD PTR tv248[ebp], eax
	mov	ecx, DWORD PTR tv248[ebp]
	mov	DWORD PTR tv238[ebp], ecx
	mov	BYTE PTR __$EHRec$[ebp+8], 2
	mov	ecx, DWORD PTR tv238[ebp]
	call	??D?$_String_iterator@DU?$char_traits@D@std@@V?$allocator@D@2@@std@@QBEAADXZ ; std::_String_iterator<char,std::char_traits<char>,std::allocator<char> >::operator*
	push	eax
	mov	edx, DWORD PTR _this$[ebp]
	add	edx, 76					; 0000004cH
	push	edx
	mov	eax, DWORD PTR _this$[ebp]
	mov	ecx, DWORD PTR [eax+68]
	call	?in@?$codecvt@DDH@std@@QBEHAAHPBD1AAPBDPAD3AAPAD@Z ; std::codecvt<char,char,int>::in
	mov	DWORD PTR $T37023[ebp], eax
	mov	BYTE PTR __$EHRec$[ebp+8], 1
	lea	ecx, DWORD PTR $T37025[ebp]
	call	??1?$_String_iterator@DU?$char_traits@D@std@@V?$allocator@D@2@@std@@QAE@XZ
	mov	BYTE PTR __$EHRec$[ebp+8], 0
	lea	ecx, DWORD PTR $T37024[ebp]
	call	??1?$_String_iterator@DU?$char_traits@D@std@@V?$allocator@D@2@@std@@QAE@XZ
	mov	ecx, DWORD PTR $T37023[ebp]
	mov	DWORD PTR tv180[ebp], ecx
	cmp	DWORD PTR tv180[ebp], 0
	jl	$LN1@uflow@2
	cmp	DWORD PTR tv180[ebp], 1
	jle	SHORT $LN8@uflow@2
	cmp	DWORD PTR tv180[ebp], 3
	je	$LN3@uflow@2
	jmp	$LN1@uflow@2
$LN8@uflow@2:

; 455  : 					{	// test result of converting one element
; 456  : 				case codecvt_base::partial:
; 457  : 				case codecvt_base::ok:
; 458  : 					if (_Dest != &_Ch)

	mov	eax, DWORD PTR __Dest$33012[ebp]
	lea	ecx, DWORD PTR __Ch$33011[ebp]
	cmp	eax, ecx
	je	$LN7@uflow@2

; 459  : 						{	// got an element, put back excess and deliver it
; 460  : 						_Nleft = (int)(&*_Str.begin() + _Str.size() - _Src);

	lea	eax, DWORD PTR $T37026[ebp]
	push	eax
	lea	ecx, DWORD PTR __Str$33007[ebp]
	call	?begin@?$basic_string@DU?$char_traits@D@std@@V?$allocator@D@2@@std@@QAE?AV?$_String_iterator@DU?$char_traits@D@std@@V?$allocator@D@2@@2@XZ ; std::basic_string<char,std::char_traits<char>,std::allocator<char> >::begin
	mov	DWORD PTR tv249[ebp], eax
	mov	ecx, DWORD PTR tv249[ebp]
	mov	DWORD PTR tv240[ebp], ecx
	mov	BYTE PTR __$EHRec$[ebp+8], 3
	mov	ecx, DWORD PTR tv240[ebp]
	call	??D?$_String_iterator@DU?$char_traits@D@std@@V?$allocator@D@2@@std@@QBEAADXZ ; std::_String_iterator<char,std::char_traits<char>,std::allocator<char> >::operator*
	mov	esi, eax
	lea	ecx, DWORD PTR __Str$33007[ebp]
	call	?size@?$basic_string@DU?$char_traits@D@std@@V?$allocator@D@2@@std@@QBEIXZ ; std::basic_string<char,std::char_traits<char>,std::allocator<char> >::size
	add	esi, eax
	sub	esi, DWORD PTR __Src$33013[ebp]
	mov	DWORD PTR __Nleft$33014[ebp], esi
	mov	BYTE PTR __$EHRec$[ebp+8], 0
	lea	ecx, DWORD PTR $T37026[ebp]
	call	??1?$_String_iterator@DU?$char_traits@D@std@@V?$allocator@D@2@@std@@QAE@XZ
$LN6@uflow@2:

; 461  : 						for (; 0 < _Nleft; )

	cmp	DWORD PTR __Nleft$33014[ebp], 0
	jle	SHORT $LN5@uflow@2

; 462  : 							ungetc(_Src[--_Nleft], _Myfile);

	mov	eax, DWORD PTR __Nleft$33014[ebp]
	sub	eax, 1
	mov	DWORD PTR __Nleft$33014[ebp], eax
	mov	ecx, DWORD PTR _this$[ebp]
	mov	edx, DWORD PTR [ecx+84]
	push	edx
	mov	eax, DWORD PTR __Src$33013[ebp]
	add	eax, DWORD PTR __Nleft$33014[ebp]
	movsx	ecx, BYTE PTR [eax]
	push	ecx
	call	_ungetc
	add	esp, 8
	jmp	SHORT $LN6@uflow@2
$LN5@uflow@2:

; 463  : 						return (_Traits::to_int_type(_Ch));

	lea	eax, DWORD PTR __Ch$33011[ebp]
	push	eax
	call	?to_int_type@?$char_traits@D@std@@SAHABD@Z ; std::char_traits<char>::to_int_type
	add	esp, 4
	mov	DWORD PTR $T37027[ebp], eax
	mov	DWORD PTR __$EHRec$[ebp+8], -1
	lea	ecx, DWORD PTR __Str$33007[ebp]
	call	??1?$basic_string@DU?$char_traits@D@std@@V?$allocator@D@2@@std@@QAE@XZ ; std::basic_string<char,std::char_traits<char>,std::allocator<char> >::~basic_string<char,std::char_traits<char>,std::allocator<char> >
	mov	eax, DWORD PTR $T37027[ebp]
	jmp	$LN19@uflow@2

; 464  : 						}
; 465  : 					else

	jmp	SHORT $LN4@uflow@2
$LN7@uflow@2:

; 466  : 						_Str.erase((size_t)0,	// partial, discard used input
; 467  : 							(size_t)(_Src - &*_Str.begin()));

	lea	eax, DWORD PTR $T37028[ebp]
	push	eax
	lea	ecx, DWORD PTR __Str$33007[ebp]
	call	?begin@?$basic_string@DU?$char_traits@D@std@@V?$allocator@D@2@@std@@QAE?AV?$_String_iterator@DU?$char_traits@D@std@@V?$allocator@D@2@@2@XZ ; std::basic_string<char,std::char_traits<char>,std::allocator<char> >::begin
	mov	DWORD PTR tv250[ebp], eax
	mov	ecx, DWORD PTR tv250[ebp]
	mov	DWORD PTR tv243[ebp], ecx
	mov	BYTE PTR __$EHRec$[ebp+8], 4
	mov	ecx, DWORD PTR tv243[ebp]
	call	??D?$_String_iterator@DU?$char_traits@D@std@@V?$allocator@D@2@@std@@QBEAADXZ ; std::_String_iterator<char,std::char_traits<char>,std::allocator<char> >::operator*
	mov	edx, DWORD PTR __Src$33013[ebp]
	sub	edx, eax
	push	edx
	push	0
	lea	ecx, DWORD PTR __Str$33007[ebp]
	call	?erase@?$basic_string@DU?$char_traits@D@std@@V?$allocator@D@2@@std@@QAEAAV12@II@Z ; std::basic_string<char,std::char_traits<char>,std::allocator<char> >::erase
	mov	BYTE PTR __$EHRec$[ebp+8], 0
	lea	ecx, DWORD PTR $T37028[ebp]
	call	??1?$_String_iterator@DU?$char_traits@D@std@@V?$allocator@D@2@@std@@QAE@XZ
$LN4@uflow@2:

; 468  : 					break;

	jmp	$LN9@uflow@2
$LN3@uflow@2:

; 469  : 
; 470  : 				case codecvt_base::noconv:
; 471  : 					if (_Str.size() < sizeof (_Elem))

	lea	ecx, DWORD PTR __Str$33007[ebp]
	call	?size@?$basic_string@DU?$char_traits@D@std@@V?$allocator@D@2@@std@@QBEIXZ ; std::basic_string<char,std::char_traits<char>,std::allocator<char> >::size
	cmp	eax, 1
	jae	SHORT $LN2@uflow@2

; 472  : 						break;	// no conversion, but need more chars

	jmp	$LN9@uflow@2
$LN2@uflow@2:

; 473  : 
; 474  : 					_CRT_SECURE_MEMCPY(&_Ch, sizeof (_Elem), &*_Str.begin(),

	push	1
	lea	eax, DWORD PTR $T37029[ebp]
	push	eax
	lea	ecx, DWORD PTR __Str$33007[ebp]
	call	?begin@?$basic_string@DU?$char_traits@D@std@@V?$allocator@D@2@@std@@QAE?AV?$_String_iterator@DU?$char_traits@D@std@@V?$allocator@D@2@@2@XZ ; std::basic_string<char,std::char_traits<char>,std::allocator<char> >::begin
	mov	DWORD PTR tv251[ebp], eax
	mov	ecx, DWORD PTR tv251[ebp]
	mov	DWORD PTR tv245[ebp], ecx
	mov	BYTE PTR __$EHRec$[ebp+8], 5
	mov	ecx, DWORD PTR tv245[ebp]
	call	??D?$_String_iterator@DU?$char_traits@D@std@@V?$allocator@D@2@@std@@QBEAADXZ ; std::_String_iterator<char,std::char_traits<char>,std::allocator<char> >::operator*
	push	eax
	push	1
	lea	edx, DWORD PTR __Ch$33011[ebp]
	push	edx
	call	_memcpy_s
	add	esp, 16					; 00000010H
	mov	BYTE PTR __$EHRec$[ebp+8], 0
	lea	ecx, DWORD PTR $T37029[ebp]
	call	??1?$_String_iterator@DU?$char_traits@D@std@@V?$allocator@D@2@@std@@QAE@XZ

; 475  : 						sizeof (_Elem));	// copy raw bytes to element
; 476  : 
; 477  : 					return (_Traits::to_int_type(_Ch));	// return result

	lea	eax, DWORD PTR __Ch$33011[ebp]
	push	eax
	call	?to_int_type@?$char_traits@D@std@@SAHABD@Z ; std::char_traits<char>::to_int_type
	add	esp, 4
	mov	DWORD PTR $T37030[ebp], eax
	mov	DWORD PTR __$EHRec$[ebp+8], -1
	lea	ecx, DWORD PTR __Str$33007[ebp]
	call	??1?$basic_string@DU?$char_traits@D@std@@V?$allocator@D@2@@std@@QAE@XZ ; std::basic_string<char,std::char_traits<char>,std::allocator<char> >::~basic_string<char,std::char_traits<char>,std::allocator<char> >
	mov	eax, DWORD PTR $T37030[ebp]
	jmp	SHORT $LN19@uflow@2
$LN1@uflow@2:

; 478  : 
; 479  : 				default:
; 480  : 					return (_Traits::eof());	// conversion failed

	call	?eof@?$char_traits@D@std@@SAHXZ		; std::char_traits<char>::eof
	mov	DWORD PTR $T37031[ebp], eax
	mov	DWORD PTR __$EHRec$[ebp+8], -1
	lea	ecx, DWORD PTR __Str$33007[ebp]
	call	??1?$basic_string@DU?$char_traits@D@std@@V?$allocator@D@2@@std@@QAE@XZ ; std::basic_string<char,std::char_traits<char>,std::allocator<char> >::~basic_string<char,std::char_traits<char>,std::allocator<char> >
	mov	eax, DWORD PTR $T37031[ebp]
	jmp	SHORT $LN19@uflow@2
$LN9@uflow@2:

; 481  : 					}
; 482  : 				}

	jmp	$LN13@uflow@2

; 483  : 			}

	mov	DWORD PTR __$EHRec$[ebp+8], -1
	lea	ecx, DWORD PTR __Str$33007[ebp]
	call	??1?$basic_string@DU?$char_traits@D@std@@V?$allocator@D@2@@std@@QAE@XZ ; std::basic_string<char,std::char_traits<char>,std::allocator<char> >::~basic_string<char,std::char_traits<char>,std::allocator<char> >
$LN19@uflow@2:

; 484  : 		}

	push	edx
	mov	ecx, ebp
	push	eax
	lea	edx, DWORD PTR $LN36@uflow@2
	call	@_RTC_CheckStackVars@8
	pop	eax
	pop	edx
	mov	ecx, DWORD PTR __$EHRec$[ebp]
	mov	DWORD PTR fs:0, ecx
	pop	ecx
	pop	edi
	pop	esi
	pop	ebx
	mov	ecx, DWORD PTR __$ArrayPad$[ebp]
	xor	ecx, ebp
	call	@__security_check_cookie@4
	add	esp, 512				; 00000200H
	cmp	ebp, esp
	call	__RTC_CheckEsp
	mov	esp, ebp
	pop	ebp
	ret	0
	npad	2
$LN36@uflow@2:
	DD	5
	DD	$LN35@uflow@2
$LN35@uflow@2:
	DD	-33					; ffffffdfH
	DD	1
	DD	$LN29@uflow@2
	DD	-76					; ffffffb4H
	DD	32					; 00000020H
	DD	$LN30@uflow@2
	DD	-85					; ffffffabH
	DD	1
	DD	$LN31@uflow@2
	DD	-100					; ffffff9cH
	DD	4
	DD	$LN32@uflow@2
	DD	-112					; ffffff90H
	DD	4
	DD	$LN33@uflow@2
$LN33@uflow@2:
	DB	95					; 0000005fH
	DB	83					; 00000053H
	DB	114					; 00000072H
	DB	99					; 00000063H
	DB	0
$LN32@uflow@2:
	DB	95					; 0000005fH
	DB	68					; 00000044H
	DB	101					; 00000065H
	DB	115					; 00000073H
	DB	116					; 00000074H
	DB	0
$LN31@uflow@2:
	DB	95					; 0000005fH
	DB	67					; 00000043H
	DB	104					; 00000068H
	DB	0
$LN30@uflow@2:
	DB	95					; 0000005fH
	DB	83					; 00000053H
	DB	116					; 00000074H
	DB	114					; 00000072H
	DB	0
$LN29@uflow@2:
	DB	95					; 0000005fH
	DB	67					; 00000043H
	DB	104					; 00000068H
	DB	0
_TEXT	ENDS
;	COMDAT text$x
text$x	SEGMENT
__unwindfunclet$?uflow@?$basic_filebuf@DU?$char_traits@D@std@@@std@@MAEHXZ$0:
	lea	ecx, DWORD PTR __Str$33007[ebp]
	jmp	??1?$basic_string@DU?$char_traits@D@std@@V?$allocator@D@2@@std@@QAE@XZ ; std::basic_string<char,std::char_traits<char>,std::allocator<char> >::~basic_string<char,std::char_traits<char>,std::allocator<char> >
__unwindfunclet$?uflow@?$basic_filebuf@DU?$char_traits@D@std@@@std@@MAEHXZ$1:
	lea	ecx, DWORD PTR $T37024[ebp]
	jmp	??1?$_String_iterator@DU?$char_traits@D@std@@V?$allocator@D@2@@std@@QAE@XZ
__unwindfunclet$?uflow@?$basic_filebuf@DU?$char_traits@D@std@@@std@@MAEHXZ$2:
	lea	ecx, DWORD PTR $T37025[ebp]
	jmp	??1?$_String_iterator@DU?$char_traits@D@std@@V?$allocator@D@2@@std@@QAE@XZ
__unwindfunclet$?uflow@?$basic_filebuf@DU?$char_traits@D@std@@@std@@MAEHXZ$3:
	lea	ecx, DWORD PTR $T37026[ebp]
	jmp	??1?$_String_iterator@DU?$char_traits@D@std@@V?$allocator@D@2@@std@@QAE@XZ
__unwindfunclet$?uflow@?$basic_filebuf@DU?$char_traits@D@std@@@std@@MAEHXZ$4:
	lea	ecx, DWORD PTR $T37028[ebp]
	jmp	??1?$_String_iterator@DU?$char_traits@D@std@@V?$allocator@D@2@@std@@QAE@XZ
__unwindfunclet$?uflow@?$basic_filebuf@DU?$char_traits@D@std@@@std@@MAEHXZ$5:
	lea	ecx, DWORD PTR $T37029[ebp]
	jmp	??1?$_String_iterator@DU?$char_traits@D@std@@V?$allocator@D@2@@std@@QAE@XZ
__ehhandler$?uflow@?$basic_filebuf@DU?$char_traits@D@std@@@std@@MAEHXZ:
	mov	edx, DWORD PTR [esp+8]
	lea	eax, DWORD PTR [edx+12]
	mov	ecx, DWORD PTR [edx-516]
	xor	ecx, eax
	call	@__security_check_cookie@4
	mov	ecx, DWORD PTR [edx-4]
	xor	ecx, eax
	call	@__security_check_cookie@4
	mov	eax, OFFSET __ehfuncinfo$?uflow@?$basic_filebuf@DU?$char_traits@D@std@@@std@@MAEHXZ
	jmp	___CxxFrameHandler3
text$x	ENDS
?uflow@?$basic_filebuf@DU?$char_traits@D@std@@@std@@MAEHXZ ENDP ; std::basic_filebuf<char,std::char_traits<char> >::uflow
; Function compile flags: /Odtp /RTCsu /ZI
;	COMDAT ??$_Fgetc@D@std@@YA_NAADPAU_iobuf@@@Z
_TEXT	SEGMENT
__Meta$ = -8						; size = 4
__Byte$ = 8						; size = 4
__File$ = 12						; size = 4
??$_Fgetc@D@std@@YA_NAADPAU_iobuf@@@Z PROC		; std::_Fgetc<char>, COMDAT

; 35   : 	{	// get a char element from a C stream

	push	ebp
	mov	ebp, esp
	sub	esp, 204				; 000000ccH
	push	ebx
	push	esi
	push	edi
	lea	edi, DWORD PTR [ebp-204]
	mov	ecx, 51					; 00000033H
	mov	eax, -858993460				; ccccccccH
	rep stosd

; 36   : 	int _Meta;
; 37   : 	if ((_Meta = fgetc(_File)) == EOF)

	mov	eax, DWORD PTR __File$[ebp]
	push	eax
	call	_fgetc
	add	esp, 4
	mov	DWORD PTR __Meta$[ebp], eax
	cmp	DWORD PTR __Meta$[ebp], -1
	jne	SHORT $LN2@Fgetc

; 38   : 		return (false);

	xor	al, al
	jmp	SHORT $LN3@Fgetc

; 39   : 	else

	jmp	SHORT $LN3@Fgetc
$LN2@Fgetc:

; 40   : 		{	// got one, convert to char
; 41   : 		_Byte = (char)_Meta;

	mov	eax, DWORD PTR __Byte$[ebp]
	mov	cl, BYTE PTR __Meta$[ebp]
	mov	BYTE PTR [eax], cl

; 42   : 		return (true);

	mov	al, 1
$LN3@Fgetc:

; 43   : 		}
; 44   : 	}

	pop	edi
	pop	esi
	pop	ebx
	add	esp, 204				; 000000ccH
	cmp	ebp, esp
	call	__RTC_CheckEsp
	mov	esp, ebp
	pop	ebp
	ret	0
??$_Fgetc@D@std@@YA_NAADPAU_iobuf@@@Z ENDP		; std::_Fgetc<char>
_TEXT	ENDS
PUBLIC	??0?$fpos@H@std@@QAE@H_J@Z			; std::fpos<int>::fpos<int>
PUBLIC	?_Endwrite@?$basic_filebuf@DU?$char_traits@D@std@@@std@@IAE_NXZ ; std::basic_filebuf<char,std::char_traits<char> >::_Endwrite
EXTRN	_fgetpos:PROC
EXTRN	__fseeki64:PROC
; Function compile flags: /Odtp /RTCsu /ZI
;	COMDAT ?seekoff@?$basic_filebuf@DU?$char_traits@D@std@@@std@@MAE?AV?$fpos@H@2@_JHH@Z
_TEXT	SEGMENT
__Fileposition$ = -24					; size = 8
_this$ = -8						; size = 4
___$ReturnUdt$ = 8					; size = 4
__Off$ = 12						; size = 8
__Way$ = 20						; size = 4
___formal$ = 24						; size = 4
?seekoff@?$basic_filebuf@DU?$char_traits@D@std@@@std@@MAE?AV?$fpos@H@2@_JHH@Z PROC ; std::basic_filebuf<char,std::char_traits<char> >::seekoff, COMDAT
; _this$ = ecx

; 490  : 		{	// change position by _Off

	push	ebp
	mov	ebp, esp
	sub	esp, 220				; 000000dcH
	push	ebx
	push	esi
	push	edi
	push	ecx
	lea	edi, DWORD PTR [ebp-220]
	mov	ecx, 55					; 00000037H
	mov	eax, -858993460				; ccccccccH
	rep stosd
	pop	ecx
	mov	DWORD PTR _this$[ebp], ecx

; 491  : 		fpos_t _Fileposition;
; 492  : 
; 493  : 		if (_Mysb::gptr() == &_Mychar	// something putback
; 494  : 			&& _Way == ios_base::cur	// a relative seek
; 495  : 			&& _Pcvt == 0)	// not converting

	mov	ecx, DWORD PTR _this$[ebp]
	call	?gptr@?$basic_streambuf@DU?$char_traits@D@std@@@std@@IBEPADXZ ; std::basic_streambuf<char,std::char_traits<char> >::gptr
	mov	ecx, DWORD PTR _this$[ebp]
	add	ecx, 72					; 00000048H
	cmp	eax, ecx
	jne	SHORT $LN5@seekoff
	cmp	DWORD PTR __Way$[ebp], 1
	jne	SHORT $LN5@seekoff
	mov	eax, DWORD PTR _this$[ebp]
	cmp	DWORD PTR [eax+68], 0
	jne	SHORT $LN5@seekoff

; 496  : 			_Off -= (off_type)sizeof (_Elem);	// back up over _Elem bytes

	mov	eax, DWORD PTR __Off$[ebp]
	sub	eax, 1
	mov	ecx, DWORD PTR __Off$[ebp+4]
	sbb	ecx, 0
	mov	DWORD PTR __Off$[ebp], eax
	mov	DWORD PTR __Off$[ebp+4], ecx
$LN5@seekoff:

; 497  : 
; 498  : 		if (_Myfile == 0 || !_Endwrite()
; 499  : 			|| (_Off != 0 || _Way != ios_base::cur)
; 500  : 				&& _FSEEK_OFF(_Myfile, _Off, _Way) != 0
; 501  : 			|| fgetpos(_Myfile, &_Fileposition) != 0)

	mov	eax, DWORD PTR _this$[ebp]
	cmp	DWORD PTR [eax+84], 0
	je	SHORT $LN3@seekoff
	mov	ecx, DWORD PTR _this$[ebp]
	call	?_Endwrite@?$basic_filebuf@DU?$char_traits@D@std@@@std@@IAE_NXZ ; std::basic_filebuf<char,std::char_traits<char> >::_Endwrite
	movzx	eax, al
	test	eax, eax
	je	SHORT $LN3@seekoff
	mov	eax, DWORD PTR __Off$[ebp]
	or	eax, DWORD PTR __Off$[ebp+4]
	jne	SHORT $LN1@seekoff
	cmp	DWORD PTR __Way$[ebp], 1
	je	SHORT $LN2@seekoff
$LN1@seekoff:
	mov	eax, DWORD PTR __Way$[ebp]
	push	eax
	mov	ecx, DWORD PTR __Off$[ebp+4]
	push	ecx
	mov	edx, DWORD PTR __Off$[ebp]
	push	edx
	mov	eax, DWORD PTR _this$[ebp]
	mov	ecx, DWORD PTR [eax+84]
	push	ecx
	call	__fseeki64
	add	esp, 16					; 00000010H
	test	eax, eax
	jne	SHORT $LN3@seekoff
$LN2@seekoff:
	lea	eax, DWORD PTR __Fileposition$[ebp]
	push	eax
	mov	ecx, DWORD PTR _this$[ebp]
	mov	edx, DWORD PTR [ecx+84]
	push	edx
	call	_fgetpos
	add	esp, 8
	test	eax, eax
	je	SHORT $LN4@seekoff
$LN3@seekoff:

; 502  : 			return (pos_type(_BADOFF));	// report failure

	mov	eax, DWORD PTR ?_BADOFF@std@@3_JB+4
	push	eax
	mov	ecx, DWORD PTR ?_BADOFF@std@@3_JB
	push	ecx
	mov	ecx, DWORD PTR ___$ReturnUdt$[ebp]
	call	??0?$fpos@H@std@@QAE@_J@Z		; std::fpos<int>::fpos<int>
	mov	eax, DWORD PTR ___$ReturnUdt$[ebp]
	jmp	SHORT $LN6@seekoff
$LN4@seekoff:

; 503  : 
; 504  : 		_Reset_back();	// revert from _Mychar buffer, discarding any putback

	mov	ecx, DWORD PTR _this$[ebp]
	call	?_Reset_back@?$basic_filebuf@DU?$char_traits@D@std@@@std@@AAEXXZ ; std::basic_filebuf<char,std::char_traits<char> >::_Reset_back

; 505  : 		return (_POS_TYPE_FROM_STATE(pos_type, _State,

	mov	eax, DWORD PTR __Fileposition$[ebp+4]
	push	eax
	mov	ecx, DWORD PTR __Fileposition$[ebp]
	push	ecx
	mov	edx, DWORD PTR _this$[ebp]
	mov	eax, DWORD PTR [edx+76]
	push	eax
	mov	ecx, DWORD PTR ___$ReturnUdt$[ebp]
	call	??0?$fpos@H@std@@QAE@H_J@Z		; std::fpos<int>::fpos<int>
	mov	eax, DWORD PTR ___$ReturnUdt$[ebp]
$LN6@seekoff:

; 506  : 			_Fileposition));	// return new position
; 507  : 		}

	push	edx
	mov	ecx, ebp
	push	eax
	lea	edx, DWORD PTR $LN10@seekoff
	call	@_RTC_CheckStackVars@8
	pop	eax
	pop	edx
	pop	edi
	pop	esi
	pop	ebx
	add	esp, 220				; 000000dcH
	cmp	ebp, esp
	call	__RTC_CheckEsp
	mov	esp, ebp
	pop	ebp
	ret	20					; 00000014H
	npad	3
$LN10@seekoff:
	DD	1
	DD	$LN9@seekoff
$LN9@seekoff:
	DD	-24					; ffffffe8H
	DD	8
	DD	$LN8@seekoff
$LN8@seekoff:
	DB	95					; 0000005fH
	DB	70					; 00000046H
	DB	105					; 00000069H
	DB	108					; 0000006cH
	DB	101					; 00000065H
	DB	112					; 00000070H
	DB	111					; 0000006fH
	DB	115					; 00000073H
	DB	105					; 00000069H
	DB	116					; 00000074H
	DB	105					; 00000069H
	DB	111					; 0000006fH
	DB	110					; 0000006eH
	DB	0
?seekoff@?$basic_filebuf@DU?$char_traits@D@std@@@std@@MAE?AV?$fpos@H@2@_JHH@Z ENDP ; std::basic_filebuf<char,std::char_traits<char> >::seekoff
_TEXT	ENDS
PUBLIC	?state@?$fpos@H@std@@QBEHXZ			; std::fpos<int>::state
PUBLIC	?seekpos@?$fpos@H@std@@QBE_JXZ			; std::fpos<int>::seekpos
EXTRN	_fsetpos:PROC
; Function compile flags: /Odtp /RTCsu /ZI
;	COMDAT ?seekpos@?$basic_filebuf@DU?$char_traits@D@std@@@std@@MAE?AV?$fpos@H@2@V32@H@Z
_TEXT	SEGMENT
__Off$ = -40						; size = 8
__Fileposition$ = -24					; size = 8
_this$ = -8						; size = 4
___$ReturnUdt$ = 8					; size = 4
__Pos$ = 12						; size = 24
___formal$ = 36						; size = 4
?seekpos@?$basic_filebuf@DU?$char_traits@D@std@@@std@@MAE?AV?$fpos@H@2@V32@H@Z PROC ; std::basic_filebuf<char,std::char_traits<char> >::seekpos, COMDAT
; _this$ = ecx

; 512  : 		{	// change position to _Pos

	push	ebp
	mov	ebp, esp
	sub	esp, 236				; 000000ecH
	push	ebx
	push	esi
	push	edi
	push	ecx
	lea	edi, DWORD PTR [ebp-236]
	mov	ecx, 59					; 0000003bH
	mov	eax, -858993460				; ccccccccH
	rep stosd
	pop	ecx
	mov	DWORD PTR _this$[ebp], ecx

; 513  : 		fpos_t _Fileposition = _POS_TYPE_TO_FPOS_T(_Pos);

	lea	ecx, DWORD PTR __Pos$[ebp]
	call	?seekpos@?$fpos@H@std@@QBE_JXZ		; std::fpos<int>::seekpos
	mov	DWORD PTR __Fileposition$[ebp], eax
	mov	DWORD PTR __Fileposition$[ebp+4], edx

; 514  : 		off_type _Off = (off_type)_Pos - (off_type)_FPOSOFF(_Fileposition);

	lea	ecx, DWORD PTR __Pos$[ebp]
	call	??B?$fpos@H@std@@QBE_JXZ		; std::fpos<int>::operator __int64
	mov	ecx, eax
	mov	esi, edx
	mov	eax, DWORD PTR __Fileposition$[ebp]
	cdq
	sub	ecx, eax
	sbb	esi, edx
	mov	DWORD PTR __Off$[ebp], ecx
	mov	DWORD PTR __Off$[ebp+4], esi

; 515  : 
; 516  : 		if (_Myfile == 0 || !_Endwrite()
; 517  : 			|| fsetpos(_Myfile, &_Fileposition) != 0
; 518  : 			|| _Off != 0 && _FSEEK_OFF(_Myfile, _Off, SEEK_CUR) != 0
; 519  : 			|| fgetpos(_Myfile, &_Fileposition) != 0)

	mov	eax, DWORD PTR _this$[ebp]
	cmp	DWORD PTR [eax+84], 0
	je	SHORT $LN2@seekpos
	mov	ecx, DWORD PTR _this$[ebp]
	call	?_Endwrite@?$basic_filebuf@DU?$char_traits@D@std@@@std@@IAE_NXZ ; std::basic_filebuf<char,std::char_traits<char> >::_Endwrite
	movzx	eax, al
	test	eax, eax
	je	SHORT $LN2@seekpos
	lea	eax, DWORD PTR __Fileposition$[ebp]
	push	eax
	mov	ecx, DWORD PTR _this$[ebp]
	mov	edx, DWORD PTR [ecx+84]
	push	edx
	call	_fsetpos
	add	esp, 8
	test	eax, eax
	jne	SHORT $LN2@seekpos
	mov	eax, DWORD PTR __Off$[ebp]
	or	eax, DWORD PTR __Off$[ebp+4]
	je	SHORT $LN1@seekpos
	push	1
	mov	eax, DWORD PTR __Off$[ebp+4]
	push	eax
	mov	ecx, DWORD PTR __Off$[ebp]
	push	ecx
	mov	edx, DWORD PTR _this$[ebp]
	mov	eax, DWORD PTR [edx+84]
	push	eax
	call	__fseeki64
	add	esp, 16					; 00000010H
	test	eax, eax
	jne	SHORT $LN2@seekpos
$LN1@seekpos:
	lea	eax, DWORD PTR __Fileposition$[ebp]
	push	eax
	mov	ecx, DWORD PTR _this$[ebp]
	mov	edx, DWORD PTR [ecx+84]
	push	edx
	call	_fgetpos
	add	esp, 8
	test	eax, eax
	je	SHORT $LN3@seekpos
$LN2@seekpos:

; 520  : 			return (pos_type(_BADOFF));	// report failure

	mov	eax, DWORD PTR ?_BADOFF@std@@3_JB+4
	push	eax
	mov	ecx, DWORD PTR ?_BADOFF@std@@3_JB
	push	ecx
	mov	ecx, DWORD PTR ___$ReturnUdt$[ebp]
	call	??0?$fpos@H@std@@QAE@_J@Z		; std::fpos<int>::fpos<int>
	mov	eax, DWORD PTR ___$ReturnUdt$[ebp]
	jmp	SHORT $LN4@seekpos
$LN3@seekpos:

; 521  : 
; 522  : 		_State = _POS_TYPE_TO_STATE(_Pos);

	lea	ecx, DWORD PTR __Pos$[ebp]
	call	?state@?$fpos@H@std@@QBEHXZ		; std::fpos<int>::state
	mov	ecx, DWORD PTR _this$[ebp]
	mov	DWORD PTR [ecx+76], eax

; 523  : 
; 524  : 		_Reset_back();	// revert from _Mychar buffer, discarding any putback

	mov	ecx, DWORD PTR _this$[ebp]
	call	?_Reset_back@?$basic_filebuf@DU?$char_traits@D@std@@@std@@AAEXXZ ; std::basic_filebuf<char,std::char_traits<char> >::_Reset_back

; 525  : 		return (_POS_TYPE_FROM_STATE(pos_type, _State,

	mov	eax, DWORD PTR __Fileposition$[ebp+4]
	push	eax
	mov	ecx, DWORD PTR __Fileposition$[ebp]
	push	ecx
	mov	edx, DWORD PTR _this$[ebp]
	mov	eax, DWORD PTR [edx+76]
	push	eax
	mov	ecx, DWORD PTR ___$ReturnUdt$[ebp]
	call	??0?$fpos@H@std@@QAE@H_J@Z		; std::fpos<int>::fpos<int>
	mov	eax, DWORD PTR ___$ReturnUdt$[ebp]
$LN4@seekpos:

; 526  : 			_Fileposition));	// return new position
; 527  : 		}

	push	edx
	mov	ecx, ebp
	push	eax
	lea	edx, DWORD PTR $LN8@seekpos
	call	@_RTC_CheckStackVars@8
	pop	eax
	pop	edx
	pop	edi
	pop	esi
	pop	ebx
	add	esp, 236				; 000000ecH
	cmp	ebp, esp
	call	__RTC_CheckEsp
	mov	esp, ebp
	pop	ebp
	ret	32					; 00000020H
	npad	1
$LN8@seekpos:
	DD	1
	DD	$LN7@seekpos
$LN7@seekpos:
	DD	-24					; ffffffe8H
	DD	8
	DD	$LN6@seekpos
$LN6@seekpos:
	DB	95					; 0000005fH
	DB	70					; 00000046H
	DB	105					; 00000069H
	DB	108					; 0000006cH
	DB	101					; 00000065H
	DB	112					; 00000070H
	DB	111					; 0000006fH
	DB	115					; 00000073H
	DB	105					; 00000069H
	DB	116					; 00000074H
	DB	105					; 00000069H
	DB	111					; 0000006fH
	DB	110					; 0000006eH
	DB	0
?seekpos@?$basic_filebuf@DU?$char_traits@D@std@@@std@@MAE?AV?$fpos@H@2@V32@H@Z ENDP ; std::basic_filebuf<char,std::char_traits<char> >::seekpos
_TEXT	ENDS
PUBLIC	?_Init@?$basic_filebuf@DU?$char_traits@D@std@@@std@@IAEXPAU_iobuf@@W4_Initfl@12@@Z ; std::basic_filebuf<char,std::char_traits<char> >::_Init
EXTRN	_setvbuf:PROC
; Function compile flags: /Odtp /RTCsu /ZI
;	COMDAT ?setbuf@?$basic_filebuf@DU?$char_traits@D@std@@@std@@MAEPAV?$basic_streambuf@DU?$char_traits@D@std@@@2@PAD_J@Z
_TEXT	SEGMENT
tv71 = -208						; size = 4
_this$ = -8						; size = 4
__Buffer$ = 8						; size = 4
__Count$ = 12						; size = 8
?setbuf@?$basic_filebuf@DU?$char_traits@D@std@@@std@@MAEPAV?$basic_streambuf@DU?$char_traits@D@std@@@2@PAD_J@Z PROC ; std::basic_filebuf<char,std::char_traits<char> >::setbuf, COMDAT
; _this$ = ecx

; 530  : 		{	// offer _Buffer to C stream

	push	ebp
	mov	ebp, esp
	sub	esp, 208				; 000000d0H
	push	ebx
	push	esi
	push	edi
	push	ecx
	lea	edi, DWORD PTR [ebp-208]
	mov	ecx, 52					; 00000034H
	mov	eax, -858993460				; ccccccccH
	rep stosd
	pop	ecx
	mov	DWORD PTR _this$[ebp], ecx

; 531  : 		if (_Myfile == 0 || setvbuf(_Myfile, (char *)_Buffer,
; 532  : 			_Buffer == 0 && _Count == 0 ? _IONBF : _IOFBF,
; 533  : 			(size_t)_Count * sizeof (_Elem)) != 0)

	mov	eax, DWORD PTR _this$[ebp]
	cmp	DWORD PTR [eax+84], 0
	je	SHORT $LN2@setbuf
	cmp	DWORD PTR __Buffer$[ebp], 0
	jne	SHORT $LN6@setbuf
	mov	eax, DWORD PTR __Count$[ebp]
	or	eax, DWORD PTR __Count$[ebp+4]
	jne	SHORT $LN6@setbuf
	mov	DWORD PTR tv71[ebp], 4
	jmp	SHORT $LN7@setbuf
$LN6@setbuf:
	mov	DWORD PTR tv71[ebp], 0
$LN7@setbuf:
	mov	ecx, DWORD PTR __Count$[ebp]
	push	ecx
	mov	edx, DWORD PTR tv71[ebp]
	push	edx
	mov	eax, DWORD PTR __Buffer$[ebp]
	push	eax
	mov	ecx, DWORD PTR _this$[ebp]
	mov	edx, DWORD PTR [ecx+84]
	push	edx
	call	_setvbuf
	add	esp, 16					; 00000010H
	test	eax, eax
	je	SHORT $LN3@setbuf
$LN2@setbuf:

; 534  : 			return (0);	// failed

	xor	eax, eax
	jmp	SHORT $LN4@setbuf

; 535  : 		else

	jmp	SHORT $LN4@setbuf
$LN3@setbuf:

; 536  : 			{	// new buffer, reinitialize pointers
; 537  : 			_Init(_Myfile, _Openfl);

	push	1
	mov	eax, DWORD PTR _this$[ebp]
	mov	ecx, DWORD PTR [eax+84]
	push	ecx
	mov	ecx, DWORD PTR _this$[ebp]
	call	?_Init@?$basic_filebuf@DU?$char_traits@D@std@@@std@@IAEXPAU_iobuf@@W4_Initfl@12@@Z ; std::basic_filebuf<char,std::char_traits<char> >::_Init

; 538  : 			return (this);

	mov	eax, DWORD PTR _this$[ebp]
$LN4@setbuf:

; 539  : 			}
; 540  : 		}

	pop	edi
	pop	esi
	pop	ebx
	add	esp, 208				; 000000d0H
	cmp	ebp, esp
	call	__RTC_CheckEsp
	mov	esp, ebp
	pop	ebp
	ret	12					; 0000000cH
?setbuf@?$basic_filebuf@DU?$char_traits@D@std@@@std@@MAEPAV?$basic_streambuf@DU?$char_traits@D@std@@@2@PAD_J@Z ENDP ; std::basic_filebuf<char,std::char_traits<char> >::setbuf
_TEXT	ENDS
EXTRN	_fflush:PROC
; Function compile flags: /Odtp /RTCsu /ZI
;	COMDAT ?sync@?$basic_filebuf@DU?$char_traits@D@std@@@std@@MAEHXZ
_TEXT	SEGMENT
tv86 = -232						; size = 4
$T37069 = -224						; size = 4
$T37070 = -212						; size = 4
_this$ = -8						; size = 4
?sync@?$basic_filebuf@DU?$char_traits@D@std@@@std@@MAEHXZ PROC ; std::basic_filebuf<char,std::char_traits<char> >::sync, COMDAT
; _this$ = ecx

; 543  : 		{	// synchronize C stream with external file

	push	ebp
	mov	ebp, esp
	sub	esp, 232				; 000000e8H
	push	ebx
	push	esi
	push	edi
	push	ecx
	lea	edi, DWORD PTR [ebp-232]
	mov	ecx, 58					; 0000003aH
	mov	eax, -858993460				; ccccccccH
	rep stosd
	pop	ecx
	mov	DWORD PTR _this$[ebp], ecx

; 544  : 		return (_Myfile == 0
; 545  : 			|| _Traits::eq_int_type(_Traits::eof(), overflow())
; 546  : 			|| 0 <= fflush(_Myfile) ? 0 : -1);

	mov	eax, DWORD PTR _this$[ebp]
	cmp	DWORD PTR [eax+84], 0
	je	SHORT $LN3@sync
	call	?eof@?$char_traits@D@std@@SAHXZ		; std::char_traits<char>::eof
	mov	esi, esp
	push	eax
	mov	ecx, DWORD PTR _this$[ebp]
	mov	edx, DWORD PTR [ecx]
	mov	ecx, DWORD PTR _this$[ebp]
	mov	eax, DWORD PTR [edx+12]
	call	eax
	cmp	esi, esp
	call	__RTC_CheckEsp
	mov	DWORD PTR $T37069[ebp], eax
	call	?eof@?$char_traits@D@std@@SAHXZ		; std::char_traits<char>::eof
	mov	DWORD PTR $T37070[ebp], eax
	lea	ecx, DWORD PTR $T37069[ebp]
	push	ecx
	lea	edx, DWORD PTR $T37070[ebp]
	push	edx
	call	?eq_int_type@?$char_traits@D@std@@SA_NABH0@Z ; std::char_traits<char>::eq_int_type
	add	esp, 8
	movzx	eax, al
	test	eax, eax
	jne	SHORT $LN3@sync
	mov	ecx, DWORD PTR _this$[ebp]
	mov	edx, DWORD PTR [ecx+84]
	push	edx
	call	_fflush
	add	esp, 4
	test	eax, eax
	jge	SHORT $LN3@sync
	mov	DWORD PTR tv86[ebp], -1
	jmp	SHORT $LN4@sync
$LN3@sync:
	mov	DWORD PTR tv86[ebp], 0
$LN4@sync:
	mov	eax, DWORD PTR tv86[ebp]

; 547  : 		}

	pop	edi
	pop	esi
	pop	ebx
	add	esp, 232				; 000000e8H
	cmp	ebp, esp
	call	__RTC_CheckEsp
	mov	esp, ebp
	pop	ebp
	ret	0
?sync@?$basic_filebuf@DU?$char_traits@D@std@@@std@@MAEHXZ ENDP ; std::basic_filebuf<char,std::char_traits<char> >::sync
_TEXT	ENDS
PUBLIC	?_Initcvt@?$basic_filebuf@DU?$char_traits@D@std@@@std@@IAEXPBV?$codecvt@DDH@2@@Z ; std::basic_filebuf<char,std::char_traits<char> >::_Initcvt
PUBLIC	??$use_facet@V?$codecvt@DDH@std@@@std@@YAABV?$codecvt@DDH@0@ABVlocale@0@@Z ; std::use_facet<std::codecvt<char,char,int> >
; Function compile flags: /Odtp /RTCsu /ZI
;	COMDAT ?imbue@?$basic_filebuf@DU?$char_traits@D@std@@@std@@MAEXABVlocale@2@@Z
_TEXT	SEGMENT
_this$ = -8						; size = 4
__Loc$ = 8						; size = 4
?imbue@?$basic_filebuf@DU?$char_traits@D@std@@@std@@MAEXABVlocale@2@@Z PROC ; std::basic_filebuf<char,std::char_traits<char> >::imbue, COMDAT
; _this$ = ecx

; 550  : 		{	// set locale to argument (capture nontrivial codecvt facet)

	push	ebp
	mov	ebp, esp
	sub	esp, 204				; 000000ccH
	push	ebx
	push	esi
	push	edi
	push	ecx
	lea	edi, DWORD PTR [ebp-204]
	mov	ecx, 51					; 00000033H
	mov	eax, -858993460				; ccccccccH
	rep stosd
	pop	ecx
	mov	DWORD PTR _this$[ebp], ecx

; 551  : 		_Initcvt(&_USE(_Loc, _Cvt));

	mov	eax, DWORD PTR __Loc$[ebp]
	push	eax
	call	??$use_facet@V?$codecvt@DDH@std@@@std@@YAABV?$codecvt@DDH@0@ABVlocale@0@@Z ; std::use_facet<std::codecvt<char,char,int> >
	add	esp, 4
	push	eax
	mov	ecx, DWORD PTR _this$[ebp]
	call	?_Initcvt@?$basic_filebuf@DU?$char_traits@D@std@@@std@@IAEXPBV?$codecvt@DDH@2@@Z ; std::basic_filebuf<char,std::char_traits<char> >::_Initcvt

; 552  : 		}

	pop	edi
	pop	esi
	pop	ebx
	add	esp, 204				; 000000ccH
	cmp	ebp, esp
	call	__RTC_CheckEsp
	mov	esp, ebp
	pop	ebp
	ret	4
?imbue@?$basic_filebuf@DU?$char_traits@D@std@@@std@@MAEXABVlocale@2@@Z ENDP ; std::basic_filebuf<char,std::char_traits<char> >::imbue
; Function compile flags: /Odtp /RTCsu /ZI
; File c:\program files (x86)\microsoft visual studio 10.0\vc\include\iosfwd
_TEXT	ENDS
;	COMDAT ??B?$fpos@H@std@@QBE_JXZ
_TEXT	SEGMENT
_this$ = -8						; size = 4
??B?$fpos@H@std@@QBE_JXZ PROC				; std::fpos<int>::operator __int64, COMDAT
; _this$ = ecx

; 64   : 		{	// return offset

	push	ebp
	mov	ebp, esp
	sub	esp, 204				; 000000ccH
	push	ebx
	push	esi
	push	edi
	push	ecx
	lea	edi, DWORD PTR [ebp-204]
	mov	ecx, 51					; 00000033H
	mov	eax, -858993460				; ccccccccH
	rep stosd
	pop	ecx
	mov	DWORD PTR _this$[ebp], ecx

; 65   : 		return ((streamoff)(_Myoff + _FPOSOFF(_Fpos)));

	mov	eax, DWORD PTR _this$[ebp]
	mov	eax, DWORD PTR [eax+8]
	cdq
	mov	ecx, DWORD PTR _this$[ebp]
	add	eax, DWORD PTR [ecx]
	adc	edx, DWORD PTR [ecx+4]

; 66   : 		}

	pop	edi
	pop	esi
	pop	ebx
	mov	esp, ebp
	pop	ebp
	ret	0
??B?$fpos@H@std@@QBE_JXZ ENDP				; std::fpos<int>::operator __int64
_TEXT	ENDS
PUBLIC	??1?$_String_const_iterator@DU?$char_traits@D@std@@V?$allocator@D@2@@std@@QAE@XZ ; std::_String_const_iterator<char,std::char_traits<char>,std::allocator<char> >::~_String_const_iterator<char,std::char_traits<char>,std::allocator<char> >
; Function compile flags: /Odtp /RTCsu /ZI
;	COMDAT ??1?$_String_iterator@DU?$char_traits@D@std@@V?$allocator@D@2@@std@@QAE@XZ
_TEXT	SEGMENT
_this$ = -8						; size = 4
??1?$_String_iterator@DU?$char_traits@D@std@@V?$allocator@D@2@@std@@QAE@XZ PROC ; std::_String_iterator<char,std::char_traits<char>,std::allocator<char> >::~_String_iterator<char,std::char_traits<char>,std::allocator<char> >, COMDAT
; _this$ = ecx
	push	ebp
	mov	ebp, esp
	sub	esp, 204				; 000000ccH
	push	ebx
	push	esi
	push	edi
	push	ecx
	lea	edi, DWORD PTR [ebp-204]
	mov	ecx, 51					; 00000033H
	mov	eax, -858993460				; ccccccccH
	rep stosd
	pop	ecx
	mov	DWORD PTR _this$[ebp], ecx
	mov	ecx, DWORD PTR _this$[ebp]
	call	??1?$_String_const_iterator@DU?$char_traits@D@std@@V?$allocator@D@2@@std@@QAE@XZ
	pop	edi
	pop	esi
	pop	ebx
	add	esp, 204				; 000000ccH
	cmp	ebp, esp
	call	__RTC_CheckEsp
	mov	esp, ebp
	pop	ebp
	ret	0
??1?$_String_iterator@DU?$char_traits@D@std@@V?$allocator@D@2@@std@@QAE@XZ ENDP ; std::_String_iterator<char,std::char_traits<char>,std::allocator<char> >::~_String_iterator<char,std::char_traits<char>,std::allocator<char> >
_TEXT	ENDS
PUBLIC	??1?$_Iterator012@Urandom_access_iterator_tag@std@@DHPBDABDU_Iterator_base12@2@@std@@QAE@XZ ; std::_Iterator012<std::random_access_iterator_tag,char,int,char const *,char const &,std::_Iterator_base12>::~_Iterator012<std::random_access_iterator_tag,char,int,char const *,char const &,std::_Iterator_base12>
; Function compile flags: /Odtp /RTCsu /ZI
;	COMDAT ??1?$_String_const_iterator@DU?$char_traits@D@std@@V?$allocator@D@2@@std@@QAE@XZ
_TEXT	SEGMENT
_this$ = -8						; size = 4
??1?$_String_const_iterator@DU?$char_traits@D@std@@V?$allocator@D@2@@std@@QAE@XZ PROC ; std::_String_const_iterator<char,std::char_traits<char>,std::allocator<char> >::~_String_const_iterator<char,std::char_traits<char>,std::allocator<char> >, COMDAT
; _this$ = ecx
	push	ebp
	mov	ebp, esp
	sub	esp, 204				; 000000ccH
	push	ebx
	push	esi
	push	edi
	push	ecx
	lea	edi, DWORD PTR [ebp-204]
	mov	ecx, 51					; 00000033H
	mov	eax, -858993460				; ccccccccH
	rep stosd
	pop	ecx
	mov	DWORD PTR _this$[ebp], ecx
	mov	ecx, DWORD PTR _this$[ebp]
	call	??1?$_Iterator012@Urandom_access_iterator_tag@std@@DHPBDABDU_Iterator_base12@2@@std@@QAE@XZ
	pop	edi
	pop	esi
	pop	ebx
	add	esp, 204				; 000000ccH
	cmp	ebp, esp
	call	__RTC_CheckEsp
	mov	esp, ebp
	pop	ebp
	ret	0
??1?$_String_const_iterator@DU?$char_traits@D@std@@V?$allocator@D@2@@std@@QAE@XZ ENDP ; std::_String_const_iterator<char,std::char_traits<char>,std::allocator<char> >::~_String_const_iterator<char,std::char_traits<char>,std::allocator<char> >
_TEXT	ENDS
PUBLIC	??_D?$basic_ostream@DU?$char_traits@D@std@@@std@@QAEXXZ ; std::basic_ostream<char,std::char_traits<char> >::`vbase destructor'
; Function compile flags: /Odtp /RTCsu /ZI
;	COMDAT ??_G?$basic_ostream@DU?$char_traits@D@std@@@std@@UAEPAXI@Z
_TEXT	SEGMENT
_this$ = -8						; size = 4
___flags$ = 8						; size = 4
??_G?$basic_ostream@DU?$char_traits@D@std@@@std@@UAEPAXI@Z PROC ; std::basic_ostream<char,std::char_traits<char> >::`scalar deleting destructor', COMDAT
; _this$ = ecx
	push	ebp
	mov	ebp, esp
	sub	esp, 204				; 000000ccH
	push	ebx
	push	esi
	push	edi
	push	ecx
	lea	edi, DWORD PTR [ebp-204]
	mov	ecx, 51					; 00000033H
	mov	eax, -858993460				; ccccccccH
	rep stosd
	pop	ecx
	mov	DWORD PTR _this$[ebp], ecx
	mov	ecx, DWORD PTR _this$[ebp]
	sub	ecx, 8
	call	??_D?$basic_ostream@DU?$char_traits@D@std@@@std@@QAEXXZ
	mov	eax, DWORD PTR ___flags$[ebp]
	and	eax, 1
	je	SHORT $LN1@scalar@5
	mov	eax, DWORD PTR _this$[ebp]
	sub	eax, 8
	push	eax
	call	??3@YAXPAX@Z				; operator delete
	add	esp, 4
$LN1@scalar@5:
	mov	eax, DWORD PTR _this$[ebp]
	sub	eax, 8
	pop	edi
	pop	esi
	pop	ebx
	add	esp, 204				; 000000ccH
	cmp	ebp, esp
	call	__RTC_CheckEsp
	mov	esp, ebp
	pop	ebp
	ret	4
??_G?$basic_ostream@DU?$char_traits@D@std@@@std@@UAEPAXI@Z ENDP ; std::basic_ostream<char,std::char_traits<char> >::`scalar deleting destructor'
; Function compile flags: /Odtp /RTCsu /ZI
_TEXT	ENDS
;	COMDAT ??_G?$basic_ios@DU?$char_traits@D@std@@@std@@UAEPAXI@Z
_TEXT	SEGMENT
_this$ = -8						; size = 4
___flags$ = 8						; size = 4
??_G?$basic_ios@DU?$char_traits@D@std@@@std@@UAEPAXI@Z PROC ; std::basic_ios<char,std::char_traits<char> >::`scalar deleting destructor', COMDAT
; _this$ = ecx
	push	ebp
	mov	ebp, esp
	sub	esp, 204				; 000000ccH
	push	ebx
	push	esi
	push	edi
	push	ecx
	lea	edi, DWORD PTR [ebp-204]
	mov	ecx, 51					; 00000033H
	mov	eax, -858993460				; ccccccccH
	rep stosd
	pop	ecx
	mov	DWORD PTR _this$[ebp], ecx
	mov	ecx, DWORD PTR _this$[ebp]
	call	??1?$basic_ios@DU?$char_traits@D@std@@@std@@UAE@XZ ; std::basic_ios<char,std::char_traits<char> >::~basic_ios<char,std::char_traits<char> >
	mov	eax, DWORD PTR ___flags$[ebp]
	and	eax, 1
	je	SHORT $LN1@scalar@6
	mov	eax, DWORD PTR _this$[ebp]
	push	eax
	call	??3@YAXPAX@Z				; operator delete
	add	esp, 4
$LN1@scalar@6:
	mov	eax, DWORD PTR _this$[ebp]
	pop	edi
	pop	esi
	pop	ebx
	add	esp, 204				; 000000ccH
	cmp	ebp, esp
	call	__RTC_CheckEsp
	mov	esp, ebp
	pop	ebp
	ret	4
??_G?$basic_ios@DU?$char_traits@D@std@@@std@@UAEPAXI@Z ENDP ; std::basic_ios<char,std::char_traits<char> >::`scalar deleting destructor'
_TEXT	ENDS
PUBLIC	??_D?$basic_istream@DU?$char_traits@D@std@@@std@@QAEXXZ ; std::basic_istream<char,std::char_traits<char> >::`vbase destructor'
; Function compile flags: /Odtp /RTCsu /ZI
;	COMDAT ??_G?$basic_istream@DU?$char_traits@D@std@@@std@@UAEPAXI@Z
_TEXT	SEGMENT
_this$ = -8						; size = 4
___flags$ = 8						; size = 4
??_G?$basic_istream@DU?$char_traits@D@std@@@std@@UAEPAXI@Z PROC ; std::basic_istream<char,std::char_traits<char> >::`scalar deleting destructor', COMDAT
; _this$ = ecx
	push	ebp
	mov	ebp, esp
	sub	esp, 204				; 000000ccH
	push	ebx
	push	esi
	push	edi
	push	ecx
	lea	edi, DWORD PTR [ebp-204]
	mov	ecx, 51					; 00000033H
	mov	eax, -858993460				; ccccccccH
	rep stosd
	pop	ecx
	mov	DWORD PTR _this$[ebp], ecx
	mov	ecx, DWORD PTR _this$[ebp]
	sub	ecx, 16					; 00000010H
	call	??_D?$basic_istream@DU?$char_traits@D@std@@@std@@QAEXXZ
	mov	eax, DWORD PTR ___flags$[ebp]
	and	eax, 1
	je	SHORT $LN1@scalar@7
	mov	eax, DWORD PTR _this$[ebp]
	sub	eax, 16					; 00000010H
	push	eax
	call	??3@YAXPAX@Z				; operator delete
	add	esp, 4
$LN1@scalar@7:
	mov	eax, DWORD PTR _this$[ebp]
	sub	eax, 16					; 00000010H
	pop	edi
	pop	esi
	pop	ebx
	add	esp, 204				; 000000ccH
	cmp	ebp, esp
	call	__RTC_CheckEsp
	mov	esp, ebp
	pop	ebp
	ret	4
??_G?$basic_istream@DU?$char_traits@D@std@@@std@@UAEPAXI@Z ENDP ; std::basic_istream<char,std::char_traits<char> >::`scalar deleting destructor'
; Function compile flags: /Odtp /RTCsu /ZI
_TEXT	ENDS
;	COMDAT ??_G?$basic_streambuf@DU?$char_traits@D@std@@@std@@UAEPAXI@Z
_TEXT	SEGMENT
_this$ = -8						; size = 4
___flags$ = 8						; size = 4
??_G?$basic_streambuf@DU?$char_traits@D@std@@@std@@UAEPAXI@Z PROC ; std::basic_streambuf<char,std::char_traits<char> >::`scalar deleting destructor', COMDAT
; _this$ = ecx
	push	ebp
	mov	ebp, esp
	sub	esp, 204				; 000000ccH
	push	ebx
	push	esi
	push	edi
	push	ecx
	lea	edi, DWORD PTR [ebp-204]
	mov	ecx, 51					; 00000033H
	mov	eax, -858993460				; ccccccccH
	rep stosd
	pop	ecx
	mov	DWORD PTR _this$[ebp], ecx
	mov	ecx, DWORD PTR _this$[ebp]
	call	??1?$basic_streambuf@DU?$char_traits@D@std@@@std@@UAE@XZ ; std::basic_streambuf<char,std::char_traits<char> >::~basic_streambuf<char,std::char_traits<char> >
	mov	eax, DWORD PTR ___flags$[ebp]
	and	eax, 1
	je	SHORT $LN1@scalar@8
	mov	eax, DWORD PTR _this$[ebp]
	push	eax
	call	??3@YAXPAX@Z				; operator delete
	add	esp, 4
$LN1@scalar@8:
	mov	eax, DWORD PTR _this$[ebp]
	pop	edi
	pop	esi
	pop	ebx
	add	esp, 204				; 000000ccH
	cmp	ebp, esp
	call	__RTC_CheckEsp
	mov	esp, ebp
	pop	ebp
	ret	4
??_G?$basic_streambuf@DU?$char_traits@D@std@@@std@@UAEPAXI@Z ENDP ; std::basic_streambuf<char,std::char_traits<char> >::`scalar deleting destructor'
; Function compile flags: /Odtp /RTCsu /ZI
_TEXT	ENDS
;	COMDAT ??_G?$basic_fstream@DU?$char_traits@D@std@@@std@@UAEPAXI@Z
_TEXT	SEGMENT
_this$ = -8						; size = 4
___flags$ = 8						; size = 4
??_G?$basic_fstream@DU?$char_traits@D@std@@@std@@UAEPAXI@Z PROC ; std::basic_fstream<char,std::char_traits<char> >::`scalar deleting destructor', COMDAT
; _this$ = ecx
	push	ebp
	mov	ebp, esp
	sub	esp, 204				; 000000ccH
	push	ebx
	push	esi
	push	edi
	push	ecx
	lea	edi, DWORD PTR [ebp-204]
	mov	ecx, 51					; 00000033H
	mov	eax, -858993460				; ccccccccH
	rep stosd
	pop	ecx
	mov	DWORD PTR _this$[ebp], ecx
	mov	ecx, DWORD PTR _this$[ebp]
	sub	ecx, 112				; 00000070H
	call	??_D?$basic_fstream@DU?$char_traits@D@std@@@std@@QAEXXZ
	mov	eax, DWORD PTR ___flags$[ebp]
	and	eax, 1
	je	SHORT $LN1@scalar@9
	mov	eax, DWORD PTR _this$[ebp]
	sub	eax, 112				; 00000070H
	push	eax
	call	??3@YAXPAX@Z				; operator delete
	add	esp, 4
$LN1@scalar@9:
	mov	eax, DWORD PTR _this$[ebp]
	sub	eax, 112				; 00000070H
	pop	edi
	pop	esi
	pop	ebx
	add	esp, 204				; 000000ccH
	cmp	ebp, esp
	call	__RTC_CheckEsp
	mov	esp, ebp
	pop	ebp
	ret	4
??_G?$basic_fstream@DU?$char_traits@D@std@@@std@@UAEPAXI@Z ENDP ; std::basic_fstream<char,std::char_traits<char> >::`scalar deleting destructor'
_TEXT	ENDS
PUBLIC	??_D?$basic_iostream@DU?$char_traits@D@std@@@std@@QAEXXZ ; std::basic_iostream<char,std::char_traits<char> >::`vbase destructor'
; Function compile flags: /Odtp /RTCsu /ZI
;	COMDAT ??_G?$basic_iostream@DU?$char_traits@D@std@@@std@@UAEPAXI@Z
_TEXT	SEGMENT
_this$ = -8						; size = 4
___flags$ = 8						; size = 4
??_G?$basic_iostream@DU?$char_traits@D@std@@@std@@UAEPAXI@Z PROC ; std::basic_iostream<char,std::char_traits<char> >::`scalar deleting destructor', COMDAT
; _this$ = ecx
	push	ebp
	mov	ebp, esp
	sub	esp, 204				; 000000ccH
	push	ebx
	push	esi
	push	edi
	push	ecx
	lea	edi, DWORD PTR [ebp-204]
	mov	ecx, 51					; 00000033H
	mov	eax, -858993460				; ccccccccH
	rep stosd
	pop	ecx
	mov	DWORD PTR _this$[ebp], ecx
	mov	ecx, DWORD PTR _this$[ebp]
	sub	ecx, 24					; 00000018H
	call	??_D?$basic_iostream@DU?$char_traits@D@std@@@std@@QAEXXZ
	mov	eax, DWORD PTR ___flags$[ebp]
	and	eax, 1
	je	SHORT $LN1@scalar@10
	mov	eax, DWORD PTR _this$[ebp]
	sub	eax, 24					; 00000018H
	push	eax
	call	??3@YAXPAX@Z				; operator delete
	add	esp, 4
$LN1@scalar@10:
	mov	eax, DWORD PTR _this$[ebp]
	sub	eax, 24					; 00000018H
	pop	edi
	pop	esi
	pop	ebx
	add	esp, 204				; 000000ccH
	cmp	ebp, esp
	call	__RTC_CheckEsp
	mov	esp, ebp
	pop	ebp
	ret	4
??_G?$basic_iostream@DU?$char_traits@D@std@@@std@@UAEPAXI@Z ENDP ; std::basic_iostream<char,std::char_traits<char> >::`scalar deleting destructor'
; Function compile flags: /Odtp /RTCsu /ZI
_TEXT	ENDS
;	COMDAT ??_G?$basic_filebuf@DU?$char_traits@D@std@@@std@@UAEPAXI@Z
_TEXT	SEGMENT
_this$ = -8						; size = 4
___flags$ = 8						; size = 4
??_G?$basic_filebuf@DU?$char_traits@D@std@@@std@@UAEPAXI@Z PROC ; std::basic_filebuf<char,std::char_traits<char> >::`scalar deleting destructor', COMDAT
; _this$ = ecx
	push	ebp
	mov	ebp, esp
	sub	esp, 204				; 000000ccH
	push	ebx
	push	esi
	push	edi
	push	ecx
	lea	edi, DWORD PTR [ebp-204]
	mov	ecx, 51					; 00000033H
	mov	eax, -858993460				; ccccccccH
	rep stosd
	pop	ecx
	mov	DWORD PTR _this$[ebp], ecx
	mov	ecx, DWORD PTR _this$[ebp]
	call	??1?$basic_filebuf@DU?$char_traits@D@std@@@std@@UAE@XZ ; std::basic_filebuf<char,std::char_traits<char> >::~basic_filebuf<char,std::char_traits<char> >
	mov	eax, DWORD PTR ___flags$[ebp]
	and	eax, 1
	je	SHORT $LN1@scalar@11
	mov	eax, DWORD PTR _this$[ebp]
	push	eax
	call	??3@YAXPAX@Z				; operator delete
	add	esp, 4
$LN1@scalar@11:
	mov	eax, DWORD PTR _this$[ebp]
	pop	edi
	pop	esi
	pop	ebx
	add	esp, 204				; 000000ccH
	cmp	ebp, esp
	call	__RTC_CheckEsp
	mov	esp, ebp
	pop	ebp
	ret	4
??_G?$basic_filebuf@DU?$char_traits@D@std@@@std@@UAEPAXI@Z ENDP ; std::basic_filebuf<char,std::char_traits<char> >::`scalar deleting destructor'
_TEXT	ENDS
PUBLIC	??1_Iterator_base12@std@@QAE@XZ			; std::_Iterator_base12::~_Iterator_base12
; Function compile flags: /Odtp /RTCsu /ZI
;	COMDAT ??1?$_Iterator012@Urandom_access_iterator_tag@std@@DHPBDABDU_Iterator_base12@2@@std@@QAE@XZ
_TEXT	SEGMENT
_this$ = -8						; size = 4
??1?$_Iterator012@Urandom_access_iterator_tag@std@@DHPBDABDU_Iterator_base12@2@@std@@QAE@XZ PROC ; std::_Iterator012<std::random_access_iterator_tag,char,int,char const *,char const &,std::_Iterator_base12>::~_Iterator012<std::random_access_iterator_tag,char,int,char const *,char const &,std::_Iterator_base12>, COMDAT
; _this$ = ecx
	push	ebp
	mov	ebp, esp
	sub	esp, 204				; 000000ccH
	push	ebx
	push	esi
	push	edi
	push	ecx
	lea	edi, DWORD PTR [ebp-204]
	mov	ecx, 51					; 00000033H
	mov	eax, -858993460				; ccccccccH
	rep stosd
	pop	ecx
	mov	DWORD PTR _this$[ebp], ecx
	mov	ecx, DWORD PTR _this$[ebp]
	call	??1_Iterator_base12@std@@QAE@XZ		; std::_Iterator_base12::~_Iterator_base12
	pop	edi
	pop	esi
	pop	ebx
	add	esp, 204				; 000000ccH
	cmp	ebp, esp
	call	__RTC_CheckEsp
	mov	esp, ebp
	pop	ebp
	ret	0
??1?$_Iterator012@Urandom_access_iterator_tag@std@@DHPBDABDU_Iterator_base12@2@@std@@QAE@XZ ENDP ; std::_Iterator012<std::random_access_iterator_tag,char,int,char const *,char const &,std::_Iterator_base12>::~_Iterator012<std::random_access_iterator_tag,char,int,char const *,char const &,std::_Iterator_base12>
_TEXT	ENDS
PUBLIC	?_Orphan_me@_Iterator_base12@std@@QAEXXZ	; std::_Iterator_base12::_Orphan_me
EXTRN	??1_Lockit@std@@QAE@XZ:PROC			; std::_Lockit::~_Lockit
EXTRN	??0_Lockit@std@@QAE@H@Z:PROC			; std::_Lockit::_Lockit
;	COMDAT xdata$x
; File c:\program files (x86)\microsoft visual studio 10.0\vc\include\xutility
xdata$x	SEGMENT
__unwindtable$??1_Iterator_base12@std@@QAE@XZ DD 0ffffffffH
	DD	FLAT:__unwindfunclet$??1_Iterator_base12@std@@QAE@XZ$0
__ehfuncinfo$??1_Iterator_base12@std@@QAE@XZ DD 019930522H
	DD	01H
	DD	FLAT:__unwindtable$??1_Iterator_base12@std@@QAE@XZ
	DD	2 DUP(00H)
	DD	2 DUP(00H)
	DD	00H
	DD	01H
; Function compile flags: /Odtp /RTCsu /ZI
xdata$x	ENDS
;	COMDAT ??1_Iterator_base12@std@@QAE@XZ
_TEXT	SEGMENT
__Lock$ = -32						; size = 4
_this$ = -20						; size = 4
__$EHRec$ = -12						; size = 12
??1_Iterator_base12@std@@QAE@XZ PROC			; std::_Iterator_base12::~_Iterator_base12, COMDAT
; _this$ = ecx

; 128  : 		{	// destroy the iterator

	push	ebp
	mov	ebp, esp
	push	-1
	push	__ehhandler$??1_Iterator_base12@std@@QAE@XZ
	mov	eax, DWORD PTR fs:0
	push	eax
	sub	esp, 216				; 000000d8H
	push	ebx
	push	esi
	push	edi
	push	ecx
	lea	edi, DWORD PTR [ebp-228]
	mov	ecx, 54					; 00000036H
	mov	eax, -858993460				; ccccccccH
	rep stosd
	pop	ecx
	mov	eax, DWORD PTR ___security_cookie
	xor	eax, ebp
	push	eax
	lea	eax, DWORD PTR __$EHRec$[ebp]
	mov	DWORD PTR fs:0, eax
	mov	DWORD PTR _this$[ebp], ecx

; 129  :  #if _ITERATOR_DEBUG_LEVEL == 2
; 130  : 		_Lockit _Lock(_LOCK_DEBUG);

	push	3
	lea	ecx, DWORD PTR __Lock$[ebp]
	call	??0_Lockit@std@@QAE@H@Z			; std::_Lockit::_Lockit
	mov	DWORD PTR __$EHRec$[ebp+8], 0

; 131  : 		_Orphan_me();

	mov	ecx, DWORD PTR _this$[ebp]
	call	?_Orphan_me@_Iterator_base12@std@@QAEXXZ ; std::_Iterator_base12::_Orphan_me

; 132  :  #endif /* _ITERATOR_DEBUG_LEVEL == 2 */
; 133  : 		}

	mov	DWORD PTR __$EHRec$[ebp+8], -1
	lea	ecx, DWORD PTR __Lock$[ebp]
	call	??1_Lockit@std@@QAE@XZ			; std::_Lockit::~_Lockit
	push	edx
	mov	ecx, ebp
	push	eax
	lea	edx, DWORD PTR $LN7@Iterator_b
	call	@_RTC_CheckStackVars@8
	pop	eax
	pop	edx
	mov	ecx, DWORD PTR __$EHRec$[ebp]
	mov	DWORD PTR fs:0, ecx
	pop	ecx
	pop	edi
	pop	esi
	pop	ebx
	add	esp, 228				; 000000e4H
	cmp	ebp, esp
	call	__RTC_CheckEsp
	mov	esp, ebp
	pop	ebp
	ret	0
	npad	2
$LN7@Iterator_b:
	DD	1
	DD	$LN6@Iterator_b
$LN6@Iterator_b:
	DD	-32					; ffffffe0H
	DD	4
	DD	$LN4@Iterator_b
$LN4@Iterator_b:
	DB	95					; 0000005fH
	DB	76					; 0000004cH
	DB	111					; 0000006fH
	DB	99					; 00000063H
	DB	107					; 0000006bH
	DB	0
_TEXT	ENDS
;	COMDAT text$x
text$x	SEGMENT
__unwindfunclet$??1_Iterator_base12@std@@QAE@XZ$0:
	lea	ecx, DWORD PTR __Lock$[ebp]
	jmp	??1_Lockit@std@@QAE@XZ			; std::_Lockit::~_Lockit
__ehhandler$??1_Iterator_base12@std@@QAE@XZ:
	mov	edx, DWORD PTR [esp+8]
	lea	eax, DWORD PTR [edx+12]
	mov	ecx, DWORD PTR [edx-232]
	xor	ecx, eax
	call	@__security_check_cookie@4
	mov	eax, OFFSET __ehfuncinfo$??1_Iterator_base12@std@@QAE@XZ
	jmp	___CxxFrameHandler3
text$x	ENDS
??1_Iterator_base12@std@@QAE@XZ ENDP			; std::_Iterator_base12::~_Iterator_base12
PUBLIC	??_C@_1DC@POOIKBAO@?$AAI?$AAT?$AAE?$AAR?$AAA?$AAT?$AAO?$AAR?$AA?5?$AAL?$AAI?$AAS?$AAT?$AA?5?$AAC?$AAO?$AAR?$AAR?$AAU?$AAP?$AAT?$AAE?$AAD?$AA?$CB?$AA?$AA@ ; `string'
PUBLIC	??_C@_1JA@DBMECOPL@?$AAc?$AA?3?$AA?2?$AAp?$AAr?$AAo?$AAg?$AAr?$AAa?$AAm?$AA?5?$AAf?$AAi?$AAl?$AAe?$AAs?$AA?5?$AA?$CI?$AAx?$AA8?$AA6?$AA?$CJ?$AA?2?$AAm?$AAi?$AAc?$AAr?$AAo?$AAs?$AAo?$AAf?$AAt@ ; `string'
EXTRN	?_Debug_message@std@@YAXPB_W0I@Z:PROC		; std::_Debug_message
;	COMDAT ??_C@_1DC@POOIKBAO@?$AAI?$AAT?$AAE?$AAR?$AAA?$AAT?$AAO?$AAR?$AA?5?$AAL?$AAI?$AAS?$AAT?$AA?5?$AAC?$AAO?$AAR?$AAR?$AAU?$AAP?$AAT?$AAE?$AAD?$AA?$CB?$AA?$AA@
CONST	SEGMENT
??_C@_1DC@POOIKBAO@?$AAI?$AAT?$AAE?$AAR?$AAA?$AAT?$AAO?$AAR?$AA?5?$AAL?$AAI?$AAS?$AAT?$AA?5?$AAC?$AAO?$AAR?$AAR?$AAU?$AAP?$AAT?$AAE?$AAD?$AA?$CB?$AA?$AA@ DB 'I'
	DB	00H, 'T', 00H, 'E', 00H, 'R', 00H, 'A', 00H, 'T', 00H, 'O', 00H
	DB	'R', 00H, ' ', 00H, 'L', 00H, 'I', 00H, 'S', 00H, 'T', 00H, ' '
	DB	00H, 'C', 00H, 'O', 00H, 'R', 00H, 'R', 00H, 'U', 00H, 'P', 00H
	DB	'T', 00H, 'E', 00H, 'D', 00H, '!', 00H, 00H, 00H ; `string'
CONST	ENDS
;	COMDAT ??_C@_1JA@DBMECOPL@?$AAc?$AA?3?$AA?2?$AAp?$AAr?$AAo?$AAg?$AAr?$AAa?$AAm?$AA?5?$AAf?$AAi?$AAl?$AAe?$AAs?$AA?5?$AA?$CI?$AAx?$AA8?$AA6?$AA?$CJ?$AA?2?$AAm?$AAi?$AAc?$AAr?$AAo?$AAs?$AAo?$AAf?$AAt@
CONST	SEGMENT
??_C@_1JA@DBMECOPL@?$AAc?$AA?3?$AA?2?$AAp?$AAr?$AAo?$AAg?$AAr?$AAa?$AAm?$AA?5?$AAf?$AAi?$AAl?$AAe?$AAs?$AA?5?$AA?$CI?$AAx?$AA8?$AA6?$AA?$CJ?$AA?2?$AAm?$AAi?$AAc?$AAr?$AAo?$AAs?$AAo?$AAf?$AAt@ DB 'c'
	DB	00H, ':', 00H, '\', 00H, 'p', 00H, 'r', 00H, 'o', 00H, 'g', 00H
	DB	'r', 00H, 'a', 00H, 'm', 00H, ' ', 00H, 'f', 00H, 'i', 00H, 'l'
	DB	00H, 'e', 00H, 's', 00H, ' ', 00H, '(', 00H, 'x', 00H, '8', 00H
	DB	'6', 00H, ')', 00H, '\', 00H, 'm', 00H, 'i', 00H, 'c', 00H, 'r'
	DB	00H, 'o', 00H, 's', 00H, 'o', 00H, 'f', 00H, 't', 00H, ' ', 00H
	DB	'v', 00H, 'i', 00H, 's', 00H, 'u', 00H, 'a', 00H, 'l', 00H, ' '
	DB	00H, 's', 00H, 't', 00H, 'u', 00H, 'd', 00H, 'i', 00H, 'o', 00H
	DB	' ', 00H, '1', 00H, '0', 00H, '.', 00H, '0', 00H, '\', 00H, 'v'
	DB	00H, 'c', 00H, '\', 00H, 'i', 00H, 'n', 00H, 'c', 00H, 'l', 00H
	DB	'u', 00H, 'd', 00H, 'e', 00H, '\', 00H, 'x', 00H, 'u', 00H, 't'
	DB	00H, 'i', 00H, 'l', 00H, 'i', 00H, 't', 00H, 'y', 00H, 00H, 00H ; `string'
; Function compile flags: /Odtp /RTCsu /ZI
CONST	ENDS
;	COMDAT ?_Orphan_me@_Iterator_base12@std@@QAEXXZ
_TEXT	SEGMENT
__Pnext$12813 = -20					; size = 4
_this$ = -8						; size = 4
?_Orphan_me@_Iterator_base12@std@@QAEXXZ PROC		; std::_Iterator_base12::_Orphan_me, COMDAT
; _this$ = ecx

; 172  : 		{	// cut ties with parent

	push	ebp
	mov	ebp, esp
	sub	esp, 216				; 000000d8H
	push	ebx
	push	esi
	push	edi
	push	ecx
	lea	edi, DWORD PTR [ebp-216]
	mov	ecx, 54					; 00000036H
	mov	eax, -858993460				; ccccccccH
	rep stosd
	pop	ecx
	mov	DWORD PTR _this$[ebp], ecx

; 173  :  #if _ITERATOR_DEBUG_LEVEL == 2
; 174  : 		if (_Myproxy != 0)

	mov	eax, DWORD PTR _this$[ebp]
	cmp	DWORD PTR [eax], 0
	je	SHORT $LN5@Orphan_me

; 175  : 			{	// adopted, remove self from list
; 176  : 			_Iterator_base12 **_Pnext = &_Myproxy->_Myfirstiter;

	mov	eax, DWORD PTR _this$[ebp]
	mov	ecx, DWORD PTR [eax]
	add	ecx, 4
	mov	DWORD PTR __Pnext$12813[ebp], ecx
$LN3@Orphan_me:

; 177  : 			while (*_Pnext != 0 && *_Pnext != this)

	mov	eax, DWORD PTR __Pnext$12813[ebp]
	cmp	DWORD PTR [eax], 0
	je	SHORT $LN2@Orphan_me
	mov	eax, DWORD PTR __Pnext$12813[ebp]
	mov	ecx, DWORD PTR [eax]
	cmp	ecx, DWORD PTR _this$[ebp]
	je	SHORT $LN2@Orphan_me

; 178  : 				_Pnext = &(*_Pnext)->_Mynextiter;

	mov	eax, DWORD PTR __Pnext$12813[ebp]
	mov	ecx, DWORD PTR [eax]
	add	ecx, 4
	mov	DWORD PTR __Pnext$12813[ebp], ecx
	jmp	SHORT $LN3@Orphan_me
$LN2@Orphan_me:

; 179  : 
; 180  : 			if (*_Pnext == 0)

	mov	eax, DWORD PTR __Pnext$12813[ebp]
	cmp	DWORD PTR [eax], 0
	jne	SHORT $LN1@Orphan_me

; 181  : 				_DEBUG_ERROR("ITERATOR LIST CORRUPTED!");

	push	181					; 000000b5H
	push	OFFSET ??_C@_1JA@DBMECOPL@?$AAc?$AA?3?$AA?2?$AAp?$AAr?$AAo?$AAg?$AAr?$AAa?$AAm?$AA?5?$AAf?$AAi?$AAl?$AAe?$AAs?$AA?5?$AA?$CI?$AAx?$AA8?$AA6?$AA?$CJ?$AA?2?$AAm?$AAi?$AAc?$AAr?$AAo?$AAs?$AAo?$AAf?$AAt@
	push	OFFSET ??_C@_1DC@POOIKBAO@?$AAI?$AAT?$AAE?$AAR?$AAA?$AAT?$AAO?$AAR?$AA?5?$AAL?$AAI?$AAS?$AAT?$AA?5?$AAC?$AAO?$AAR?$AAR?$AAU?$AAP?$AAT?$AAE?$AAD?$AA?$CB?$AA?$AA@
	call	?_Debug_message@std@@YAXPB_W0I@Z	; std::_Debug_message
	add	esp, 12					; 0000000cH
$LN1@Orphan_me:

; 182  : 			*_Pnext = _Mynextiter;

	mov	eax, DWORD PTR __Pnext$12813[ebp]
	mov	ecx, DWORD PTR _this$[ebp]
	mov	edx, DWORD PTR [ecx+4]
	mov	DWORD PTR [eax], edx

; 183  : 			_Myproxy = 0;

	mov	eax, DWORD PTR _this$[ebp]
	mov	DWORD PTR [eax], 0
$LN5@Orphan_me:

; 184  : 			}
; 185  :  #endif /* _ITERATOR_DEBUG_LEVEL == 2 */
; 186  : 		}

	pop	edi
	pop	esi
	pop	ebx
	add	esp, 216				; 000000d8H
	cmp	ebp, esp
	call	__RTC_CheckEsp
	mov	esp, ebp
	pop	ebp
	ret	0
?_Orphan_me@_Iterator_base12@std@@QAEXXZ ENDP		; std::_Iterator_base12::_Orphan_me
; Function compile flags: /Odtp /RTCsu /ZI
_TEXT	ENDS
;	COMDAT ??_D?$basic_ostream@DU?$char_traits@D@std@@@std@@QAEXXZ
_TEXT	SEGMENT
_this$ = -8						; size = 4
??_D?$basic_ostream@DU?$char_traits@D@std@@@std@@QAEXXZ PROC ; std::basic_ostream<char,std::char_traits<char> >::`vbase destructor', COMDAT
; _this$ = ecx
	push	ebp
	mov	ebp, esp
	sub	esp, 204				; 000000ccH
	push	ebx
	push	esi
	push	edi
	push	ecx
	lea	edi, DWORD PTR [ebp-204]
	mov	ecx, 51					; 00000033H
	mov	eax, -858993460				; ccccccccH
	rep stosd
	pop	ecx
	mov	DWORD PTR _this$[ebp], ecx
	mov	ecx, DWORD PTR _this$[ebp]
	add	ecx, 8
	call	??1?$basic_ostream@DU?$char_traits@D@std@@@std@@UAE@XZ ; std::basic_ostream<char,std::char_traits<char> >::~basic_ostream<char,std::char_traits<char> >
	mov	ecx, DWORD PTR _this$[ebp]
	add	ecx, 8
	call	??1?$basic_ios@DU?$char_traits@D@std@@@std@@UAE@XZ ; std::basic_ios<char,std::char_traits<char> >::~basic_ios<char,std::char_traits<char> >
	pop	edi
	pop	esi
	pop	ebx
	add	esp, 204				; 000000ccH
	cmp	ebp, esp
	call	__RTC_CheckEsp
	mov	esp, ebp
	pop	ebp
	ret	0
??_D?$basic_ostream@DU?$char_traits@D@std@@@std@@QAEXXZ ENDP ; std::basic_ostream<char,std::char_traits<char> >::`vbase destructor'
; Function compile flags: /Odtp /RTCsu /ZI
_TEXT	ENDS
;	COMDAT ??_D?$basic_istream@DU?$char_traits@D@std@@@std@@QAEXXZ
_TEXT	SEGMENT
_this$ = -8						; size = 4
??_D?$basic_istream@DU?$char_traits@D@std@@@std@@QAEXXZ PROC ; std::basic_istream<char,std::char_traits<char> >::`vbase destructor', COMDAT
; _this$ = ecx
	push	ebp
	mov	ebp, esp
	sub	esp, 204				; 000000ccH
	push	ebx
	push	esi
	push	edi
	push	ecx
	lea	edi, DWORD PTR [ebp-204]
	mov	ecx, 51					; 00000033H
	mov	eax, -858993460				; ccccccccH
	rep stosd
	pop	ecx
	mov	DWORD PTR _this$[ebp], ecx
	mov	ecx, DWORD PTR _this$[ebp]
	add	ecx, 16					; 00000010H
	call	??1?$basic_istream@DU?$char_traits@D@std@@@std@@UAE@XZ ; std::basic_istream<char,std::char_traits<char> >::~basic_istream<char,std::char_traits<char> >
	mov	ecx, DWORD PTR _this$[ebp]
	add	ecx, 16					; 00000010H
	call	??1?$basic_ios@DU?$char_traits@D@std@@@std@@UAE@XZ ; std::basic_ios<char,std::char_traits<char> >::~basic_ios<char,std::char_traits<char> >
	pop	edi
	pop	esi
	pop	ebx
	add	esp, 204				; 000000ccH
	cmp	ebp, esp
	call	__RTC_CheckEsp
	mov	esp, ebp
	pop	ebp
	ret	0
??_D?$basic_istream@DU?$char_traits@D@std@@@std@@QAEXXZ ENDP ; std::basic_istream<char,std::char_traits<char> >::`vbase destructor'
; Function compile flags: /Odtp /RTCsu /ZI
_TEXT	ENDS
;	COMDAT ??_D?$basic_iostream@DU?$char_traits@D@std@@@std@@QAEXXZ
_TEXT	SEGMENT
_this$ = -8						; size = 4
??_D?$basic_iostream@DU?$char_traits@D@std@@@std@@QAEXXZ PROC ; std::basic_iostream<char,std::char_traits<char> >::`vbase destructor', COMDAT
; _this$ = ecx
	push	ebp
	mov	ebp, esp
	sub	esp, 204				; 000000ccH
	push	ebx
	push	esi
	push	edi
	push	ecx
	lea	edi, DWORD PTR [ebp-204]
	mov	ecx, 51					; 00000033H
	mov	eax, -858993460				; ccccccccH
	rep stosd
	pop	ecx
	mov	DWORD PTR _this$[ebp], ecx
	mov	ecx, DWORD PTR _this$[ebp]
	add	ecx, 24					; 00000018H
	call	??1?$basic_iostream@DU?$char_traits@D@std@@@std@@UAE@XZ ; std::basic_iostream<char,std::char_traits<char> >::~basic_iostream<char,std::char_traits<char> >
	mov	ecx, DWORD PTR _this$[ebp]
	add	ecx, 24					; 00000018H
	call	??1?$basic_ios@DU?$char_traits@D@std@@@std@@UAE@XZ ; std::basic_ios<char,std::char_traits<char> >::~basic_ios<char,std::char_traits<char> >
	pop	edi
	pop	esi
	pop	ebx
	add	esp, 204				; 000000ccH
	cmp	ebp, esp
	call	__RTC_CheckEsp
	mov	esp, ebp
	pop	ebp
	ret	0
??_D?$basic_iostream@DU?$char_traits@D@std@@@std@@QAEXXZ ENDP ; std::basic_iostream<char,std::char_traits<char> >::`vbase destructor'
_TEXT	ENDS
PUBLIC	?assign@?$basic_string@DU?$char_traits@D@std@@V?$allocator@D@2@@std@@QAEAAV12@ID@Z ; std::basic_string<char,std::char_traits<char>,std::allocator<char> >::assign
;	COMDAT xdata$x
; File c:\program files (x86)\microsoft visual studio 10.0\vc\include\xstring
xdata$x	SEGMENT
__unwindtable$??0?$basic_string@DU?$char_traits@D@std@@V?$allocator@D@2@@std@@QAE@ID@Z DD 0ffffffffH
	DD	FLAT:__unwindfunclet$??0?$basic_string@DU?$char_traits@D@std@@V?$allocator@D@2@@std@@QAE@ID@Z$0
__ehfuncinfo$??0?$basic_string@DU?$char_traits@D@std@@V?$allocator@D@2@@std@@QAE@ID@Z DD 019930522H
	DD	01H
	DD	FLAT:__unwindtable$??0?$basic_string@DU?$char_traits@D@std@@V?$allocator@D@2@@std@@QAE@ID@Z
	DD	2 DUP(00H)
	DD	2 DUP(00H)
	DD	00H
	DD	01H
; Function compile flags: /Odtp /RTCsu /ZI
xdata$x	ENDS
;	COMDAT ??0?$basic_string@DU?$char_traits@D@std@@V?$allocator@D@2@@std@@QAE@ID@Z
_TEXT	SEGMENT
$T37122 = -224						; size = 4
_this$ = -20						; size = 4
__$EHRec$ = -12						; size = 12
__Count$ = 8						; size = 4
__Ch$ = 12						; size = 1
??0?$basic_string@DU?$char_traits@D@std@@V?$allocator@D@2@@std@@QAE@ID@Z PROC ; std::basic_string<char,std::char_traits<char>,std::allocator<char> >::basic_string<char,std::char_traits<char>,std::allocator<char> >, COMDAT
; _this$ = ecx

; 606  : 		{	// construct from _Count * _Ch

	push	ebp
	mov	ebp, esp
	push	-1
	push	__ehhandler$??0?$basic_string@DU?$char_traits@D@std@@V?$allocator@D@2@@std@@QAE@ID@Z
	mov	eax, DWORD PTR fs:0
	push	eax
	sub	esp, 216				; 000000d8H
	push	ebx
	push	esi
	push	edi
	push	ecx
	lea	edi, DWORD PTR [ebp-228]
	mov	ecx, 54					; 00000036H
	mov	eax, -858993460				; ccccccccH
	rep stosd
	pop	ecx
	mov	eax, DWORD PTR ___security_cookie
	xor	eax, ebp
	push	eax
	lea	eax, DWORD PTR __$EHRec$[ebp]
	mov	DWORD PTR fs:0, eax
	mov	DWORD PTR _this$[ebp], ecx
	push	ecx
	mov	ecx, esp
	mov	DWORD PTR $T37122[ebp], esp
	call	??0?$allocator@D@std@@QAE@XZ		; std::allocator<char>::allocator<char>
	mov	ecx, DWORD PTR _this$[ebp]
	call	??0?$_String_val@DV?$allocator@D@std@@@std@@QAE@V?$allocator@D@1@@Z ; std::_String_val<char,std::allocator<char> >::_String_val<char,std::allocator<char> >
	mov	DWORD PTR __$EHRec$[ebp+8], 0

; 607  : 		_Tidy();

	push	0
	push	0
	mov	ecx, DWORD PTR _this$[ebp]
	call	?_Tidy@?$basic_string@DU?$char_traits@D@std@@V?$allocator@D@2@@std@@QAEX_NI@Z ; std::basic_string<char,std::char_traits<char>,std::allocator<char> >::_Tidy

; 608  : 		assign(_Count, _Ch);

	movzx	eax, BYTE PTR __Ch$[ebp]
	push	eax
	mov	ecx, DWORD PTR __Count$[ebp]
	push	ecx
	mov	ecx, DWORD PTR _this$[ebp]
	call	?assign@?$basic_string@DU?$char_traits@D@std@@V?$allocator@D@2@@std@@QAEAAV12@ID@Z ; std::basic_string<char,std::char_traits<char>,std::allocator<char> >::assign

; 609  : 		}

	mov	DWORD PTR __$EHRec$[ebp+8], -1
	mov	eax, DWORD PTR _this$[ebp]
	mov	ecx, DWORD PTR __$EHRec$[ebp]
	mov	DWORD PTR fs:0, ecx
	pop	ecx
	pop	edi
	pop	esi
	pop	ebx
	add	esp, 228				; 000000e4H
	cmp	ebp, esp
	call	__RTC_CheckEsp
	mov	esp, ebp
	pop	ebp
	ret	8
_TEXT	ENDS
;	COMDAT text$x
text$x	SEGMENT
__unwindfunclet$??0?$basic_string@DU?$char_traits@D@std@@V?$allocator@D@2@@std@@QAE@ID@Z$0:
	mov	ecx, DWORD PTR _this$[ebp]
	jmp	??1?$_String_val@DV?$allocator@D@std@@@std@@QAE@XZ ; std::_String_val<char,std::allocator<char> >::~_String_val<char,std::allocator<char> >
__ehhandler$??0?$basic_string@DU?$char_traits@D@std@@V?$allocator@D@2@@std@@QAE@ID@Z:
	mov	edx, DWORD PTR [esp+8]
	lea	eax, DWORD PTR [edx+12]
	mov	ecx, DWORD PTR [edx-232]
	xor	ecx, eax
	call	@__security_check_cookie@4
	mov	eax, OFFSET __ehfuncinfo$??0?$basic_string@DU?$char_traits@D@std@@V?$allocator@D@2@@std@@QAE@ID@Z
	jmp	___CxxFrameHandler3
text$x	ENDS
??0?$basic_string@DU?$char_traits@D@std@@V?$allocator@D@2@@std@@QAE@ID@Z ENDP ; std::basic_string<char,std::char_traits<char>,std::allocator<char> >::basic_string<char,std::char_traits<char>,std::allocator<char> >
PUBLIC	?_Xlen@?$basic_string@DU?$char_traits@D@std@@V?$allocator@D@2@@std@@QBEXXZ ; std::basic_string<char,std::char_traits<char>,std::allocator<char> >::_Xlen
PUBLIC	?npos@?$basic_string@DU?$char_traits@D@std@@V?$allocator@D@2@@std@@2IB ; std::basic_string<char,std::char_traits<char>,std::allocator<char> >::npos
PUBLIC	?append@?$basic_string@DU?$char_traits@D@std@@V?$allocator@D@2@@std@@QAEAAV12@ABV12@II@Z ; std::basic_string<char,std::char_traits<char>,std::allocator<char> >::append
PUBLIC	?_Myptr@?$basic_string@DU?$char_traits@D@std@@V?$allocator@D@2@@std@@QAEPADXZ ; std::basic_string<char,std::char_traits<char>,std::allocator<char> >::_Myptr
PUBLIC	?_Inside@?$basic_string@DU?$char_traits@D@std@@V?$allocator@D@2@@std@@QAE_NPBD@Z ; std::basic_string<char,std::char_traits<char>,std::allocator<char> >::_Inside
;	COMDAT ?npos@?$basic_string@DU?$char_traits@D@std@@V?$allocator@D@2@@std@@2IB
CONST	SEGMENT
?npos@?$basic_string@DU?$char_traits@D@std@@V?$allocator@D@2@@std@@2IB DD 0ffffffffH ; std::basic_string<char,std::char_traits<char>,std::allocator<char> >::npos
; Function compile flags: /Odtp /RTCsu /ZI
CONST	ENDS
;	COMDAT ?append@?$basic_string@DU?$char_traits@D@std@@V?$allocator@D@2@@std@@QAEAAV12@PBDI@Z
_TEXT	SEGMENT
__Num$ = -20						; size = 4
_this$ = -8						; size = 4
__Ptr$ = 8						; size = 4
__Count$ = 12						; size = 4
?append@?$basic_string@DU?$char_traits@D@std@@V?$allocator@D@2@@std@@QAEAAV12@PBDI@Z PROC ; std::basic_string<char,std::char_traits<char>,std::allocator<char> >::append, COMDAT
; _this$ = ecx

; 818  : 		{	// append [_Ptr, _Ptr + _Count)

	push	ebp
	mov	ebp, esp
	sub	esp, 216				; 000000d8H
	push	ebx
	push	esi
	push	edi
	push	ecx
	lea	edi, DWORD PTR [ebp-216]
	mov	ecx, 54					; 00000036H
	mov	eax, -858993460				; ccccccccH
	rep stosd
	pop	ecx
	mov	DWORD PTR _this$[ebp], ecx

; 819  :  #if _ITERATOR_DEBUG_LEVEL == 2
; 820  : 		if (_Count != 0)

	cmp	DWORD PTR __Count$[ebp], 0
	je	SHORT $LN4@append

; 821  : 			_DEBUG_POINTER(_Ptr);

	push	821					; 00000335H
	push	OFFSET ??_C@_1IO@GEGAMENF@?$AAc?$AA?3?$AA?2?$AAp?$AAr?$AAo?$AAg?$AAr?$AAa?$AAm?$AA?5?$AAf?$AAi?$AAl?$AAe?$AAs?$AA?5?$AA?$CI?$AAx?$AA8?$AA6?$AA?$CJ?$AA?2?$AAm?$AAi?$AAc?$AAr?$AAo?$AAs?$AAo?$AAf?$AAt@
	mov	eax, DWORD PTR __Ptr$[ebp]
	push	eax
	call	??$_Debug_pointer@D@std@@YAXPBDPB_WI@Z	; std::_Debug_pointer<char>
	add	esp, 12					; 0000000cH
$LN4@append:

; 822  :  #endif /* _ITERATOR_DEBUG_LEVEL == 2 */
; 823  : 
; 824  : 		if (_Inside(_Ptr))

	mov	eax, DWORD PTR __Ptr$[ebp]
	push	eax
	mov	ecx, DWORD PTR _this$[ebp]
	call	?_Inside@?$basic_string@DU?$char_traits@D@std@@V?$allocator@D@2@@std@@QAE_NPBD@Z ; std::basic_string<char,std::char_traits<char>,std::allocator<char> >::_Inside
	movzx	ecx, al
	test	ecx, ecx
	je	SHORT $LN3@append

; 825  : 			return (append(*this, _Ptr - _Myptr(), _Count));	// substring

	mov	eax, DWORD PTR __Count$[ebp]
	push	eax
	mov	ecx, DWORD PTR _this$[ebp]
	call	?_Myptr@?$basic_string@DU?$char_traits@D@std@@V?$allocator@D@2@@std@@QAEPADXZ ; std::basic_string<char,std::char_traits<char>,std::allocator<char> >::_Myptr
	mov	ecx, DWORD PTR __Ptr$[ebp]
	sub	ecx, eax
	push	ecx
	mov	edx, DWORD PTR _this$[ebp]
	push	edx
	mov	ecx, DWORD PTR _this$[ebp]
	call	?append@?$basic_string@DU?$char_traits@D@std@@V?$allocator@D@2@@std@@QAEAAV12@ABV12@II@Z ; std::basic_string<char,std::char_traits<char>,std::allocator<char> >::append
	jmp	SHORT $LN6@append
$LN3@append:

; 826  : 		if (npos - this->_Mysize <= _Count)

	mov	eax, DWORD PTR _this$[ebp]
	mov	ecx, DWORD PTR ?npos@?$basic_string@DU?$char_traits@D@std@@V?$allocator@D@2@@std@@2IB ; std::basic_string<char,std::char_traits<char>,std::allocator<char> >::npos
	sub	ecx, DWORD PTR [eax+20]
	cmp	ecx, DWORD PTR __Count$[ebp]
	ja	SHORT $LN2@append

; 827  : 			_Xlen();	// result too long

	mov	ecx, DWORD PTR _this$[ebp]
	call	?_Xlen@?$basic_string@DU?$char_traits@D@std@@V?$allocator@D@2@@std@@QBEXXZ ; std::basic_string<char,std::char_traits<char>,std::allocator<char> >::_Xlen
$LN2@append:

; 828  : 
; 829  : 		size_type _Num;
; 830  : 		if (0 < _Count && _Grow(_Num = this->_Mysize + _Count))

	cmp	DWORD PTR __Count$[ebp], 0
	jbe	SHORT $LN1@append
	mov	eax, DWORD PTR _this$[ebp]
	mov	ecx, DWORD PTR [eax+20]
	add	ecx, DWORD PTR __Count$[ebp]
	mov	DWORD PTR __Num$[ebp], ecx
	push	0
	mov	edx, DWORD PTR __Num$[ebp]
	push	edx
	mov	ecx, DWORD PTR _this$[ebp]
	call	?_Grow@?$basic_string@DU?$char_traits@D@std@@V?$allocator@D@2@@std@@QAE_NI_N@Z ; std::basic_string<char,std::char_traits<char>,std::allocator<char> >::_Grow
	movzx	eax, al
	test	eax, eax
	je	SHORT $LN1@append

; 831  : 			{	// make room and append new stuff
; 832  : 			_Traits::copy(_Myptr() + this->_Mysize, _Ptr, _Count);

	mov	eax, DWORD PTR __Count$[ebp]
	push	eax
	mov	ecx, DWORD PTR __Ptr$[ebp]
	push	ecx
	mov	ecx, DWORD PTR _this$[ebp]
	call	?_Myptr@?$basic_string@DU?$char_traits@D@std@@V?$allocator@D@2@@std@@QAEPADXZ ; std::basic_string<char,std::char_traits<char>,std::allocator<char> >::_Myptr
	mov	edx, DWORD PTR _this$[ebp]
	add	eax, DWORD PTR [edx+20]
	push	eax
	call	?copy@?$char_traits@D@std@@SAPADPADPBDI@Z ; std::char_traits<char>::copy
	add	esp, 12					; 0000000cH

; 833  : 			_Eos(_Num);

	mov	eax, DWORD PTR __Num$[ebp]
	push	eax
	mov	ecx, DWORD PTR _this$[ebp]
	call	?_Eos@?$basic_string@DU?$char_traits@D@std@@V?$allocator@D@2@@std@@QAEXI@Z ; std::basic_string<char,std::char_traits<char>,std::allocator<char> >::_Eos
$LN1@append:

; 834  : 			}
; 835  : 		return (*this);

	mov	eax, DWORD PTR _this$[ebp]
$LN6@append:

; 836  : 		}

	pop	edi
	pop	esi
	pop	ebx
	add	esp, 216				; 000000d8H
	cmp	ebp, esp
	call	__RTC_CheckEsp
	mov	esp, ebp
	pop	ebp
	ret	8
?append@?$basic_string@DU?$char_traits@D@std@@V?$allocator@D@2@@std@@QAEAAV12@PBDI@Z ENDP ; std::basic_string<char,std::char_traits<char>,std::allocator<char> >::append
_TEXT	ENDS
PUBLIC	?_Chassign@?$basic_string@DU?$char_traits@D@std@@V?$allocator@D@2@@std@@QAEXIID@Z ; std::basic_string<char,std::char_traits<char>,std::allocator<char> >::_Chassign
; Function compile flags: /Odtp /RTCsu /ZI
;	COMDAT ?append@?$basic_string@DU?$char_traits@D@std@@V?$allocator@D@2@@std@@QAEAAV12@ID@Z
_TEXT	SEGMENT
__Num$ = -20						; size = 4
_this$ = -8						; size = 4
__Count$ = 8						; size = 4
__Ch$ = 12						; size = 1
?append@?$basic_string@DU?$char_traits@D@std@@V?$allocator@D@2@@std@@QAEAAV12@ID@Z PROC ; std::basic_string<char,std::char_traits<char>,std::allocator<char> >::append, COMDAT
; _this$ = ecx

; 845  : 		{	// append _Count * _Ch

	push	ebp
	mov	ebp, esp
	sub	esp, 216				; 000000d8H
	push	ebx
	push	esi
	push	edi
	push	ecx
	lea	edi, DWORD PTR [ebp-216]
	mov	ecx, 54					; 00000036H
	mov	eax, -858993460				; ccccccccH
	rep stosd
	pop	ecx
	mov	DWORD PTR _this$[ebp], ecx

; 846  : 		if (npos - this->_Mysize <= _Count)

	mov	eax, DWORD PTR _this$[ebp]
	mov	ecx, DWORD PTR ?npos@?$basic_string@DU?$char_traits@D@std@@V?$allocator@D@2@@std@@2IB ; std::basic_string<char,std::char_traits<char>,std::allocator<char> >::npos
	sub	ecx, DWORD PTR [eax+20]
	cmp	ecx, DWORD PTR __Count$[ebp]
	ja	SHORT $LN2@append@2

; 847  : 			_Xlen();	// result too long

	mov	ecx, DWORD PTR _this$[ebp]
	call	?_Xlen@?$basic_string@DU?$char_traits@D@std@@V?$allocator@D@2@@std@@QBEXXZ ; std::basic_string<char,std::char_traits<char>,std::allocator<char> >::_Xlen
$LN2@append@2:

; 848  : 
; 849  : 		size_type _Num;
; 850  : 		if (0 < _Count && _Grow(_Num = this->_Mysize + _Count))

	cmp	DWORD PTR __Count$[ebp], 0
	jbe	SHORT $LN1@append@2
	mov	eax, DWORD PTR _this$[ebp]
	mov	ecx, DWORD PTR [eax+20]
	add	ecx, DWORD PTR __Count$[ebp]
	mov	DWORD PTR __Num$[ebp], ecx
	push	0
	mov	edx, DWORD PTR __Num$[ebp]
	push	edx
	mov	ecx, DWORD PTR _this$[ebp]
	call	?_Grow@?$basic_string@DU?$char_traits@D@std@@V?$allocator@D@2@@std@@QAE_NI_N@Z ; std::basic_string<char,std::char_traits<char>,std::allocator<char> >::_Grow
	movzx	eax, al
	test	eax, eax
	je	SHORT $LN1@append@2

; 851  : 			{	// make room and append new stuff using assign
; 852  : 			_Chassign(this->_Mysize, _Count, _Ch);

	movzx	eax, BYTE PTR __Ch$[ebp]
	push	eax
	mov	ecx, DWORD PTR __Count$[ebp]
	push	ecx
	mov	edx, DWORD PTR _this$[ebp]
	mov	eax, DWORD PTR [edx+20]
	push	eax
	mov	ecx, DWORD PTR _this$[ebp]
	call	?_Chassign@?$basic_string@DU?$char_traits@D@std@@V?$allocator@D@2@@std@@QAEXIID@Z ; std::basic_string<char,std::char_traits<char>,std::allocator<char> >::_Chassign

; 853  : 			_Eos(_Num);

	mov	eax, DWORD PTR __Num$[ebp]
	push	eax
	mov	ecx, DWORD PTR _this$[ebp]
	call	?_Eos@?$basic_string@DU?$char_traits@D@std@@V?$allocator@D@2@@std@@QAEXI@Z ; std::basic_string<char,std::char_traits<char>,std::allocator<char> >::_Eos
$LN1@append@2:

; 854  : 			}
; 855  : 		return (*this);

	mov	eax, DWORD PTR _this$[ebp]
$LN4@append@2:

; 856  : 		}

	pop	edi
	pop	esi
	pop	ebx
	add	esp, 216				; 000000d8H
	cmp	ebp, esp
	call	__RTC_CheckEsp
	mov	esp, ebp
	pop	ebp
	ret	8
?append@?$basic_string@DU?$char_traits@D@std@@V?$allocator@D@2@@std@@QAEAAV12@ID@Z ENDP ; std::basic_string<char,std::char_traits<char>,std::allocator<char> >::append
_TEXT	ENDS
PUBLIC	?assign@?$basic_string@DU?$char_traits@D@std@@V?$allocator@D@2@@std@@QAEAAV12@PBDI@Z ; std::basic_string<char,std::char_traits<char>,std::allocator<char> >::assign
; Function compile flags: /Odtp /RTCsu /ZI
;	COMDAT ?assign@?$basic_string@DU?$char_traits@D@std@@V?$allocator@D@2@@std@@QAEAAV12@PBD@Z
_TEXT	SEGMENT
_this$ = -8						; size = 4
__Ptr$ = 8						; size = 4
?assign@?$basic_string@DU?$char_traits@D@std@@V?$allocator@D@2@@std@@QAEAAV12@PBD@Z PROC ; std::basic_string<char,std::char_traits<char>,std::allocator<char> >::assign, COMDAT
; _this$ = ecx

; 929  : 		{	// assign [_Ptr, <null>)

	push	ebp
	mov	ebp, esp
	sub	esp, 204				; 000000ccH
	push	ebx
	push	esi
	push	edi
	push	ecx
	lea	edi, DWORD PTR [ebp-204]
	mov	ecx, 51					; 00000033H
	mov	eax, -858993460				; ccccccccH
	rep stosd
	pop	ecx
	mov	DWORD PTR _this$[ebp], ecx

; 930  : 		_DEBUG_POINTER(_Ptr);

	push	930					; 000003a2H
	push	OFFSET ??_C@_1IO@GEGAMENF@?$AAc?$AA?3?$AA?2?$AAp?$AAr?$AAo?$AAg?$AAr?$AAa?$AAm?$AA?5?$AAf?$AAi?$AAl?$AAe?$AAs?$AA?5?$AA?$CI?$AAx?$AA8?$AA6?$AA?$CJ?$AA?2?$AAm?$AAi?$AAc?$AAr?$AAo?$AAs?$AAo?$AAf?$AAt@
	mov	eax, DWORD PTR __Ptr$[ebp]
	push	eax
	call	??$_Debug_pointer@D@std@@YAXPBDPB_WI@Z	; std::_Debug_pointer<char>
	add	esp, 12					; 0000000cH

; 931  : 		return (assign(_Ptr, _Traits::length(_Ptr)));

	mov	eax, DWORD PTR __Ptr$[ebp]
	push	eax
	call	?length@?$char_traits@D@std@@SAIPBD@Z	; std::char_traits<char>::length
	add	esp, 4
	push	eax
	mov	ecx, DWORD PTR __Ptr$[ebp]
	push	ecx
	mov	ecx, DWORD PTR _this$[ebp]
	call	?assign@?$basic_string@DU?$char_traits@D@std@@V?$allocator@D@2@@std@@QAEAAV12@PBDI@Z ; std::basic_string<char,std::char_traits<char>,std::allocator<char> >::assign

; 932  : 		}

	pop	edi
	pop	esi
	pop	ebx
	add	esp, 204				; 000000ccH
	cmp	ebp, esp
	call	__RTC_CheckEsp
	mov	esp, ebp
	pop	ebp
	ret	4
?assign@?$basic_string@DU?$char_traits@D@std@@V?$allocator@D@2@@std@@QAEAAV12@PBD@Z ENDP ; std::basic_string<char,std::char_traits<char>,std::allocator<char> >::assign
_TEXT	ENDS
PUBLIC	?move@?$char_traits@D@std@@SAPADPADPBDI@Z	; std::char_traits<char>::move
PUBLIC	?_Xran@?$basic_string@DU?$char_traits@D@std@@V?$allocator@D@2@@std@@QBEXXZ ; std::basic_string<char,std::char_traits<char>,std::allocator<char> >::_Xran
; Function compile flags: /Odtp /RTCsu /ZI
;	COMDAT ?erase@?$basic_string@DU?$char_traits@D@std@@V?$allocator@D@2@@std@@QAEAAV12@II@Z
_TEXT	SEGMENT
__Newsize$33247 = -20					; size = 4
_this$ = -8						; size = 4
__Off$ = 8						; size = 4
__Count$ = 12						; size = 4
?erase@?$basic_string@DU?$char_traits@D@std@@V?$allocator@D@2@@std@@QAEAAV12@II@Z PROC ; std::basic_string<char,std::char_traits<char>,std::allocator<char> >::erase, COMDAT
; _this$ = ecx

; 1109 : 		{	// erase elements [_Off, _Off + _Count)

	push	ebp
	mov	ebp, esp
	sub	esp, 216				; 000000d8H
	push	ebx
	push	esi
	push	edi
	push	ecx
	lea	edi, DWORD PTR [ebp-216]
	mov	ecx, 54					; 00000036H
	mov	eax, -858993460				; ccccccccH
	rep stosd
	pop	ecx
	mov	DWORD PTR _this$[ebp], ecx

; 1110 : 		if (this->_Mysize < _Off)

	mov	eax, DWORD PTR _this$[ebp]
	mov	ecx, DWORD PTR [eax+20]
	cmp	ecx, DWORD PTR __Off$[ebp]
	jae	SHORT $LN3@erase

; 1111 : 			_Xran();	// _Off off end

	mov	ecx, DWORD PTR _this$[ebp]
	call	?_Xran@?$basic_string@DU?$char_traits@D@std@@V?$allocator@D@2@@std@@QBEXXZ ; std::basic_string<char,std::char_traits<char>,std::allocator<char> >::_Xran
$LN3@erase:

; 1112 : 		if (this->_Mysize - _Off < _Count)

	mov	eax, DWORD PTR _this$[ebp]
	mov	ecx, DWORD PTR [eax+20]
	sub	ecx, DWORD PTR __Off$[ebp]
	cmp	ecx, DWORD PTR __Count$[ebp]
	jae	SHORT $LN2@erase

; 1113 : 			_Count = this->_Mysize - _Off;	// trim _Count

	mov	eax, DWORD PTR _this$[ebp]
	mov	ecx, DWORD PTR [eax+20]
	sub	ecx, DWORD PTR __Off$[ebp]
	mov	DWORD PTR __Count$[ebp], ecx
$LN2@erase:

; 1114 : 		if (0 < _Count)

	cmp	DWORD PTR __Count$[ebp], 0
	jbe	SHORT $LN1@erase

; 1115 : 			{	// move elements down
; 1116 : 			_Traits::move(_Myptr() + _Off, _Myptr() + _Off + _Count,
; 1117 : 				this->_Mysize - _Off - _Count);

	mov	eax, DWORD PTR _this$[ebp]
	mov	ecx, DWORD PTR [eax+20]
	sub	ecx, DWORD PTR __Off$[ebp]
	sub	ecx, DWORD PTR __Count$[ebp]
	push	ecx
	mov	ecx, DWORD PTR _this$[ebp]
	call	?_Myptr@?$basic_string@DU?$char_traits@D@std@@V?$allocator@D@2@@std@@QAEPADXZ ; std::basic_string<char,std::char_traits<char>,std::allocator<char> >::_Myptr
	add	eax, DWORD PTR __Off$[ebp]
	add	eax, DWORD PTR __Count$[ebp]
	push	eax
	mov	ecx, DWORD PTR _this$[ebp]
	call	?_Myptr@?$basic_string@DU?$char_traits@D@std@@V?$allocator@D@2@@std@@QAEPADXZ ; std::basic_string<char,std::char_traits<char>,std::allocator<char> >::_Myptr
	add	eax, DWORD PTR __Off$[ebp]
	push	eax
	call	?move@?$char_traits@D@std@@SAPADPADPBDI@Z ; std::char_traits<char>::move
	add	esp, 12					; 0000000cH

; 1118 : 			size_type _Newsize = this->_Mysize - _Count;

	mov	eax, DWORD PTR _this$[ebp]
	mov	ecx, DWORD PTR [eax+20]
	sub	ecx, DWORD PTR __Count$[ebp]
	mov	DWORD PTR __Newsize$33247[ebp], ecx

; 1119 : 			_Eos(_Newsize);

	mov	eax, DWORD PTR __Newsize$33247[ebp]
	push	eax
	mov	ecx, DWORD PTR _this$[ebp]
	call	?_Eos@?$basic_string@DU?$char_traits@D@std@@V?$allocator@D@2@@std@@QAEXI@Z ; std::basic_string<char,std::char_traits<char>,std::allocator<char> >::_Eos
$LN1@erase:

; 1120 : 			}
; 1121 : 		return (*this);

	mov	eax, DWORD PTR _this$[ebp]
$LN5@erase:

; 1122 : 		}

	pop	edi
	pop	esi
	pop	ebx
	add	esp, 216				; 000000d8H
	cmp	ebp, esp
	call	__RTC_CheckEsp
	mov	esp, ebp
	pop	ebp
	ret	8
?erase@?$basic_string@DU?$char_traits@D@std@@V?$allocator@D@2@@std@@QAEAAV12@II@Z ENDP ; std::basic_string<char,std::char_traits<char>,std::allocator<char> >::erase
_TEXT	ENDS
EXTRN	_memmove:PROC
; Function compile flags: /Odtp /RTCsu /ZI
; File c:\program files (x86)\microsoft visual studio 10.0\vc\include\iosfwd
;	COMDAT ?move@?$char_traits@D@std@@SAPADPADPBDI@Z
_TEXT	SEGMENT
__First1$ = 8						; size = 4
__First2$ = 12						; size = 4
__Count$ = 16						; size = 4
?move@?$char_traits@D@std@@SAPADPADPBDI@Z PROC		; std::char_traits<char>::move, COMDAT

; 516  : 		{	// copy [_First1, _First1 + _Count) to [_First2, ...)

	push	ebp
	mov	ebp, esp
	sub	esp, 192				; 000000c0H
	push	ebx
	push	esi
	push	edi
	lea	edi, DWORD PTR [ebp-192]
	mov	ecx, 48					; 00000030H
	mov	eax, -858993460				; ccccccccH
	rep stosd

; 517  : 		return ((_Elem *)_CSTD memmove(_First1, _First2, _Count));

	mov	eax, DWORD PTR __Count$[ebp]
	push	eax
	mov	ecx, DWORD PTR __First2$[ebp]
	push	ecx
	mov	edx, DWORD PTR __First1$[ebp]
	push	edx
	call	_memmove
	add	esp, 12					; 0000000cH

; 518  : 		}

	pop	edi
	pop	esi
	pop	ebx
	add	esp, 192				; 000000c0H
	cmp	ebp, esp
	call	__RTC_CheckEsp
	mov	esp, ebp
	pop	ebp
	ret	0
?move@?$char_traits@D@std@@SAPADPADPBDI@Z ENDP		; std::char_traits<char>::move
_TEXT	ENDS
PUBLIC	??0?$_String_iterator@DU?$char_traits@D@std@@V?$allocator@D@2@@std@@QAE@PADPBU_Container_base12@1@@Z ; std::_String_iterator<char,std::char_traits<char>,std::allocator<char> >::_String_iterator<char,std::char_traits<char>,std::allocator<char> >
; Function compile flags: /Odtp /RTCsu /ZI
; File c:\program files (x86)\microsoft visual studio 10.0\vc\include\xstring
;	COMDAT ?begin@?$basic_string@DU?$char_traits@D@std@@V?$allocator@D@2@@std@@QAE?AV?$_String_iterator@DU?$char_traits@D@std@@V?$allocator@D@2@@2@XZ
_TEXT	SEGMENT
$T37143 = -212						; size = 4
_this$ = -8						; size = 4
___$ReturnUdt$ = 8					; size = 4
?begin@?$basic_string@DU?$char_traits@D@std@@V?$allocator@D@2@@std@@QAE?AV?$_String_iterator@DU?$char_traits@D@std@@V?$allocator@D@2@@2@XZ PROC ; std::basic_string<char,std::char_traits<char>,std::allocator<char> >::begin, COMDAT
; _this$ = ecx

; 1351 : 		{	// return iterator for beginning of mutable sequence

	push	ebp
	mov	ebp, esp
	sub	esp, 216				; 000000d8H
	push	ebx
	push	esi
	push	edi
	push	ecx
	lea	edi, DWORD PTR [ebp-216]
	mov	ecx, 54					; 00000036H
	mov	eax, -858993460				; ccccccccH
	rep stosd
	pop	ecx
	mov	DWORD PTR _this$[ebp], ecx
	mov	DWORD PTR $T37143[ebp], 0

; 1352 : 		return (_STRING_ITERATOR(_Myptr()));

	mov	eax, DWORD PTR _this$[ebp]
	push	eax
	mov	ecx, DWORD PTR _this$[ebp]
	call	?_Myptr@?$basic_string@DU?$char_traits@D@std@@V?$allocator@D@2@@std@@QAEPADXZ ; std::basic_string<char,std::char_traits<char>,std::allocator<char> >::_Myptr
	push	eax
	mov	ecx, DWORD PTR ___$ReturnUdt$[ebp]
	call	??0?$_String_iterator@DU?$char_traits@D@std@@V?$allocator@D@2@@std@@QAE@PADPBU_Container_base12@1@@Z ; std::_String_iterator<char,std::char_traits<char>,std::allocator<char> >::_String_iterator<char,std::char_traits<char>,std::allocator<char> >
	mov	ecx, DWORD PTR $T37143[ebp]
	or	ecx, 1
	mov	DWORD PTR $T37143[ebp], ecx
	mov	eax, DWORD PTR ___$ReturnUdt$[ebp]

; 1353 : 		}

	pop	edi
	pop	esi
	pop	ebx
	add	esp, 216				; 000000d8H
	cmp	ebp, esp
	call	__RTC_CheckEsp
	mov	esp, ebp
	pop	ebp
	ret	4
?begin@?$basic_string@DU?$char_traits@D@std@@V?$allocator@D@2@@std@@QAE?AV?$_String_iterator@DU?$char_traits@D@std@@V?$allocator@D@2@@2@XZ ENDP ; std::basic_string<char,std::char_traits<char>,std::allocator<char> >::begin
; Function compile flags: /Odtp /RTCsu /ZI
_TEXT	ENDS
;	COMDAT ?size@?$basic_string@DU?$char_traits@D@std@@V?$allocator@D@2@@std@@QBEIXZ
_TEXT	SEGMENT
_this$ = -8						; size = 4
?size@?$basic_string@DU?$char_traits@D@std@@V?$allocator@D@2@@std@@QBEIXZ PROC ; std::basic_string<char,std::char_traits<char>,std::allocator<char> >::size, COMDAT
; _this$ = ecx

; 1511 : 		{	// return length of sequence

	push	ebp
	mov	ebp, esp
	sub	esp, 204				; 000000ccH
	push	ebx
	push	esi
	push	edi
	push	ecx
	lea	edi, DWORD PTR [ebp-204]
	mov	ecx, 51					; 00000033H
	mov	eax, -858993460				; ccccccccH
	rep stosd
	pop	ecx
	mov	DWORD PTR _this$[ebp], ecx

; 1512 : 		return (this->_Mysize);

	mov	eax, DWORD PTR _this$[ebp]
	mov	eax, DWORD PTR [eax+20]

; 1513 : 		}

	pop	edi
	pop	esi
	pop	ebx
	mov	esp, ebp
	pop	ebp
	ret	0
?size@?$basic_string@DU?$char_traits@D@std@@V?$allocator@D@2@@std@@QBEIXZ ENDP ; std::basic_string<char,std::char_traits<char>,std::allocator<char> >::size
_TEXT	ENDS
PUBLIC	?assign@?$char_traits@D@std@@SAXAADABD@Z	; std::char_traits<char>::assign
; Function compile flags: /Odtp /RTCsu /ZI
;	COMDAT ?_Eos@?$basic_string@DU?$char_traits@D@std@@V?$allocator@D@2@@std@@QAEXI@Z
_TEXT	SEGMENT
$T37149 = -209						; size = 1
_this$ = -8						; size = 4
__Newsize$ = 8						; size = 4
?_Eos@?$basic_string@DU?$char_traits@D@std@@V?$allocator@D@2@@std@@QAEXI@Z PROC ; std::basic_string<char,std::char_traits<char>,std::allocator<char> >::_Eos, COMDAT
; _this$ = ecx

; 1953 : 		{	// set new length and null terminator

	push	ebp
	mov	ebp, esp
	sub	esp, 216				; 000000d8H
	push	ebx
	push	esi
	push	edi
	push	ecx
	lea	edi, DWORD PTR [ebp-216]
	mov	ecx, 54					; 00000036H
	mov	eax, -858993460				; ccccccccH
	rep stosd
	pop	ecx
	mov	DWORD PTR _this$[ebp], ecx

; 1954 : 		_Traits::assign(_Myptr()[this->_Mysize = _Newsize], _Elem());

	mov	BYTE PTR $T37149[ebp], 0
	mov	eax, DWORD PTR _this$[ebp]
	mov	ecx, DWORD PTR __Newsize$[ebp]
	mov	DWORD PTR [eax+20], ecx
	lea	edx, DWORD PTR $T37149[ebp]
	push	edx
	mov	ecx, DWORD PTR _this$[ebp]
	call	?_Myptr@?$basic_string@DU?$char_traits@D@std@@V?$allocator@D@2@@std@@QAEPADXZ ; std::basic_string<char,std::char_traits<char>,std::allocator<char> >::_Myptr
	add	eax, DWORD PTR __Newsize$[ebp]
	push	eax
	call	?assign@?$char_traits@D@std@@SAXAADABD@Z ; std::char_traits<char>::assign
	add	esp, 8

; 1955 : 		}

	pop	edi
	pop	esi
	pop	ebx
	add	esp, 216				; 000000d8H
	cmp	ebp, esp
	call	__RTC_CheckEsp
	mov	esp, ebp
	pop	ebp
	ret	4
?_Eos@?$basic_string@DU?$char_traits@D@std@@V?$allocator@D@2@@std@@QAEXI@Z ENDP ; std::basic_string<char,std::char_traits<char>,std::allocator<char> >::_Eos
; Function compile flags: /Odtp /RTCsu /ZI
; File c:\program files (x86)\microsoft visual studio 10.0\vc\include\iosfwd
_TEXT	ENDS
;	COMDAT ?assign@?$char_traits@D@std@@SAXAADABD@Z
_TEXT	SEGMENT
__Left$ = 8						; size = 4
__Right$ = 12						; size = 4
?assign@?$char_traits@D@std@@SAXAADABD@Z PROC		; std::char_traits<char>::assign, COMDAT

; 526  : 		{	// assign an element

	push	ebp
	mov	ebp, esp
	sub	esp, 192				; 000000c0H
	push	ebx
	push	esi
	push	edi
	lea	edi, DWORD PTR [ebp-192]
	mov	ecx, 48					; 00000030H
	mov	eax, -858993460				; ccccccccH
	rep stosd

; 527  : 		_Left = _Right;

	mov	eax, DWORD PTR __Left$[ebp]
	mov	ecx, DWORD PTR __Right$[ebp]
	mov	dl, BYTE PTR [ecx]
	mov	BYTE PTR [eax], dl

; 528  : 		}

	pop	edi
	pop	esi
	pop	ebx
	mov	esp, ebp
	pop	ebp
	ret	0
?assign@?$char_traits@D@std@@SAXAADABD@Z ENDP		; std::char_traits<char>::assign
_TEXT	ENDS
PUBLIC	?_Copy@?$basic_string@DU?$char_traits@D@std@@V?$allocator@D@2@@std@@QAEXII@Z ; std::basic_string<char,std::char_traits<char>,std::allocator<char> >::_Copy
PUBLIC	?max_size@?$basic_string@DU?$char_traits@D@std@@V?$allocator@D@2@@std@@QBEIXZ ; std::basic_string<char,std::char_traits<char>,std::allocator<char> >::max_size
; Function compile flags: /Odtp /RTCsu /ZI
; File c:\program files (x86)\microsoft visual studio 10.0\vc\include\xstring
;	COMDAT ?_Grow@?$basic_string@DU?$char_traits@D@std@@V?$allocator@D@2@@std@@QAE_NI_N@Z
_TEXT	SEGMENT
tv129 = -208						; size = 4
_this$ = -8						; size = 4
__Newsize$ = 8						; size = 4
__Trim$ = 12						; size = 1
?_Grow@?$basic_string@DU?$char_traits@D@std@@V?$allocator@D@2@@std@@QAE_NI_N@Z PROC ; std::basic_string<char,std::char_traits<char>,std::allocator<char> >::_Grow, COMDAT
; _this$ = ecx

; 1959 : 		{	// ensure buffer is big enough, trim to size if _Trim is true

	push	ebp
	mov	ebp, esp
	sub	esp, 208				; 000000d0H
	push	ebx
	push	esi
	push	edi
	push	ecx
	lea	edi, DWORD PTR [ebp-208]
	mov	ecx, 52					; 00000034H
	mov	eax, -858993460				; ccccccccH
	rep stosd
	pop	ecx
	mov	DWORD PTR _this$[ebp], ecx

; 1960 : 		if (max_size() < _Newsize)

	mov	ecx, DWORD PTR _this$[ebp]
	call	?max_size@?$basic_string@DU?$char_traits@D@std@@V?$allocator@D@2@@std@@QBEIXZ ; std::basic_string<char,std::char_traits<char>,std::allocator<char> >::max_size
	cmp	eax, DWORD PTR __Newsize$[ebp]
	jae	SHORT $LN6@Grow

; 1961 : 			_Xlen();	// result too long

	mov	ecx, DWORD PTR _this$[ebp]
	call	?_Xlen@?$basic_string@DU?$char_traits@D@std@@V?$allocator@D@2@@std@@QBEXXZ ; std::basic_string<char,std::char_traits<char>,std::allocator<char> >::_Xlen
$LN6@Grow:

; 1962 : 		if (this->_Myres < _Newsize)

	mov	eax, DWORD PTR _this$[ebp]
	mov	ecx, DWORD PTR [eax+24]
	cmp	ecx, DWORD PTR __Newsize$[ebp]
	jae	SHORT $LN5@Grow

; 1963 : 			_Copy(_Newsize, this->_Mysize);	// reallocate to grow

	mov	eax, DWORD PTR _this$[ebp]
	mov	ecx, DWORD PTR [eax+20]
	push	ecx
	mov	edx, DWORD PTR __Newsize$[ebp]
	push	edx
	mov	ecx, DWORD PTR _this$[ebp]
	call	?_Copy@?$basic_string@DU?$char_traits@D@std@@V?$allocator@D@2@@std@@QAEXII@Z ; std::basic_string<char,std::char_traits<char>,std::allocator<char> >::_Copy
	jmp	SHORT $LN4@Grow
$LN5@Grow:

; 1964 : 		else if (_Trim && _Newsize < this->_BUF_SIZE)

	movzx	eax, BYTE PTR __Trim$[ebp]
	test	eax, eax
	je	SHORT $LN3@Grow
	cmp	DWORD PTR __Newsize$[ebp], 16		; 00000010H
	jae	SHORT $LN3@Grow

; 1965 : 			_Tidy(true,	// copy and deallocate if trimming to small string
; 1966 : 				_Newsize < this->_Mysize ? _Newsize : this->_Mysize);

	mov	eax, DWORD PTR _this$[ebp]
	mov	ecx, DWORD PTR __Newsize$[ebp]
	cmp	ecx, DWORD PTR [eax+20]
	jae	SHORT $LN9@Grow
	mov	edx, DWORD PTR __Newsize$[ebp]
	mov	DWORD PTR tv129[ebp], edx
	jmp	SHORT $LN10@Grow
$LN9@Grow:
	mov	eax, DWORD PTR _this$[ebp]
	mov	ecx, DWORD PTR [eax+20]
	mov	DWORD PTR tv129[ebp], ecx
$LN10@Grow:
	mov	edx, DWORD PTR tv129[ebp]
	push	edx
	push	1
	mov	ecx, DWORD PTR _this$[ebp]
	call	?_Tidy@?$basic_string@DU?$char_traits@D@std@@V?$allocator@D@2@@std@@QAEX_NI@Z ; std::basic_string<char,std::char_traits<char>,std::allocator<char> >::_Tidy
	jmp	SHORT $LN4@Grow
$LN3@Grow:

; 1967 : 		else if (_Newsize == 0)

	cmp	DWORD PTR __Newsize$[ebp], 0
	jne	SHORT $LN4@Grow

; 1968 : 			_Eos(0);	// new size is zero, just null terminate

	push	0
	mov	ecx, DWORD PTR _this$[ebp]
	call	?_Eos@?$basic_string@DU?$char_traits@D@std@@V?$allocator@D@2@@std@@QAEXI@Z ; std::basic_string<char,std::char_traits<char>,std::allocator<char> >::_Eos
$LN4@Grow:

; 1969 : 		return (0 < _Newsize);	// return true only if more work to do

	xor	eax, eax
	cmp	eax, DWORD PTR __Newsize$[ebp]
	sbb	eax, eax
	neg	eax
$LN8@Grow:

; 1970 : 		}

	pop	edi
	pop	esi
	pop	ebx
	add	esp, 208				; 000000d0H
	cmp	ebp, esp
	call	__RTC_CheckEsp
	mov	esp, ebp
	pop	ebp
	ret	8
?_Grow@?$basic_string@DU?$char_traits@D@std@@V?$allocator@D@2@@std@@QAE_NI_N@Z ENDP ; std::basic_string<char,std::char_traits<char>,std::allocator<char> >::_Grow
_TEXT	ENDS
PUBLIC	?deallocate@?$allocator@D@std@@QAEXPADI@Z	; std::allocator<char>::deallocate
; Function compile flags: /Odtp /RTCsu /ZI
;	COMDAT ?_Tidy@?$basic_string@DU?$char_traits@D@std@@V?$allocator@D@2@@std@@QAEX_NI@Z
_TEXT	SEGMENT
__Ptr$33281 = -20					; size = 4
_this$ = -8						; size = 4
__Built$ = 8						; size = 1
__Newsize$ = 12						; size = 4
?_Tidy@?$basic_string@DU?$char_traits@D@std@@V?$allocator@D@2@@std@@QAEX_NI@Z PROC ; std::basic_string<char,std::char_traits<char>,std::allocator<char> >::_Tidy, COMDAT
; _this$ = ecx

; 1988 : 		{	// initialize buffer, deallocating any storage

	push	ebp
	mov	ebp, esp
	sub	esp, 216				; 000000d8H
	push	ebx
	push	esi
	push	edi
	push	ecx
	lea	edi, DWORD PTR [ebp-216]
	mov	ecx, 54					; 00000036H
	mov	eax, -858993460				; ccccccccH
	rep stosd
	pop	ecx
	mov	DWORD PTR _this$[ebp], ecx

; 1989 : 		if (!_Built)

	movzx	eax, BYTE PTR __Built$[ebp]
	test	eax, eax
	jne	SHORT $LN4@Tidy
	jmp	SHORT $LN3@Tidy
$LN4@Tidy:

; 1990 : 			;
; 1991 : 		else if (this->_BUF_SIZE <= this->_Myres)

	mov	eax, DWORD PTR _this$[ebp]
	cmp	DWORD PTR [eax+24], 16			; 00000010H
	jb	SHORT $LN3@Tidy

; 1992 : 			{	// copy any leftovers to small buffer and deallocate
; 1993 : 			_Elem *_Ptr = this->_Bx._Ptr;

	mov	eax, DWORD PTR _this$[ebp]
	mov	ecx, DWORD PTR [eax+4]
	mov	DWORD PTR __Ptr$33281[ebp], ecx

; 1994 : 			if (0 < _Newsize)

	cmp	DWORD PTR __Newsize$[ebp], 0
	jbe	SHORT $LN1@Tidy

; 1995 : 				_Traits::copy(this->_Bx._Buf, _Ptr, _Newsize);

	mov	eax, DWORD PTR __Newsize$[ebp]
	push	eax
	mov	ecx, DWORD PTR __Ptr$33281[ebp]
	push	ecx
	mov	edx, DWORD PTR _this$[ebp]
	add	edx, 4
	push	edx
	call	?copy@?$char_traits@D@std@@SAPADPADPBDI@Z ; std::char_traits<char>::copy
	add	esp, 12					; 0000000cH
$LN1@Tidy:

; 1996 : 			this->_Alval.deallocate(_Ptr, this->_Myres + 1);

	mov	eax, DWORD PTR _this$[ebp]
	mov	ecx, DWORD PTR [eax+24]
	add	ecx, 1
	push	ecx
	mov	edx, DWORD PTR __Ptr$33281[ebp]
	push	edx
	mov	ecx, DWORD PTR _this$[ebp]
	add	ecx, 28					; 0000001cH
	call	?deallocate@?$allocator@D@std@@QAEXPADI@Z ; std::allocator<char>::deallocate
$LN3@Tidy:

; 1997 : 			}
; 1998 : 		this->_Myres = this->_BUF_SIZE - 1;

	mov	eax, DWORD PTR _this$[ebp]
	mov	DWORD PTR [eax+24], 15			; 0000000fH

; 1999 : 		_Eos(_Newsize);

	mov	eax, DWORD PTR __Newsize$[ebp]
	push	eax
	mov	ecx, DWORD PTR _this$[ebp]
	call	?_Eos@?$basic_string@DU?$char_traits@D@std@@V?$allocator@D@2@@std@@QAEXI@Z ; std::basic_string<char,std::char_traits<char>,std::allocator<char> >::_Eos

; 2000 : 		}

	pop	edi
	pop	esi
	pop	ebx
	add	esp, 216				; 000000d8H
	cmp	ebp, esp
	call	__RTC_CheckEsp
	mov	esp, ebp
	pop	ebp
	ret	8
?_Tidy@?$basic_string@DU?$char_traits@D@std@@V?$allocator@D@2@@std@@QAEX_NI@Z ENDP ; std::basic_string<char,std::char_traits<char>,std::allocator<char> >::_Tidy
; Function compile flags: /Odtp /RTCsu /ZI
_TEXT	ENDS
;	COMDAT ?_Myptr@?$basic_string@DU?$char_traits@D@std@@V?$allocator@D@2@@std@@QBEPBDXZ
_TEXT	SEGMENT
tv82 = -208						; size = 4
_this$ = -8						; size = 4
?_Myptr@?$basic_string@DU?$char_traits@D@std@@V?$allocator@D@2@@std@@QBEPBDXZ PROC ; std::basic_string<char,std::char_traits<char>,std::allocator<char> >::_Myptr, COMDAT
; _this$ = ecx

; 2009 : 		{	// determine current pointer to buffer for nonmutable string

	push	ebp
	mov	ebp, esp
	sub	esp, 208				; 000000d0H
	push	ebx
	push	esi
	push	edi
	push	ecx
	lea	edi, DWORD PTR [ebp-208]
	mov	ecx, 52					; 00000034H
	mov	eax, -858993460				; ccccccccH
	rep stosd
	pop	ecx
	mov	DWORD PTR _this$[ebp], ecx

; 2010 : 		return (this->_BUF_SIZE <= this->_Myres ? this->_Bx._Ptr
; 2011 : 			: this->_Bx._Buf);

	mov	eax, DWORD PTR _this$[ebp]
	cmp	DWORD PTR [eax+24], 16			; 00000010H
	jb	SHORT $LN3@Myptr
	mov	ecx, DWORD PTR _this$[ebp]
	mov	edx, DWORD PTR [ecx+4]
	mov	DWORD PTR tv82[ebp], edx
	jmp	SHORT $LN4@Myptr
$LN3@Myptr:
	mov	eax, DWORD PTR _this$[ebp]
	add	eax, 4
	mov	DWORD PTR tv82[ebp], eax
$LN4@Myptr:
	mov	eax, DWORD PTR tv82[ebp]

; 2012 : 		}

	pop	edi
	pop	esi
	pop	ebx
	mov	esp, ebp
	pop	ebp
	ret	0
?_Myptr@?$basic_string@DU?$char_traits@D@std@@V?$allocator@D@2@@std@@QBEPBDXZ ENDP ; std::basic_string<char,std::char_traits<char>,std::allocator<char> >::_Myptr
_TEXT	ENDS
PUBLIC	??1_Container_base12@std@@QAE@XZ		; std::_Container_base12::~_Container_base12
PUBLIC	??$_Cons_val@V?$allocator@U_Container_proxy@std@@@std@@U_Container_proxy@2@U32@@std@@YAXAAV?$allocator@U_Container_proxy@std@@@0@PAU_Container_proxy@0@$$QAU20@@Z ; std::_Cons_val<std::allocator<std::_Container_proxy>,std::_Container_proxy,std::_Container_proxy>
PUBLIC	??0_Container_proxy@std@@QAE@XZ			; std::_Container_proxy::_Container_proxy
PUBLIC	?allocate@?$allocator@U_Container_proxy@std@@@std@@QAEPAU_Container_proxy@2@I@Z ; std::allocator<std::_Container_proxy>::allocate
PUBLIC	??$?0D@?$allocator@U_Container_proxy@std@@@std@@QAE@ABV?$allocator@D@1@@Z ; std::allocator<std::_Container_proxy>::allocator<std::_Container_proxy><char>
PUBLIC	??0?$allocator@D@std@@QAE@ABV01@@Z		; std::allocator<char>::allocator<char>
PUBLIC	??0_Container_base12@std@@QAE@XZ		; std::_Container_base12::_Container_base12
;	COMDAT xdata$x
xdata$x	SEGMENT
__unwindtable$??0?$_String_val@DV?$allocator@D@std@@@std@@QAE@V?$allocator@D@1@@Z DD 0ffffffffH
	DD	FLAT:__unwindfunclet$??0?$_String_val@DV?$allocator@D@std@@@std@@QAE@V?$allocator@D@1@@Z$0
__ehfuncinfo$??0?$_String_val@DV?$allocator@D@std@@@std@@QAE@V?$allocator@D@1@@Z DD 019930522H
	DD	01H
	DD	FLAT:__unwindtable$??0?$_String_val@DV?$allocator@D@std@@@std@@QAE@V?$allocator@D@1@@Z
	DD	2 DUP(00H)
	DD	2 DUP(00H)
	DD	00H
	DD	01H
; Function compile flags: /Odtp /RTCsu /ZI
xdata$x	ENDS
;	COMDAT ??0?$_String_val@DV?$allocator@D@std@@@std@@QAE@V?$allocator@D@1@@Z
_TEXT	SEGMENT
$T37164 = -240						; size = 8
__Alproxy$ = -29					; size = 1
_this$ = -20						; size = 4
__$EHRec$ = -12						; size = 12
__Al$ = 8						; size = 1
??0?$_String_val@DV?$allocator@D@std@@@std@@QAE@V?$allocator@D@1@@Z PROC ; std::_String_val<char,std::allocator<char> >::_String_val<char,std::allocator<char> >, COMDAT
; _this$ = ecx

; 466  : 		{	// construct allocator from _Al

	push	ebp
	mov	ebp, esp
	push	-1
	push	__ehhandler$??0?$_String_val@DV?$allocator@D@std@@@std@@QAE@V?$allocator@D@1@@Z
	mov	eax, DWORD PTR fs:0
	push	eax
	sub	esp, 232				; 000000e8H
	push	ebx
	push	esi
	push	edi
	push	ecx
	lea	edi, DWORD PTR [ebp-244]
	mov	ecx, 58					; 0000003aH
	mov	eax, -858993460				; ccccccccH
	rep stosd
	pop	ecx
	mov	eax, DWORD PTR ___security_cookie
	xor	eax, ebp
	push	eax
	lea	eax, DWORD PTR __$EHRec$[ebp]
	mov	DWORD PTR fs:0, eax
	mov	DWORD PTR _this$[ebp], ecx
	mov	ecx, DWORD PTR _this$[ebp]
	call	??0_Container_base12@std@@QAE@XZ	; std::_Container_base12::_Container_base12
	mov	DWORD PTR __$EHRec$[ebp+8], 0
	lea	eax, DWORD PTR __Al$[ebp]
	push	eax
	mov	ecx, DWORD PTR _this$[ebp]
	add	ecx, 28					; 0000001cH
	call	??0?$allocator@D@std@@QAE@ABV01@@Z	; std::allocator<char>::allocator<char>

; 467  : 		typename _Alloc::template rebind<_Container_proxy>::other
; 468  : 			_Alproxy(_Alval);

	mov	eax, DWORD PTR _this$[ebp]
	add	eax, 28					; 0000001cH
	push	eax
	lea	ecx, DWORD PTR __Alproxy$[ebp]
	call	??$?0D@?$allocator@U_Container_proxy@std@@@std@@QAE@ABV?$allocator@D@1@@Z ; std::allocator<std::_Container_proxy>::allocator<std::_Container_proxy><char>

; 469  : 		this->_Myproxy = _Alproxy.allocate(1);

	push	1
	lea	ecx, DWORD PTR __Alproxy$[ebp]
	call	?allocate@?$allocator@U_Container_proxy@std@@@std@@QAEPAU_Container_proxy@2@I@Z ; std::allocator<std::_Container_proxy>::allocate
	mov	ecx, DWORD PTR _this$[ebp]
	mov	DWORD PTR [ecx], eax

; 470  : 		_Cons_val(_Alproxy, this->_Myproxy, _Container_proxy());

	lea	ecx, DWORD PTR $T37164[ebp]
	call	??0_Container_proxy@std@@QAE@XZ		; std::_Container_proxy::_Container_proxy
	push	eax
	mov	eax, DWORD PTR _this$[ebp]
	mov	ecx, DWORD PTR [eax]
	push	ecx
	lea	edx, DWORD PTR __Alproxy$[ebp]
	push	edx
	call	??$_Cons_val@V?$allocator@U_Container_proxy@std@@@std@@U_Container_proxy@2@U32@@std@@YAXAAV?$allocator@U_Container_proxy@std@@@0@PAU_Container_proxy@0@$$QAU20@@Z ; std::_Cons_val<std::allocator<std::_Container_proxy>,std::_Container_proxy,std::_Container_proxy>
	add	esp, 12					; 0000000cH

; 471  : 		this->_Myproxy->_Mycont = this;

	mov	eax, DWORD PTR _this$[ebp]
	mov	ecx, DWORD PTR [eax]
	mov	edx, DWORD PTR _this$[ebp]
	mov	DWORD PTR [ecx], edx

; 472  : 		}

	mov	DWORD PTR __$EHRec$[ebp+8], -1
	mov	eax, DWORD PTR _this$[ebp]
	push	edx
	mov	ecx, ebp
	push	eax
	lea	edx, DWORD PTR $LN7@String_val
	call	@_RTC_CheckStackVars@8
	pop	eax
	pop	edx
	mov	ecx, DWORD PTR __$EHRec$[ebp]
	mov	DWORD PTR fs:0, ecx
	pop	ecx
	pop	edi
	pop	esi
	pop	ebx
	add	esp, 244				; 000000f4H
	cmp	ebp, esp
	call	__RTC_CheckEsp
	mov	esp, ebp
	pop	ebp
	ret	4
	npad	2
$LN7@String_val:
	DD	1
	DD	$LN6@String_val
$LN6@String_val:
	DD	-29					; ffffffe3H
	DD	1
	DD	$LN4@String_val
$LN4@String_val:
	DB	95					; 0000005fH
	DB	65					; 00000041H
	DB	108					; 0000006cH
	DB	112					; 00000070H
	DB	114					; 00000072H
	DB	111					; 0000006fH
	DB	120					; 00000078H
	DB	121					; 00000079H
	DB	0
_TEXT	ENDS
;	COMDAT text$x
text$x	SEGMENT
__unwindfunclet$??0?$_String_val@DV?$allocator@D@std@@@std@@QAE@V?$allocator@D@1@@Z$0:
	mov	ecx, DWORD PTR _this$[ebp]
	jmp	??1_Container_base12@std@@QAE@XZ	; std::_Container_base12::~_Container_base12
__ehhandler$??0?$_String_val@DV?$allocator@D@std@@@std@@QAE@V?$allocator@D@1@@Z:
	mov	edx, DWORD PTR [esp+8]
	lea	eax, DWORD PTR [edx+12]
	mov	ecx, DWORD PTR [edx-248]
	xor	ecx, eax
	call	@__security_check_cookie@4
	mov	eax, OFFSET __ehfuncinfo$??0?$_String_val@DV?$allocator@D@std@@@std@@QAE@V?$allocator@D@1@@Z
	jmp	___CxxFrameHandler3
text$x	ENDS
??0?$_String_val@DV?$allocator@D@std@@@std@@QAE@V?$allocator@D@1@@Z ENDP ; std::_String_val<char,std::allocator<char> >::_String_val<char,std::allocator<char> >
; Function compile flags: /Odtp /RTCsu /ZI
; File c:\program files (x86)\microsoft visual studio 10.0\vc\include\xutility
;	COMDAT ??0_Container_proxy@std@@QAE@XZ
_TEXT	SEGMENT
_this$ = -8						; size = 4
??0_Container_proxy@std@@QAE@XZ PROC			; std::_Container_proxy::_Container_proxy, COMDAT
; _this$ = ecx

; 65   : 		{	// construct from pointers

	push	ebp
	mov	ebp, esp
	sub	esp, 204				; 000000ccH
	push	ebx
	push	esi
	push	edi
	push	ecx
	lea	edi, DWORD PTR [ebp-204]
	mov	ecx, 51					; 00000033H
	mov	eax, -858993460				; ccccccccH
	rep stosd
	pop	ecx
	mov	DWORD PTR _this$[ebp], ecx
	mov	eax, DWORD PTR _this$[ebp]
	mov	DWORD PTR [eax], 0
	mov	eax, DWORD PTR _this$[ebp]
	mov	DWORD PTR [eax+4], 0

; 66   : 		}

	mov	eax, DWORD PTR _this$[ebp]
	pop	edi
	pop	esi
	pop	ebx
	mov	esp, ebp
	pop	ebp
	ret	0
??0_Container_proxy@std@@QAE@XZ ENDP			; std::_Container_proxy::_Container_proxy
; Function compile flags: /Odtp /RTCsu /ZI
_TEXT	ENDS
;	COMDAT ??0_Container_base12@std@@QAE@XZ
_TEXT	SEGMENT
_this$ = -8						; size = 4
??0_Container_base12@std@@QAE@XZ PROC			; std::_Container_base12::_Container_base12, COMDAT
; _this$ = ecx

; 77   : 		{	// construct childless container

	push	ebp
	mov	ebp, esp
	sub	esp, 204				; 000000ccH
	push	ebx
	push	esi
	push	edi
	push	ecx
	lea	edi, DWORD PTR [ebp-204]
	mov	ecx, 51					; 00000033H
	mov	eax, -858993460				; ccccccccH
	rep stosd
	pop	ecx
	mov	DWORD PTR _this$[ebp], ecx
	mov	eax, DWORD PTR _this$[ebp]
	mov	DWORD PTR [eax], 0

; 78   : 		}

	mov	eax, DWORD PTR _this$[ebp]
	pop	edi
	pop	esi
	pop	ebx
	mov	esp, ebp
	pop	ebp
	ret	0
??0_Container_base12@std@@QAE@XZ ENDP			; std::_Container_base12::_Container_base12
_TEXT	ENDS
PUBLIC	?_Orphan_all@_Container_base12@std@@QAEXXZ	; std::_Container_base12::_Orphan_all
; Function compile flags: /Odtp /RTCsu /ZI
;	COMDAT ??1_Container_base12@std@@QAE@XZ
_TEXT	SEGMENT
_this$ = -8						; size = 4
??1_Container_base12@std@@QAE@XZ PROC			; std::_Container_base12::~_Container_base12, COMDAT
; _this$ = ecx

; 91   : 		{	// destroy the container

	push	ebp
	mov	ebp, esp
	sub	esp, 204				; 000000ccH
	push	ebx
	push	esi
	push	edi
	push	ecx
	lea	edi, DWORD PTR [ebp-204]
	mov	ecx, 51					; 00000033H
	mov	eax, -858993460				; ccccccccH
	rep stosd
	pop	ecx
	mov	DWORD PTR _this$[ebp], ecx

; 92   : 		_Orphan_all();

	mov	ecx, DWORD PTR _this$[ebp]
	call	?_Orphan_all@_Container_base12@std@@QAEXXZ ; std::_Container_base12::_Orphan_all

; 93   : 		}

	pop	edi
	pop	esi
	pop	ebx
	add	esp, 204				; 000000ccH
	cmp	ebp, esp
	call	__RTC_CheckEsp
	mov	esp, ebp
	pop	ebp
	ret	0
??1_Container_base12@std@@QAE@XZ ENDP			; std::_Container_base12::~_Container_base12
; Function compile flags: /Odtp /RTCsu /ZI
_TEXT	ENDS
;	COMDAT ?_Orphan_all@_Container_base12@std@@QAEXXZ
_TEXT	SEGMENT
__Pnext$12825 = -32					; size = 4
__Lock$12824 = -20					; size = 4
_this$ = -8						; size = 4
?_Orphan_all@_Container_base12@std@@QAEXXZ PROC		; std::_Container_base12::_Orphan_all, COMDAT
; _this$ = ecx

; 194  : 	{	// orphan all iterators

	push	ebp
	mov	ebp, esp
	sub	esp, 228				; 000000e4H
	push	ebx
	push	esi
	push	edi
	push	ecx
	lea	edi, DWORD PTR [ebp-228]
	mov	ecx, 57					; 00000039H
	mov	eax, -858993460				; ccccccccH
	rep stosd
	pop	ecx
	mov	DWORD PTR _this$[ebp], ecx

; 195  :  #if _ITERATOR_DEBUG_LEVEL == 2
; 196  : 	if (_Myproxy != 0)

	mov	eax, DWORD PTR _this$[ebp]
	cmp	DWORD PTR [eax], 0
	je	SHORT $LN5@Orphan_all

; 197  : 		{	// proxy allocated, drain it
; 198  : 		_Lockit _Lock(_LOCK_DEBUG);

	push	3
	lea	ecx, DWORD PTR __Lock$12824[ebp]
	call	??0_Lockit@std@@QAE@H@Z			; std::_Lockit::_Lockit

; 199  : 
; 200  : 		for (_Iterator_base12 **_Pnext = &_Myproxy->_Myfirstiter;

	mov	eax, DWORD PTR _this$[ebp]
	mov	ecx, DWORD PTR [eax]
	add	ecx, 4
	mov	DWORD PTR __Pnext$12825[ebp], ecx
	jmp	SHORT $LN3@Orphan_all
$LN2@Orphan_all:

; 201  : 			*_Pnext != 0; *_Pnext = (*_Pnext)->_Mynextiter)

	mov	eax, DWORD PTR __Pnext$12825[ebp]
	mov	ecx, DWORD PTR [eax]
	mov	edx, DWORD PTR __Pnext$12825[ebp]
	mov	eax, DWORD PTR [ecx+4]
	mov	DWORD PTR [edx], eax
$LN3@Orphan_all:
	mov	eax, DWORD PTR __Pnext$12825[ebp]
	cmp	DWORD PTR [eax], 0
	je	SHORT $LN1@Orphan_all

; 202  : 			(*_Pnext)->_Myproxy = 0;

	mov	eax, DWORD PTR __Pnext$12825[ebp]
	mov	ecx, DWORD PTR [eax]
	mov	DWORD PTR [ecx], 0
	jmp	SHORT $LN2@Orphan_all
$LN1@Orphan_all:

; 203  : 		_Myproxy->_Myfirstiter = 0;

	mov	eax, DWORD PTR _this$[ebp]
	mov	ecx, DWORD PTR [eax]
	mov	DWORD PTR [ecx+4], 0

; 204  : 		}

	lea	ecx, DWORD PTR __Lock$12824[ebp]
	call	??1_Lockit@std@@QAE@XZ			; std::_Lockit::~_Lockit
$LN5@Orphan_all:

; 205  :  #endif /* _ITERATOR_DEBUG_LEVEL == 2 */
; 206  : 	}

	push	edx
	mov	ecx, ebp
	push	eax
	lea	edx, DWORD PTR $LN10@Orphan_all
	call	@_RTC_CheckStackVars@8
	pop	eax
	pop	edx
	pop	edi
	pop	esi
	pop	ebx
	add	esp, 228				; 000000e4H
	cmp	ebp, esp
	call	__RTC_CheckEsp
	mov	esp, ebp
	pop	ebp
	ret	0
	npad	3
$LN10@Orphan_all:
	DD	1
	DD	$LN9@Orphan_all
$LN9@Orphan_all:
	DD	-20					; ffffffecH
	DD	4
	DD	$LN8@Orphan_all
$LN8@Orphan_all:
	DB	95					; 0000005fH
	DB	76					; 0000004cH
	DB	111					; 0000006fH
	DB	99					; 00000063H
	DB	107					; 0000006bH
	DB	0
?_Orphan_all@_Container_base12@std@@QAEXXZ ENDP		; std::_Container_base12::_Orphan_all
_TEXT	ENDS
PUBLIC	?deallocate@?$allocator@U_Container_proxy@std@@@std@@QAEXPAU_Container_proxy@2@I@Z ; std::allocator<std::_Container_proxy>::deallocate
PUBLIC	??$_Dest_val@V?$allocator@U_Container_proxy@std@@@std@@U_Container_proxy@2@@std@@YAXAAV?$allocator@U_Container_proxy@std@@@0@PAU_Container_proxy@0@@Z ; std::_Dest_val<std::allocator<std::_Container_proxy>,std::_Container_proxy>
;	COMDAT xdata$x
; File c:\program files (x86)\microsoft visual studio 10.0\vc\include\xstring
xdata$x	SEGMENT
__unwindtable$??1?$_String_val@DV?$allocator@D@std@@@std@@QAE@XZ DD 0ffffffffH
	DD	FLAT:__unwindfunclet$??1?$_String_val@DV?$allocator@D@std@@@std@@QAE@XZ$0
__ehfuncinfo$??1?$_String_val@DV?$allocator@D@std@@@std@@QAE@XZ DD 019930522H
	DD	01H
	DD	FLAT:__unwindtable$??1?$_String_val@DV?$allocator@D@std@@@std@@QAE@XZ
	DD	2 DUP(00H)
	DD	2 DUP(00H)
	DD	00H
	DD	01H
; Function compile flags: /Odtp /RTCsu /ZI
xdata$x	ENDS
;	COMDAT ??1?$_String_val@DV?$allocator@D@std@@@std@@QAE@XZ
_TEXT	SEGMENT
__Alproxy$ = -29					; size = 1
_this$ = -20						; size = 4
__$EHRec$ = -12						; size = 12
??1?$_String_val@DV?$allocator@D@std@@@std@@QAE@XZ PROC	; std::_String_val<char,std::allocator<char> >::~_String_val<char,std::allocator<char> >, COMDAT
; _this$ = ecx

; 475  : 		{	// destroy the object

	push	ebp
	mov	ebp, esp
	push	-1
	push	__ehhandler$??1?$_String_val@DV?$allocator@D@std@@@std@@QAE@XZ
	mov	eax, DWORD PTR fs:0
	push	eax
	sub	esp, 216				; 000000d8H
	push	ebx
	push	esi
	push	edi
	push	ecx
	lea	edi, DWORD PTR [ebp-228]
	mov	ecx, 54					; 00000036H
	mov	eax, -858993460				; ccccccccH
	rep stosd
	pop	ecx
	mov	eax, DWORD PTR ___security_cookie
	xor	eax, ebp
	push	eax
	lea	eax, DWORD PTR __$EHRec$[ebp]
	mov	DWORD PTR fs:0, eax
	mov	DWORD PTR _this$[ebp], ecx
	mov	DWORD PTR __$EHRec$[ebp+8], 0

; 476  : 		typename _Alloc::template rebind<_Container_proxy>::other
; 477  : 			_Alproxy(_Alval);

	mov	eax, DWORD PTR _this$[ebp]
	add	eax, 28					; 0000001cH
	push	eax
	lea	ecx, DWORD PTR __Alproxy$[ebp]
	call	??$?0D@?$allocator@U_Container_proxy@std@@@std@@QAE@ABV?$allocator@D@1@@Z ; std::allocator<std::_Container_proxy>::allocator<std::_Container_proxy><char>

; 478  : 		this->_Orphan_all();

	mov	ecx, DWORD PTR _this$[ebp]
	call	?_Orphan_all@_Container_base12@std@@QAEXXZ ; std::_Container_base12::_Orphan_all

; 479  : 		_Dest_val(_Alproxy, this->_Myproxy);

	mov	eax, DWORD PTR _this$[ebp]
	mov	ecx, DWORD PTR [eax]
	push	ecx
	lea	edx, DWORD PTR __Alproxy$[ebp]
	push	edx
	call	??$_Dest_val@V?$allocator@U_Container_proxy@std@@@std@@U_Container_proxy@2@@std@@YAXAAV?$allocator@U_Container_proxy@std@@@0@PAU_Container_proxy@0@@Z ; std::_Dest_val<std::allocator<std::_Container_proxy>,std::_Container_proxy>
	add	esp, 8

; 480  : 		_Alproxy.deallocate(this->_Myproxy, 1);

	push	1
	mov	eax, DWORD PTR _this$[ebp]
	mov	ecx, DWORD PTR [eax]
	push	ecx
	lea	ecx, DWORD PTR __Alproxy$[ebp]
	call	?deallocate@?$allocator@U_Container_proxy@std@@@std@@QAEXPAU_Container_proxy@2@I@Z ; std::allocator<std::_Container_proxy>::deallocate

; 481  : 		this->_Myproxy = 0;

	mov	eax, DWORD PTR _this$[ebp]
	mov	DWORD PTR [eax], 0

; 482  : 		}

	mov	DWORD PTR __$EHRec$[ebp+8], -1
	mov	ecx, DWORD PTR _this$[ebp]
	call	??1_Container_base12@std@@QAE@XZ	; std::_Container_base12::~_Container_base12
	push	edx
	mov	ecx, ebp
	push	eax
	lea	edx, DWORD PTR $LN7@String_val@2
	call	@_RTC_CheckStackVars@8
	pop	eax
	pop	edx
	mov	ecx, DWORD PTR __$EHRec$[ebp]
	mov	DWORD PTR fs:0, ecx
	pop	ecx
	pop	edi
	pop	esi
	pop	ebx
	add	esp, 228				; 000000e4H
	cmp	ebp, esp
	call	__RTC_CheckEsp
	mov	esp, ebp
	pop	ebp
	ret	0
	npad	2
$LN7@String_val@2:
	DD	1
	DD	$LN6@String_val@2
$LN6@String_val@2:
	DD	-29					; ffffffe3H
	DD	1
	DD	$LN4@String_val@2
$LN4@String_val@2:
	DB	95					; 0000005fH
	DB	65					; 00000041H
	DB	108					; 0000006cH
	DB	112					; 00000070H
	DB	114					; 00000072H
	DB	111					; 0000006fH
	DB	120					; 00000078H
	DB	121					; 00000079H
	DB	0
_TEXT	ENDS
;	COMDAT text$x
text$x	SEGMENT
__unwindfunclet$??1?$_String_val@DV?$allocator@D@std@@@std@@QAE@XZ$0:
	mov	ecx, DWORD PTR _this$[ebp]
	jmp	??1_Container_base12@std@@QAE@XZ	; std::_Container_base12::~_Container_base12
__ehhandler$??1?$_String_val@DV?$allocator@D@std@@@std@@QAE@XZ:
	mov	edx, DWORD PTR [esp+8]
	lea	eax, DWORD PTR [edx+12]
	mov	ecx, DWORD PTR [edx-232]
	xor	ecx, eax
	call	@__security_check_cookie@4
	mov	eax, OFFSET __ehfuncinfo$??1?$_String_val@DV?$allocator@D@std@@@std@@QAE@XZ
	jmp	___CxxFrameHandler3
text$x	ENDS
??1?$_String_val@DV?$allocator@D@std@@@std@@QAE@XZ ENDP	; std::_String_val<char,std::allocator<char> >::~_String_val<char,std::allocator<char> >
; Function compile flags: /Odtp /RTCsu /ZI
; File c:\program files (x86)\microsoft visual studio 10.0\vc\include\xmemory
;	COMDAT ??0?$allocator@D@std@@QAE@XZ
_TEXT	SEGMENT
_this$ = -8						; size = 4
??0?$allocator@D@std@@QAE@XZ PROC			; std::allocator<char>::allocator<char>, COMDAT
; _this$ = ecx

; 161  : 	_ALLOCATOR() _THROW0()

	push	ebp
	mov	ebp, esp
	sub	esp, 204				; 000000ccH
	push	ebx
	push	esi
	push	edi
	push	ecx
	lea	edi, DWORD PTR [ebp-204]
	mov	ecx, 51					; 00000033H
	mov	eax, -858993460				; ccccccccH
	rep stosd
	pop	ecx
	mov	DWORD PTR _this$[ebp], ecx

; 162  : 		{	// construct default allocator (do nothing)
; 163  : 		}

	mov	eax, DWORD PTR _this$[ebp]
	pop	edi
	pop	esi
	pop	ebx
	mov	esp, ebp
	pop	ebp
	ret	0
??0?$allocator@D@std@@QAE@XZ ENDP			; std::allocator<char>::allocator<char>
; Function compile flags: /Odtp /RTCsu /ZI
_TEXT	ENDS
;	COMDAT ??0?$allocator@D@std@@QAE@ABV01@@Z
_TEXT	SEGMENT
_this$ = -8						; size = 4
___formal$ = 8						; size = 4
??0?$allocator@D@std@@QAE@ABV01@@Z PROC			; std::allocator<char>::allocator<char>, COMDAT
; _this$ = ecx

; 165  : 	_ALLOCATOR(const _ALLOCATOR<_Ty>&) _THROW0()

	push	ebp
	mov	ebp, esp
	sub	esp, 204				; 000000ccH
	push	ebx
	push	esi
	push	edi
	push	ecx
	lea	edi, DWORD PTR [ebp-204]
	mov	ecx, 51					; 00000033H
	mov	eax, -858993460				; ccccccccH
	rep stosd
	pop	ecx
	mov	DWORD PTR _this$[ebp], ecx

; 166  : 		{	// construct by copying (do nothing)
; 167  : 		}

	mov	eax, DWORD PTR _this$[ebp]
	pop	edi
	pop	esi
	pop	ebx
	mov	esp, ebp
	pop	ebp
	ret	4
??0?$allocator@D@std@@QAE@ABV01@@Z ENDP			; std::allocator<char>::allocator<char>
_TEXT	ENDS
PUBLIC	??0ios_base@std@@IAE@XZ				; std::ios_base::ios_base
; Function compile flags: /Odtp /RTCsu /ZI
; File c:\program files (x86)\microsoft visual studio 10.0\vc\include\ios
;	COMDAT ??0?$basic_ios@DU?$char_traits@D@std@@@std@@IAE@XZ
_TEXT	SEGMENT
_this$ = -8						; size = 4
??0?$basic_ios@DU?$char_traits@D@std@@@std@@IAE@XZ PROC	; std::basic_ios<char,std::char_traits<char> >::basic_ios<char,std::char_traits<char> >, COMDAT
; _this$ = ecx

; 167  : 	__CLR_OR_THIS_CALL basic_ios()

	push	ebp
	mov	ebp, esp
	sub	esp, 204				; 000000ccH
	push	ebx
	push	esi
	push	edi
	push	ecx
	lea	edi, DWORD PTR [ebp-204]
	mov	ecx, 51					; 00000033H
	mov	eax, -858993460				; ccccccccH
	rep stosd
	pop	ecx
	mov	DWORD PTR _this$[ebp], ecx
	mov	ecx, DWORD PTR _this$[ebp]
	call	??0ios_base@std@@IAE@XZ			; std::ios_base::ios_base
	mov	eax, DWORD PTR _this$[ebp]
	mov	DWORD PTR [eax], OFFSET ??_7?$basic_ios@DU?$char_traits@D@std@@@std@@6B@

; 168  : 		{	// default constructor, do nothing
; 169  : 		}

	mov	eax, DWORD PTR _this$[ebp]
	pop	edi
	pop	esi
	pop	ebx
	add	esp, 204				; 000000ccH
	cmp	ebp, esp
	call	__RTC_CheckEsp
	mov	esp, ebp
	pop	ebp
	ret	0
??0?$basic_ios@DU?$char_traits@D@std@@@std@@IAE@XZ ENDP	; std::basic_ios<char,std::char_traits<char> >::basic_ios<char,std::char_traits<char> >
; Function compile flags: /Odtp /RTCsu /ZI
; File c:\program files (x86)\microsoft visual studio 10.0\vc\include\xiosbase
_TEXT	ENDS
;	COMDAT ??0ios_base@std@@IAE@XZ
_TEXT	SEGMENT
_this$ = -8						; size = 4
??0ios_base@std@@IAE@XZ PROC				; std::ios_base::ios_base, COMDAT
; _this$ = ecx

; 549  : 	__CLR_OR_THIS_CALL ios_base()

	push	ebp
	mov	ebp, esp
	sub	esp, 204				; 000000ccH
	push	ebx
	push	esi
	push	edi
	push	ecx
	lea	edi, DWORD PTR [ebp-204]
	mov	ecx, 51					; 00000033H
	mov	eax, -858993460				; ccccccccH
	rep stosd
	pop	ecx
	mov	DWORD PTR _this$[ebp], ecx
	mov	eax, DWORD PTR _this$[ebp]
	mov	DWORD PTR [eax], OFFSET ??_7ios_base@std@@6B@

; 550  : 		{	// default constructor
; 551  : 		}

	mov	eax, DWORD PTR _this$[ebp]
	pop	edi
	pop	esi
	pop	ebx
	mov	esp, ebp
	pop	ebp
	ret	0
??0ios_base@std@@IAE@XZ ENDP				; std::ios_base::ios_base
_TEXT	ENDS
PUBLIC	?is@?$ctype@D@std@@QBE_NFD@Z			; std::ctype<char>::is
PUBLIC	?snextc@?$basic_streambuf@DU?$char_traits@D@std@@@std@@QAEHXZ ; std::basic_streambuf<char,std::char_traits<char> >::snextc
PUBLIC	?sgetc@?$basic_streambuf@DU?$char_traits@D@std@@@std@@QAEHXZ ; std::basic_streambuf<char,std::char_traits<char> >::sgetc
PUBLIC	??1locale@std@@QAE@XZ				; std::locale::~locale
PUBLIC	??$use_facet@V?$ctype@D@std@@@std@@YAABV?$ctype@D@0@ABVlocale@0@@Z ; std::use_facet<std::ctype<char> >
PUBLIC	?getloc@ios_base@std@@QBE?AVlocale@2@XZ		; std::ios_base::getloc
PUBLIC	?flags@ios_base@std@@QBEHXZ			; std::ios_base::flags
PUBLIC	?flush@?$basic_ostream@DU?$char_traits@D@std@@@std@@QAEAAV12@XZ ; std::basic_ostream<char,std::char_traits<char> >::flush
PUBLIC	?tie@?$basic_ios@DU?$char_traits@D@std@@@std@@QBEPAV?$basic_ostream@DU?$char_traits@D@std@@@2@XZ ; std::basic_ios<char,std::char_traits<char> >::tie
PUBLIC	?good@ios_base@std@@QBE_NXZ			; std::ios_base::good
;	COMDAT xdata$x
; File c:\program files (x86)\microsoft visual studio 10.0\vc\include\istream
xdata$x	SEGMENT
__catchsym$?_Ipfx@?$basic_istream@DU?$char_traits@D@std@@@std@@QAE_N_N@Z$3 DD 040H
	DD	00H
	DD	00H
	DD	FLAT:__catch$?_Ipfx@?$basic_istream@DU?$char_traits@D@std@@@std@@QAE_N_N@Z$0
__tryblocktable$?_Ipfx@?$basic_istream@DU?$char_traits@D@std@@@std@@QAE_N_N@Z DD 01H
	DD	01H
	DD	02H
	DD	01H
	DD	FLAT:__catchsym$?_Ipfx@?$basic_istream@DU?$char_traits@D@std@@@std@@QAE_N_N@Z$3
__unwindtable$?_Ipfx@?$basic_istream@DU?$char_traits@D@std@@@std@@QAE_N_N@Z DD 0ffffffffH
	DD	FLAT:__unwindfunclet$?_Ipfx@?$basic_istream@DU?$char_traits@D@std@@@std@@QAE_N_N@Z$2
	DD	0ffffffffH
	DD	00H
	DD	0ffffffffH
	DD	00H
__ehfuncinfo$?_Ipfx@?$basic_istream@DU?$char_traits@D@std@@@std@@QAE_N_N@Z DD 019930522H
	DD	03H
	DD	FLAT:__unwindtable$?_Ipfx@?$basic_istream@DU?$char_traits@D@std@@@std@@QAE_N_N@Z
	DD	01H
	DD	FLAT:__tryblocktable$?_Ipfx@?$basic_istream@DU?$char_traits@D@std@@@std@@QAE_N_N@Z
	DD	2 DUP(00H)
	DD	00H
	DD	01H
; Function compile flags: /Odtp /RTCsu /ZI
xdata$x	ENDS
;	COMDAT ?_Ipfx@?$basic_istream@DU?$char_traits@D@std@@@std@@QAE_N_N@Z
_TEXT	SEGMENT
tv260 = -276						; size = 4
tv258 = -276						; size = 4
tv254 = -276						; size = 4
tv262 = -273						; size = 1
tv261 = -272						; size = 4
tv259 = -272						; size = 4
tv257 = -272						; size = 4
tv256 = -272						; size = 4
tv264 = -270						; size = 1
tv263 = -269						; size = 1
$T37210 = -264						; size = 4
$T37211 = -252						; size = 4
__Meta$33416 = -48					; size = 4
__Ctype_fac$33412 = -36					; size = 4
_this$ = -24						; size = 4
__$EHRec$ = -16						; size = 16
__Noskip$ = 8						; size = 1
?_Ipfx@?$basic_istream@DU?$char_traits@D@std@@@std@@QAE_N_N@Z PROC ; std::basic_istream<char,std::char_traits<char> >::_Ipfx, COMDAT
; _this$ = ecx

; 116  : 		{	// test stream state and skip whitespace as needed

	push	ebp
	mov	ebp, esp
	push	-1
	push	__ehhandler$?_Ipfx@?$basic_istream@DU?$char_traits@D@std@@@std@@QAE_N_N@Z
	mov	eax, DWORD PTR fs:0
	push	eax
	push	ecx
	sub	esp, 260				; 00000104H
	push	ebx
	push	esi
	push	edi
	push	ecx
	lea	edi, DWORD PTR [ebp-276]
	mov	ecx, 65					; 00000041H
	mov	eax, -858993460				; ccccccccH
	rep stosd
	pop	ecx
	mov	eax, DWORD PTR ___security_cookie
	xor	eax, ebp
	push	eax
	lea	eax, DWORD PTR __$EHRec$[ebp+4]
	mov	DWORD PTR fs:0, eax
	mov	DWORD PTR __$EHRec$[ebp], esp
	mov	DWORD PTR _this$[ebp], ecx

; 117  : 		if (ios_base::good())

	mov	eax, DWORD PTR _this$[ebp]
	mov	ecx, DWORD PTR [eax]
	mov	edx, DWORD PTR _this$[ebp]
	add	edx, DWORD PTR [ecx+4]
	mov	ecx, edx
	call	?good@ios_base@std@@QBE_NXZ		; std::ios_base::good
	movzx	eax, al
	test	eax, eax
	je	$LN11@Ipfx

; 118  : 			{	// state okay, flush tied stream and skip whitespace
; 119  : 			if (_Myios::tie() != 0)

	mov	eax, DWORD PTR _this$[ebp]
	mov	ecx, DWORD PTR [eax]
	mov	edx, DWORD PTR _this$[ebp]
	add	edx, DWORD PTR [ecx+4]
	mov	ecx, edx
	call	?tie@?$basic_ios@DU?$char_traits@D@std@@@std@@QBEPAV?$basic_ostream@DU?$char_traits@D@std@@@2@XZ ; std::basic_ios<char,std::char_traits<char> >::tie
	test	eax, eax
	je	SHORT $LN10@Ipfx

; 120  : 				_Myios::tie()->flush();

	mov	eax, DWORD PTR _this$[ebp]
	mov	ecx, DWORD PTR [eax]
	mov	edx, DWORD PTR _this$[ebp]
	add	edx, DWORD PTR [ecx+4]
	mov	ecx, edx
	call	?tie@?$basic_ios@DU?$char_traits@D@std@@@std@@QBEPAV?$basic_ostream@DU?$char_traits@D@std@@@2@XZ ; std::basic_ios<char,std::char_traits<char> >::tie
	mov	ecx, eax
	call	?flush@?$basic_ostream@DU?$char_traits@D@std@@@std@@QAEAAV12@XZ ; std::basic_ostream<char,std::char_traits<char> >::flush
$LN10@Ipfx:

; 121  : 
; 122  : 			if (!_Noskip && ios_base::flags() & ios_base::skipws)

	movzx	eax, BYTE PTR __Noskip$[ebp]
	test	eax, eax
	jne	$LN9@Ipfx
	mov	eax, DWORD PTR _this$[ebp]
	mov	ecx, DWORD PTR [eax]
	mov	edx, DWORD PTR _this$[ebp]
	add	edx, DWORD PTR [ecx+4]
	mov	ecx, edx
	call	?flags@ios_base@std@@QBEHXZ		; std::ios_base::flags
	and	eax, 1
	je	$LN9@Ipfx

; 123  : 				{	// skip whitespace
; 124  : 				const _Ctype& _Ctype_fac = _USE(ios_base::getloc(), _Ctype);

	lea	eax, DWORD PTR $T37210[ebp]
	push	eax
	mov	ecx, DWORD PTR _this$[ebp]
	mov	edx, DWORD PTR [ecx]
	mov	ecx, DWORD PTR _this$[ebp]
	add	ecx, DWORD PTR [edx+4]
	call	?getloc@ios_base@std@@QBE?AVlocale@2@XZ	; std::ios_base::getloc
	mov	DWORD PTR tv256[ebp], eax
	mov	eax, DWORD PTR tv256[ebp]
	mov	DWORD PTR tv254[ebp], eax
	mov	DWORD PTR __$EHRec$[ebp+12], 0
	mov	ecx, DWORD PTR tv254[ebp]
	push	ecx
	call	??$use_facet@V?$ctype@D@std@@@std@@YAABV?$ctype@D@0@ABVlocale@0@@Z ; std::use_facet<std::ctype<char> >
	add	esp, 4
	mov	DWORD PTR __Ctype_fac$33412[ebp], eax
	mov	DWORD PTR __$EHRec$[ebp+12], -1
	lea	ecx, DWORD PTR $T37210[ebp]
	call	??1locale@std@@QAE@XZ			; std::locale::~locale

; 125  : 
; 126  : 				_TRY_IO_BEGIN

	mov	DWORD PTR __$EHRec$[ebp+12], 1

; 127  : 				int_type _Meta = _Myios::rdbuf()->sgetc();

	mov	eax, DWORD PTR _this$[ebp]
	mov	ecx, DWORD PTR [eax]
	mov	edx, DWORD PTR _this$[ebp]
	add	edx, DWORD PTR [ecx+4]
	mov	ecx, edx
	call	?rdbuf@?$basic_ios@DU?$char_traits@D@std@@@std@@QBEPAV?$basic_streambuf@DU?$char_traits@D@std@@@2@XZ ; std::basic_ios<char,std::char_traits<char> >::rdbuf
	mov	DWORD PTR tv257[ebp], eax
	mov	ecx, DWORD PTR tv257[ebp]
	call	?sgetc@?$basic_streambuf@DU?$char_traits@D@std@@@std@@QAEHXZ ; std::basic_streambuf<char,std::char_traits<char> >::sgetc
	mov	DWORD PTR tv258[ebp], eax
	mov	eax, DWORD PTR tv258[ebp]
	mov	DWORD PTR __Meta$33416[ebp], eax
	jmp	SHORT $LN7@Ipfx
$LN6@Ipfx:

; 128  : 
; 129  : 				for (; ; _Meta = _Myios::rdbuf()->snextc())

	mov	eax, DWORD PTR _this$[ebp]
	mov	ecx, DWORD PTR [eax]
	mov	edx, DWORD PTR _this$[ebp]
	add	edx, DWORD PTR [ecx+4]
	mov	ecx, edx
	call	?rdbuf@?$basic_ios@DU?$char_traits@D@std@@@std@@QBEPAV?$basic_streambuf@DU?$char_traits@D@std@@@2@XZ ; std::basic_ios<char,std::char_traits<char> >::rdbuf
	mov	DWORD PTR tv259[ebp], eax
	mov	ecx, DWORD PTR tv259[ebp]
	call	?snextc@?$basic_streambuf@DU?$char_traits@D@std@@@std@@QAEHXZ ; std::basic_streambuf<char,std::char_traits<char> >::snextc
	mov	DWORD PTR tv260[ebp], eax
	mov	eax, DWORD PTR tv260[ebp]
	mov	DWORD PTR __Meta$33416[ebp], eax
$LN7@Ipfx:

; 130  : 					if (_Traits::eq_int_type(_Traits::eof(), _Meta))

	call	?eof@?$char_traits@D@std@@SAHXZ		; std::char_traits<char>::eof
	mov	DWORD PTR tv261[ebp], eax
	mov	eax, DWORD PTR tv261[ebp]
	mov	DWORD PTR $T37211[ebp], eax
	lea	ecx, DWORD PTR __Meta$33416[ebp]
	push	ecx
	lea	edx, DWORD PTR $T37211[ebp]
	push	edx
	call	?eq_int_type@?$char_traits@D@std@@SA_NABH0@Z ; std::char_traits<char>::eq_int_type
	add	esp, 8
	mov	BYTE PTR tv262[ebp], al
	movzx	eax, BYTE PTR tv262[ebp]
	test	eax, eax
	je	SHORT $LN4@Ipfx

; 131  : 						{	// end of file, quit
; 132  : 						_Myios::setstate(ios_base::eofbit);

	push	0
	push	1
	mov	eax, DWORD PTR _this$[ebp]
	mov	ecx, DWORD PTR [eax]
	mov	edx, DWORD PTR _this$[ebp]
	add	edx, DWORD PTR [ecx+4]
	mov	ecx, edx
	call	?setstate@?$basic_ios@DU?$char_traits@D@std@@@std@@QAEXH_N@Z ; std::basic_ios<char,std::char_traits<char> >::setstate

; 133  : 						break;

	jmp	SHORT $LN5@Ipfx

; 134  : 						}
; 135  : 					else if (!_Ctype_fac.is(_Ctype::space,

	jmp	SHORT $LN3@Ipfx
$LN4@Ipfx:

; 136  : 						_Traits::to_char_type(_Meta)))

	lea	eax, DWORD PTR __Meta$33416[ebp]
	push	eax
	call	?to_char_type@?$char_traits@D@std@@SADABH@Z ; std::char_traits<char>::to_char_type
	add	esp, 4
	mov	BYTE PTR tv263[ebp], al
	movzx	ecx, BYTE PTR tv263[ebp]
	push	ecx
	push	72					; 00000048H
	mov	ecx, DWORD PTR __Ctype_fac$33412[ebp]
	call	?is@?$ctype@D@std@@QBE_NFD@Z		; std::ctype<char>::is
	mov	BYTE PTR tv264[ebp], al
	movzx	edx, BYTE PTR tv264[ebp]
	test	edx, edx
	jne	SHORT $LN3@Ipfx

; 137  : 						break;	// not whitespace, quit

	jmp	SHORT $LN5@Ipfx
$LN3@Ipfx:

; 138  : 				_CATCH_IO_END

	jmp	$LN6@Ipfx
$LN5@Ipfx:
	jmp	SHORT $LN14@Ipfx
__catch$?_Ipfx@?$basic_istream@DU?$char_traits@D@std@@@std@@QAE_N_N@Z$0:
	push	1
	push	4
	mov	eax, DWORD PTR _this$[ebp]
	mov	ecx, DWORD PTR [eax]
	mov	edx, DWORD PTR _this$[ebp]
	add	edx, DWORD PTR [ecx+4]
	mov	ecx, edx
	call	?setstate@?$basic_ios@DU?$char_traits@D@std@@@std@@QAEXH_N@Z ; std::basic_ios<char,std::char_traits<char> >::setstate
	mov	DWORD PTR __$EHRec$[ebp+12], -1
	mov	eax, $LN9@Ipfx
	ret	0
$LN14@Ipfx:
	mov	DWORD PTR __$EHRec$[ebp+12], -1
$LN9@Ipfx:

; 139  : 				}
; 140  : 
; 141  : 			if (ios_base::good())

	mov	eax, DWORD PTR _this$[ebp]
	mov	ecx, DWORD PTR [eax]
	mov	edx, DWORD PTR _this$[ebp]
	add	edx, DWORD PTR [ecx+4]
	mov	ecx, edx
	call	?good@ios_base@std@@QBE_NXZ		; std::ios_base::good
	movzx	eax, al
	test	eax, eax
	je	SHORT $LN11@Ipfx

; 142  : 				return (true);

	mov	al, 1
	jmp	SHORT $LN12@Ipfx
$LN11@Ipfx:

; 143  : 			}
; 144  : 		_Myios::setstate(ios_base::failbit);

	push	0
	push	2
	mov	eax, DWORD PTR _this$[ebp]
	mov	ecx, DWORD PTR [eax]
	mov	edx, DWORD PTR _this$[ebp]
	add	edx, DWORD PTR [ecx+4]
	mov	ecx, edx
	call	?setstate@?$basic_ios@DU?$char_traits@D@std@@@std@@QAEXH_N@Z ; std::basic_ios<char,std::char_traits<char> >::setstate

; 145  : 		return (false);

	xor	al, al
$LN12@Ipfx:

; 146  : 		}

	push	edx
	mov	ecx, ebp
	push	eax
	lea	edx, DWORD PTR $LN23@Ipfx
	call	@_RTC_CheckStackVars@8
	pop	eax
	pop	edx
	mov	ecx, DWORD PTR __$EHRec$[ebp+4]
	mov	DWORD PTR fs:0, ecx
	pop	ecx
	pop	edi
	pop	esi
	pop	ebx
	add	esp, 276				; 00000114H
	cmp	ebp, esp
	call	__RTC_CheckEsp
	mov	esp, ebp
	pop	ebp
	ret	4
	npad	2
$LN23@Ipfx:
	DD	1
	DD	$LN22@Ipfx
$LN22@Ipfx:
	DD	-48					; ffffffd0H
	DD	4
	DD	$LN20@Ipfx
$LN20@Ipfx:
	DB	95					; 0000005fH
	DB	77					; 0000004dH
	DB	101					; 00000065H
	DB	116					; 00000074H
	DB	97					; 00000061H
	DB	0
_TEXT	ENDS
;	COMDAT text$x
text$x	SEGMENT
__unwindfunclet$?_Ipfx@?$basic_istream@DU?$char_traits@D@std@@@std@@QAE_N_N@Z$2:
	lea	ecx, DWORD PTR $T37210[ebp]
	jmp	??1locale@std@@QAE@XZ			; std::locale::~locale
__ehhandler$?_Ipfx@?$basic_istream@DU?$char_traits@D@std@@@std@@QAE_N_N@Z:
	mov	edx, DWORD PTR [esp+8]
	lea	eax, DWORD PTR [edx+12]
	mov	ecx, DWORD PTR [edx-280]
	xor	ecx, eax
	call	@__security_check_cookie@4
	mov	eax, OFFSET __ehfuncinfo$?_Ipfx@?$basic_istream@DU?$char_traits@D@std@@@std@@QAE_N_N@Z
	jmp	___CxxFrameHandler3
text$x	ENDS
?_Ipfx@?$basic_istream@DU?$char_traits@D@std@@@std@@QAE_N_N@Z ENDP ; std::basic_istream<char,std::char_traits<char> >::_Ipfx
PUBLIC	??$_DebugHeapDelete@Vfacet@locale@std@@@std@@YAXPAVfacet@locale@0@@Z ; std::_DebugHeapDelete<std::locale::facet>
PUBLIC	?_Decref@facet@locale@std@@QAEPAV123@XZ		; std::locale::facet::_Decref
; Function compile flags: /Odtp /RTCsu /ZI
; File c:\program files (x86)\microsoft visual studio 10.0\vc\include\xlocale
;	COMDAT ??1locale@std@@QAE@XZ
_TEXT	SEGMENT
_this$ = -8						; size = 4
??1locale@std@@QAE@XZ PROC				; std::locale::~locale, COMDAT
; _this$ = ecx

; 409  : 		{	// destroy the object

	push	ebp
	mov	ebp, esp
	sub	esp, 204				; 000000ccH
	push	ebx
	push	esi
	push	edi
	push	ecx
	lea	edi, DWORD PTR [ebp-204]
	mov	ecx, 51					; 00000033H
	mov	eax, -858993460				; ccccccccH
	rep stosd
	pop	ecx
	mov	DWORD PTR _this$[ebp], ecx

; 410  : 		if (_Ptr != 0)

	mov	eax, DWORD PTR _this$[ebp]
	cmp	DWORD PTR [eax], 0
	je	SHORT $LN2@locale

; 411  : 			_DELETE_CRT(_Ptr->_Decref());

	mov	eax, DWORD PTR _this$[ebp]
	mov	ecx, DWORD PTR [eax]
	call	?_Decref@facet@locale@std@@QAEPAV123@XZ	; std::locale::facet::_Decref
	push	eax
	call	??$_DebugHeapDelete@Vfacet@locale@std@@@std@@YAXPAVfacet@locale@0@@Z ; std::_DebugHeapDelete<std::locale::facet>
	add	esp, 4
$LN2@locale:

; 412  : 		}

	pop	edi
	pop	esi
	pop	ebx
	add	esp, 204				; 000000ccH
	cmp	ebp, esp
	call	__RTC_CheckEsp
	mov	esp, ebp
	pop	ebp
	ret	0
??1locale@std@@QAE@XZ ENDP				; std::locale::~locale
; Function compile flags: /Odtp /RTCsu /ZI
_TEXT	ENDS
;	COMDAT ?_Decref@facet@locale@std@@QAEPAV123@XZ
_TEXT	SEGMENT
$T37233 = -224						; size = 4
__Lock$17108 = -20					; size = 4
_this$ = -8						; size = 4
?_Decref@facet@locale@std@@QAEPAV123@XZ PROC		; std::locale::facet::_Decref, COMDAT
; _this$ = ecx

; 119  : 			{	// safely decrement the reference count, return this when dead

	push	ebp
	mov	ebp, esp
	sub	esp, 228				; 000000e4H
	push	ebx
	push	esi
	push	edi
	push	ecx
	lea	edi, DWORD PTR [ebp-228]
	mov	ecx, 57					; 00000039H
	mov	eax, -858993460				; ccccccccH
	rep stosd
	pop	ecx
	mov	DWORD PTR _this$[ebp], ecx

; 120  : 			_BEGIN_LOCK(_LOCK_LOCALE)

	push	0
	lea	ecx, DWORD PTR __Lock$17108[ebp]
	call	??0_Lockit@std@@QAE@H@Z			; std::_Lockit::_Lockit

; 121  : 				if (0 < _Refs && _Refs < (size_t)(-1))

	mov	eax, DWORD PTR _this$[ebp]
	cmp	DWORD PTR [eax+4], 0
	jbe	SHORT $LN1@Decref
	mov	eax, DWORD PTR _this$[ebp]
	cmp	DWORD PTR [eax+4], -1
	jae	SHORT $LN1@Decref

; 122  : 					--_Refs;

	mov	eax, DWORD PTR _this$[ebp]
	mov	ecx, DWORD PTR [eax+4]
	sub	ecx, 1
	mov	edx, DWORD PTR _this$[ebp]
	mov	DWORD PTR [edx+4], ecx
$LN1@Decref:

; 123  : 				return (_Refs == 0 ? this : 0);

	mov	eax, DWORD PTR _this$[ebp]
	mov	ecx, DWORD PTR [eax+4]
	neg	ecx
	sbb	ecx, ecx
	not	ecx
	and	ecx, DWORD PTR _this$[ebp]
	mov	DWORD PTR $T37233[ebp], ecx
	lea	ecx, DWORD PTR __Lock$17108[ebp]
	call	??1_Lockit@std@@QAE@XZ			; std::_Lockit::~_Lockit
	mov	eax, DWORD PTR $T37233[ebp]

; 124  : 			_END_LOCK()
; 125  : 			}

	push	edx
	mov	ecx, ebp
	push	eax
	lea	edx, DWORD PTR $LN7@Decref
	call	@_RTC_CheckStackVars@8
	pop	eax
	pop	edx
	pop	edi
	pop	esi
	pop	ebx
	add	esp, 228				; 000000e4H
	cmp	ebp, esp
	call	__RTC_CheckEsp
	mov	esp, ebp
	pop	ebp
	ret	0
	npad	2
$LN7@Decref:
	DD	1
	DD	$LN6@Decref
$LN6@Decref:
	DD	-20					; ffffffecH
	DD	4
	DD	$LN5@Decref
$LN5@Decref:
	DB	95					; 0000005fH
	DB	76					; 0000004cH
	DB	111					; 0000006fH
	DB	99					; 00000063H
	DB	107					; 0000006bH
	DB	0
?_Decref@facet@locale@std@@QAEPAV123@XZ ENDP		; std::locale::facet::_Decref
; Function compile flags: /Odtp /RTCsu /ZI
_TEXT	ENDS
;	COMDAT ?is@?$ctype@D@std@@QBE_NFD@Z
_TEXT	SEGMENT
_this$ = -8						; size = 4
__Maskval$ = 8						; size = 2
__Ch$ = 12						; size = 1
?is@?$ctype@D@std@@QBE_NFD@Z PROC			; std::ctype<char>::is, COMDAT
; _this$ = ecx

; 2271 : 		{	// test if element fits any mask classifications

	push	ebp
	mov	ebp, esp
	sub	esp, 204				; 000000ccH
	push	ebx
	push	esi
	push	edi
	push	ecx
	lea	edi, DWORD PTR [ebp-204]
	mov	ecx, 51					; 00000033H
	mov	eax, -858993460				; ccccccccH
	rep stosd
	pop	ecx
	mov	DWORD PTR _this$[ebp], ecx

; 2272 : 		return ((_Ctype._Table[(unsigned char)_Ch] & _Maskval) != 0);

	movzx	eax, BYTE PTR __Ch$[ebp]
	mov	ecx, DWORD PTR _this$[ebp]
	mov	edx, DWORD PTR [ecx+16]
	movsx	eax, WORD PTR [edx+eax*2]
	movsx	ecx, WORD PTR __Maskval$[ebp]
	and	eax, ecx
	neg	eax
	sbb	eax, eax
	neg	eax

; 2273 : 		}

	pop	edi
	pop	esi
	pop	ebx
	mov	esp, ebp
	pop	ebp
	ret	8
?is@?$ctype@D@std@@QBE_NFD@Z ENDP			; std::ctype<char>::is
; Function compile flags: /Odtp /RTCsu /ZI
; File c:\program files (x86)\microsoft visual studio 10.0\vc\include\xiosbase
_TEXT	ENDS
;	COMDAT ?good@ios_base@std@@QBE_NXZ
_TEXT	SEGMENT
_this$ = -8						; size = 4
?good@ios_base@std@@QBE_NXZ PROC			; std::ios_base::good, COMDAT
; _this$ = ecx

; 357  : 		{	// test if no state bits are set

	push	ebp
	mov	ebp, esp
	sub	esp, 204				; 000000ccH
	push	ebx
	push	esi
	push	edi
	push	ecx
	lea	edi, DWORD PTR [ebp-204]
	mov	ecx, 51					; 00000033H
	mov	eax, -858993460				; ccccccccH
	rep stosd
	pop	ecx
	mov	DWORD PTR _this$[ebp], ecx

; 358  : 		return (rdstate() == goodbit);

	mov	ecx, DWORD PTR _this$[ebp]
	call	?rdstate@ios_base@std@@QBEHXZ		; std::ios_base::rdstate
	neg	eax
	sbb	eax, eax
	add	eax, 1

; 359  : 		}

	pop	edi
	pop	esi
	pop	ebx
	add	esp, 204				; 000000ccH
	cmp	ebp, esp
	call	__RTC_CheckEsp
	mov	esp, ebp
	pop	ebp
	ret	0
?good@ios_base@std@@QBE_NXZ ENDP			; std::ios_base::good
; Function compile flags: /Odtp /RTCsu /ZI
_TEXT	ENDS
;	COMDAT ?flags@ios_base@std@@QBEHXZ
_TEXT	SEGMENT
_this$ = -8						; size = 4
?flags@ios_base@std@@QBEHXZ PROC			; std::ios_base::flags, COMDAT
; _this$ = ecx

; 394  : 		{	// return format flags

	push	ebp
	mov	ebp, esp
	sub	esp, 204				; 000000ccH
	push	ebx
	push	esi
	push	edi
	push	ecx
	lea	edi, DWORD PTR [ebp-204]
	mov	ecx, 51					; 00000033H
	mov	eax, -858993460				; ccccccccH
	rep stosd
	pop	ecx
	mov	DWORD PTR _this$[ebp], ecx

; 395  : 		return (_Fmtfl);

	mov	eax, DWORD PTR _this$[ebp]
	mov	eax, DWORD PTR [eax+20]

; 396  : 		}

	pop	edi
	pop	esi
	pop	ebx
	mov	esp, ebp
	pop	ebp
	ret	0
?flags@ios_base@std@@QBEHXZ ENDP			; std::ios_base::flags
_TEXT	ENDS
PUBLIC	??0locale@std@@QAE@ABV01@@Z			; std::locale::locale
; Function compile flags: /Odtp /RTCsu /ZI
;	COMDAT ?getloc@ios_base@std@@QBE?AVlocale@2@XZ
_TEXT	SEGMENT
$T37247 = -212						; size = 4
_this$ = -8						; size = 4
___$ReturnUdt$ = 8					; size = 4
?getloc@ios_base@std@@QBE?AVlocale@2@XZ PROC		; std::ios_base::getloc, COMDAT
; _this$ = ecx

; 451  : 		{	// get locale

	push	ebp
	mov	ebp, esp
	sub	esp, 216				; 000000d8H
	push	ebx
	push	esi
	push	edi
	push	ecx
	lea	edi, DWORD PTR [ebp-216]
	mov	ecx, 54					; 00000036H
	mov	eax, -858993460				; ccccccccH
	rep stosd
	pop	ecx
	mov	DWORD PTR _this$[ebp], ecx
	mov	DWORD PTR $T37247[ebp], 0

; 452  : 		return (*_Ploc);

	mov	eax, DWORD PTR _this$[ebp]
	mov	ecx, DWORD PTR [eax+48]
	push	ecx
	mov	ecx, DWORD PTR ___$ReturnUdt$[ebp]
	call	??0locale@std@@QAE@ABV01@@Z		; std::locale::locale
	mov	edx, DWORD PTR $T37247[ebp]
	or	edx, 1
	mov	DWORD PTR $T37247[ebp], edx
	mov	eax, DWORD PTR ___$ReturnUdt$[ebp]

; 453  : 		}

	pop	edi
	pop	esi
	pop	ebx
	add	esp, 216				; 000000d8H
	cmp	ebp, esp
	call	__RTC_CheckEsp
	mov	esp, ebp
	pop	ebp
	ret	4
?getloc@ios_base@std@@QBE?AVlocale@2@XZ ENDP		; std::ios_base::getloc
_TEXT	ENDS
PUBLIC	?_Incref@facet@locale@std@@QAEXXZ		; std::locale::facet::_Incref
; Function compile flags: /Odtp /RTCsu /ZI
; File c:\program files (x86)\microsoft visual studio 10.0\vc\include\xlocale
;	COMDAT ??0locale@std@@QAE@ABV01@@Z
_TEXT	SEGMENT
_this$ = -8						; size = 4
__Right$ = 8						; size = 4
??0locale@std@@QAE@ABV01@@Z PROC			; std::locale::locale, COMDAT
; _this$ = ecx

; 309  : 		{	// construct by copying

	push	ebp
	mov	ebp, esp
	sub	esp, 204				; 000000ccH
	push	ebx
	push	esi
	push	edi
	push	ecx
	lea	edi, DWORD PTR [ebp-204]
	mov	ecx, 51					; 00000033H
	mov	eax, -858993460				; ccccccccH
	rep stosd
	pop	ecx
	mov	DWORD PTR _this$[ebp], ecx
	mov	eax, DWORD PTR _this$[ebp]
	mov	ecx, DWORD PTR __Right$[ebp]
	mov	edx, DWORD PTR [ecx]
	mov	DWORD PTR [eax], edx

; 310  : 		_Ptr->_Incref();

	mov	eax, DWORD PTR _this$[ebp]
	mov	ecx, DWORD PTR [eax]
	call	?_Incref@facet@locale@std@@QAEXXZ	; std::locale::facet::_Incref

; 311  : 		}

	mov	eax, DWORD PTR _this$[ebp]
	pop	edi
	pop	esi
	pop	ebx
	add	esp, 204				; 000000ccH
	cmp	ebp, esp
	call	__RTC_CheckEsp
	mov	esp, ebp
	pop	ebp
	ret	4
??0locale@std@@QAE@ABV01@@Z ENDP			; std::locale::locale
; Function compile flags: /Odtp /RTCsu /ZI
_TEXT	ENDS
;	COMDAT ?_Incref@facet@locale@std@@QAEXXZ
_TEXT	SEGMENT
__Lock$17103 = -20					; size = 4
_this$ = -8						; size = 4
?_Incref@facet@locale@std@@QAEXXZ PROC			; std::locale::facet::_Incref, COMDAT
; _this$ = ecx

; 111  : 			{	// safely increment the reference count

	push	ebp
	mov	ebp, esp
	sub	esp, 216				; 000000d8H
	push	ebx
	push	esi
	push	edi
	push	ecx
	lea	edi, DWORD PTR [ebp-216]
	mov	ecx, 54					; 00000036H
	mov	eax, -858993460				; ccccccccH
	rep stosd
	pop	ecx
	mov	DWORD PTR _this$[ebp], ecx

; 112  : 			_BEGIN_LOCK(_LOCK_LOCALE)

	push	0
	lea	ecx, DWORD PTR __Lock$17103[ebp]
	call	??0_Lockit@std@@QAE@H@Z			; std::_Lockit::_Lockit

; 113  : 				if (_Refs < (size_t)(-1))

	mov	eax, DWORD PTR _this$[ebp]
	cmp	DWORD PTR [eax+4], -1
	jae	SHORT $LN1@Incref

; 114  : 					++_Refs;

	mov	eax, DWORD PTR _this$[ebp]
	mov	ecx, DWORD PTR [eax+4]
	add	ecx, 1
	mov	edx, DWORD PTR _this$[ebp]
	mov	DWORD PTR [edx+4], ecx
$LN1@Incref:

; 115  : 			_END_LOCK()

	lea	ecx, DWORD PTR __Lock$17103[ebp]
	call	??1_Lockit@std@@QAE@XZ			; std::_Lockit::~_Lockit

; 116  : 			}

	push	edx
	mov	ecx, ebp
	push	eax
	lea	edx, DWORD PTR $LN7@Incref
	call	@_RTC_CheckStackVars@8
	pop	eax
	pop	edx
	pop	edi
	pop	esi
	pop	ebx
	add	esp, 216				; 000000d8H
	cmp	ebp, esp
	call	__RTC_CheckEsp
	mov	esp, ebp
	pop	ebp
	ret	0
	npad	2
$LN7@Incref:
	DD	1
	DD	$LN6@Incref
$LN6@Incref:
	DD	-20					; ffffffecH
	DD	4
	DD	$LN5@Incref
$LN5@Incref:
	DB	95					; 0000005fH
	DB	76					; 0000004cH
	DB	111					; 0000006fH
	DB	99					; 00000063H
	DB	107					; 0000006bH
	DB	0
?_Incref@facet@locale@std@@QAEXXZ ENDP			; std::locale::facet::_Incref
_TEXT	ENDS
PUBLIC	?pubsync@?$basic_streambuf@DU?$char_traits@D@std@@@std@@QAEHXZ ; std::basic_streambuf<char,std::char_traits<char> >::pubsync
; Function compile flags: /Odtp /RTCsu /ZI
; File c:\program files (x86)\microsoft visual studio 10.0\vc\include\ostream
;	COMDAT ?flush@?$basic_ostream@DU?$char_traits@D@std@@@std@@QAEAAV12@XZ
_TEXT	SEGMENT
__State$ = -20						; size = 4
_this$ = -8						; size = 4
?flush@?$basic_ostream@DU?$char_traits@D@std@@@std@@QAEAAV12@XZ PROC ; std::basic_ostream<char,std::char_traits<char> >::flush, COMDAT
; _this$ = ecx

; 570  : 		{	// flush output stream

	push	ebp
	mov	ebp, esp
	sub	esp, 216				; 000000d8H
	push	ebx
	push	esi
	push	edi
	push	ecx
	lea	edi, DWORD PTR [ebp-216]
	mov	ecx, 54					; 00000036H
	mov	eax, -858993460				; ccccccccH
	rep stosd
	pop	ecx
	mov	DWORD PTR _this$[ebp], ecx

; 571  : 		ios_base::iostate _State = ios_base::goodbit;

	mov	DWORD PTR __State$[ebp], 0

; 572  : 		if (!ios_base::fail() && _Myios::rdbuf()->pubsync() == -1)

	mov	eax, DWORD PTR _this$[ebp]
	mov	ecx, DWORD PTR [eax]
	mov	edx, DWORD PTR _this$[ebp]
	add	edx, DWORD PTR [ecx+4]
	mov	ecx, edx
	call	?fail@ios_base@std@@QBE_NXZ		; std::ios_base::fail
	movzx	eax, al
	test	eax, eax
	jne	SHORT $LN1@flush
	mov	eax, DWORD PTR _this$[ebp]
	mov	ecx, DWORD PTR [eax]
	mov	edx, DWORD PTR _this$[ebp]
	add	edx, DWORD PTR [ecx+4]
	mov	ecx, edx
	call	?rdbuf@?$basic_ios@DU?$char_traits@D@std@@@std@@QBEPAV?$basic_streambuf@DU?$char_traits@D@std@@@2@XZ ; std::basic_ios<char,std::char_traits<char> >::rdbuf
	mov	ecx, eax
	call	?pubsync@?$basic_streambuf@DU?$char_traits@D@std@@@std@@QAEHXZ ; std::basic_streambuf<char,std::char_traits<char> >::pubsync
	cmp	eax, -1
	jne	SHORT $LN1@flush

; 573  : 			_State |= ios_base::badbit;	// sync failed

	mov	eax, DWORD PTR __State$[ebp]
	or	eax, 4
	mov	DWORD PTR __State$[ebp], eax
$LN1@flush:

; 574  : 		_Myios::setstate(_State);

	push	0
	mov	eax, DWORD PTR __State$[ebp]
	push	eax
	mov	ecx, DWORD PTR _this$[ebp]
	mov	edx, DWORD PTR [ecx]
	mov	ecx, DWORD PTR _this$[ebp]
	add	ecx, DWORD PTR [edx+4]
	call	?setstate@?$basic_ios@DU?$char_traits@D@std@@@std@@QAEXH_N@Z ; std::basic_ios<char,std::char_traits<char> >::setstate

; 575  : 		return (*this);

	mov	eax, DWORD PTR _this$[ebp]

; 576  : 		}

	pop	edi
	pop	esi
	pop	ebx
	add	esp, 216				; 000000d8H
	cmp	ebp, esp
	call	__RTC_CheckEsp
	mov	esp, ebp
	pop	ebp
	ret	0
?flush@?$basic_ostream@DU?$char_traits@D@std@@@std@@QAEAAV12@XZ ENDP ; std::basic_ostream<char,std::char_traits<char> >::flush
; Function compile flags: /Odtp /RTCsu /ZI
; File c:\program files (x86)\microsoft visual studio 10.0\vc\include\streambuf
_TEXT	ENDS
;	COMDAT ?sgetc@?$basic_streambuf@DU?$char_traits@D@std@@@std@@QAEHXZ
_TEXT	SEGMENT
tv75 = -216						; size = 4
tv82 = -212						; size = 8
_this$ = -8						; size = 4
?sgetc@?$basic_streambuf@DU?$char_traits@D@std@@@std@@QAEHXZ PROC ; std::basic_streambuf<char,std::char_traits<char> >::sgetc, COMDAT
; _this$ = ecx

; 151  : 		{	// get a character and don't point past it

	push	ebp
	mov	ebp, esp
	sub	esp, 216				; 000000d8H
	push	ebx
	push	esi
	push	edi
	push	ecx
	lea	edi, DWORD PTR [ebp-216]
	mov	ecx, 54					; 00000036H
	mov	eax, -858993460				; ccccccccH
	rep stosd
	pop	ecx
	mov	DWORD PTR _this$[ebp], ecx

; 152  : 		return (0 < _Gnavail()
; 153  : 			? _Traits::to_int_type(*gptr()) : underflow());

	mov	ecx, DWORD PTR _this$[ebp]
	call	?_Gnavail@?$basic_streambuf@DU?$char_traits@D@std@@@std@@IBE_JXZ ; std::basic_streambuf<char,std::char_traits<char> >::_Gnavail
	mov	DWORD PTR tv82[ebp], eax
	mov	DWORD PTR tv82[ebp+4], edx
	cmp	DWORD PTR tv82[ebp+4], 0
	jl	SHORT $LN3@sgetc
	jg	SHORT $LN5@sgetc
	cmp	DWORD PTR tv82[ebp], 0
	jbe	SHORT $LN3@sgetc
$LN5@sgetc:
	mov	ecx, DWORD PTR _this$[ebp]
	call	?gptr@?$basic_streambuf@DU?$char_traits@D@std@@@std@@IBEPADXZ ; std::basic_streambuf<char,std::char_traits<char> >::gptr
	push	eax
	call	?to_int_type@?$char_traits@D@std@@SAHABD@Z ; std::char_traits<char>::to_int_type
	add	esp, 4
	mov	DWORD PTR tv75[ebp], eax
	jmp	SHORT $LN4@sgetc
$LN3@sgetc:
	mov	eax, DWORD PTR _this$[ebp]
	mov	edx, DWORD PTR [eax]
	mov	esi, esp
	mov	ecx, DWORD PTR _this$[ebp]
	mov	eax, DWORD PTR [edx+24]
	call	eax
	cmp	esi, esp
	call	__RTC_CheckEsp
	mov	DWORD PTR tv75[ebp], eax
$LN4@sgetc:
	mov	eax, DWORD PTR tv75[ebp]

; 154  : 		}

	pop	edi
	pop	esi
	pop	ebx
	add	esp, 216				; 000000d8H
	cmp	ebp, esp
	call	__RTC_CheckEsp
	mov	esp, ebp
	pop	ebp
	ret	0
?sgetc@?$basic_streambuf@DU?$char_traits@D@std@@@std@@QAEHXZ ENDP ; std::basic_streambuf<char,std::char_traits<char> >::sgetc
_TEXT	ENDS
PUBLIC	?sbumpc@?$basic_streambuf@DU?$char_traits@D@std@@@std@@QAEHXZ ; std::basic_streambuf<char,std::char_traits<char> >::sbumpc
PUBLIC	?_Gnpreinc@?$basic_streambuf@DU?$char_traits@D@std@@@std@@IAEPADXZ ; std::basic_streambuf<char,std::char_traits<char> >::_Gnpreinc
; Function compile flags: /Odtp /RTCsu /ZI
;	COMDAT ?snextc@?$basic_streambuf@DU?$char_traits@D@std@@@std@@QAEHXZ
_TEXT	SEGMENT
tv82 = -244						; size = 4
tv83 = -240						; size = 4
tv89 = -236						; size = 8
$T37266 = -224						; size = 4
$T37267 = -212						; size = 4
_this$ = -8						; size = 4
?snextc@?$basic_streambuf@DU?$char_traits@D@std@@@std@@QAEHXZ PROC ; std::basic_streambuf<char,std::char_traits<char> >::snextc, COMDAT
; _this$ = ecx

; 163  : 		{	// point to next character and return it

	push	ebp
	mov	ebp, esp
	sub	esp, 244				; 000000f4H
	push	ebx
	push	esi
	push	edi
	push	ecx
	lea	edi, DWORD PTR [ebp-244]
	mov	ecx, 61					; 0000003dH
	mov	eax, -858993460				; ccccccccH
	rep stosd
	pop	ecx
	mov	DWORD PTR _this$[ebp], ecx

; 164  : 		return (1 < _Gnavail()
; 165  : 			? _Traits::to_int_type(*_Gnpreinc())
; 166  : 			: _Traits::eq_int_type(_Traits::eof(), sbumpc())
; 167  : 				? _Traits::eof() : sgetc());

	mov	ecx, DWORD PTR _this$[ebp]
	call	?_Gnavail@?$basic_streambuf@DU?$char_traits@D@std@@@std@@IBE_JXZ ; std::basic_streambuf<char,std::char_traits<char> >::_Gnavail
	mov	DWORD PTR tv89[ebp], eax
	mov	DWORD PTR tv89[ebp+4], edx
	cmp	DWORD PTR tv89[ebp+4], 0
	jl	SHORT $LN5@snextc
	jg	SHORT $LN7@snextc
	cmp	DWORD PTR tv89[ebp], 1
	jbe	SHORT $LN5@snextc
$LN7@snextc:
	mov	ecx, DWORD PTR _this$[ebp]
	call	?_Gnpreinc@?$basic_streambuf@DU?$char_traits@D@std@@@std@@IAEPADXZ ; std::basic_streambuf<char,std::char_traits<char> >::_Gnpreinc
	push	eax
	call	?to_int_type@?$char_traits@D@std@@SAHABD@Z ; std::char_traits<char>::to_int_type
	add	esp, 4
	mov	DWORD PTR tv83[ebp], eax
	jmp	SHORT $LN6@snextc
$LN5@snextc:
	mov	ecx, DWORD PTR _this$[ebp]
	call	?sbumpc@?$basic_streambuf@DU?$char_traits@D@std@@@std@@QAEHXZ ; std::basic_streambuf<char,std::char_traits<char> >::sbumpc
	mov	DWORD PTR $T37266[ebp], eax
	call	?eof@?$char_traits@D@std@@SAHXZ		; std::char_traits<char>::eof
	mov	DWORD PTR $T37267[ebp], eax
	lea	eax, DWORD PTR $T37266[ebp]
	push	eax
	lea	ecx, DWORD PTR $T37267[ebp]
	push	ecx
	call	?eq_int_type@?$char_traits@D@std@@SA_NABH0@Z ; std::char_traits<char>::eq_int_type
	add	esp, 8
	movzx	edx, al
	test	edx, edx
	je	SHORT $LN3@snextc
	call	?eof@?$char_traits@D@std@@SAHXZ		; std::char_traits<char>::eof
	mov	DWORD PTR tv82[ebp], eax
	jmp	SHORT $LN4@snextc
$LN3@snextc:
	mov	ecx, DWORD PTR _this$[ebp]
	call	?sgetc@?$basic_streambuf@DU?$char_traits@D@std@@@std@@QAEHXZ ; std::basic_streambuf<char,std::char_traits<char> >::sgetc
	mov	DWORD PTR tv82[ebp], eax
$LN4@snextc:
	mov	eax, DWORD PTR tv82[ebp]
	mov	DWORD PTR tv83[ebp], eax
$LN6@snextc:
	mov	eax, DWORD PTR tv83[ebp]

; 168  : 		}

	pop	edi
	pop	esi
	pop	ebx
	add	esp, 244				; 000000f4H
	cmp	ebp, esp
	call	__RTC_CheckEsp
	mov	esp, ebp
	pop	ebp
	ret	0
?snextc@?$basic_streambuf@DU?$char_traits@D@std@@@std@@QAEHXZ ENDP ; std::basic_streambuf<char,std::char_traits<char> >::snextc
; Function compile flags: /Odtp /RTCsu /ZI
; File c:\program files (x86)\microsoft visual studio 10.0\vc\include\istream
_TEXT	ENDS
;	COMDAT ??0_Sentry_base@?$basic_istream@DU?$char_traits@D@std@@@std@@QAE@AAV12@@Z
_TEXT	SEGMENT
tv90 = -208						; size = 4
_this$ = -8						; size = 4
__Istr$ = 8						; size = 4
??0_Sentry_base@?$basic_istream@DU?$char_traits@D@std@@@std@@QAE@AAV12@@Z PROC ; std::basic_istream<char,std::char_traits<char> >::_Sentry_base::_Sentry_base, COMDAT
; _this$ = ecx

; 76   : 			{	// lock the stream buffer, if there

	push	ebp
	mov	ebp, esp
	sub	esp, 208				; 000000d0H
	push	ebx
	push	esi
	push	edi
	push	ecx
	lea	edi, DWORD PTR [ebp-208]
	mov	ecx, 52					; 00000034H
	mov	eax, -858993460				; ccccccccH
	rep stosd
	pop	ecx
	mov	DWORD PTR _this$[ebp], ecx
	mov	eax, DWORD PTR _this$[ebp]
	mov	ecx, DWORD PTR __Istr$[ebp]
	mov	DWORD PTR [eax], ecx

; 77   : 			if (_Myistr.rdbuf() != 0)

	mov	eax, DWORD PTR _this$[ebp]
	mov	ecx, DWORD PTR [eax]
	mov	edx, DWORD PTR [ecx]
	mov	eax, DWORD PTR _this$[ebp]
	mov	ecx, DWORD PTR [eax]
	add	ecx, DWORD PTR [edx+4]
	call	?rdbuf@?$basic_ios@DU?$char_traits@D@std@@@std@@QBEPAV?$basic_streambuf@DU?$char_traits@D@std@@@2@XZ ; std::basic_ios<char,std::char_traits<char> >::rdbuf
	test	eax, eax
	je	SHORT $LN2@Sentry_bas@2

; 78   : 				_Myistr.rdbuf()->_Lock();

	mov	eax, DWORD PTR _this$[ebp]
	mov	ecx, DWORD PTR [eax]
	mov	edx, DWORD PTR [ecx]
	mov	eax, DWORD PTR _this$[ebp]
	mov	ecx, DWORD PTR [eax]
	add	ecx, DWORD PTR [edx+4]
	call	?rdbuf@?$basic_ios@DU?$char_traits@D@std@@@std@@QBEPAV?$basic_streambuf@DU?$char_traits@D@std@@@2@XZ ; std::basic_ios<char,std::char_traits<char> >::rdbuf
	mov	DWORD PTR tv90[ebp], eax
	mov	ecx, DWORD PTR tv90[ebp]
	mov	edx, DWORD PTR [ecx]
	mov	esi, esp
	mov	ecx, DWORD PTR tv90[ebp]
	mov	eax, DWORD PTR [edx+4]
	call	eax
	cmp	esi, esp
	call	__RTC_CheckEsp
$LN2@Sentry_bas@2:

; 79   : 			}

	mov	eax, DWORD PTR _this$[ebp]
	pop	edi
	pop	esi
	pop	ebx
	add	esp, 208				; 000000d0H
	cmp	ebp, esp
	call	__RTC_CheckEsp
	mov	esp, ebp
	pop	ebp
	ret	4
??0_Sentry_base@?$basic_istream@DU?$char_traits@D@std@@@std@@QAE@AAV12@@Z ENDP ; std::basic_istream<char,std::char_traits<char> >::_Sentry_base::_Sentry_base
; Function compile flags: /Odtp /RTCsu /ZI
; File c:\program files (x86)\microsoft visual studio 10.0\vc\include\streambuf
_TEXT	ENDS
;	COMDAT ?pubseekoff@?$basic_streambuf@DU?$char_traits@D@std@@@std@@QAE?AV?$fpos@H@2@_JHH@Z
_TEXT	SEGMENT
_this$ = -8						; size = 4
___$ReturnUdt$ = 8					; size = 4
__Off$ = 12						; size = 8
__Way$ = 20						; size = 4
__Mode$ = 24						; size = 4
?pubseekoff@?$basic_streambuf@DU?$char_traits@D@std@@@std@@QAE?AV?$fpos@H@2@_JHH@Z PROC ; std::basic_streambuf<char,std::char_traits<char> >::pubseekoff, COMDAT
; _this$ = ecx

; 90   : 		{	// change position by _Off, according to _Way, _Mode

	push	ebp
	mov	ebp, esp
	sub	esp, 204				; 000000ccH
	push	ebx
	push	esi
	push	edi
	push	ecx
	lea	edi, DWORD PTR [ebp-204]
	mov	ecx, 51					; 00000033H
	mov	eax, -858993460				; ccccccccH
	rep stosd
	pop	ecx
	mov	DWORD PTR _this$[ebp], ecx

; 91   : 		return (seekoff(_Off, _Way, _Mode));

	mov	esi, esp
	mov	eax, DWORD PTR __Mode$[ebp]
	push	eax
	mov	ecx, DWORD PTR __Way$[ebp]
	push	ecx
	mov	edx, DWORD PTR __Off$[ebp+4]
	push	edx
	mov	eax, DWORD PTR __Off$[ebp]
	push	eax
	mov	ecx, DWORD PTR ___$ReturnUdt$[ebp]
	push	ecx
	mov	edx, DWORD PTR _this$[ebp]
	mov	eax, DWORD PTR [edx]
	mov	ecx, DWORD PTR _this$[ebp]
	mov	edx, DWORD PTR [eax+40]
	call	edx
	cmp	esi, esp
	call	__RTC_CheckEsp
	mov	eax, DWORD PTR ___$ReturnUdt$[ebp]

; 92   : 		}

	pop	edi
	pop	esi
	pop	ebx
	add	esp, 204				; 000000ccH
	cmp	ebp, esp
	call	__RTC_CheckEsp
	mov	esp, ebp
	pop	ebp
	ret	20					; 00000014H
?pubseekoff@?$basic_streambuf@DU?$char_traits@D@std@@@std@@QAE?AV?$fpos@H@2@_JHH@Z ENDP ; std::basic_streambuf<char,std::char_traits<char> >::pubseekoff
; Function compile flags: /Odtp /RTCsu /ZI
_TEXT	ENDS
;	COMDAT ?pubsync@?$basic_streambuf@DU?$char_traits@D@std@@@std@@QAEHXZ
_TEXT	SEGMENT
_this$ = -8						; size = 4
?pubsync@?$basic_streambuf@DU?$char_traits@D@std@@@std@@QAEHXZ PROC ; std::basic_streambuf<char,std::char_traits<char> >::pubsync, COMDAT
; _this$ = ecx

; 140  : 		{	// synchronize with external agent

	push	ebp
	mov	ebp, esp
	sub	esp, 204				; 000000ccH
	push	ebx
	push	esi
	push	edi
	push	ecx
	lea	edi, DWORD PTR [ebp-204]
	mov	ecx, 51					; 00000033H
	mov	eax, -858993460				; ccccccccH
	rep stosd
	pop	ecx
	mov	DWORD PTR _this$[ebp], ecx

; 141  : 		return (sync());

	mov	eax, DWORD PTR _this$[ebp]
	mov	edx, DWORD PTR [eax]
	mov	esi, esp
	mov	ecx, DWORD PTR _this$[ebp]
	mov	eax, DWORD PTR [edx+52]
	call	eax
	cmp	esi, esp
	call	__RTC_CheckEsp

; 142  : 		}

	pop	edi
	pop	esi
	pop	ebx
	add	esp, 204				; 000000ccH
	cmp	ebp, esp
	call	__RTC_CheckEsp
	mov	esp, ebp
	pop	ebp
	ret	0
?pubsync@?$basic_streambuf@DU?$char_traits@D@std@@@std@@QAEHXZ ENDP ; std::basic_streambuf<char,std::char_traits<char> >::pubsync
; Function compile flags: /Odtp /RTCsu /ZI
_TEXT	ENDS
;	COMDAT ?sbumpc@?$basic_streambuf@DU?$char_traits@D@std@@@std@@QAEHXZ
_TEXT	SEGMENT
tv75 = -216						; size = 4
tv82 = -212						; size = 8
_this$ = -8						; size = 4
?sbumpc@?$basic_streambuf@DU?$char_traits@D@std@@@std@@QAEHXZ PROC ; std::basic_streambuf<char,std::char_traits<char> >::sbumpc, COMDAT
; _this$ = ecx

; 145  : 		{	// get a character and point past it

	push	ebp
	mov	ebp, esp
	sub	esp, 216				; 000000d8H
	push	ebx
	push	esi
	push	edi
	push	ecx
	lea	edi, DWORD PTR [ebp-216]
	mov	ecx, 54					; 00000036H
	mov	eax, -858993460				; ccccccccH
	rep stosd
	pop	ecx
	mov	DWORD PTR _this$[ebp], ecx

; 146  : 		return (0 < _Gnavail()
; 147  : 			? _Traits::to_int_type(*_Gninc()) : uflow());

	mov	ecx, DWORD PTR _this$[ebp]
	call	?_Gnavail@?$basic_streambuf@DU?$char_traits@D@std@@@std@@IBE_JXZ ; std::basic_streambuf<char,std::char_traits<char> >::_Gnavail
	mov	DWORD PTR tv82[ebp], eax
	mov	DWORD PTR tv82[ebp+4], edx
	cmp	DWORD PTR tv82[ebp+4], 0
	jl	SHORT $LN3@sbumpc
	jg	SHORT $LN5@sbumpc
	cmp	DWORD PTR tv82[ebp], 0
	jbe	SHORT $LN3@sbumpc
$LN5@sbumpc:
	mov	ecx, DWORD PTR _this$[ebp]
	call	?_Gninc@?$basic_streambuf@DU?$char_traits@D@std@@@std@@IAEPADXZ ; std::basic_streambuf<char,std::char_traits<char> >::_Gninc
	push	eax
	call	?to_int_type@?$char_traits@D@std@@SAHABD@Z ; std::char_traits<char>::to_int_type
	add	esp, 4
	mov	DWORD PTR tv75[ebp], eax
	jmp	SHORT $LN4@sbumpc
$LN3@sbumpc:
	mov	eax, DWORD PTR _this$[ebp]
	mov	edx, DWORD PTR [eax]
	mov	esi, esp
	mov	ecx, DWORD PTR _this$[ebp]
	mov	eax, DWORD PTR [edx+28]
	call	eax
	cmp	esi, esp
	call	__RTC_CheckEsp
	mov	DWORD PTR tv75[ebp], eax
$LN4@sbumpc:
	mov	eax, DWORD PTR tv75[ebp]

; 148  : 		}

	pop	edi
	pop	esi
	pop	ebx
	add	esp, 216				; 000000d8H
	cmp	ebp, esp
	call	__RTC_CheckEsp
	mov	esp, ebp
	pop	ebp
	ret	0
?sbumpc@?$basic_streambuf@DU?$char_traits@D@std@@@std@@QAEHXZ ENDP ; std::basic_streambuf<char,std::char_traits<char> >::sbumpc
; Function compile flags: /Odtp /RTCsu /ZI
_TEXT	ENDS
;	COMDAT ?sgetn@?$basic_streambuf@DU?$char_traits@D@std@@@std@@QAE_JPAD_J@Z
_TEXT	SEGMENT
_this$ = -8						; size = 4
__Ptr$ = 8						; size = 4
__Count$ = 12						; size = 8
?sgetn@?$basic_streambuf@DU?$char_traits@D@std@@@std@@QAE_JPAD_J@Z PROC ; std::basic_streambuf<char,std::char_traits<char> >::sgetn, COMDAT
; _this$ = ecx

; 158  : 		{	// get up to _Count characters into array beginning at _Ptr

	push	ebp
	mov	ebp, esp
	sub	esp, 204				; 000000ccH
	push	ebx
	push	esi
	push	edi
	push	ecx
	lea	edi, DWORD PTR [ebp-204]
	mov	ecx, 51					; 00000033H
	mov	eax, -858993460				; ccccccccH
	rep stosd
	pop	ecx
	mov	DWORD PTR _this$[ebp], ecx

; 159  : 		return (xsgetn(_Ptr, _Count));

	mov	esi, esp
	mov	eax, DWORD PTR __Count$[ebp+4]
	push	eax
	mov	ecx, DWORD PTR __Count$[ebp]
	push	ecx
	mov	edx, DWORD PTR __Ptr$[ebp]
	push	edx
	mov	eax, DWORD PTR _this$[ebp]
	mov	edx, DWORD PTR [eax]
	mov	ecx, DWORD PTR _this$[ebp]
	mov	eax, DWORD PTR [edx+32]
	call	eax
	cmp	esi, esp
	call	__RTC_CheckEsp

; 160  : 		}

	pop	edi
	pop	esi
	pop	ebx
	add	esp, 204				; 000000ccH
	cmp	ebp, esp
	call	__RTC_CheckEsp
	mov	esp, ebp
	pop	ebp
	ret	12					; 0000000cH
?sgetn@?$basic_streambuf@DU?$char_traits@D@std@@@std@@QAE_JPAD_J@Z ENDP ; std::basic_streambuf<char,std::char_traits<char> >::sgetn
; Function compile flags: /Odtp /RTCsu /ZI
_TEXT	ENDS
;	COMDAT ?sputn@?$basic_streambuf@DU?$char_traits@D@std@@@std@@QAE_JPBD_J@Z
_TEXT	SEGMENT
_this$ = -8						; size = 4
__Ptr$ = 8						; size = 4
__Count$ = 12						; size = 8
?sputn@?$basic_streambuf@DU?$char_traits@D@std@@@std@@QAE_JPBD_J@Z PROC ; std::basic_streambuf<char,std::char_traits<char> >::sputn, COMDAT
; _this$ = ecx

; 201  : 		{	// put _Count characters from array beginning at _Ptr

	push	ebp
	mov	ebp, esp
	sub	esp, 204				; 000000ccH
	push	ebx
	push	esi
	push	edi
	push	ecx
	lea	edi, DWORD PTR [ebp-204]
	mov	ecx, 51					; 00000033H
	mov	eax, -858993460				; ccccccccH
	rep stosd
	pop	ecx
	mov	DWORD PTR _this$[ebp], ecx

; 202  : 		return (xsputn(_Ptr, _Count));

	mov	esi, esp
	mov	eax, DWORD PTR __Count$[ebp+4]
	push	eax
	mov	ecx, DWORD PTR __Count$[ebp]
	push	ecx
	mov	edx, DWORD PTR __Ptr$[ebp]
	push	edx
	mov	eax, DWORD PTR _this$[ebp]
	mov	edx, DWORD PTR [eax]
	mov	ecx, DWORD PTR _this$[ebp]
	mov	eax, DWORD PTR [edx+36]
	call	eax
	cmp	esi, esp
	call	__RTC_CheckEsp

; 203  : 		}

	pop	edi
	pop	esi
	pop	ebx
	add	esp, 204				; 000000ccH
	cmp	ebp, esp
	call	__RTC_CheckEsp
	mov	esp, ebp
	pop	ebp
	ret	12					; 0000000cH
?sputn@?$basic_streambuf@DU?$char_traits@D@std@@@std@@QAE_JPBD_J@Z ENDP ; std::basic_streambuf<char,std::char_traits<char> >::sputn
; Function compile flags: /Odtp /RTCsu /ZI
_TEXT	ENDS
;	COMDAT ?eback@?$basic_streambuf@DU?$char_traits@D@std@@@std@@IBEPADXZ
_TEXT	SEGMENT
_this$ = -8						; size = 4
?eback@?$basic_streambuf@DU?$char_traits@D@std@@@std@@IBEPADXZ PROC ; std::basic_streambuf<char,std::char_traits<char> >::eback, COMDAT
; _this$ = ecx

; 217  : 		{	// return beginning of read buffer

	push	ebp
	mov	ebp, esp
	sub	esp, 204				; 000000ccH
	push	ebx
	push	esi
	push	edi
	push	ecx
	lea	edi, DWORD PTR [ebp-204]
	mov	ecx, 51					; 00000033H
	mov	eax, -858993460				; ccccccccH
	rep stosd
	pop	ecx
	mov	DWORD PTR _this$[ebp], ecx

; 218  : 		return (*_IGfirst);

	mov	eax, DWORD PTR _this$[ebp]
	mov	ecx, DWORD PTR [eax+16]
	mov	eax, DWORD PTR [ecx]

; 219  : 		}

	pop	edi
	pop	esi
	pop	ebx
	mov	esp, ebp
	pop	ebp
	ret	0
?eback@?$basic_streambuf@DU?$char_traits@D@std@@@std@@IBEPADXZ ENDP ; std::basic_streambuf<char,std::char_traits<char> >::eback
; Function compile flags: /Odtp /RTCsu /ZI
_TEXT	ENDS
;	COMDAT ?gptr@?$basic_streambuf@DU?$char_traits@D@std@@@std@@IBEPADXZ
_TEXT	SEGMENT
_this$ = -8						; size = 4
?gptr@?$basic_streambuf@DU?$char_traits@D@std@@@std@@IBEPADXZ PROC ; std::basic_streambuf<char,std::char_traits<char> >::gptr, COMDAT
; _this$ = ecx

; 222  : 		{	// return current position in read buffer

	push	ebp
	mov	ebp, esp
	sub	esp, 204				; 000000ccH
	push	ebx
	push	esi
	push	edi
	push	ecx
	lea	edi, DWORD PTR [ebp-204]
	mov	ecx, 51					; 00000033H
	mov	eax, -858993460				; ccccccccH
	rep stosd
	pop	ecx
	mov	DWORD PTR _this$[ebp], ecx

; 223  : 		return (*_IGnext);

	mov	eax, DWORD PTR _this$[ebp]
	mov	ecx, DWORD PTR [eax+32]
	mov	eax, DWORD PTR [ecx]

; 224  : 		}

	pop	edi
	pop	esi
	pop	ebx
	mov	esp, ebp
	pop	ebp
	ret	0
?gptr@?$basic_streambuf@DU?$char_traits@D@std@@@std@@IBEPADXZ ENDP ; std::basic_streambuf<char,std::char_traits<char> >::gptr
; Function compile flags: /Odtp /RTCsu /ZI
_TEXT	ENDS
;	COMDAT ?pptr@?$basic_streambuf@DU?$char_traits@D@std@@@std@@IBEPADXZ
_TEXT	SEGMENT
_this$ = -8						; size = 4
?pptr@?$basic_streambuf@DU?$char_traits@D@std@@@std@@IBEPADXZ PROC ; std::basic_streambuf<char,std::char_traits<char> >::pptr, COMDAT
; _this$ = ecx

; 232  : 		{	// return current position in write buffer

	push	ebp
	mov	ebp, esp
	sub	esp, 204				; 000000ccH
	push	ebx
	push	esi
	push	edi
	push	ecx
	lea	edi, DWORD PTR [ebp-204]
	mov	ecx, 51					; 00000033H
	mov	eax, -858993460				; ccccccccH
	rep stosd
	pop	ecx
	mov	DWORD PTR _this$[ebp], ecx

; 233  : 		return (*_IPnext);

	mov	eax, DWORD PTR _this$[ebp]
	mov	ecx, DWORD PTR [eax+36]
	mov	eax, DWORD PTR [ecx]

; 234  : 		}

	pop	edi
	pop	esi
	pop	ebx
	mov	esp, ebp
	pop	ebp
	ret	0
?pptr@?$basic_streambuf@DU?$char_traits@D@std@@@std@@IBEPADXZ ENDP ; std::basic_streambuf<char,std::char_traits<char> >::pptr
; Function compile flags: /Odtp /RTCsu /ZI
_TEXT	ENDS
;	COMDAT ?egptr@?$basic_streambuf@DU?$char_traits@D@std@@@std@@IBEPADXZ
_TEXT	SEGMENT
_this$ = -8						; size = 4
?egptr@?$basic_streambuf@DU?$char_traits@D@std@@@std@@IBEPADXZ PROC ; std::basic_streambuf<char,std::char_traits<char> >::egptr, COMDAT
; _this$ = ecx

; 237  : 		{	// return end of read buffer

	push	ebp
	mov	ebp, esp
	sub	esp, 204				; 000000ccH
	push	ebx
	push	esi
	push	edi
	push	ecx
	lea	edi, DWORD PTR [ebp-204]
	mov	ecx, 51					; 00000033H
	mov	eax, -858993460				; ccccccccH
	rep stosd
	pop	ecx
	mov	DWORD PTR _this$[ebp], ecx

; 238  : 		return (*_IGnext + *_IGcount);

	mov	eax, DWORD PTR _this$[ebp]
	mov	ecx, DWORD PTR [eax+32]
	mov	edx, DWORD PTR _this$[ebp]
	mov	eax, DWORD PTR [edx+48]
	mov	ecx, DWORD PTR [ecx]
	add	ecx, DWORD PTR [eax]
	mov	eax, ecx

; 239  : 		}

	pop	edi
	pop	esi
	pop	ebx
	mov	esp, ebp
	pop	ebp
	ret	0
?egptr@?$basic_streambuf@DU?$char_traits@D@std@@@std@@IBEPADXZ ENDP ; std::basic_streambuf<char,std::char_traits<char> >::egptr
; Function compile flags: /Odtp /RTCsu /ZI
_TEXT	ENDS
;	COMDAT ?gbump@?$basic_streambuf@DU?$char_traits@D@std@@@std@@IAEXH@Z
_TEXT	SEGMENT
_this$ = -8						; size = 4
__Off$ = 8						; size = 4
?gbump@?$basic_streambuf@DU?$char_traits@D@std@@@std@@IAEXH@Z PROC ; std::basic_streambuf<char,std::char_traits<char> >::gbump, COMDAT
; _this$ = ecx

; 242  : 		{	// alter current position in read buffer by _Off

	push	ebp
	mov	ebp, esp
	sub	esp, 204				; 000000ccH
	push	ebx
	push	esi
	push	edi
	push	ecx
	lea	edi, DWORD PTR [ebp-204]
	mov	ecx, 51					; 00000033H
	mov	eax, -858993460				; ccccccccH
	rep stosd
	pop	ecx
	mov	DWORD PTR _this$[ebp], ecx

; 243  : 		*_IGcount -= _Off;

	mov	eax, DWORD PTR _this$[ebp]
	mov	ecx, DWORD PTR [eax+48]
	mov	edx, DWORD PTR [ecx]
	sub	edx, DWORD PTR __Off$[ebp]
	mov	eax, DWORD PTR _this$[ebp]
	mov	ecx, DWORD PTR [eax+48]
	mov	DWORD PTR [ecx], edx

; 244  : 		*_IGnext += _Off;

	mov	eax, DWORD PTR _this$[ebp]
	mov	ecx, DWORD PTR [eax+32]
	mov	edx, DWORD PTR [ecx]
	add	edx, DWORD PTR __Off$[ebp]
	mov	eax, DWORD PTR _this$[ebp]
	mov	ecx, DWORD PTR [eax+32]
	mov	DWORD PTR [ecx], edx

; 245  : 		}

	pop	edi
	pop	esi
	pop	ebx
	mov	esp, ebp
	pop	ebp
	ret	4
?gbump@?$basic_streambuf@DU?$char_traits@D@std@@@std@@IAEXH@Z ENDP ; std::basic_streambuf<char,std::char_traits<char> >::gbump
; Function compile flags: /Odtp /RTCsu /ZI
_TEXT	ENDS
;	COMDAT ?epptr@?$basic_streambuf@DU?$char_traits@D@std@@@std@@IBEPADXZ
_TEXT	SEGMENT
_this$ = -8						; size = 4
?epptr@?$basic_streambuf@DU?$char_traits@D@std@@@std@@IBEPADXZ PROC ; std::basic_streambuf<char,std::char_traits<char> >::epptr, COMDAT
; _this$ = ecx

; 255  : 		{	// return end of write buffer

	push	ebp
	mov	ebp, esp
	sub	esp, 204				; 000000ccH
	push	ebx
	push	esi
	push	edi
	push	ecx
	lea	edi, DWORD PTR [ebp-204]
	mov	ecx, 51					; 00000033H
	mov	eax, -858993460				; ccccccccH
	rep stosd
	pop	ecx
	mov	DWORD PTR _this$[ebp], ecx

; 256  : 		return (*_IPnext + *_IPcount);

	mov	eax, DWORD PTR _this$[ebp]
	mov	ecx, DWORD PTR [eax+36]
	mov	edx, DWORD PTR _this$[ebp]
	mov	eax, DWORD PTR [edx+52]
	mov	ecx, DWORD PTR [ecx]
	add	ecx, DWORD PTR [eax]
	mov	eax, ecx

; 257  : 		}

	pop	edi
	pop	esi
	pop	ebx
	mov	esp, ebp
	pop	ebp
	ret	0
?epptr@?$basic_streambuf@DU?$char_traits@D@std@@@std@@IBEPADXZ ENDP ; std::basic_streambuf<char,std::char_traits<char> >::epptr
; Function compile flags: /Odtp /RTCsu /ZI
_TEXT	ENDS
;	COMDAT ?_Gndec@?$basic_streambuf@DU?$char_traits@D@std@@@std@@IAEPADXZ
_TEXT	SEGMENT
tv72 = -208						; size = 4
_this$ = -8						; size = 4
?_Gndec@?$basic_streambuf@DU?$char_traits@D@std@@@std@@IAEPADXZ PROC ; std::basic_streambuf<char,std::char_traits<char> >::_Gndec, COMDAT
; _this$ = ecx

; 260  : 		{	// decrement current position in read buffer

	push	ebp
	mov	ebp, esp
	sub	esp, 208				; 000000d0H
	push	ebx
	push	esi
	push	edi
	push	ecx
	lea	edi, DWORD PTR [ebp-208]
	mov	ecx, 52					; 00000034H
	mov	eax, -858993460				; ccccccccH
	rep stosd
	pop	ecx
	mov	DWORD PTR _this$[ebp], ecx

; 261  : 		++*_IGcount;

	mov	eax, DWORD PTR _this$[ebp]
	mov	ecx, DWORD PTR [eax+48]
	mov	edx, DWORD PTR [ecx]
	add	edx, 1
	mov	eax, DWORD PTR _this$[ebp]
	mov	ecx, DWORD PTR [eax+48]
	mov	DWORD PTR [ecx], edx

; 262  : 		return (--*_IGnext);

	mov	eax, DWORD PTR _this$[ebp]
	mov	ecx, DWORD PTR [eax+32]
	mov	edx, DWORD PTR [ecx]
	sub	edx, 1
	mov	DWORD PTR tv72[ebp], edx
	mov	eax, DWORD PTR _this$[ebp]
	mov	ecx, DWORD PTR [eax+32]
	mov	edx, DWORD PTR tv72[ebp]
	mov	DWORD PTR [ecx], edx
	mov	eax, DWORD PTR tv72[ebp]

; 263  : 		}

	pop	edi
	pop	esi
	pop	ebx
	mov	esp, ebp
	pop	ebp
	ret	0
?_Gndec@?$basic_streambuf@DU?$char_traits@D@std@@@std@@IAEPADXZ ENDP ; std::basic_streambuf<char,std::char_traits<char> >::_Gndec
; Function compile flags: /Odtp /RTCsu /ZI
_TEXT	ENDS
;	COMDAT ?_Gninc@?$basic_streambuf@DU?$char_traits@D@std@@@std@@IAEPADXZ
_TEXT	SEGMENT
tv76 = -208						; size = 4
_this$ = -8						; size = 4
?_Gninc@?$basic_streambuf@DU?$char_traits@D@std@@@std@@IAEPADXZ PROC ; std::basic_streambuf<char,std::char_traits<char> >::_Gninc, COMDAT
; _this$ = ecx

; 266  : 		{	// increment current position in read buffer

	push	ebp
	mov	ebp, esp
	sub	esp, 208				; 000000d0H
	push	ebx
	push	esi
	push	edi
	push	ecx
	lea	edi, DWORD PTR [ebp-208]
	mov	ecx, 52					; 00000034H
	mov	eax, -858993460				; ccccccccH
	rep stosd
	pop	ecx
	mov	DWORD PTR _this$[ebp], ecx

; 267  : 		--*_IGcount;

	mov	eax, DWORD PTR _this$[ebp]
	mov	ecx, DWORD PTR [eax+48]
	mov	edx, DWORD PTR [ecx]
	sub	edx, 1
	mov	eax, DWORD PTR _this$[ebp]
	mov	ecx, DWORD PTR [eax+48]
	mov	DWORD PTR [ecx], edx

; 268  : 		return ((*_IGnext)++);

	mov	eax, DWORD PTR _this$[ebp]
	mov	ecx, DWORD PTR [eax+32]
	mov	edx, DWORD PTR [ecx]
	mov	DWORD PTR tv76[ebp], edx
	mov	eax, DWORD PTR _this$[ebp]
	mov	ecx, DWORD PTR [eax+32]
	mov	edx, DWORD PTR [ecx]
	add	edx, 1
	mov	eax, DWORD PTR _this$[ebp]
	mov	ecx, DWORD PTR [eax+32]
	mov	DWORD PTR [ecx], edx
	mov	eax, DWORD PTR tv76[ebp]

; 269  : 		}

	pop	edi
	pop	esi
	pop	ebx
	mov	esp, ebp
	pop	ebp
	ret	0
?_Gninc@?$basic_streambuf@DU?$char_traits@D@std@@@std@@IAEPADXZ ENDP ; std::basic_streambuf<char,std::char_traits<char> >::_Gninc
; Function compile flags: /Odtp /RTCsu /ZI
_TEXT	ENDS
;	COMDAT ?_Gnpreinc@?$basic_streambuf@DU?$char_traits@D@std@@@std@@IAEPADXZ
_TEXT	SEGMENT
tv72 = -208						; size = 4
_this$ = -8						; size = 4
?_Gnpreinc@?$basic_streambuf@DU?$char_traits@D@std@@@std@@IAEPADXZ PROC ; std::basic_streambuf<char,std::char_traits<char> >::_Gnpreinc, COMDAT
; _this$ = ecx

; 272  : 		{	// preincrement current position in read buffer

	push	ebp
	mov	ebp, esp
	sub	esp, 208				; 000000d0H
	push	ebx
	push	esi
	push	edi
	push	ecx
	lea	edi, DWORD PTR [ebp-208]
	mov	ecx, 52					; 00000034H
	mov	eax, -858993460				; ccccccccH
	rep stosd
	pop	ecx
	mov	DWORD PTR _this$[ebp], ecx

; 273  : 		--*_IGcount;

	mov	eax, DWORD PTR _this$[ebp]
	mov	ecx, DWORD PTR [eax+48]
	mov	edx, DWORD PTR [ecx]
	sub	edx, 1
	mov	eax, DWORD PTR _this$[ebp]
	mov	ecx, DWORD PTR [eax+48]
	mov	DWORD PTR [ecx], edx

; 274  : 		return (++(*_IGnext));

	mov	eax, DWORD PTR _this$[ebp]
	mov	ecx, DWORD PTR [eax+32]
	mov	edx, DWORD PTR [ecx]
	add	edx, 1
	mov	DWORD PTR tv72[ebp], edx
	mov	eax, DWORD PTR _this$[ebp]
	mov	ecx, DWORD PTR [eax+32]
	mov	edx, DWORD PTR tv72[ebp]
	mov	DWORD PTR [ecx], edx
	mov	eax, DWORD PTR tv72[ebp]

; 275  : 		}

	pop	edi
	pop	esi
	pop	ebx
	mov	esp, ebp
	pop	ebp
	ret	0
?_Gnpreinc@?$basic_streambuf@DU?$char_traits@D@std@@@std@@IAEPADXZ ENDP ; std::basic_streambuf<char,std::char_traits<char> >::_Gnpreinc
; Function compile flags: /Odtp /RTCsu /ZI
_TEXT	ENDS
;	COMDAT ?_Gnavail@?$basic_streambuf@DU?$char_traits@D@std@@@std@@IBE_JXZ
_TEXT	SEGMENT
tv69 = -208						; size = 4
_this$ = -8						; size = 4
?_Gnavail@?$basic_streambuf@DU?$char_traits@D@std@@@std@@IBE_JXZ PROC ; std::basic_streambuf<char,std::char_traits<char> >::_Gnavail, COMDAT
; _this$ = ecx

; 278  : 		{	// count number of available elements in read buffer

	push	ebp
	mov	ebp, esp
	sub	esp, 208				; 000000d0H
	push	ebx
	push	esi
	push	edi
	push	ecx
	lea	edi, DWORD PTR [ebp-208]
	mov	ecx, 52					; 00000034H
	mov	eax, -858993460				; ccccccccH
	rep stosd
	pop	ecx
	mov	DWORD PTR _this$[ebp], ecx

; 279  : 		return (*_IGnext != 0 ? *_IGcount : 0);

	mov	eax, DWORD PTR _this$[ebp]
	mov	ecx, DWORD PTR [eax+32]
	cmp	DWORD PTR [ecx], 0
	je	SHORT $LN3@Gnavail
	mov	edx, DWORD PTR _this$[ebp]
	mov	eax, DWORD PTR [edx+48]
	mov	ecx, DWORD PTR [eax]
	mov	DWORD PTR tv69[ebp], ecx
	jmp	SHORT $LN4@Gnavail
$LN3@Gnavail:
	mov	DWORD PTR tv69[ebp], 0
$LN4@Gnavail:
	mov	eax, DWORD PTR tv69[ebp]
	cdq

; 280  : 		}

	pop	edi
	pop	esi
	pop	ebx
	mov	esp, ebp
	pop	ebp
	ret	0
?_Gnavail@?$basic_streambuf@DU?$char_traits@D@std@@@std@@IBE_JXZ ENDP ; std::basic_streambuf<char,std::char_traits<char> >::_Gnavail
; Function compile flags: /Odtp /RTCsu /ZI
_TEXT	ENDS
;	COMDAT ?pbump@?$basic_streambuf@DU?$char_traits@D@std@@@std@@IAEXH@Z
_TEXT	SEGMENT
_this$ = -8						; size = 4
__Off$ = 8						; size = 4
?pbump@?$basic_streambuf@DU?$char_traits@D@std@@@std@@IAEXH@Z PROC ; std::basic_streambuf<char,std::char_traits<char> >::pbump, COMDAT
; _this$ = ecx

; 283  : 		{	// alter current position in write buffer by _Off

	push	ebp
	mov	ebp, esp
	sub	esp, 204				; 000000ccH
	push	ebx
	push	esi
	push	edi
	push	ecx
	lea	edi, DWORD PTR [ebp-204]
	mov	ecx, 51					; 00000033H
	mov	eax, -858993460				; ccccccccH
	rep stosd
	pop	ecx
	mov	DWORD PTR _this$[ebp], ecx

; 284  : 		*_IPcount -= _Off;

	mov	eax, DWORD PTR _this$[ebp]
	mov	ecx, DWORD PTR [eax+52]
	mov	edx, DWORD PTR [ecx]
	sub	edx, DWORD PTR __Off$[ebp]
	mov	eax, DWORD PTR _this$[ebp]
	mov	ecx, DWORD PTR [eax+52]
	mov	DWORD PTR [ecx], edx

; 285  : 		*_IPnext += _Off;

	mov	eax, DWORD PTR _this$[ebp]
	mov	ecx, DWORD PTR [eax+36]
	mov	edx, DWORD PTR [ecx]
	add	edx, DWORD PTR __Off$[ebp]
	mov	eax, DWORD PTR _this$[ebp]
	mov	ecx, DWORD PTR [eax+36]
	mov	DWORD PTR [ecx], edx

; 286  : 		}

	pop	edi
	pop	esi
	pop	ebx
	mov	esp, ebp
	pop	ebp
	ret	4
?pbump@?$basic_streambuf@DU?$char_traits@D@std@@@std@@IAEXH@Z ENDP ; std::basic_streambuf<char,std::char_traits<char> >::pbump
; Function compile flags: /Odtp /RTCsu /ZI
_TEXT	ENDS
;	COMDAT ?_Pninc@?$basic_streambuf@DU?$char_traits@D@std@@@std@@IAEPADXZ
_TEXT	SEGMENT
tv76 = -208						; size = 4
_this$ = -8						; size = 4
?_Pninc@?$basic_streambuf@DU?$char_traits@D@std@@@std@@IAEPADXZ PROC ; std::basic_streambuf<char,std::char_traits<char> >::_Pninc, COMDAT
; _this$ = ecx

; 303  : 		{	// increment current position in write buffer

	push	ebp
	mov	ebp, esp
	sub	esp, 208				; 000000d0H
	push	ebx
	push	esi
	push	edi
	push	ecx
	lea	edi, DWORD PTR [ebp-208]
	mov	ecx, 52					; 00000034H
	mov	eax, -858993460				; ccccccccH
	rep stosd
	pop	ecx
	mov	DWORD PTR _this$[ebp], ecx

; 304  : 		--*_IPcount;

	mov	eax, DWORD PTR _this$[ebp]
	mov	ecx, DWORD PTR [eax+52]
	mov	edx, DWORD PTR [ecx]
	sub	edx, 1
	mov	eax, DWORD PTR _this$[ebp]
	mov	ecx, DWORD PTR [eax+52]
	mov	DWORD PTR [ecx], edx

; 305  : 		return ((*_IPnext)++);

	mov	eax, DWORD PTR _this$[ebp]
	mov	ecx, DWORD PTR [eax+36]
	mov	edx, DWORD PTR [ecx]
	mov	DWORD PTR tv76[ebp], edx
	mov	eax, DWORD PTR _this$[ebp]
	mov	ecx, DWORD PTR [eax+36]
	mov	edx, DWORD PTR [ecx]
	add	edx, 1
	mov	eax, DWORD PTR _this$[ebp]
	mov	ecx, DWORD PTR [eax+36]
	mov	DWORD PTR [ecx], edx
	mov	eax, DWORD PTR tv76[ebp]

; 306  : 		}

	pop	edi
	pop	esi
	pop	ebx
	mov	esp, ebp
	pop	ebp
	ret	0
?_Pninc@?$basic_streambuf@DU?$char_traits@D@std@@@std@@IAEPADXZ ENDP ; std::basic_streambuf<char,std::char_traits<char> >::_Pninc
; Function compile flags: /Odtp /RTCsu /ZI
_TEXT	ENDS
;	COMDAT ?_Pnavail@?$basic_streambuf@DU?$char_traits@D@std@@@std@@IBE_JXZ
_TEXT	SEGMENT
tv69 = -208						; size = 4
_this$ = -8						; size = 4
?_Pnavail@?$basic_streambuf@DU?$char_traits@D@std@@@std@@IBE_JXZ PROC ; std::basic_streambuf<char,std::char_traits<char> >::_Pnavail, COMDAT
; _this$ = ecx

; 309  : 		{	// count number of available positions in write buffer

	push	ebp
	mov	ebp, esp
	sub	esp, 208				; 000000d0H
	push	ebx
	push	esi
	push	edi
	push	ecx
	lea	edi, DWORD PTR [ebp-208]
	mov	ecx, 52					; 00000034H
	mov	eax, -858993460				; ccccccccH
	rep stosd
	pop	ecx
	mov	DWORD PTR _this$[ebp], ecx

; 310  : 		return (*_IPnext != 0 ? *_IPcount : 0);

	mov	eax, DWORD PTR _this$[ebp]
	mov	ecx, DWORD PTR [eax+36]
	cmp	DWORD PTR [ecx], 0
	je	SHORT $LN3@Pnavail
	mov	edx, DWORD PTR _this$[ebp]
	mov	eax, DWORD PTR [edx+52]
	mov	ecx, DWORD PTR [eax]
	mov	DWORD PTR tv69[ebp], ecx
	jmp	SHORT $LN4@Pnavail
$LN3@Pnavail:
	mov	DWORD PTR tv69[ebp], 0
$LN4@Pnavail:
	mov	eax, DWORD PTR tv69[ebp]
	cdq

; 311  : 		}

	pop	edi
	pop	esi
	pop	ebx
	mov	esp, ebp
	pop	ebp
	ret	0
?_Pnavail@?$basic_streambuf@DU?$char_traits@D@std@@@std@@IBE_JXZ ENDP ; std::basic_streambuf<char,std::char_traits<char> >::_Pnavail
_TEXT	ENDS
PUBLIC	??0?$basic_ostream@DU?$char_traits@D@std@@@std@@QAE@W4_Uninitialized@1@_N@Z ; std::basic_ostream<char,std::char_traits<char> >::basic_ostream<char,std::char_traits<char> >
PUBLIC	??0?$basic_istream@DU?$char_traits@D@std@@@std@@QAE@PAV?$basic_streambuf@DU?$char_traits@D@std@@@1@_N@Z ; std::basic_istream<char,std::char_traits<char> >::basic_istream<char,std::char_traits<char> >
PUBLIC	??_8?$basic_iostream@DU?$char_traits@D@std@@@std@@7B?$basic_ostream@DU?$char_traits@D@std@@@1@@ ; std::basic_iostream<char,std::char_traits<char> >::`vbtable'
PUBLIC	??_8?$basic_iostream@DU?$char_traits@D@std@@@std@@7B?$basic_istream@DU?$char_traits@D@std@@@1@@ ; std::basic_iostream<char,std::char_traits<char> >::`vbtable'
;	COMDAT ??_8?$basic_iostream@DU?$char_traits@D@std@@@std@@7B?$basic_ostream@DU?$char_traits@D@std@@@1@@
; File c:\program files (x86)\microsoft visual studio 10.0\vc\include\istream
CONST	SEGMENT
??_8?$basic_iostream@DU?$char_traits@D@std@@@std@@7B?$basic_ostream@DU?$char_traits@D@std@@@1@@ DD 00H ; std::basic_iostream<char,std::char_traits<char> >::`vbtable'
	DD	08H
CONST	ENDS
;	COMDAT ??_8?$basic_iostream@DU?$char_traits@D@std@@@std@@7B?$basic_istream@DU?$char_traits@D@std@@@1@@
CONST	SEGMENT
??_8?$basic_iostream@DU?$char_traits@D@std@@@std@@7B?$basic_istream@DU?$char_traits@D@std@@@1@@ DD 00H ; std::basic_iostream<char,std::char_traits<char> >::`vbtable'
	DD	018H
CONST	ENDS
;	COMDAT xdata$x
xdata$x	SEGMENT
__unwindtable$??0?$basic_iostream@DU?$char_traits@D@std@@@std@@QAE@PAV?$basic_streambuf@DU?$char_traits@D@std@@@1@@Z DD 0ffffffffH
	DD	FLAT:__unwindfunclet$??0?$basic_iostream@DU?$char_traits@D@std@@@std@@QAE@PAV?$basic_streambuf@DU?$char_traits@D@std@@@1@@Z$0
	DD	00H
	DD	FLAT:__unwindfunclet$??0?$basic_iostream@DU?$char_traits@D@std@@@std@@QAE@PAV?$basic_streambuf@DU?$char_traits@D@std@@@1@@Z$1
__ehfuncinfo$??0?$basic_iostream@DU?$char_traits@D@std@@@std@@QAE@PAV?$basic_streambuf@DU?$char_traits@D@std@@@1@@Z DD 019930522H
	DD	02H
	DD	FLAT:__unwindtable$??0?$basic_iostream@DU?$char_traits@D@std@@@std@@QAE@PAV?$basic_streambuf@DU?$char_traits@D@std@@@1@@Z
	DD	2 DUP(00H)
	DD	2 DUP(00H)
	DD	00H
	DD	01H
; Function compile flags: /Odtp /RTCsu /ZI
xdata$x	ENDS
;	COMDAT ??0?$basic_iostream@DU?$char_traits@D@std@@@std@@QAE@PAV?$basic_streambuf@DU?$char_traits@D@std@@@1@@Z
_TEXT	SEGMENT
$T37320 = -224						; size = 4
_this$ = -20						; size = 4
__$EHRec$ = -12						; size = 12
__Strbuf$ = 8						; size = 4
_$initVBases$ = 12					; size = 4
??0?$basic_iostream@DU?$char_traits@D@std@@@std@@QAE@PAV?$basic_streambuf@DU?$char_traits@D@std@@@1@@Z PROC ; std::basic_iostream<char,std::char_traits<char> >::basic_iostream<char,std::char_traits<char> >, COMDAT
; _this$ = ecx

; 939  : 		{	// construct from stream buffer pointer

	push	ebp
	mov	ebp, esp
	push	-1
	push	__ehhandler$??0?$basic_iostream@DU?$char_traits@D@std@@@std@@QAE@PAV?$basic_streambuf@DU?$char_traits@D@std@@@1@@Z
	mov	eax, DWORD PTR fs:0
	push	eax
	sub	esp, 216				; 000000d8H
	push	ebx
	push	esi
	push	edi
	push	ecx
	lea	edi, DWORD PTR [ebp-228]
	mov	ecx, 54					; 00000036H
	mov	eax, -858993460				; ccccccccH
	rep stosd
	pop	ecx
	mov	eax, DWORD PTR ___security_cookie
	xor	eax, ebp
	push	eax
	lea	eax, DWORD PTR __$EHRec$[ebp]
	mov	DWORD PTR fs:0, eax
	mov	DWORD PTR _this$[ebp], ecx
	mov	DWORD PTR $T37320[ebp], 0
	cmp	DWORD PTR _$initVBases$[ebp], 0
	je	SHORT $LN1@basic_iost
	mov	eax, DWORD PTR _this$[ebp]
	mov	DWORD PTR [eax], OFFSET ??_8?$basic_iostream@DU?$char_traits@D@std@@@std@@7B?$basic_istream@DU?$char_traits@D@std@@@1@@
	mov	eax, DWORD PTR _this$[ebp]
	mov	DWORD PTR [eax+16], OFFSET ??_8?$basic_iostream@DU?$char_traits@D@std@@@std@@7B?$basic_ostream@DU?$char_traits@D@std@@@1@@
	mov	ecx, DWORD PTR _this$[ebp]
	add	ecx, 24					; 00000018H
	call	??0?$basic_ios@DU?$char_traits@D@std@@@std@@IAE@XZ ; std::basic_ios<char,std::char_traits<char> >::basic_ios<char,std::char_traits<char> >
	mov	DWORD PTR __$EHRec$[ebp+8], 0
	mov	eax, DWORD PTR $T37320[ebp]
	or	eax, 1
	mov	DWORD PTR $T37320[ebp], eax
$LN1@basic_iost:
	push	0
	push	0
	mov	eax, DWORD PTR __Strbuf$[ebp]
	push	eax
	mov	ecx, DWORD PTR _this$[ebp]
	call	??0?$basic_istream@DU?$char_traits@D@std@@@std@@QAE@PAV?$basic_streambuf@DU?$char_traits@D@std@@@1@_N@Z ; std::basic_istream<char,std::char_traits<char> >::basic_istream<char,std::char_traits<char> >
	mov	DWORD PTR __$EHRec$[ebp+8], 1
	push	0
	push	0
	push	0
	mov	ecx, DWORD PTR _this$[ebp]
	add	ecx, 16					; 00000010H
	call	??0?$basic_ostream@DU?$char_traits@D@std@@@std@@QAE@W4_Uninitialized@1@_N@Z ; std::basic_ostream<char,std::char_traits<char> >::basic_ostream<char,std::char_traits<char> >
	mov	eax, DWORD PTR _this$[ebp]
	mov	ecx, DWORD PTR [eax]
	mov	edx, DWORD PTR [ecx+4]
	mov	eax, DWORD PTR _this$[ebp]
	mov	DWORD PTR [eax+edx], OFFSET ??_7?$basic_iostream@DU?$char_traits@D@std@@@std@@6B@

; 940  : 		}

	mov	DWORD PTR __$EHRec$[ebp+8], -1
	mov	eax, DWORD PTR _this$[ebp]
	mov	ecx, DWORD PTR __$EHRec$[ebp]
	mov	DWORD PTR fs:0, ecx
	pop	ecx
	pop	edi
	pop	esi
	pop	ebx
	add	esp, 228				; 000000e4H
	cmp	ebp, esp
	call	__RTC_CheckEsp
	mov	esp, ebp
	pop	ebp
	ret	8
_TEXT	ENDS
;	COMDAT text$x
text$x	SEGMENT
__unwindfunclet$??0?$basic_iostream@DU?$char_traits@D@std@@@std@@QAE@PAV?$basic_streambuf@DU?$char_traits@D@std@@@1@@Z$0:
	mov	eax, DWORD PTR $T37320[ebp]
	and	eax, 1
	je	$LN5@basic_iost
	and	DWORD PTR $T37320[ebp], -2		; fffffffeH
	mov	ecx, DWORD PTR _this$[ebp]
	add	ecx, 24					; 00000018H
	jmp	??1?$basic_ios@DU?$char_traits@D@std@@@std@@UAE@XZ ; std::basic_ios<char,std::char_traits<char> >::~basic_ios<char,std::char_traits<char> >
$LN5@basic_iost:
	ret	0
__unwindfunclet$??0?$basic_iostream@DU?$char_traits@D@std@@@std@@QAE@PAV?$basic_streambuf@DU?$char_traits@D@std@@@1@@Z$1:
	mov	ecx, DWORD PTR _this$[ebp]
	add	ecx, 16					; 00000010H
	jmp	??1?$basic_istream@DU?$char_traits@D@std@@@std@@UAE@XZ ; std::basic_istream<char,std::char_traits<char> >::~basic_istream<char,std::char_traits<char> >
__ehhandler$??0?$basic_iostream@DU?$char_traits@D@std@@@std@@QAE@PAV?$basic_streambuf@DU?$char_traits@D@std@@@1@@Z:
	mov	edx, DWORD PTR [esp+8]
	lea	eax, DWORD PTR [edx+12]
	mov	ecx, DWORD PTR [edx-232]
	xor	ecx, eax
	call	@__security_check_cookie@4
	mov	eax, OFFSET __ehfuncinfo$??0?$basic_iostream@DU?$char_traits@D@std@@@std@@QAE@PAV?$basic_streambuf@DU?$char_traits@D@std@@@1@@Z
	jmp	___CxxFrameHandler3
text$x	ENDS
??0?$basic_iostream@DU?$char_traits@D@std@@@std@@QAE@PAV?$basic_streambuf@DU?$char_traits@D@std@@@1@@Z ENDP ; std::basic_iostream<char,std::char_traits<char> >::basic_iostream<char,std::char_traits<char> >
PUBLIC	??0?$basic_streambuf@DU?$char_traits@D@std@@@std@@IAE@XZ ; std::basic_streambuf<char,std::char_traits<char> >::basic_streambuf<char,std::char_traits<char> >
;	COMDAT xdata$x
; File c:\program files (x86)\microsoft visual studio 10.0\vc\include\fstream
xdata$x	SEGMENT
__unwindtable$??0?$basic_filebuf@DU?$char_traits@D@std@@@std@@QAE@PAU_iobuf@@@Z DD 0ffffffffH
	DD	FLAT:__unwindfunclet$??0?$basic_filebuf@DU?$char_traits@D@std@@@std@@QAE@PAU_iobuf@@@Z$0
__ehfuncinfo$??0?$basic_filebuf@DU?$char_traits@D@std@@@std@@QAE@PAU_iobuf@@@Z DD 019930522H
	DD	01H
	DD	FLAT:__unwindtable$??0?$basic_filebuf@DU?$char_traits@D@std@@@std@@QAE@PAU_iobuf@@@Z
	DD	2 DUP(00H)
	DD	2 DUP(00H)
	DD	00H
	DD	01H
; Function compile flags: /Odtp /RTCsu /ZI
xdata$x	ENDS
;	COMDAT ??0?$basic_filebuf@DU?$char_traits@D@std@@@std@@QAE@PAU_iobuf@@@Z
_TEXT	SEGMENT
_this$ = -20						; size = 4
__$EHRec$ = -12						; size = 12
__File$ = 8						; size = 4
??0?$basic_filebuf@DU?$char_traits@D@std@@@std@@QAE@PAU_iobuf@@@Z PROC ; std::basic_filebuf<char,std::char_traits<char> >::basic_filebuf<char,std::char_traits<char> >, COMDAT
; _this$ = ecx

; 152  : 		{	// construct from pointer to C stream

	push	ebp
	mov	ebp, esp
	push	-1
	push	__ehhandler$??0?$basic_filebuf@DU?$char_traits@D@std@@@std@@QAE@PAU_iobuf@@@Z
	mov	eax, DWORD PTR fs:0
	push	eax
	sub	esp, 204				; 000000ccH
	push	ebx
	push	esi
	push	edi
	push	ecx
	lea	edi, DWORD PTR [ebp-216]
	mov	ecx, 51					; 00000033H
	mov	eax, -858993460				; ccccccccH
	rep stosd
	pop	ecx
	mov	eax, DWORD PTR ___security_cookie
	xor	eax, ebp
	push	eax
	lea	eax, DWORD PTR __$EHRec$[ebp]
	mov	DWORD PTR fs:0, eax
	mov	DWORD PTR _this$[ebp], ecx
	mov	ecx, DWORD PTR _this$[ebp]
	call	??0?$basic_streambuf@DU?$char_traits@D@std@@@std@@IAE@XZ ; std::basic_streambuf<char,std::char_traits<char> >::basic_streambuf<char,std::char_traits<char> >
	mov	DWORD PTR __$EHRec$[ebp+8], 0
	mov	eax, DWORD PTR _this$[ebp]
	mov	DWORD PTR [eax], OFFSET ??_7?$basic_filebuf@DU?$char_traits@D@std@@@std@@6B@

; 153  : 		_Init(_File, _Newfl);

	push	0
	mov	eax, DWORD PTR __File$[ebp]
	push	eax
	mov	ecx, DWORD PTR _this$[ebp]
	call	?_Init@?$basic_filebuf@DU?$char_traits@D@std@@@std@@IAEXPAU_iobuf@@W4_Initfl@12@@Z ; std::basic_filebuf<char,std::char_traits<char> >::_Init

; 154  : 		}

	mov	DWORD PTR __$EHRec$[ebp+8], -1
	mov	eax, DWORD PTR _this$[ebp]
	mov	ecx, DWORD PTR __$EHRec$[ebp]
	mov	DWORD PTR fs:0, ecx
	pop	ecx
	pop	edi
	pop	esi
	pop	ebx
	add	esp, 216				; 000000d8H
	cmp	ebp, esp
	call	__RTC_CheckEsp
	mov	esp, ebp
	pop	ebp
	ret	4
_TEXT	ENDS
;	COMDAT text$x
text$x	SEGMENT
__unwindfunclet$??0?$basic_filebuf@DU?$char_traits@D@std@@@std@@QAE@PAU_iobuf@@@Z$0:
	mov	ecx, DWORD PTR _this$[ebp]
	jmp	??1?$basic_streambuf@DU?$char_traits@D@std@@@std@@UAE@XZ ; std::basic_streambuf<char,std::char_traits<char> >::~basic_streambuf<char,std::char_traits<char> >
__ehhandler$??0?$basic_filebuf@DU?$char_traits@D@std@@@std@@QAE@PAU_iobuf@@@Z:
	mov	edx, DWORD PTR [esp+8]
	lea	eax, DWORD PTR [edx+12]
	mov	ecx, DWORD PTR [edx-220]
	xor	ecx, eax
	call	@__security_check_cookie@4
	mov	eax, OFFSET __ehfuncinfo$??0?$basic_filebuf@DU?$char_traits@D@std@@@std@@QAE@PAU_iobuf@@@Z
	jmp	___CxxFrameHandler3
text$x	ENDS
??0?$basic_filebuf@DU?$char_traits@D@std@@@std@@QAE@PAU_iobuf@@@Z ENDP ; std::basic_filebuf<char,std::char_traits<char> >::basic_filebuf<char,std::char_traits<char> >
; Function compile flags: /Odtp /RTCsu /ZI
;	COMDAT ?is_open@?$basic_filebuf@DU?$char_traits@D@std@@@std@@QBE_NXZ
_TEXT	SEGMENT
_this$ = -8						; size = 4
?is_open@?$basic_filebuf@DU?$char_traits@D@std@@@std@@QBE_NXZ PROC ; std::basic_filebuf<char,std::char_traits<char> >::is_open, COMDAT
; _this$ = ecx

; 211  : 		{	// test if C stream has been opened

	push	ebp
	mov	ebp, esp
	sub	esp, 204				; 000000ccH
	push	ebx
	push	esi
	push	edi
	push	ecx
	lea	edi, DWORD PTR [ebp-204]
	mov	ecx, 51					; 00000033H
	mov	eax, -858993460				; ccccccccH
	rep stosd
	pop	ecx
	mov	DWORD PTR _this$[ebp], ecx

; 212  : 		return (_Myfile != 0);

	mov	eax, DWORD PTR _this$[ebp]
	xor	ecx, ecx
	cmp	DWORD PTR [eax+84], 0
	setne	cl
	mov	al, cl

; 213  : 		}

	pop	edi
	pop	esi
	pop	ebx
	mov	esp, ebp
	pop	ebp
	ret	0
?is_open@?$basic_filebuf@DU?$char_traits@D@std@@@std@@QBE_NXZ ENDP ; std::basic_filebuf<char,std::char_traits<char> >::is_open
_TEXT	ENDS
PUBLIC	?getloc@?$basic_streambuf@DU?$char_traits@D@std@@@std@@QBE?AVlocale@2@XZ ; std::basic_streambuf<char,std::char_traits<char> >::getloc
EXTRN	?_Fiopen@std@@YAPAU_iobuf@@PBDHH@Z:PROC		; std::_Fiopen
;	COMDAT xdata$x
xdata$x	SEGMENT
__unwindtable$?open@?$basic_filebuf@DU?$char_traits@D@std@@@std@@QAEPAV12@PBDHH@Z DD 0ffffffffH
	DD	FLAT:__unwindfunclet$?open@?$basic_filebuf@DU?$char_traits@D@std@@@std@@QAEPAV12@PBDHH@Z$0
__ehfuncinfo$?open@?$basic_filebuf@DU?$char_traits@D@std@@@std@@QAEPAV12@PBDHH@Z DD 019930522H
	DD	01H
	DD	FLAT:__unwindtable$?open@?$basic_filebuf@DU?$char_traits@D@std@@@std@@QAEPAV12@PBDHH@Z
	DD	2 DUP(00H)
	DD	2 DUP(00H)
	DD	00H
	DD	01H
; Function compile flags: /Odtp /RTCsu /ZI
xdata$x	ENDS
;	COMDAT ?open@?$basic_filebuf@DU?$char_traits@D@std@@@std@@QAEPAV12@PBDHH@Z
_TEXT	SEGMENT
tv88 = -248						; size = 4
tv89 = -244						; size = 4
$T37344 = -236						; size = 4
__File$ = -32						; size = 4
_this$ = -20						; size = 4
__$EHRec$ = -12						; size = 12
__Filename$ = 8						; size = 4
__Mode$ = 12						; size = 4
__Prot$ = 16						; size = 4
?open@?$basic_filebuf@DU?$char_traits@D@std@@@std@@QAEPAV12@PBDHH@Z PROC ; std::basic_filebuf<char,std::char_traits<char> >::open, COMDAT
; _this$ = ecx

; 218  : 		{	// open a C stream with specified mode

	push	ebp
	mov	ebp, esp
	push	-1
	push	__ehhandler$?open@?$basic_filebuf@DU?$char_traits@D@std@@@std@@QAEPAV12@PBDHH@Z
	mov	eax, DWORD PTR fs:0
	push	eax
	sub	esp, 236				; 000000ecH
	push	ebx
	push	esi
	push	edi
	push	ecx
	lea	edi, DWORD PTR [ebp-248]
	mov	ecx, 59					; 0000003bH
	mov	eax, -858993460				; ccccccccH
	rep stosd
	pop	ecx
	mov	eax, DWORD PTR ___security_cookie
	xor	eax, ebp
	push	eax
	lea	eax, DWORD PTR __$EHRec$[ebp]
	mov	DWORD PTR fs:0, eax
	mov	DWORD PTR _this$[ebp], ecx

; 219  : 		_Filet *_File;
; 220  : 		if (_Myfile != 0 || (_File = _Fiopen(_Filename, _Mode, _Prot)) == 0)

	mov	eax, DWORD PTR _this$[ebp]
	cmp	DWORD PTR [eax+84], 0
	jne	SHORT $LN1@open@2
	mov	eax, DWORD PTR __Prot$[ebp]
	push	eax
	mov	ecx, DWORD PTR __Mode$[ebp]
	push	ecx
	mov	edx, DWORD PTR __Filename$[ebp]
	push	edx
	call	?_Fiopen@std@@YAPAU_iobuf@@PBDHH@Z	; std::_Fiopen
	add	esp, 12					; 0000000cH
	mov	DWORD PTR __File$[ebp], eax
	cmp	DWORD PTR __File$[ebp], 0
	jne	SHORT $LN2@open@2
$LN1@open@2:

; 221  : 			return (0);	// open failed

	xor	eax, eax
	jmp	SHORT $LN3@open@2
$LN2@open@2:

; 222  : 
; 223  : 		_Init(_File, _Openfl);

	push	1
	mov	eax, DWORD PTR __File$[ebp]
	push	eax
	mov	ecx, DWORD PTR _this$[ebp]
	call	?_Init@?$basic_filebuf@DU?$char_traits@D@std@@@std@@IAEXPAU_iobuf@@W4_Initfl@12@@Z ; std::basic_filebuf<char,std::char_traits<char> >::_Init

; 224  : 		_Initcvt(&_USE(_Mysb::getloc(), _Cvt));

	lea	eax, DWORD PTR $T37344[ebp]
	push	eax
	mov	ecx, DWORD PTR _this$[ebp]
	call	?getloc@?$basic_streambuf@DU?$char_traits@D@std@@@std@@QBE?AVlocale@2@XZ ; std::basic_streambuf<char,std::char_traits<char> >::getloc
	mov	DWORD PTR tv89[ebp], eax
	mov	ecx, DWORD PTR tv89[ebp]
	mov	DWORD PTR tv88[ebp], ecx
	mov	DWORD PTR __$EHRec$[ebp+8], 0
	mov	edx, DWORD PTR tv88[ebp]
	push	edx
	call	??$use_facet@V?$codecvt@DDH@std@@@std@@YAABV?$codecvt@DDH@0@ABVlocale@0@@Z ; std::use_facet<std::codecvt<char,char,int> >
	add	esp, 4
	push	eax
	mov	ecx, DWORD PTR _this$[ebp]
	call	?_Initcvt@?$basic_filebuf@DU?$char_traits@D@std@@@std@@IAEXPBV?$codecvt@DDH@2@@Z ; std::basic_filebuf<char,std::char_traits<char> >::_Initcvt
	mov	DWORD PTR __$EHRec$[ebp+8], -1
	lea	ecx, DWORD PTR $T37344[ebp]
	call	??1locale@std@@QAE@XZ			; std::locale::~locale

; 225  : 		return (this);	// open succeeded

	mov	eax, DWORD PTR _this$[ebp]
$LN3@open@2:

; 226  : 		}

	mov	ecx, DWORD PTR __$EHRec$[ebp]
	mov	DWORD PTR fs:0, ecx
	pop	ecx
	pop	edi
	pop	esi
	pop	ebx
	add	esp, 248				; 000000f8H
	cmp	ebp, esp
	call	__RTC_CheckEsp
	mov	esp, ebp
	pop	ebp
	ret	12					; 0000000cH
_TEXT	ENDS
;	COMDAT text$x
text$x	SEGMENT
__unwindfunclet$?open@?$basic_filebuf@DU?$char_traits@D@std@@@std@@QAEPAV12@PBDHH@Z$0:
	lea	ecx, DWORD PTR $T37344[ebp]
	jmp	??1locale@std@@QAE@XZ			; std::locale::~locale
__ehhandler$?open@?$basic_filebuf@DU?$char_traits@D@std@@@std@@QAEPAV12@PBDHH@Z:
	mov	edx, DWORD PTR [esp+8]
	lea	eax, DWORD PTR [edx+12]
	mov	ecx, DWORD PTR [edx-252]
	xor	ecx, eax
	call	@__security_check_cookie@4
	mov	eax, OFFSET __ehfuncinfo$?open@?$basic_filebuf@DU?$char_traits@D@std@@@std@@QAEPAV12@PBDHH@Z
	jmp	___CxxFrameHandler3
text$x	ENDS
?open@?$basic_filebuf@DU?$char_traits@D@std@@@std@@QAEPAV12@PBDHH@Z ENDP ; std::basic_filebuf<char,std::char_traits<char> >::open
EXTRN	_fclose:PROC
; Function compile flags: /Odtp /RTCsu /ZI
;	COMDAT ?close@?$basic_filebuf@DU?$char_traits@D@std@@@std@@QAEPAV12@XZ
_TEXT	SEGMENT
__Ans$ = -20						; size = 4
_this$ = -8						; size = 4
?close@?$basic_filebuf@DU?$char_traits@D@std@@@std@@QAEPAV12@XZ PROC ; std::basic_filebuf<char,std::char_traits<char> >::close, COMDAT
; _this$ = ecx

; 292  : 		{	// close the C stream

	push	ebp
	mov	ebp, esp
	sub	esp, 216				; 000000d8H
	push	ebx
	push	esi
	push	edi
	push	ecx
	lea	edi, DWORD PTR [ebp-216]
	mov	ecx, 54					; 00000036H
	mov	eax, -858993460				; ccccccccH
	rep stosd
	pop	ecx
	mov	DWORD PTR _this$[ebp], ecx

; 293  : 		_Myt *_Ans = this;

	mov	eax, DWORD PTR _this$[ebp]
	mov	DWORD PTR __Ans$[ebp], eax

; 294  : 		if (_Myfile == 0)

	mov	eax, DWORD PTR _this$[ebp]
	cmp	DWORD PTR [eax+84], 0
	jne	SHORT $LN4@close@2

; 295  : 			_Ans = 0;

	mov	DWORD PTR __Ans$[ebp], 0

; 296  : 		else

	jmp	SHORT $LN3@close@2
$LN4@close@2:

; 297  : 			{	// put any homing sequence and close file
; 298  : 			if (!_Endwrite())

	mov	ecx, DWORD PTR _this$[ebp]
	call	?_Endwrite@?$basic_filebuf@DU?$char_traits@D@std@@@std@@IAE_NXZ ; std::basic_filebuf<char,std::char_traits<char> >::_Endwrite
	movzx	eax, al
	test	eax, eax
	jne	SHORT $LN2@close@2

; 299  : 				_Ans = 0;

	mov	DWORD PTR __Ans$[ebp], 0
$LN2@close@2:

; 300  : 			if (fclose(_Myfile) != 0)

	mov	eax, DWORD PTR _this$[ebp]
	mov	ecx, DWORD PTR [eax+84]
	push	ecx
	call	_fclose
	add	esp, 4
	test	eax, eax
	je	SHORT $LN3@close@2

; 301  : 				_Ans = 0;

	mov	DWORD PTR __Ans$[ebp], 0
$LN3@close@2:

; 302  : 			}
; 303  : 		_Init(0, _Closefl);

	push	2
	push	0
	mov	ecx, DWORD PTR _this$[ebp]
	call	?_Init@?$basic_filebuf@DU?$char_traits@D@std@@@std@@IAEXPAU_iobuf@@W4_Initfl@12@@Z ; std::basic_filebuf<char,std::char_traits<char> >::_Init

; 304  : 		return (_Ans);

	mov	eax, DWORD PTR __Ans$[ebp]

; 305  : 		}

	pop	edi
	pop	esi
	pop	ebx
	add	esp, 216				; 000000d8H
	cmp	ebp, esp
	call	__RTC_CheckEsp
	mov	esp, ebp
	pop	ebp
	ret	0
?close@?$basic_filebuf@DU?$char_traits@D@std@@@std@@QAEPAV12@XZ ENDP ; std::basic_filebuf<char,std::char_traits<char> >::close
_TEXT	ENDS
PUBLIC	?_Stinit@?1??_Init@?$basic_filebuf@DU?$char_traits@D@std@@@std@@IAEXPAU_iobuf@@W4_Initfl@23@@Z@4HA ; `std::basic_filebuf<char,std::char_traits<char> >::_Init'::`2'::_Stinit
PUBLIC	?_Init@?$basic_streambuf@DU?$char_traits@D@std@@@std@@IAEXPAPAD0PAH001@Z ; std::basic_streambuf<char,std::char_traits<char> >::_Init
PUBLIC	?_Init@?$basic_streambuf@DU?$char_traits@D@std@@@std@@IAEXXZ ; std::basic_streambuf<char,std::char_traits<char> >::_Init
;	COMDAT ?_Stinit@?1??_Init@?$basic_filebuf@DU?$char_traits@D@std@@@std@@IAEXPAU_iobuf@@W4_Initfl@23@@Z@4HA
_BSS	SEGMENT
?_Stinit@?1??_Init@?$basic_filebuf@DU?$char_traits@D@std@@@std@@IAEXPAU_iobuf@@W4_Initfl@23@@Z@4HA DD 01H DUP (?) ; `std::basic_filebuf<char,std::char_traits<char> >::_Init'::`2'::_Stinit
; Function compile flags: /Odtp /RTCsu /ZI
_BSS	ENDS
;	COMDAT ?_Init@?$basic_filebuf@DU?$char_traits@D@std@@@std@@IAEXPAU_iobuf@@W4_Initfl@12@@Z
_TEXT	SEGMENT
__Nw$33767 = -56					; size = 4
__Nr$33765 = -44					; size = 4
__Pn$33763 = -32					; size = 4
__Pb$33761 = -20					; size = 4
_this$ = -8						; size = 4
__File$ = 8						; size = 4
__Which$ = 12						; size = 4
?_Init@?$basic_filebuf@DU?$char_traits@D@std@@@std@@IAEXPAU_iobuf@@W4_Initfl@12@@Z PROC ; std::basic_filebuf<char,std::char_traits<char> >::_Init, COMDAT
; _this$ = ecx

; 555  : 		{	// initialize to C stream _File after {new, open, close}

	push	ebp
	mov	ebp, esp
	sub	esp, 252				; 000000fcH
	push	ebx
	push	esi
	push	edi
	push	ecx
	lea	edi, DWORD PTR [ebp-252]
	mov	ecx, 63					; 0000003fH
	mov	eax, -858993460				; ccccccccH
	rep stosd
	pop	ecx
	mov	DWORD PTR _this$[ebp], ecx

; 556  : 		__PURE_APPDOMAIN_GLOBAL static _Myst _Stinit;	// initial state
; 557  : 
; 558  : 		_Closef = _Which == _Openfl;

	xor	eax, eax
	cmp	DWORD PTR __Which$[ebp], 1
	sete	al
	mov	ecx, DWORD PTR _this$[ebp]
	mov	BYTE PTR [ecx+80], al

; 559  : 		_Wrotesome = false;

	mov	eax, DWORD PTR _this$[ebp]
	mov	BYTE PTR [eax+73], 0

; 560  : 
; 561  : 		_Mysb::_Init();	// initialize stream buffer base object

	mov	ecx, DWORD PTR _this$[ebp]
	call	?_Init@?$basic_streambuf@DU?$char_traits@D@std@@@std@@IAEXXZ ; std::basic_streambuf<char,std::char_traits<char> >::_Init

; 562  : 
; 563  :  #ifndef _IORCNT
; 564  :   #define _IORCNT	_IOCNT	/* read and write counts are the same */
; 565  :   #define _IOWCNT _IOCNT
; 566  :  #endif /* _IORCNT */
; 567  : 
; 568  :   #pragma warning(push)
; 569  :   #pragma warning(disable: 6240)	/* prefast noise VSW 489858 */
; 570  : 		if (_File != 0 && sizeof (_Elem) == 1)

	cmp	DWORD PTR __File$[ebp], 0
	je	SHORT $LN1@Init
	mov	eax, 1
	test	eax, eax
	je	SHORT $LN1@Init

; 571  :   #pragma warning(pop)
; 572  : 
; 573  : 			{	// point inside C stream with [first, first + count) buffer
; 574  : 			_Elem **_Pb = (_Elem **)&_File->_IOBASE;

	mov	eax, DWORD PTR __File$[ebp]
	add	eax, 8
	mov	DWORD PTR __Pb$33761[ebp], eax

; 575  : 			_Elem **_Pn = (_Elem **)&_File->_IOPTR;

	mov	eax, DWORD PTR __File$[ebp]
	mov	DWORD PTR __Pn$33763[ebp], eax

; 576  : 			int *_Nr = (int *)&_File->_IORCNT;

	mov	eax, DWORD PTR __File$[ebp]
	add	eax, 4
	mov	DWORD PTR __Nr$33765[ebp], eax

; 577  : 			int *_Nw = (int *)&_File->_IOWCNT;

	mov	eax, DWORD PTR __File$[ebp]
	add	eax, 4
	mov	DWORD PTR __Nw$33767[ebp], eax

; 578  : 			_Mysb::_Init(_Pb, _Pn, _Nr, _Pb, _Pn, _Nw);

	mov	eax, DWORD PTR __Nw$33767[ebp]
	push	eax
	mov	ecx, DWORD PTR __Pn$33763[ebp]
	push	ecx
	mov	edx, DWORD PTR __Pb$33761[ebp]
	push	edx
	mov	eax, DWORD PTR __Nr$33765[ebp]
	push	eax
	mov	ecx, DWORD PTR __Pn$33763[ebp]
	push	ecx
	mov	edx, DWORD PTR __Pb$33761[ebp]
	push	edx
	mov	ecx, DWORD PTR _this$[ebp]
	call	?_Init@?$basic_streambuf@DU?$char_traits@D@std@@@std@@IAEXPAPAD0PAH001@Z ; std::basic_streambuf<char,std::char_traits<char> >::_Init
$LN1@Init:

; 579  : 			}
; 580  : 
; 581  : 		_Myfile = _File;

	mov	eax, DWORD PTR _this$[ebp]
	mov	ecx, DWORD PTR __File$[ebp]
	mov	DWORD PTR [eax+84], ecx

; 582  : 		_State = _Stinit;

	mov	eax, DWORD PTR _this$[ebp]
	mov	ecx, DWORD PTR ?_Stinit@?1??_Init@?$basic_filebuf@DU?$char_traits@D@std@@@std@@IAEXPAU_iobuf@@W4_Initfl@23@@Z@4HA ; `std::basic_filebuf<char,std::char_traits<char> >::_Init'::`2'::_Stinit
	mov	DWORD PTR [eax+76], ecx

; 583  : 		_Pcvt = 0;	// pointer to codecvt facet

	mov	eax, DWORD PTR _this$[ebp]
	mov	DWORD PTR [eax+68], 0

; 584  : 		}

	pop	edi
	pop	esi
	pop	ebx
	add	esp, 252				; 000000fcH
	cmp	ebp, esp
	call	__RTC_CheckEsp
	mov	esp, ebp
	pop	ebp
	ret	8
?_Init@?$basic_filebuf@DU?$char_traits@D@std@@@std@@IAEXPAU_iobuf@@W4_Initfl@12@@Z ENDP ; std::basic_filebuf<char,std::char_traits<char> >::_Init
_TEXT	ENDS
PUBLIC	?unshift@?$codecvt@DDH@std@@QBEHAAHPAD1AAPAD@Z	; std::codecvt<char,char,int>::unshift
PUBLIC	__$ArrayPad$
;	COMDAT xdata$x
xdata$x	SEGMENT
__ehfuncinfo$?_Endwrite@?$basic_filebuf@DU?$char_traits@D@std@@@std@@IAE_NXZ DD 019930522H
	DD	05H
	DD	FLAT:__unwindtable$?_Endwrite@?$basic_filebuf@DU?$char_traits@D@std@@@std@@IAE_NXZ
	DD	2 DUP(00H)
	DD	2 DUP(00H)
	DD	00H
	DD	01H
__unwindtable$?_Endwrite@?$basic_filebuf@DU?$char_traits@D@std@@@std@@IAE_NXZ DD 0ffffffffH
	DD	FLAT:__unwindfunclet$?_Endwrite@?$basic_filebuf@DU?$char_traits@D@std@@@std@@IAE_NXZ$0
	DD	00H
	DD	FLAT:__unwindfunclet$?_Endwrite@?$basic_filebuf@DU?$char_traits@D@std@@@std@@IAE_NXZ$1
	DD	01H
	DD	FLAT:__unwindfunclet$?_Endwrite@?$basic_filebuf@DU?$char_traits@D@std@@@std@@IAE_NXZ$2
	DD	00H
	DD	FLAT:__unwindfunclet$?_Endwrite@?$basic_filebuf@DU?$char_traits@D@std@@@std@@IAE_NXZ$3
	DD	00H
	DD	FLAT:__unwindfunclet$?_Endwrite@?$basic_filebuf@DU?$char_traits@D@std@@@std@@IAE_NXZ$4
; Function compile flags: /Odtp /RTCsu /ZI
xdata$x	ENDS
;	COMDAT ?_Endwrite@?$basic_filebuf@DU?$char_traits@D@std@@@std@@IAE_NXZ
_TEXT	SEGMENT
tv147 = -504						; size = 4
tv190 = -500						; size = 4
tv204 = -496						; size = 4
tv172 = -496						; size = 4
tv197 = -492						; size = 4
tv192 = -492						; size = 4
tv188 = -492						; size = 4
tv206 = -488						; size = 4
tv205 = -488						; size = 4
tv86 = -488						; size = 4
$T37359 = -480						; size = 4
$T37360 = -468						; size = 4
$T37361 = -456						; size = 4
$T37362 = -444						; size = 12
$T37363 = -424						; size = 12
$T37364 = -404						; size = 12
$T37365 = -381						; size = 1
$T37366 = -372						; size = 12
$T37369 = -349						; size = 1
$T37370 = -337						; size = 1
$T37371 = -325						; size = 1
$T37372 = -313						; size = 1
$T37377 = -304						; size = 4
__Count$33792 = -100					; size = 4
__Str$33779 = -88					; size = 32
__Dest$33775 = -48					; size = 4
__STRING_INC$33774 = -36				; size = 4
_this$ = -24						; size = 4
__$ArrayPad$ = -16					; size = 4
__$EHRec$ = -12						; size = 12
?_Endwrite@?$basic_filebuf@DU?$char_traits@D@std@@@std@@IAE_NXZ PROC ; std::basic_filebuf<char,std::char_traits<char> >::_Endwrite, COMDAT
; _this$ = ecx

; 587  : 		{	// put shift to initial conversion state, as needed

	push	ebp
	mov	ebp, esp
	push	-1
	push	__ehhandler$?_Endwrite@?$basic_filebuf@DU?$char_traits@D@std@@@std@@IAE_NXZ
	mov	eax, DWORD PTR fs:0
	push	eax
	sub	esp, 492				; 000001ecH
	push	ebx
	push	esi
	push	edi
	push	ecx
	lea	edi, DWORD PTR [ebp-504]
	mov	ecx, 123				; 0000007bH
	mov	eax, -858993460				; ccccccccH
	rep stosd
	pop	ecx
	mov	eax, DWORD PTR ___security_cookie
	xor	eax, ebp
	mov	DWORD PTR __$ArrayPad$[ebp], eax
	push	eax
	lea	eax, DWORD PTR __$EHRec$[ebp]
	mov	DWORD PTR fs:0, eax
	mov	DWORD PTR _this$[ebp], ecx
	mov	DWORD PTR $T37377[ebp], 0

; 588  : 		if (_Pcvt == 0 || !_Wrotesome)

	mov	eax, DWORD PTR _this$[ebp]
	cmp	DWORD PTR [eax+68], 0
	je	SHORT $LN14@Endwrite
	mov	eax, DWORD PTR _this$[ebp]
	movzx	ecx, BYTE PTR [eax+73]
	test	ecx, ecx
	jne	SHORT $LN15@Endwrite
$LN14@Endwrite:

; 589  : 			return (true);

	mov	al, 1
	jmp	$LN16@Endwrite

; 590  : 		else

	jmp	$LN16@Endwrite
$LN15@Endwrite:

; 591  : 			{	// may have to put
; 592  : 			const int _STRING_INC = 8;

	mov	DWORD PTR __STRING_INC$33774[ebp], 8

; 593  : 			char *_Dest;
; 594  : 			if (_Traits::eq_int_type(_Traits::eof(), overflow()))

	call	?eof@?$char_traits@D@std@@SAHXZ		; std::char_traits<char>::eof
	mov	esi, esp
	push	eax
	mov	eax, DWORD PTR _this$[ebp]
	mov	edx, DWORD PTR [eax]
	mov	ecx, DWORD PTR _this$[ebp]
	mov	eax, DWORD PTR [edx+12]
	call	eax
	cmp	esi, esp
	call	__RTC_CheckEsp
	mov	DWORD PTR $T37359[ebp], eax
	call	?eof@?$char_traits@D@std@@SAHXZ		; std::char_traits<char>::eof
	mov	DWORD PTR $T37360[ebp], eax
	lea	ecx, DWORD PTR $T37359[ebp]
	push	ecx
	lea	edx, DWORD PTR $T37360[ebp]
	push	edx
	call	?eq_int_type@?$char_traits@D@std@@SA_NABH0@Z ; std::char_traits<char>::eq_int_type
	add	esp, 8
	movzx	eax, al
	test	eax, eax
	je	SHORT $LN12@Endwrite

; 595  : 				return (false);

	xor	al, al
	jmp	$LN16@Endwrite
$LN12@Endwrite:

; 596  : 
; 597  : 			string _Str(_STRING_INC, '\0');

	push	0
	push	8
	lea	ecx, DWORD PTR __Str$33779[ebp]
	call	??0?$basic_string@DU?$char_traits@D@std@@V?$allocator@D@2@@std@@QAE@ID@Z ; std::basic_string<char,std::char_traits<char>,std::allocator<char> >::basic_string<char,std::char_traits<char>,std::allocator<char> >
	mov	DWORD PTR __$EHRec$[ebp+8], 0
$LN11@Endwrite:

; 598  : 			for (; ; )
; 599  : 				switch (_Pcvt->unshift(_State,
; 600  : 					&*_Str.begin(), &*_Str.begin() + _Str.size(), _Dest))

	lea	eax, DWORD PTR __Dest$33775[ebp]
	push	eax
	lea	ecx, DWORD PTR $T37362[ebp]
	push	ecx
	lea	ecx, DWORD PTR __Str$33779[ebp]
	call	?begin@?$basic_string@DU?$char_traits@D@std@@V?$allocator@D@2@@std@@QAE?AV?$_String_iterator@DU?$char_traits@D@std@@V?$allocator@D@2@@2@XZ ; std::basic_string<char,std::char_traits<char>,std::allocator<char> >::begin
	mov	DWORD PTR tv86[ebp], eax
	mov	edx, DWORD PTR tv86[ebp]
	mov	DWORD PTR tv188[ebp], edx
	mov	BYTE PTR __$EHRec$[ebp+8], 1
	mov	ecx, DWORD PTR tv188[ebp]
	call	??D?$_String_iterator@DU?$char_traits@D@std@@V?$allocator@D@2@@std@@QBEAADXZ ; std::_String_iterator<char,std::char_traits<char>,std::allocator<char> >::operator*
	mov	esi, eax
	lea	ecx, DWORD PTR __Str$33779[ebp]
	call	?size@?$basic_string@DU?$char_traits@D@std@@V?$allocator@D@2@@std@@QBEIXZ ; std::basic_string<char,std::char_traits<char>,std::allocator<char> >::size
	add	esi, eax
	push	esi
	lea	eax, DWORD PTR $T37363[ebp]
	push	eax
	lea	ecx, DWORD PTR __Str$33779[ebp]
	call	?begin@?$basic_string@DU?$char_traits@D@std@@V?$allocator@D@2@@std@@QAE?AV?$_String_iterator@DU?$char_traits@D@std@@V?$allocator@D@2@@2@XZ ; std::basic_string<char,std::char_traits<char>,std::allocator<char> >::begin
	mov	DWORD PTR tv204[ebp], eax
	mov	ecx, DWORD PTR tv204[ebp]
	mov	DWORD PTR tv190[ebp], ecx
	mov	BYTE PTR __$EHRec$[ebp+8], 2
	mov	ecx, DWORD PTR tv190[ebp]
	call	??D?$_String_iterator@DU?$char_traits@D@std@@V?$allocator@D@2@@std@@QBEAADXZ ; std::_String_iterator<char,std::char_traits<char>,std::allocator<char> >::operator*
	push	eax
	mov	edx, DWORD PTR _this$[ebp]
	add	edx, 76					; 0000004cH
	push	edx
	mov	eax, DWORD PTR _this$[ebp]
	mov	ecx, DWORD PTR [eax+68]
	call	?unshift@?$codecvt@DDH@std@@QBEHAAHPAD1AAPAD@Z ; std::codecvt<char,char,int>::unshift
	mov	DWORD PTR $T37361[ebp], eax
	mov	BYTE PTR __$EHRec$[ebp+8], 1
	lea	ecx, DWORD PTR $T37363[ebp]
	call	??1?$_String_iterator@DU?$char_traits@D@std@@V?$allocator@D@2@@std@@QAE@XZ
	mov	BYTE PTR __$EHRec$[ebp+8], 0
	lea	ecx, DWORD PTR $T37362[ebp]
	call	??1?$_String_iterator@DU?$char_traits@D@std@@V?$allocator@D@2@@std@@QAE@XZ
	mov	ecx, DWORD PTR $T37361[ebp]
	mov	DWORD PTR tv147[ebp], ecx
	cmp	DWORD PTR tv147[ebp], 0
	je	SHORT $LN7@Endwrite
	cmp	DWORD PTR tv147[ebp], 1
	je	SHORT $LN6@Endwrite
	cmp	DWORD PTR tv147[ebp], 3
	je	$LN2@Endwrite
	jmp	$LN1@Endwrite
$LN7@Endwrite:

; 601  : 				{	// test result of homing conversion
; 602  : 				case codecvt_base::ok:
; 603  : 					_Wrotesome = false;	// homed successfully

	mov	eax, DWORD PTR _this$[ebp]
	mov	BYTE PTR [eax+73], 0
$LN6@Endwrite:

; 604  : 
; 605  : 				case codecvt_base::partial:	// fall through
; 606  : 					{	// put any generated bytes
; 607  : 					size_t _Count = _Dest - &*_Str.begin();

	lea	eax, DWORD PTR $T37364[ebp]
	push	eax
	lea	ecx, DWORD PTR __Str$33779[ebp]
	call	?begin@?$basic_string@DU?$char_traits@D@std@@V?$allocator@D@2@@std@@QAE?AV?$_String_iterator@DU?$char_traits@D@std@@V?$allocator@D@2@@2@XZ ; std::basic_string<char,std::char_traits<char>,std::allocator<char> >::begin
	mov	DWORD PTR tv205[ebp], eax
	mov	ecx, DWORD PTR tv205[ebp]
	mov	DWORD PTR tv192[ebp], ecx
	mov	BYTE PTR __$EHRec$[ebp+8], 3
	mov	ecx, DWORD PTR tv192[ebp]
	call	??D?$_String_iterator@DU?$char_traits@D@std@@V?$allocator@D@2@@std@@QBEAADXZ ; std::_String_iterator<char,std::char_traits<char>,std::allocator<char> >::operator*
	mov	edx, DWORD PTR __Dest$33775[ebp]
	sub	edx, eax
	mov	DWORD PTR __Count$33792[ebp], edx
	mov	BYTE PTR __$EHRec$[ebp+8], 0
	lea	ecx, DWORD PTR $T37364[ebp]
	call	??1?$_String_iterator@DU?$char_traits@D@std@@V?$allocator@D@2@@std@@QAE@XZ

; 608  : 					if (0 < _Count && _Count !=
; 609  : 						fwrite(&*_Str.begin(), 1, _Count, _Myfile))

	cmp	DWORD PTR __Count$33792[ebp], 0
	jbe	SHORT $LN18@Endwrite
	mov	eax, DWORD PTR _this$[ebp]
	mov	ecx, DWORD PTR [eax+84]
	push	ecx
	mov	edx, DWORD PTR __Count$33792[ebp]
	push	edx
	push	1
	lea	eax, DWORD PTR $T37366[ebp]
	push	eax
	lea	ecx, DWORD PTR __Str$33779[ebp]
	call	?begin@?$basic_string@DU?$char_traits@D@std@@V?$allocator@D@2@@std@@QAE?AV?$_String_iterator@DU?$char_traits@D@std@@V?$allocator@D@2@@2@XZ ; std::basic_string<char,std::char_traits<char>,std::allocator<char> >::begin
	mov	DWORD PTR tv206[ebp], eax
	mov	ecx, DWORD PTR tv206[ebp]
	mov	DWORD PTR tv197[ebp], ecx
	mov	BYTE PTR __$EHRec$[ebp+8], 4
	mov	edx, DWORD PTR $T37377[ebp]
	or	edx, 1
	mov	DWORD PTR $T37377[ebp], edx
	mov	ecx, DWORD PTR tv197[ebp]
	call	??D?$_String_iterator@DU?$char_traits@D@std@@V?$allocator@D@2@@std@@QBEAADXZ ; std::_String_iterator<char,std::char_traits<char>,std::allocator<char> >::operator*
	push	eax
	call	_fwrite
	add	esp, 16					; 00000010H
	cmp	DWORD PTR __Count$33792[ebp], eax
	je	SHORT $LN18@Endwrite
	mov	DWORD PTR tv172[ebp], 1
	jmp	SHORT $LN19@Endwrite
$LN18@Endwrite:
	mov	DWORD PTR tv172[ebp], 0
$LN19@Endwrite:
	mov	al, BYTE PTR tv172[ebp]
	mov	BYTE PTR $T37365[ebp], al
	mov	DWORD PTR __$EHRec$[ebp+8], 0
	mov	ecx, DWORD PTR $T37377[ebp]
	and	ecx, 1
	je	SHORT $LN26@Endwrite
	and	DWORD PTR $T37377[ebp], -2		; fffffffeH
	lea	ecx, DWORD PTR $T37366[ebp]
	call	??1?$_String_iterator@DU?$char_traits@D@std@@V?$allocator@D@2@@std@@QAE@XZ
$LN26@Endwrite:
	movzx	edx, BYTE PTR $T37365[ebp]
	test	edx, edx
	je	SHORT $LN5@Endwrite

; 610  : 						return (false);	// write failed

	mov	BYTE PTR $T37369[ebp], 0
	mov	DWORD PTR __$EHRec$[ebp+8], -1
	lea	ecx, DWORD PTR __Str$33779[ebp]
	call	??1?$basic_string@DU?$char_traits@D@std@@V?$allocator@D@2@@std@@QAE@XZ ; std::basic_string<char,std::char_traits<char>,std::allocator<char> >::~basic_string<char,std::char_traits<char>,std::allocator<char> >
	mov	al, BYTE PTR $T37369[ebp]
	jmp	$LN16@Endwrite
$LN5@Endwrite:

; 611  : 					if (!_Wrotesome)

	mov	eax, DWORD PTR _this$[ebp]
	movzx	ecx, BYTE PTR [eax+73]
	test	ecx, ecx
	jne	SHORT $LN4@Endwrite

; 612  : 						return (true);

	mov	BYTE PTR $T37370[ebp], 1
	mov	DWORD PTR __$EHRec$[ebp+8], -1
	lea	ecx, DWORD PTR __Str$33779[ebp]
	call	??1?$basic_string@DU?$char_traits@D@std@@V?$allocator@D@2@@std@@QAE@XZ ; std::basic_string<char,std::char_traits<char>,std::allocator<char> >::~basic_string<char,std::char_traits<char>,std::allocator<char> >
	mov	al, BYTE PTR $T37370[ebp]
	jmp	SHORT $LN16@Endwrite
$LN4@Endwrite:

; 613  : 					if (_Count == 0)

	cmp	DWORD PTR __Count$33792[ebp], 0
	jne	SHORT $LN3@Endwrite

; 614  : 						_Str.append(_STRING_INC, '\0');	// try with more space

	push	0
	push	8
	lea	ecx, DWORD PTR __Str$33779[ebp]
	call	?append@?$basic_string@DU?$char_traits@D@std@@V?$allocator@D@2@@std@@QAEAAV12@ID@Z ; std::basic_string<char,std::char_traits<char>,std::allocator<char> >::append
$LN3@Endwrite:

; 615  : 					break;

	jmp	SHORT $LN8@Endwrite
$LN2@Endwrite:

; 616  : 					}
; 617  : 
; 618  : 				case codecvt_base::noconv:
; 619  : 					return (true);	// nothing to do

	mov	BYTE PTR $T37371[ebp], 1
	mov	DWORD PTR __$EHRec$[ebp+8], -1
	lea	ecx, DWORD PTR __Str$33779[ebp]
	call	??1?$basic_string@DU?$char_traits@D@std@@V?$allocator@D@2@@std@@QAE@XZ ; std::basic_string<char,std::char_traits<char>,std::allocator<char> >::~basic_string<char,std::char_traits<char>,std::allocator<char> >
	mov	al, BYTE PTR $T37371[ebp]
	jmp	SHORT $LN16@Endwrite
$LN1@Endwrite:

; 620  : 
; 621  : 				default:
; 622  : 					return (false);	// conversion failed

	mov	BYTE PTR $T37372[ebp], 0
	mov	DWORD PTR __$EHRec$[ebp+8], -1
	lea	ecx, DWORD PTR __Str$33779[ebp]
	call	??1?$basic_string@DU?$char_traits@D@std@@V?$allocator@D@2@@std@@QAE@XZ ; std::basic_string<char,std::char_traits<char>,std::allocator<char> >::~basic_string<char,std::char_traits<char>,std::allocator<char> >
	mov	al, BYTE PTR $T37372[ebp]
	jmp	SHORT $LN16@Endwrite
$LN8@Endwrite:

; 623  : 				}

	jmp	$LN11@Endwrite

; 624  : 			}

	mov	DWORD PTR __$EHRec$[ebp+8], -1
	lea	ecx, DWORD PTR __Str$33779[ebp]
	call	??1?$basic_string@DU?$char_traits@D@std@@V?$allocator@D@2@@std@@QAE@XZ ; std::basic_string<char,std::char_traits<char>,std::allocator<char> >::~basic_string<char,std::char_traits<char>,std::allocator<char> >
$LN16@Endwrite:

; 625  : 		}

	push	edx
	mov	ecx, ebp
	push	eax
	lea	edx, DWORD PTR $LN31@Endwrite
	call	@_RTC_CheckStackVars@8
	pop	eax
	pop	edx
	mov	ecx, DWORD PTR __$EHRec$[ebp]
	mov	DWORD PTR fs:0, ecx
	pop	ecx
	pop	edi
	pop	esi
	pop	ebx
	mov	ecx, DWORD PTR __$ArrayPad$[ebp]
	xor	ecx, ebp
	call	@__security_check_cookie@4
	add	esp, 504				; 000001f8H
	cmp	ebp, esp
	call	__RTC_CheckEsp
	mov	esp, ebp
	pop	ebp
	ret	0
	npad	3
$LN31@Endwrite:
	DD	2
	DD	$LN30@Endwrite
$LN30@Endwrite:
	DD	-48					; ffffffd0H
	DD	4
	DD	$LN27@Endwrite
	DD	-88					; ffffffa8H
	DD	32					; 00000020H
	DD	$LN28@Endwrite
$LN28@Endwrite:
	DB	95					; 0000005fH
	DB	83					; 00000053H
	DB	116					; 00000074H
	DB	114					; 00000072H
	DB	0
$LN27@Endwrite:
	DB	95					; 0000005fH
	DB	68					; 00000044H
	DB	101					; 00000065H
	DB	115					; 00000073H
	DB	116					; 00000074H
	DB	0
_TEXT	ENDS
;	COMDAT text$x
text$x	SEGMENT
__unwindfunclet$?_Endwrite@?$basic_filebuf@DU?$char_traits@D@std@@@std@@IAE_NXZ$0:
	lea	ecx, DWORD PTR __Str$33779[ebp]
	jmp	??1?$basic_string@DU?$char_traits@D@std@@V?$allocator@D@2@@std@@QAE@XZ ; std::basic_string<char,std::char_traits<char>,std::allocator<char> >::~basic_string<char,std::char_traits<char>,std::allocator<char> >
__unwindfunclet$?_Endwrite@?$basic_filebuf@DU?$char_traits@D@std@@@std@@IAE_NXZ$1:
	lea	ecx, DWORD PTR $T37362[ebp]
	jmp	??1?$_String_iterator@DU?$char_traits@D@std@@V?$allocator@D@2@@std@@QAE@XZ
__unwindfunclet$?_Endwrite@?$basic_filebuf@DU?$char_traits@D@std@@@std@@IAE_NXZ$2:
	lea	ecx, DWORD PTR $T37363[ebp]
	jmp	??1?$_String_iterator@DU?$char_traits@D@std@@V?$allocator@D@2@@std@@QAE@XZ
__unwindfunclet$?_Endwrite@?$basic_filebuf@DU?$char_traits@D@std@@@std@@IAE_NXZ$3:
	lea	ecx, DWORD PTR $T37364[ebp]
	jmp	??1?$_String_iterator@DU?$char_traits@D@std@@V?$allocator@D@2@@std@@QAE@XZ
__unwindfunclet$?_Endwrite@?$basic_filebuf@DU?$char_traits@D@std@@@std@@IAE_NXZ$4:
	mov	eax, DWORD PTR $T37377[ebp]
	and	eax, 1
	je	$LN25@Endwrite
	and	DWORD PTR $T37377[ebp], -2		; fffffffeH
	lea	ecx, DWORD PTR $T37366[ebp]
	jmp	??1?$_String_iterator@DU?$char_traits@D@std@@V?$allocator@D@2@@std@@QAE@XZ
$LN25@Endwrite:
	ret	0
__ehhandler$?_Endwrite@?$basic_filebuf@DU?$char_traits@D@std@@@std@@IAE_NXZ:
	mov	edx, DWORD PTR [esp+8]
	lea	eax, DWORD PTR [edx+12]
	mov	ecx, DWORD PTR [edx-508]
	xor	ecx, eax
	call	@__security_check_cookie@4
	mov	ecx, DWORD PTR [edx-4]
	xor	ecx, eax
	call	@__security_check_cookie@4
	mov	eax, OFFSET __ehfuncinfo$?_Endwrite@?$basic_filebuf@DU?$char_traits@D@std@@@std@@IAE_NXZ
	jmp	___CxxFrameHandler3
text$x	ENDS
?_Endwrite@?$basic_filebuf@DU?$char_traits@D@std@@@std@@IAE_NXZ ENDP ; std::basic_filebuf<char,std::char_traits<char> >::_Endwrite
PUBLIC	?always_noconv@codecvt_base@std@@QBE_NXZ	; std::codecvt_base::always_noconv
; Function compile flags: /Odtp /RTCsu /ZI
;	COMDAT ?_Initcvt@?$basic_filebuf@DU?$char_traits@D@std@@@std@@IAEXPBV?$codecvt@DDH@2@@Z
_TEXT	SEGMENT
_this$ = -8						; size = 4
__Newpcvt$ = 8						; size = 4
?_Initcvt@?$basic_filebuf@DU?$char_traits@D@std@@@std@@IAEXPBV?$codecvt@DDH@2@@Z PROC ; std::basic_filebuf<char,std::char_traits<char> >::_Initcvt, COMDAT
; _this$ = ecx

; 628  : 		{	// initialize codecvt pointer

	push	ebp
	mov	ebp, esp
	sub	esp, 204				; 000000ccH
	push	ebx
	push	esi
	push	edi
	push	ecx
	lea	edi, DWORD PTR [ebp-204]
	mov	ecx, 51					; 00000033H
	mov	eax, -858993460				; ccccccccH
	rep stosd
	pop	ecx
	mov	DWORD PTR _this$[ebp], ecx

; 629  : 		if (_Newpcvt->always_noconv())

	mov	ecx, DWORD PTR __Newpcvt$[ebp]
	call	?always_noconv@codecvt_base@std@@QBE_NXZ ; std::codecvt_base::always_noconv
	movzx	eax, al
	test	eax, eax
	je	SHORT $LN2@Initcvt

; 630  : 			_Pcvt = 0;	// nothing to do

	mov	eax, DWORD PTR _this$[ebp]
	mov	DWORD PTR [eax+68], 0

; 631  : 		else

	jmp	SHORT $LN3@Initcvt
$LN2@Initcvt:

; 632  : 			{	// set up for nontrivial codecvt facet
; 633  : 			_Pcvt = _Newpcvt;

	mov	eax, DWORD PTR _this$[ebp]
	mov	ecx, DWORD PTR __Newpcvt$[ebp]
	mov	DWORD PTR [eax+68], ecx

; 634  : 			_Mysb::_Init();	// reset any buffering

	mov	ecx, DWORD PTR _this$[ebp]
	call	?_Init@?$basic_streambuf@DU?$char_traits@D@std@@@std@@IAEXXZ ; std::basic_streambuf<char,std::char_traits<char> >::_Init
$LN3@Initcvt:

; 635  : 			}
; 636  : 		}

	pop	edi
	pop	esi
	pop	ebx
	add	esp, 204				; 000000ccH
	cmp	ebp, esp
	call	__RTC_CheckEsp
	mov	esp, ebp
	pop	ebp
	ret	4
?_Initcvt@?$basic_filebuf@DU?$char_traits@D@std@@@std@@IAEXPBV?$codecvt@DDH@2@@Z ENDP ; std::basic_filebuf<char,std::char_traits<char> >::_Initcvt
; Function compile flags: /Odtp /RTCsu /ZI
; File c:\program files (x86)\microsoft visual studio 10.0\vc\include\xlocale
_TEXT	ENDS
;	COMDAT ?always_noconv@codecvt_base@std@@QBE_NXZ
_TEXT	SEGMENT
_this$ = -8						; size = 4
?always_noconv@codecvt_base@std@@QBE_NXZ PROC		; std::codecvt_base::always_noconv, COMDAT
; _this$ = ecx

; 756  : 		{	// return true if conversions never change input (from codecvt)

	push	ebp
	mov	ebp, esp
	sub	esp, 204				; 000000ccH
	push	ebx
	push	esi
	push	edi
	push	ecx
	lea	edi, DWORD PTR [ebp-204]
	mov	ecx, 51					; 00000033H
	mov	eax, -858993460				; ccccccccH
	rep stosd
	pop	ecx
	mov	DWORD PTR _this$[ebp], ecx

; 757  : 		return (do_always_noconv());

	mov	eax, DWORD PTR _this$[ebp]
	mov	edx, DWORD PTR [eax]
	mov	esi, esp
	mov	ecx, DWORD PTR _this$[ebp]
	mov	eax, DWORD PTR [edx+4]
	call	eax
	cmp	esi, esp
	call	__RTC_CheckEsp

; 758  : 		}

	pop	edi
	pop	esi
	pop	ebx
	add	esp, 204				; 000000ccH
	cmp	ebp, esp
	call	__RTC_CheckEsp
	mov	esp, ebp
	pop	ebp
	ret	0
?always_noconv@codecvt_base@std@@QBE_NXZ ENDP		; std::codecvt_base::always_noconv
_TEXT	ENDS
PUBLIC	?setg@?$basic_streambuf@DU?$char_traits@D@std@@@std@@IAEXPAD00@Z ; std::basic_streambuf<char,std::char_traits<char> >::setg
; Function compile flags: /Odtp /RTCsu /ZI
; File c:\program files (x86)\microsoft visual studio 10.0\vc\include\fstream
;	COMDAT ?_Reset_back@?$basic_filebuf@DU?$char_traits@D@std@@@std@@AAEXXZ
_TEXT	SEGMENT
_this$ = -8						; size = 4
?_Reset_back@?$basic_filebuf@DU?$char_traits@D@std@@@std@@AAEXXZ PROC ; std::basic_filebuf<char,std::char_traits<char> >::_Reset_back, COMDAT
; _this$ = ecx

; 640  : 		{	// restore buffer after putback

	push	ebp
	mov	ebp, esp
	sub	esp, 204				; 000000ccH
	push	ebx
	push	esi
	push	edi
	push	ecx
	lea	edi, DWORD PTR [ebp-204]
	mov	ecx, 51					; 00000033H
	mov	eax, -858993460				; ccccccccH
	rep stosd
	pop	ecx
	mov	DWORD PTR _this$[ebp], ecx

; 641  : 		if (_Mysb::eback() == &_Mychar)

	mov	ecx, DWORD PTR _this$[ebp]
	call	?eback@?$basic_streambuf@DU?$char_traits@D@std@@@std@@IBEPADXZ ; std::basic_streambuf<char,std::char_traits<char> >::eback
	mov	ecx, DWORD PTR _this$[ebp]
	add	ecx, 72					; 00000048H
	cmp	eax, ecx
	jne	SHORT $LN2@Reset_back

; 642  : 			_Mysb::setg(_Set_eback, _Set_egptr, _Set_egptr);

	mov	eax, DWORD PTR _this$[ebp]
	mov	ecx, DWORD PTR [eax+64]
	push	ecx
	mov	edx, DWORD PTR _this$[ebp]
	mov	eax, DWORD PTR [edx+64]
	push	eax
	mov	ecx, DWORD PTR _this$[ebp]
	mov	edx, DWORD PTR [ecx+60]
	push	edx
	mov	ecx, DWORD PTR _this$[ebp]
	call	?setg@?$basic_streambuf@DU?$char_traits@D@std@@@std@@IAEXPAD00@Z ; std::basic_streambuf<char,std::char_traits<char> >::setg
$LN2@Reset_back:

; 643  : 		}

	pop	edi
	pop	esi
	pop	ebx
	add	esp, 204				; 000000ccH
	cmp	ebp, esp
	call	__RTC_CheckEsp
	mov	esp, ebp
	pop	ebp
	ret	0
?_Reset_back@?$basic_filebuf@DU?$char_traits@D@std@@@std@@AAEXXZ ENDP ; std::basic_filebuf<char,std::char_traits<char> >::_Reset_back
; Function compile flags: /Odtp /RTCsu /ZI
_TEXT	ENDS
;	COMDAT ?_Set_back@?$basic_filebuf@DU?$char_traits@D@std@@@std@@AAEXXZ
_TEXT	SEGMENT
_this$ = -8						; size = 4
?_Set_back@?$basic_filebuf@DU?$char_traits@D@std@@@std@@AAEXXZ PROC ; std::basic_filebuf<char,std::char_traits<char> >::_Set_back, COMDAT
; _this$ = ecx

; 646  : 		{	// set up putback area

	push	ebp
	mov	ebp, esp
	sub	esp, 204				; 000000ccH
	push	ebx
	push	esi
	push	edi
	push	ecx
	lea	edi, DWORD PTR [ebp-204]
	mov	ecx, 51					; 00000033H
	mov	eax, -858993460				; ccccccccH
	rep stosd
	pop	ecx
	mov	DWORD PTR _this$[ebp], ecx

; 647  : 		if (_Mysb::eback() != &_Mychar)

	mov	ecx, DWORD PTR _this$[ebp]
	call	?eback@?$basic_streambuf@DU?$char_traits@D@std@@@std@@IBEPADXZ ; std::basic_streambuf<char,std::char_traits<char> >::eback
	mov	ecx, DWORD PTR _this$[ebp]
	add	ecx, 72					; 00000048H
	cmp	eax, ecx
	je	SHORT $LN1@Set_back

; 648  : 			{	// save current get buffer
; 649  : 			_Set_eback = _Mysb::eback();

	mov	ecx, DWORD PTR _this$[ebp]
	call	?eback@?$basic_streambuf@DU?$char_traits@D@std@@@std@@IBEPADXZ ; std::basic_streambuf<char,std::char_traits<char> >::eback
	mov	ecx, DWORD PTR _this$[ebp]
	mov	DWORD PTR [ecx+60], eax

; 650  : 			_Set_egptr = _Mysb::egptr();

	mov	ecx, DWORD PTR _this$[ebp]
	call	?egptr@?$basic_streambuf@DU?$char_traits@D@std@@@std@@IBEPADXZ ; std::basic_streambuf<char,std::char_traits<char> >::egptr
	mov	ecx, DWORD PTR _this$[ebp]
	mov	DWORD PTR [ecx+64], eax
$LN1@Set_back:

; 651  : 			}
; 652  : 		_Mysb::setg(&_Mychar, &_Mychar, &_Mychar + 1);

	mov	eax, DWORD PTR _this$[ebp]
	add	eax, 73					; 00000049H
	push	eax
	mov	ecx, DWORD PTR _this$[ebp]
	add	ecx, 72					; 00000048H
	push	ecx
	mov	edx, DWORD PTR _this$[ebp]
	add	edx, 72					; 00000048H
	push	edx
	mov	ecx, DWORD PTR _this$[ebp]
	call	?setg@?$basic_streambuf@DU?$char_traits@D@std@@@std@@IAEXPAD00@Z ; std::basic_streambuf<char,std::char_traits<char> >::setg

; 653  : 		}

	pop	edi
	pop	esi
	pop	ebx
	add	esp, 204				; 000000ccH
	cmp	ebp, esp
	call	__RTC_CheckEsp
	mov	esp, ebp
	pop	ebp
	ret	0
?_Set_back@?$basic_filebuf@DU?$char_traits@D@std@@@std@@AAEXXZ ENDP ; std::basic_filebuf<char,std::char_traits<char> >::_Set_back
_TEXT	ENDS
PUBLIC	?_Stz@?$fpos@H@std@@0HB				; std::fpos<int>::_Stz
;	COMDAT ?_Stz@?$fpos@H@std@@0HB
; File c:\program files (x86)\microsoft visual studio 10.0\vc\include\iosfwd
CONST	SEGMENT
?_Stz@?$fpos@H@std@@0HB DD 00H				; std::fpos<int>::_Stz
; Function compile flags: /Odtp /RTCsu /ZI
CONST	ENDS
;	COMDAT ??0?$fpos@H@std@@QAE@_J@Z
_TEXT	SEGMENT
_this$ = -8						; size = 4
__Off$ = 8						; size = 8
??0?$fpos@H@std@@QAE@_J@Z PROC				; std::fpos<int>::fpos<int>, COMDAT
; _this$ = ecx

; 40   : 		{	// construct with stream offset

	push	ebp
	mov	ebp, esp
	sub	esp, 204				; 000000ccH
	push	ebx
	push	esi
	push	edi
	push	ecx
	lea	edi, DWORD PTR [ebp-204]
	mov	ecx, 51					; 00000033H
	mov	eax, -858993460				; ccccccccH
	rep stosd
	pop	ecx
	mov	DWORD PTR _this$[ebp], ecx
	mov	eax, DWORD PTR _this$[ebp]
	mov	ecx, DWORD PTR __Off$[ebp]
	mov	DWORD PTR [eax], ecx
	mov	edx, DWORD PTR __Off$[ebp+4]
	mov	DWORD PTR [eax+4], edx
	mov	eax, DWORD PTR _this$[ebp]
	mov	DWORD PTR [eax+8], 0
	mov	DWORD PTR [eax+12], 0
	mov	eax, DWORD PTR _this$[ebp]
	mov	ecx, DWORD PTR ?_Stz@?$fpos@H@std@@0HB	; std::fpos<int>::_Stz
	mov	DWORD PTR [eax+16], ecx

; 41   : 		}

	mov	eax, DWORD PTR _this$[ebp]
	pop	edi
	pop	esi
	pop	ebx
	mov	esp, ebp
	pop	ebp
	ret	8
??0?$fpos@H@std@@QAE@_J@Z ENDP				; std::fpos<int>::fpos<int>
; Function compile flags: /Odtp /RTCsu /ZI
_TEXT	ENDS
;	COMDAT ??0?$fpos@H@std@@QAE@H_J@Z
_TEXT	SEGMENT
_this$ = -8						; size = 4
__State$ = 8						; size = 4
__Fileposition$ = 12					; size = 8
??0?$fpos@H@std@@QAE@H_J@Z PROC				; std::fpos<int>::fpos<int>, COMDAT
; _this$ = ecx

; 45   : 		{	// construct with conversion state and C file position

	push	ebp
	mov	ebp, esp
	sub	esp, 204				; 000000ccH
	push	ebx
	push	esi
	push	edi
	push	ecx
	lea	edi, DWORD PTR [ebp-204]
	mov	ecx, 51					; 00000033H
	mov	eax, -858993460				; ccccccccH
	rep stosd
	pop	ecx
	mov	DWORD PTR _this$[ebp], ecx
	mov	eax, DWORD PTR _this$[ebp]
	mov	DWORD PTR [eax], 0
	mov	DWORD PTR [eax+4], 0
	mov	eax, DWORD PTR _this$[ebp]
	mov	ecx, DWORD PTR __Fileposition$[ebp]
	mov	DWORD PTR [eax+8], ecx
	mov	edx, DWORD PTR __Fileposition$[ebp+4]
	mov	DWORD PTR [eax+12], edx
	mov	eax, DWORD PTR _this$[ebp]
	mov	ecx, DWORD PTR __State$[ebp]
	mov	DWORD PTR [eax+16], ecx

; 46   : 		}

	mov	eax, DWORD PTR _this$[ebp]
	pop	edi
	pop	esi
	pop	ebx
	mov	esp, ebp
	pop	ebp
	ret	12					; 0000000cH
??0?$fpos@H@std@@QAE@H_J@Z ENDP				; std::fpos<int>::fpos<int>
; Function compile flags: /Odtp /RTCsu /ZI
_TEXT	ENDS
;	COMDAT ?state@?$fpos@H@std@@QBEHXZ
_TEXT	SEGMENT
_this$ = -8						; size = 4
?state@?$fpos@H@std@@QBEHXZ PROC			; std::fpos<int>::state, COMDAT
; _this$ = ecx

; 49   : 		{	// return conversion state

	push	ebp
	mov	ebp, esp
	sub	esp, 204				; 000000ccH
	push	ebx
	push	esi
	push	edi
	push	ecx
	lea	edi, DWORD PTR [ebp-204]
	mov	ecx, 51					; 00000033H
	mov	eax, -858993460				; ccccccccH
	rep stosd
	pop	ecx
	mov	DWORD PTR _this$[ebp], ecx

; 50   : 		return (_Mystate);

	mov	eax, DWORD PTR _this$[ebp]
	mov	eax, DWORD PTR [eax+16]

; 51   : 		}

	pop	edi
	pop	esi
	pop	ebx
	mov	esp, ebp
	pop	ebp
	ret	0
?state@?$fpos@H@std@@QBEHXZ ENDP			; std::fpos<int>::state
; Function compile flags: /Odtp /RTCsu /ZI
_TEXT	ENDS
;	COMDAT ?seekpos@?$fpos@H@std@@QBE_JXZ
_TEXT	SEGMENT
_this$ = -8						; size = 4
?seekpos@?$fpos@H@std@@QBE_JXZ PROC			; std::fpos<int>::seekpos, COMDAT
; _this$ = ecx

; 59   : 		{	// return C file position

	push	ebp
	mov	ebp, esp
	sub	esp, 204				; 000000ccH
	push	ebx
	push	esi
	push	edi
	push	ecx
	lea	edi, DWORD PTR [ebp-204]
	mov	ecx, 51					; 00000033H
	mov	eax, -858993460				; ccccccccH
	rep stosd
	pop	ecx
	mov	DWORD PTR _this$[ebp], ecx

; 60   : 		return (_Fpos);

	mov	ecx, DWORD PTR _this$[ebp]
	mov	eax, DWORD PTR [ecx+8]
	mov	edx, DWORD PTR [ecx+12]

; 61   : 		}

	pop	edi
	pop	esi
	pop	ebx
	mov	esp, ebp
	pop	ebp
	ret	0
?seekpos@?$fpos@H@std@@QBE_JXZ ENDP			; std::fpos<int>::seekpos
_TEXT	ENDS
PUBLIC	??D?$_String_const_iterator@DU?$char_traits@D@std@@V?$allocator@D@2@@std@@QBEABDXZ ; std::_String_const_iterator<char,std::char_traits<char>,std::allocator<char> >::operator*
; Function compile flags: /Odtp /RTCsu /ZI
; File c:\program files (x86)\microsoft visual studio 10.0\vc\include\xstring
;	COMDAT ??D?$_String_iterator@DU?$char_traits@D@std@@V?$allocator@D@2@@std@@QBEAADXZ
_TEXT	SEGMENT
_this$ = -8						; size = 4
??D?$_String_iterator@DU?$char_traits@D@std@@V?$allocator@D@2@@std@@QBEAADXZ PROC ; std::_String_iterator<char,std::char_traits<char>,std::allocator<char> >::operator*, COMDAT
; _this$ = ecx

; 342  : 		{	// return designated object

	push	ebp
	mov	ebp, esp
	sub	esp, 204				; 000000ccH
	push	ebx
	push	esi
	push	edi
	push	ecx
	lea	edi, DWORD PTR [ebp-204]
	mov	ecx, 51					; 00000033H
	mov	eax, -858993460				; ccccccccH
	rep stosd
	pop	ecx
	mov	DWORD PTR _this$[ebp], ecx

; 343  : 		return ((reference)**(_Mybase *)this);

	mov	ecx, DWORD PTR _this$[ebp]
	call	??D?$_String_const_iterator@DU?$char_traits@D@std@@V?$allocator@D@2@@std@@QBEABDXZ ; std::_String_const_iterator<char,std::char_traits<char>,std::allocator<char> >::operator*

; 344  : 		}

	pop	edi
	pop	esi
	pop	ebx
	add	esp, 204				; 000000ccH
	cmp	ebp, esp
	call	__RTC_CheckEsp
	mov	esp, ebp
	pop	ebp
	ret	0
??D?$_String_iterator@DU?$char_traits@D@std@@V?$allocator@D@2@@std@@QBEAADXZ ENDP ; std::_String_iterator<char,std::char_traits<char>,std::allocator<char> >::operator*
_TEXT	ENDS
PUBLIC	??1_Sentry_base@?$basic_ostream@DU?$char_traits@D@std@@@std@@QAE@XZ ; std::basic_ostream<char,std::char_traits<char> >::_Sentry_base::~_Sentry_base
PUBLIC	??0_Sentry_base@?$basic_ostream@DU?$char_traits@D@std@@@std@@QAE@AAV12@@Z ; std::basic_ostream<char,std::char_traits<char> >::_Sentry_base::_Sentry_base
;	COMDAT xdata$x
; File c:\program files (x86)\microsoft visual studio 10.0\vc\include\ostream
xdata$x	SEGMENT
__unwindtable$??0sentry@?$basic_ostream@DU?$char_traits@D@std@@@std@@QAE@AAV12@@Z DD 0ffffffffH
	DD	FLAT:__unwindfunclet$??0sentry@?$basic_ostream@DU?$char_traits@D@std@@@std@@QAE@AAV12@@Z$0
__ehfuncinfo$??0sentry@?$basic_ostream@DU?$char_traits@D@std@@@std@@QAE@AAV12@@Z DD 019930522H
	DD	01H
	DD	FLAT:__unwindtable$??0sentry@?$basic_ostream@DU?$char_traits@D@std@@@std@@QAE@AAV12@@Z
	DD	2 DUP(00H)
	DD	2 DUP(00H)
	DD	00H
	DD	01H
; Function compile flags: /Odtp /RTCsu /ZI
xdata$x	ENDS
;	COMDAT ??0sentry@?$basic_ostream@DU?$char_traits@D@std@@@std@@QAE@AAV12@@Z
_TEXT	SEGMENT
_this$ = -20						; size = 4
__$EHRec$ = -12						; size = 12
__Ostr$ = 8						; size = 4
??0sentry@?$basic_ostream@DU?$char_traits@D@std@@@std@@QAE@AAV12@@Z PROC ; std::basic_ostream<char,std::char_traits<char> >::sentry::sentry, COMDAT
; _this$ = ecx

; 114  : 			{	// construct locking and testing stream

	push	ebp
	mov	ebp, esp
	push	-1
	push	__ehhandler$??0sentry@?$basic_ostream@DU?$char_traits@D@std@@@std@@QAE@AAV12@@Z
	mov	eax, DWORD PTR fs:0
	push	eax
	sub	esp, 204				; 000000ccH
	push	ebx
	push	esi
	push	edi
	push	ecx
	lea	edi, DWORD PTR [ebp-216]
	mov	ecx, 51					; 00000033H
	mov	eax, -858993460				; ccccccccH
	rep stosd
	pop	ecx
	mov	eax, DWORD PTR ___security_cookie
	xor	eax, ebp
	push	eax
	lea	eax, DWORD PTR __$EHRec$[ebp]
	mov	DWORD PTR fs:0, eax
	mov	DWORD PTR _this$[ebp], ecx
	mov	eax, DWORD PTR __Ostr$[ebp]
	push	eax
	mov	ecx, DWORD PTR _this$[ebp]
	call	??0_Sentry_base@?$basic_ostream@DU?$char_traits@D@std@@@std@@QAE@AAV12@@Z ; std::basic_ostream<char,std::char_traits<char> >::_Sentry_base::_Sentry_base
	mov	DWORD PTR __$EHRec$[ebp+8], 0

; 115  : 			if (_Ostr.good() && _Ostr.tie() != 0)

	mov	eax, DWORD PTR __Ostr$[ebp]
	mov	ecx, DWORD PTR [eax]
	mov	edx, DWORD PTR __Ostr$[ebp]
	add	edx, DWORD PTR [ecx+4]
	mov	ecx, edx
	call	?good@ios_base@std@@QBE_NXZ		; std::ios_base::good
	movzx	eax, al
	test	eax, eax
	je	SHORT $LN1@sentry
	mov	eax, DWORD PTR __Ostr$[ebp]
	mov	ecx, DWORD PTR [eax]
	mov	edx, DWORD PTR __Ostr$[ebp]
	add	edx, DWORD PTR [ecx+4]
	mov	ecx, edx
	call	?tie@?$basic_ios@DU?$char_traits@D@std@@@std@@QBEPAV?$basic_ostream@DU?$char_traits@D@std@@@2@XZ ; std::basic_ios<char,std::char_traits<char> >::tie
	test	eax, eax
	je	SHORT $LN1@sentry

; 116  : 				_Ostr.tie()->flush();

	mov	eax, DWORD PTR __Ostr$[ebp]
	mov	ecx, DWORD PTR [eax]
	mov	edx, DWORD PTR __Ostr$[ebp]
	add	edx, DWORD PTR [ecx+4]
	mov	ecx, edx
	call	?tie@?$basic_ios@DU?$char_traits@D@std@@@std@@QBEPAV?$basic_ostream@DU?$char_traits@D@std@@@2@XZ ; std::basic_ios<char,std::char_traits<char> >::tie
	mov	ecx, eax
	call	?flush@?$basic_ostream@DU?$char_traits@D@std@@@std@@QAEAAV12@XZ ; std::basic_ostream<char,std::char_traits<char> >::flush
$LN1@sentry:

; 117  : 			_Ok = _Ostr.good();	// store test only after flushing tie

	mov	eax, DWORD PTR __Ostr$[ebp]
	mov	ecx, DWORD PTR [eax]
	mov	edx, DWORD PTR __Ostr$[ebp]
	add	edx, DWORD PTR [ecx+4]
	mov	ecx, edx
	call	?good@ios_base@std@@QBE_NXZ		; std::ios_base::good
	mov	ecx, DWORD PTR _this$[ebp]
	mov	BYTE PTR [ecx+4], al

; 118  : 			}

	mov	DWORD PTR __$EHRec$[ebp+8], -1
	mov	eax, DWORD PTR _this$[ebp]
	mov	ecx, DWORD PTR __$EHRec$[ebp]
	mov	DWORD PTR fs:0, ecx
	pop	ecx
	pop	edi
	pop	esi
	pop	ebx
	add	esp, 216				; 000000d8H
	cmp	ebp, esp
	call	__RTC_CheckEsp
	mov	esp, ebp
	pop	ebp
	ret	4
_TEXT	ENDS
;	COMDAT text$x
text$x	SEGMENT
__unwindfunclet$??0sentry@?$basic_ostream@DU?$char_traits@D@std@@@std@@QAE@AAV12@@Z$0:
	mov	ecx, DWORD PTR _this$[ebp]
	jmp	??1_Sentry_base@?$basic_ostream@DU?$char_traits@D@std@@@std@@QAE@XZ ; std::basic_ostream<char,std::char_traits<char> >::_Sentry_base::~_Sentry_base
__ehhandler$??0sentry@?$basic_ostream@DU?$char_traits@D@std@@@std@@QAE@AAV12@@Z:
	mov	edx, DWORD PTR [esp+8]
	lea	eax, DWORD PTR [edx+12]
	mov	ecx, DWORD PTR [edx-220]
	xor	ecx, eax
	call	@__security_check_cookie@4
	mov	eax, OFFSET __ehfuncinfo$??0sentry@?$basic_ostream@DU?$char_traits@D@std@@@std@@QAE@AAV12@@Z
	jmp	___CxxFrameHandler3
text$x	ENDS
??0sentry@?$basic_ostream@DU?$char_traits@D@std@@@std@@QAE@AAV12@@Z ENDP ; std::basic_ostream<char,std::char_traits<char> >::sentry::sentry
PUBLIC	?_Osfx@?$basic_ostream@DU?$char_traits@D@std@@@std@@QAEXXZ ; std::basic_ostream<char,std::char_traits<char> >::_Osfx
EXTRN	?uncaught_exception@std@@YA_NXZ:PROC		; std::uncaught_exception
;	COMDAT xdata$x
xdata$x	SEGMENT
__unwindtable$??1sentry@?$basic_ostream@DU?$char_traits@D@std@@@std@@QAE@XZ DD 0ffffffffH
	DD	FLAT:__unwindfunclet$??1sentry@?$basic_ostream@DU?$char_traits@D@std@@@std@@QAE@XZ$0
__ehfuncinfo$??1sentry@?$basic_ostream@DU?$char_traits@D@std@@@std@@QAE@XZ DD 019930522H
	DD	01H
	DD	FLAT:__unwindtable$??1sentry@?$basic_ostream@DU?$char_traits@D@std@@@std@@QAE@XZ
	DD	2 DUP(00H)
	DD	2 DUP(00H)
	DD	00H
	DD	01H
; Function compile flags: /Odtp /RTCsu /ZI
xdata$x	ENDS
;	COMDAT ??1sentry@?$basic_ostream@DU?$char_traits@D@std@@@std@@QAE@XZ
_TEXT	SEGMENT
_this$ = -20						; size = 4
__$EHRec$ = -12						; size = 12
??1sentry@?$basic_ostream@DU?$char_traits@D@std@@@std@@QAE@XZ PROC ; std::basic_ostream<char,std::char_traits<char> >::sentry::~sentry, COMDAT
; _this$ = ecx

; 121  : 			{	// destroy the object

	push	ebp
	mov	ebp, esp
	push	-1
	push	__ehhandler$??1sentry@?$basic_ostream@DU?$char_traits@D@std@@@std@@QAE@XZ
	mov	eax, DWORD PTR fs:0
	push	eax
	sub	esp, 204				; 000000ccH
	push	ebx
	push	esi
	push	edi
	push	ecx
	lea	edi, DWORD PTR [ebp-216]
	mov	ecx, 51					; 00000033H
	mov	eax, -858993460				; ccccccccH
	rep stosd
	pop	ecx
	mov	eax, DWORD PTR ___security_cookie
	xor	eax, ebp
	push	eax
	lea	eax, DWORD PTR __$EHRec$[ebp]
	mov	DWORD PTR fs:0, eax
	mov	DWORD PTR _this$[ebp], ecx
	mov	DWORD PTR __$EHRec$[ebp+8], 0

; 122  :  #if _HAS_EXCEPTIONS
; 123  : 			if (!uncaught_exception())

	call	?uncaught_exception@std@@YA_NXZ		; std::uncaught_exception
	movzx	eax, al
	test	eax, eax
	jne	SHORT $LN2@sentry@2

; 124  : 				this->_Myostr._Osfx();

	mov	eax, DWORD PTR _this$[ebp]
	mov	ecx, DWORD PTR [eax]
	call	?_Osfx@?$basic_ostream@DU?$char_traits@D@std@@@std@@QAEXXZ ; std::basic_ostream<char,std::char_traits<char> >::_Osfx
$LN2@sentry@2:

; 125  : 
; 126  :  #else /* _HAS_EXCEPTIONS */
; 127  : 			this->_Myostr._Osfx();
; 128  :  #endif /* _HAS_EXCEPTIONS */
; 129  : 			}

	mov	DWORD PTR __$EHRec$[ebp+8], -1
	mov	ecx, DWORD PTR _this$[ebp]
	call	??1_Sentry_base@?$basic_ostream@DU?$char_traits@D@std@@@std@@QAE@XZ ; std::basic_ostream<char,std::char_traits<char> >::_Sentry_base::~_Sentry_base
	mov	ecx, DWORD PTR __$EHRec$[ebp]
	mov	DWORD PTR fs:0, ecx
	pop	ecx
	pop	edi
	pop	esi
	pop	ebx
	add	esp, 216				; 000000d8H
	cmp	ebp, esp
	call	__RTC_CheckEsp
	mov	esp, ebp
	pop	ebp
	ret	0
_TEXT	ENDS
;	COMDAT text$x
text$x	SEGMENT
__unwindfunclet$??1sentry@?$basic_ostream@DU?$char_traits@D@std@@@std@@QAE@XZ$0:
	mov	ecx, DWORD PTR _this$[ebp]
	jmp	??1_Sentry_base@?$basic_ostream@DU?$char_traits@D@std@@@std@@QAE@XZ ; std::basic_ostream<char,std::char_traits<char> >::_Sentry_base::~_Sentry_base
__ehhandler$??1sentry@?$basic_ostream@DU?$char_traits@D@std@@@std@@QAE@XZ:
	mov	edx, DWORD PTR [esp+8]
	lea	eax, DWORD PTR [edx+12]
	mov	ecx, DWORD PTR [edx-220]
	xor	ecx, eax
	call	@__security_check_cookie@4
	mov	eax, OFFSET __ehfuncinfo$??1sentry@?$basic_ostream@DU?$char_traits@D@std@@@std@@QAE@XZ
	jmp	___CxxFrameHandler3
text$x	ENDS
??1sentry@?$basic_ostream@DU?$char_traits@D@std@@@std@@QAE@XZ ENDP ; std::basic_ostream<char,std::char_traits<char> >::sentry::~sentry
; Function compile flags: /Odtp /RTCsu /ZI
;	COMDAT ??Bsentry@?$basic_ostream@DU?$char_traits@D@std@@@std@@QBEPQ_Bool_struct@2@HXZ
_TEXT	SEGMENT
_this$ = -8						; size = 4
??Bsentry@?$basic_ostream@DU?$char_traits@D@std@@@std@@QBEPQ_Bool_struct@2@HXZ PROC ; std::basic_ostream<char,std::char_traits<char> >::sentry::operator int std::_Bool_struct::*, COMDAT
; _this$ = ecx

; 132  : 			{	// test if stream state okay

	push	ebp
	mov	ebp, esp
	sub	esp, 204				; 000000ccH
	push	ebx
	push	esi
	push	edi
	push	ecx
	lea	edi, DWORD PTR [ebp-204]
	mov	ecx, 51					; 00000033H
	mov	eax, -858993460				; ccccccccH
	rep stosd
	pop	ecx
	mov	DWORD PTR _this$[ebp], ecx

; 133  : 			return (_Ok ? _CONVERTIBLE_TO_TRUE : 0);

	mov	eax, DWORD PTR _this$[ebp]
	movzx	eax, BYTE PTR [eax+4]
	neg	eax
	sbb	eax, eax
	neg	eax
	sub	eax, 1

; 134  : 			}

	pop	edi
	pop	esi
	pop	ebx
	mov	esp, ebp
	pop	ebp
	ret	0
??Bsentry@?$basic_ostream@DU?$char_traits@D@std@@@std@@QBEPQ_Bool_struct@2@HXZ ENDP ; std::basic_ostream<char,std::char_traits<char> >::sentry::operator int std::_Bool_struct::*
; Function compile flags: /Odtp /RTCsu /ZI
; File c:\program files (x86)\microsoft visual studio 10.0\vc\include\xlocale
_TEXT	ENDS
;	COMDAT ?in@?$codecvt@DDH@std@@QBEHAAHPBD1AAPBDPAD3AAPAD@Z
_TEXT	SEGMENT
_this$ = -8						; size = 4
__State$ = 8						; size = 4
__First1$ = 12						; size = 4
__Last1$ = 16						; size = 4
__Mid1$ = 20						; size = 4
__First2$ = 24						; size = 4
__Last2$ = 28						; size = 4
__Mid2$ = 32						; size = 4
?in@?$codecvt@DDH@std@@QBEHAAHPBD1AAPBDPAD3AAPAD@Z PROC	; std::codecvt<char,char,int>::in, COMDAT
; _this$ = ecx

; 808  : 		{	// convert bytes [_First1, _Last1) to [_First2, _Last)

	push	ebp
	mov	ebp, esp
	sub	esp, 204				; 000000ccH
	push	ebx
	push	esi
	push	edi
	push	ecx
	lea	edi, DWORD PTR [ebp-204]
	mov	ecx, 51					; 00000033H
	mov	eax, -858993460				; ccccccccH
	rep stosd
	pop	ecx
	mov	DWORD PTR _this$[ebp], ecx

; 809  : 		return (do_in(_State,
; 810  : 			_First1, _Last1, _Mid1, _First2, _Last2, _Mid2));

	mov	esi, esp
	mov	eax, DWORD PTR __Mid2$[ebp]
	push	eax
	mov	ecx, DWORD PTR __Last2$[ebp]
	push	ecx
	mov	edx, DWORD PTR __First2$[ebp]
	push	edx
	mov	eax, DWORD PTR __Mid1$[ebp]
	push	eax
	mov	ecx, DWORD PTR __Last1$[ebp]
	push	ecx
	mov	edx, DWORD PTR __First1$[ebp]
	push	edx
	mov	eax, DWORD PTR __State$[ebp]
	push	eax
	mov	ecx, DWORD PTR _this$[ebp]
	mov	edx, DWORD PTR [ecx]
	mov	ecx, DWORD PTR _this$[ebp]
	mov	eax, DWORD PTR [edx+16]
	call	eax
	cmp	esi, esp
	call	__RTC_CheckEsp

; 811  : 		}

	pop	edi
	pop	esi
	pop	ebx
	add	esp, 204				; 000000ccH
	cmp	ebp, esp
	call	__RTC_CheckEsp
	mov	esp, ebp
	pop	ebp
	ret	28					; 0000001cH
?in@?$codecvt@DDH@std@@QBEHAAHPBD1AAPBDPAD3AAPAD@Z ENDP	; std::codecvt<char,char,int>::in
; Function compile flags: /Odtp /RTCsu /ZI
_TEXT	ENDS
;	COMDAT ?out@?$codecvt@DDH@std@@QBEHAAHPBD1AAPBDPAD3AAPAD@Z
_TEXT	SEGMENT
_this$ = -8						; size = 4
__State$ = 8						; size = 4
__First1$ = 12						; size = 4
__Last1$ = 16						; size = 4
__Mid1$ = 20						; size = 4
__First2$ = 24						; size = 4
__Last2$ = 28						; size = 4
__Mid2$ = 32						; size = 4
?out@?$codecvt@DDH@std@@QBEHAAHPBD1AAPBDPAD3AAPAD@Z PROC ; std::codecvt<char,char,int>::out, COMDAT
; _this$ = ecx

; 816  : 		{	// convert [_First1, _Last1) to bytes [_First2, _Last2)

	push	ebp
	mov	ebp, esp
	sub	esp, 204				; 000000ccH
	push	ebx
	push	esi
	push	edi
	push	ecx
	lea	edi, DWORD PTR [ebp-204]
	mov	ecx, 51					; 00000033H
	mov	eax, -858993460				; ccccccccH
	rep stosd
	pop	ecx
	mov	DWORD PTR _this$[ebp], ecx

; 817  : 		return (do_out(_State,
; 818  : 			_First1, _Last1, _Mid1, _First2, _Last2, _Mid2));

	mov	esi, esp
	mov	eax, DWORD PTR __Mid2$[ebp]
	push	eax
	mov	ecx, DWORD PTR __Last2$[ebp]
	push	ecx
	mov	edx, DWORD PTR __First2$[ebp]
	push	edx
	mov	eax, DWORD PTR __Mid1$[ebp]
	push	eax
	mov	ecx, DWORD PTR __Last1$[ebp]
	push	ecx
	mov	edx, DWORD PTR __First1$[ebp]
	push	edx
	mov	eax, DWORD PTR __State$[ebp]
	push	eax
	mov	ecx, DWORD PTR _this$[ebp]
	mov	edx, DWORD PTR [ecx]
	mov	ecx, DWORD PTR _this$[ebp]
	mov	eax, DWORD PTR [edx+20]
	call	eax
	cmp	esi, esp
	call	__RTC_CheckEsp

; 819  : 		}

	pop	edi
	pop	esi
	pop	ebx
	add	esp, 204				; 000000ccH
	cmp	ebp, esp
	call	__RTC_CheckEsp
	mov	esp, ebp
	pop	ebp
	ret	28					; 0000001cH
?out@?$codecvt@DDH@std@@QBEHAAHPBD1AAPBDPAD3AAPAD@Z ENDP ; std::codecvt<char,char,int>::out
; Function compile flags: /Odtp /RTCsu /ZI
; File c:\program files (x86)\microsoft visual studio 10.0\vc\include\xstring
_TEXT	ENDS
;	COMDAT ?append@?$basic_string@DU?$char_traits@D@std@@V?$allocator@D@2@@std@@QAEAAV12@ABV12@II@Z
_TEXT	SEGMENT
__Num$ = -20						; size = 4
_this$ = -8						; size = 4
__Right$ = 8						; size = 4
__Roff$ = 12						; size = 4
__Count$ = 16						; size = 4
?append@?$basic_string@DU?$char_traits@D@std@@V?$allocator@D@2@@std@@QAEAAV12@ABV12@II@Z PROC ; std::basic_string<char,std::char_traits<char>,std::allocator<char> >::append, COMDAT
; _this$ = ecx

; 799  : 		{	// append _Right [_Roff, _Roff + _Count)

	push	ebp
	mov	ebp, esp
	sub	esp, 216				; 000000d8H
	push	ebx
	push	esi
	push	edi
	push	ecx
	lea	edi, DWORD PTR [ebp-216]
	mov	ecx, 54					; 00000036H
	mov	eax, -858993460				; ccccccccH
	rep stosd
	pop	ecx
	mov	DWORD PTR _this$[ebp], ecx

; 800  : 		if (_Right.size() < _Roff)

	mov	ecx, DWORD PTR __Right$[ebp]
	call	?size@?$basic_string@DU?$char_traits@D@std@@V?$allocator@D@2@@std@@QBEIXZ ; std::basic_string<char,std::char_traits<char>,std::allocator<char> >::size
	cmp	eax, DWORD PTR __Roff$[ebp]
	jae	SHORT $LN4@append@3

; 801  : 			_Xran();	// _Roff off end

	mov	ecx, DWORD PTR _this$[ebp]
	call	?_Xran@?$basic_string@DU?$char_traits@D@std@@V?$allocator@D@2@@std@@QBEXXZ ; std::basic_string<char,std::char_traits<char>,std::allocator<char> >::_Xran
$LN4@append@3:

; 802  : 		size_type _Num = _Right.size() - _Roff;

	mov	ecx, DWORD PTR __Right$[ebp]
	call	?size@?$basic_string@DU?$char_traits@D@std@@V?$allocator@D@2@@std@@QBEIXZ ; std::basic_string<char,std::char_traits<char>,std::allocator<char> >::size
	sub	eax, DWORD PTR __Roff$[ebp]
	mov	DWORD PTR __Num$[ebp], eax

; 803  : 		if (_Num < _Count)

	mov	eax, DWORD PTR __Num$[ebp]
	cmp	eax, DWORD PTR __Count$[ebp]
	jae	SHORT $LN3@append@3

; 804  : 			_Count = _Num;	// trim _Count to size

	mov	eax, DWORD PTR __Num$[ebp]
	mov	DWORD PTR __Count$[ebp], eax
$LN3@append@3:

; 805  : 		if (npos - this->_Mysize <= _Count)

	mov	eax, DWORD PTR _this$[ebp]
	mov	ecx, DWORD PTR ?npos@?$basic_string@DU?$char_traits@D@std@@V?$allocator@D@2@@std@@2IB ; std::basic_string<char,std::char_traits<char>,std::allocator<char> >::npos
	sub	ecx, DWORD PTR [eax+20]
	cmp	ecx, DWORD PTR __Count$[ebp]
	ja	SHORT $LN2@append@3

; 806  : 			_Xlen();	// result too long

	mov	ecx, DWORD PTR _this$[ebp]
	call	?_Xlen@?$basic_string@DU?$char_traits@D@std@@V?$allocator@D@2@@std@@QBEXXZ ; std::basic_string<char,std::char_traits<char>,std::allocator<char> >::_Xlen
$LN2@append@3:

; 807  : 
; 808  : 		if (0 < _Count && _Grow(_Num = this->_Mysize + _Count))

	cmp	DWORD PTR __Count$[ebp], 0
	jbe	SHORT $LN1@append@3
	mov	eax, DWORD PTR _this$[ebp]
	mov	ecx, DWORD PTR [eax+20]
	add	ecx, DWORD PTR __Count$[ebp]
	mov	DWORD PTR __Num$[ebp], ecx
	push	0
	mov	edx, DWORD PTR __Num$[ebp]
	push	edx
	mov	ecx, DWORD PTR _this$[ebp]
	call	?_Grow@?$basic_string@DU?$char_traits@D@std@@V?$allocator@D@2@@std@@QAE_NI_N@Z ; std::basic_string<char,std::char_traits<char>,std::allocator<char> >::_Grow
	movzx	eax, al
	test	eax, eax
	je	SHORT $LN1@append@3

; 809  : 			{	// make room and append new stuff
; 810  : 			_Traits::copy(_Myptr() + this->_Mysize,
; 811  : 				_Right._Myptr() + _Roff, _Count);

	mov	eax, DWORD PTR __Count$[ebp]
	push	eax
	mov	ecx, DWORD PTR __Right$[ebp]
	call	?_Myptr@?$basic_string@DU?$char_traits@D@std@@V?$allocator@D@2@@std@@QBEPBDXZ ; std::basic_string<char,std::char_traits<char>,std::allocator<char> >::_Myptr
	add	eax, DWORD PTR __Roff$[ebp]
	push	eax
	mov	ecx, DWORD PTR _this$[ebp]
	call	?_Myptr@?$basic_string@DU?$char_traits@D@std@@V?$allocator@D@2@@std@@QAEPADXZ ; std::basic_string<char,std::char_traits<char>,std::allocator<char> >::_Myptr
	mov	ecx, DWORD PTR _this$[ebp]
	add	eax, DWORD PTR [ecx+20]
	push	eax
	call	?copy@?$char_traits@D@std@@SAPADPADPBDI@Z ; std::char_traits<char>::copy
	add	esp, 12					; 0000000cH

; 812  : 			_Eos(_Num);

	mov	eax, DWORD PTR __Num$[ebp]
	push	eax
	mov	ecx, DWORD PTR _this$[ebp]
	call	?_Eos@?$basic_string@DU?$char_traits@D@std@@V?$allocator@D@2@@std@@QAEXI@Z ; std::basic_string<char,std::char_traits<char>,std::allocator<char> >::_Eos
$LN1@append@3:

; 813  : 			}
; 814  : 		return (*this);

	mov	eax, DWORD PTR _this$[ebp]
$LN6@append@3:

; 815  : 		}

	pop	edi
	pop	esi
	pop	ebx
	add	esp, 216				; 000000d8H
	cmp	ebp, esp
	call	__RTC_CheckEsp
	mov	esp, ebp
	pop	ebp
	ret	12					; 0000000cH
?append@?$basic_string@DU?$char_traits@D@std@@V?$allocator@D@2@@std@@QAEAAV12@ABV12@II@Z ENDP ; std::basic_string<char,std::char_traits<char>,std::allocator<char> >::append
_TEXT	ENDS
PUBLIC	?assign@?$basic_string@DU?$char_traits@D@std@@V?$allocator@D@2@@std@@QAEAAV12@ABV12@II@Z ; std::basic_string<char,std::char_traits<char>,std::allocator<char> >::assign
; Function compile flags: /Odtp /RTCsu /ZI
;	COMDAT ?assign@?$basic_string@DU?$char_traits@D@std@@V?$allocator@D@2@@std@@QAEAAV12@PBDI@Z
_TEXT	SEGMENT
_this$ = -8						; size = 4
__Ptr$ = 8						; size = 4
__Count$ = 12						; size = 4
?assign@?$basic_string@DU?$char_traits@D@std@@V?$allocator@D@2@@std@@QAEAAV12@PBDI@Z PROC ; std::basic_string<char,std::char_traits<char>,std::allocator<char> >::assign, COMDAT
; _this$ = ecx

; 911  : 		{	// assign [_Ptr, _Ptr + _Count)

	push	ebp
	mov	ebp, esp
	sub	esp, 204				; 000000ccH
	push	ebx
	push	esi
	push	edi
	push	ecx
	lea	edi, DWORD PTR [ebp-204]
	mov	ecx, 51					; 00000033H
	mov	eax, -858993460				; ccccccccH
	rep stosd
	pop	ecx
	mov	DWORD PTR _this$[ebp], ecx

; 912  :  #if _ITERATOR_DEBUG_LEVEL == 2
; 913  : 		if (_Count != 0)

	cmp	DWORD PTR __Count$[ebp], 0
	je	SHORT $LN3@assign

; 914  : 			_DEBUG_POINTER(_Ptr);

	push	914					; 00000392H
	push	OFFSET ??_C@_1IO@GEGAMENF@?$AAc?$AA?3?$AA?2?$AAp?$AAr?$AAo?$AAg?$AAr?$AAa?$AAm?$AA?5?$AAf?$AAi?$AAl?$AAe?$AAs?$AA?5?$AA?$CI?$AAx?$AA8?$AA6?$AA?$CJ?$AA?2?$AAm?$AAi?$AAc?$AAr?$AAo?$AAs?$AAo?$AAf?$AAt@
	mov	eax, DWORD PTR __Ptr$[ebp]
	push	eax
	call	??$_Debug_pointer@D@std@@YAXPBDPB_WI@Z	; std::_Debug_pointer<char>
	add	esp, 12					; 0000000cH
$LN3@assign:

; 915  :  #endif /* _ITERATOR_DEBUG_LEVEL == 2 */
; 916  : 
; 917  : 		if (_Inside(_Ptr))

	mov	eax, DWORD PTR __Ptr$[ebp]
	push	eax
	mov	ecx, DWORD PTR _this$[ebp]
	call	?_Inside@?$basic_string@DU?$char_traits@D@std@@V?$allocator@D@2@@std@@QAE_NPBD@Z ; std::basic_string<char,std::char_traits<char>,std::allocator<char> >::_Inside
	movzx	ecx, al
	test	ecx, ecx
	je	SHORT $LN2@assign

; 918  : 			return (assign(*this, _Ptr - _Myptr(), _Count));	// substring

	mov	eax, DWORD PTR __Count$[ebp]
	push	eax
	mov	ecx, DWORD PTR _this$[ebp]
	call	?_Myptr@?$basic_string@DU?$char_traits@D@std@@V?$allocator@D@2@@std@@QAEPADXZ ; std::basic_string<char,std::char_traits<char>,std::allocator<char> >::_Myptr
	mov	ecx, DWORD PTR __Ptr$[ebp]
	sub	ecx, eax
	push	ecx
	mov	edx, DWORD PTR _this$[ebp]
	push	edx
	mov	ecx, DWORD PTR _this$[ebp]
	call	?assign@?$basic_string@DU?$char_traits@D@std@@V?$allocator@D@2@@std@@QAEAAV12@ABV12@II@Z ; std::basic_string<char,std::char_traits<char>,std::allocator<char> >::assign
	jmp	SHORT $LN4@assign
$LN2@assign:

; 919  : 
; 920  : 		if (_Grow(_Count))

	push	0
	mov	eax, DWORD PTR __Count$[ebp]
	push	eax
	mov	ecx, DWORD PTR _this$[ebp]
	call	?_Grow@?$basic_string@DU?$char_traits@D@std@@V?$allocator@D@2@@std@@QAE_NI_N@Z ; std::basic_string<char,std::char_traits<char>,std::allocator<char> >::_Grow
	movzx	ecx, al
	test	ecx, ecx
	je	SHORT $LN1@assign

; 921  : 			{	// make room and assign new stuff
; 922  : 			_Traits::copy(_Myptr(), _Ptr, _Count);

	mov	eax, DWORD PTR __Count$[ebp]
	push	eax
	mov	ecx, DWORD PTR __Ptr$[ebp]
	push	ecx
	mov	ecx, DWORD PTR _this$[ebp]
	call	?_Myptr@?$basic_string@DU?$char_traits@D@std@@V?$allocator@D@2@@std@@QAEPADXZ ; std::basic_string<char,std::char_traits<char>,std::allocator<char> >::_Myptr
	push	eax
	call	?copy@?$char_traits@D@std@@SAPADPADPBDI@Z ; std::char_traits<char>::copy
	add	esp, 12					; 0000000cH

; 923  : 			_Eos(_Count);

	mov	eax, DWORD PTR __Count$[ebp]
	push	eax
	mov	ecx, DWORD PTR _this$[ebp]
	call	?_Eos@?$basic_string@DU?$char_traits@D@std@@V?$allocator@D@2@@std@@QAEXI@Z ; std::basic_string<char,std::char_traits<char>,std::allocator<char> >::_Eos
$LN1@assign:

; 924  : 			}
; 925  : 		return (*this);

	mov	eax, DWORD PTR _this$[ebp]
$LN4@assign:

; 926  : 		}

	pop	edi
	pop	esi
	pop	ebx
	add	esp, 204				; 000000ccH
	cmp	ebp, esp
	call	__RTC_CheckEsp
	mov	esp, ebp
	pop	ebp
	ret	8
?assign@?$basic_string@DU?$char_traits@D@std@@V?$allocator@D@2@@std@@QAEAAV12@PBDI@Z ENDP ; std::basic_string<char,std::char_traits<char>,std::allocator<char> >::assign
; Function compile flags: /Odtp /RTCsu /ZI
_TEXT	ENDS
;	COMDAT ?assign@?$basic_string@DU?$char_traits@D@std@@V?$allocator@D@2@@std@@QAEAAV12@ID@Z
_TEXT	SEGMENT
_this$ = -8						; size = 4
__Count$ = 8						; size = 4
__Ch$ = 12						; size = 1
?assign@?$basic_string@DU?$char_traits@D@std@@V?$allocator@D@2@@std@@QAEAAV12@ID@Z PROC ; std::basic_string<char,std::char_traits<char>,std::allocator<char> >::assign, COMDAT
; _this$ = ecx

; 935  : 		{	// assign _Count * _Ch

	push	ebp
	mov	ebp, esp
	sub	esp, 204				; 000000ccH
	push	ebx
	push	esi
	push	edi
	push	ecx
	lea	edi, DWORD PTR [ebp-204]
	mov	ecx, 51					; 00000033H
	mov	eax, -858993460				; ccccccccH
	rep stosd
	pop	ecx
	mov	DWORD PTR _this$[ebp], ecx

; 936  : 		if (_Count == npos)

	mov	eax, DWORD PTR __Count$[ebp]
	cmp	eax, DWORD PTR ?npos@?$basic_string@DU?$char_traits@D@std@@V?$allocator@D@2@@std@@2IB ; std::basic_string<char,std::char_traits<char>,std::allocator<char> >::npos
	jne	SHORT $LN2@assign@2

; 937  : 			_Xlen();	// result too long

	mov	ecx, DWORD PTR _this$[ebp]
	call	?_Xlen@?$basic_string@DU?$char_traits@D@std@@V?$allocator@D@2@@std@@QBEXXZ ; std::basic_string<char,std::char_traits<char>,std::allocator<char> >::_Xlen
$LN2@assign@2:

; 938  : 
; 939  : 		if (_Grow(_Count))

	push	0
	mov	eax, DWORD PTR __Count$[ebp]
	push	eax
	mov	ecx, DWORD PTR _this$[ebp]
	call	?_Grow@?$basic_string@DU?$char_traits@D@std@@V?$allocator@D@2@@std@@QAE_NI_N@Z ; std::basic_string<char,std::char_traits<char>,std::allocator<char> >::_Grow
	movzx	ecx, al
	test	ecx, ecx
	je	SHORT $LN1@assign@2

; 940  : 			{	// make room and assign new stuff
; 941  : 			_Chassign(0, _Count, _Ch);

	movzx	eax, BYTE PTR __Ch$[ebp]
	push	eax
	mov	ecx, DWORD PTR __Count$[ebp]
	push	ecx
	push	0
	mov	ecx, DWORD PTR _this$[ebp]
	call	?_Chassign@?$basic_string@DU?$char_traits@D@std@@V?$allocator@D@2@@std@@QAEXIID@Z ; std::basic_string<char,std::char_traits<char>,std::allocator<char> >::_Chassign

; 942  : 			_Eos(_Count);

	mov	eax, DWORD PTR __Count$[ebp]
	push	eax
	mov	ecx, DWORD PTR _this$[ebp]
	call	?_Eos@?$basic_string@DU?$char_traits@D@std@@V?$allocator@D@2@@std@@QAEXI@Z ; std::basic_string<char,std::char_traits<char>,std::allocator<char> >::_Eos
$LN1@assign@2:

; 943  : 			}
; 944  : 		return (*this);

	mov	eax, DWORD PTR _this$[ebp]
$LN4@assign@2:

; 945  : 		}

	pop	edi
	pop	esi
	pop	ebx
	add	esp, 204				; 000000ccH
	cmp	ebp, esp
	call	__RTC_CheckEsp
	mov	esp, ebp
	pop	ebp
	ret	8
?assign@?$basic_string@DU?$char_traits@D@std@@V?$allocator@D@2@@std@@QAEAAV12@ID@Z ENDP ; std::basic_string<char,std::char_traits<char>,std::allocator<char> >::assign
_TEXT	ENDS
PUBLIC	?max_size@?$allocator@D@std@@QBEIXZ		; std::allocator<char>::max_size
; Function compile flags: /Odtp /RTCsu /ZI
;	COMDAT ?max_size@?$basic_string@DU?$char_traits@D@std@@V?$allocator@D@2@@std@@QBEIXZ
_TEXT	SEGMENT
tv73 = -220						; size = 4
__Num$ = -20						; size = 4
_this$ = -8						; size = 4
?max_size@?$basic_string@DU?$char_traits@D@std@@V?$allocator@D@2@@std@@QBEIXZ PROC ; std::basic_string<char,std::char_traits<char>,std::allocator<char> >::max_size, COMDAT
; _this$ = ecx

; 1516 : 		{	// return maximum possible length of sequence

	push	ebp
	mov	ebp, esp
	sub	esp, 220				; 000000dcH
	push	ebx
	push	esi
	push	edi
	push	ecx
	lea	edi, DWORD PTR [ebp-220]
	mov	ecx, 55					; 00000037H
	mov	eax, -858993460				; ccccccccH
	rep stosd
	pop	ecx
	mov	DWORD PTR _this$[ebp], ecx

; 1517 : 		size_type _Num = this->_Alval.max_size();

	mov	ecx, DWORD PTR _this$[ebp]
	add	ecx, 28					; 0000001cH
	call	?max_size@?$allocator@D@std@@QBEIXZ	; std::allocator<char>::max_size
	mov	DWORD PTR __Num$[ebp], eax

; 1518 : 		return (_Num <= 1 ? 1 : _Num - 1);

	cmp	DWORD PTR __Num$[ebp], 1
	ja	SHORT $LN3@max_size
	mov	DWORD PTR tv73[ebp], 1
	jmp	SHORT $LN4@max_size
$LN3@max_size:
	mov	eax, DWORD PTR __Num$[ebp]
	sub	eax, 1
	mov	DWORD PTR tv73[ebp], eax
$LN4@max_size:
	mov	eax, DWORD PTR tv73[ebp]

; 1519 : 		}

	pop	edi
	pop	esi
	pop	ebx
	add	esp, 220				; 000000dcH
	cmp	ebp, esp
	call	__RTC_CheckEsp
	mov	esp, ebp
	pop	ebp
	ret	0
?max_size@?$basic_string@DU?$char_traits@D@std@@V?$allocator@D@2@@std@@QBEIXZ ENDP ; std::basic_string<char,std::char_traits<char>,std::allocator<char> >::max_size
_TEXT	ENDS
PUBLIC	?assign@?$char_traits@D@std@@SAPADPADID@Z	; std::char_traits<char>::assign
; Function compile flags: /Odtp /RTCsu /ZI
;	COMDAT ?_Chassign@?$basic_string@DU?$char_traits@D@std@@V?$allocator@D@2@@std@@QAEXIID@Z
_TEXT	SEGMENT
_this$ = -8						; size = 4
__Off$ = 8						; size = 4
__Count$ = 12						; size = 4
__Ch$ = 16						; size = 1
?_Chassign@?$basic_string@DU?$char_traits@D@std@@V?$allocator@D@2@@std@@QAEXIID@Z PROC ; std::basic_string<char,std::char_traits<char>,std::allocator<char> >::_Chassign, COMDAT
; _this$ = ecx

; 1911 : 		{	// assign _Count copies of _Ch beginning at _Off

	push	ebp
	mov	ebp, esp
	sub	esp, 204				; 000000ccH
	push	ebx
	push	esi
	push	edi
	push	ecx
	lea	edi, DWORD PTR [ebp-204]
	mov	ecx, 51					; 00000033H
	mov	eax, -858993460				; ccccccccH
	rep stosd
	pop	ecx
	mov	DWORD PTR _this$[ebp], ecx

; 1912 : 		if (_Count == 1)

	cmp	DWORD PTR __Count$[ebp], 1
	jne	SHORT $LN2@Chassign

; 1913 : 			_Traits::assign(*(_Myptr() + _Off), _Ch);

	lea	eax, DWORD PTR __Ch$[ebp]
	push	eax
	mov	ecx, DWORD PTR _this$[ebp]
	call	?_Myptr@?$basic_string@DU?$char_traits@D@std@@V?$allocator@D@2@@std@@QAEPADXZ ; std::basic_string<char,std::char_traits<char>,std::allocator<char> >::_Myptr
	add	eax, DWORD PTR __Off$[ebp]
	push	eax
	call	?assign@?$char_traits@D@std@@SAXAADABD@Z ; std::char_traits<char>::assign
	add	esp, 8

; 1914 : 		else

	jmp	SHORT $LN3@Chassign
$LN2@Chassign:

; 1915 : 			_Traits::assign(_Myptr() + _Off, _Count, _Ch);

	movzx	eax, BYTE PTR __Ch$[ebp]
	push	eax
	mov	ecx, DWORD PTR __Count$[ebp]
	push	ecx
	mov	ecx, DWORD PTR _this$[ebp]
	call	?_Myptr@?$basic_string@DU?$char_traits@D@std@@V?$allocator@D@2@@std@@QAEPADXZ ; std::basic_string<char,std::char_traits<char>,std::allocator<char> >::_Myptr
	add	eax, DWORD PTR __Off$[ebp]
	push	eax
	call	?assign@?$char_traits@D@std@@SAPADPADID@Z ; std::char_traits<char>::assign
	add	esp, 12					; 0000000cH
$LN3@Chassign:

; 1916 : 		}

	pop	edi
	pop	esi
	pop	ebx
	add	esp, 204				; 000000ccH
	cmp	ebp, esp
	call	__RTC_CheckEsp
	mov	esp, ebp
	pop	ebp
	ret	12					; 0000000cH
?_Chassign@?$basic_string@DU?$char_traits@D@std@@V?$allocator@D@2@@std@@QAEXIID@Z ENDP ; std::basic_string<char,std::char_traits<char>,std::allocator<char> >::_Chassign
; Function compile flags: /Odtp /RTCsu /ZI
; File c:\program files (x86)\microsoft visual studio 10.0\vc\include\iosfwd
_TEXT	ENDS
;	COMDAT ?assign@?$char_traits@D@std@@SAPADPADID@Z
_TEXT	SEGMENT
__First$ = 8						; size = 4
__Count$ = 12						; size = 4
__Ch$ = 16						; size = 1
?assign@?$char_traits@D@std@@SAPADPADID@Z PROC		; std::char_traits<char>::assign, COMDAT

; 521  : 		{	// assign _Count * _Ch to [_First, ...)

	push	ebp
	mov	ebp, esp
	sub	esp, 192				; 000000c0H
	push	ebx
	push	esi
	push	edi
	lea	edi, DWORD PTR [ebp-192]
	mov	ecx, 48					; 00000030H
	mov	eax, -858993460				; ccccccccH
	rep stosd

; 522  : 		return ((_Elem *)_CSTD memset(_First, _Ch, _Count));

	mov	eax, DWORD PTR __Count$[ebp]
	push	eax
	movsx	ecx, BYTE PTR __Ch$[ebp]
	push	ecx
	mov	edx, DWORD PTR __First$[ebp]
	push	edx
	call	_memset
	add	esp, 12					; 0000000cH

; 523  : 		}

	pop	edi
	pop	esi
	pop	ebx
	add	esp, 192				; 000000c0H
	cmp	ebp, esp
	call	__RTC_CheckEsp
	mov	esp, ebp
	pop	ebp
	ret	0
?assign@?$char_traits@D@std@@SAPADPADID@Z ENDP		; std::char_traits<char>::assign
_TEXT	ENDS
PUBLIC	?allocate@?$allocator@D@std@@QAEPADI@Z		; std::allocator<char>::allocate
;	COMDAT xdata$x
; File c:\program files (x86)\microsoft visual studio 10.0\vc\include\xstring
xdata$x	SEGMENT
__catchsym$?_Copy@?$basic_string@DU?$char_traits@D@std@@V?$allocator@D@2@@std@@QAEXII@Z$5 DD 040H
	DD	00H
	DD	00H
	DD	FLAT:__catch$?_Copy@?$basic_string@DU?$char_traits@D@std@@V?$allocator@D@2@@std@@QAEXII@Z$0
__catchsym$?_Copy@?$basic_string@DU?$char_traits@D@std@@V?$allocator@D@2@@std@@QAEXII@Z$4 DD 040H
	DD	00H
	DD	00H
	DD	FLAT:__catch$?_Copy@?$basic_string@DU?$char_traits@D@std@@V?$allocator@D@2@@std@@QAEXII@Z$1
__unwindtable$?_Copy@?$basic_string@DU?$char_traits@D@std@@V?$allocator@D@2@@std@@QAEXII@Z DD 0ffffffffH
	DD	00H
	DD	0ffffffffH
	DD	00H
	DD	01H
	DD	00H
	DD	01H
	DD	00H
__ehfuncinfo$?_Copy@?$basic_string@DU?$char_traits@D@std@@V?$allocator@D@2@@std@@QAEXII@Z DD 019930522H
	DD	04H
	DD	FLAT:__unwindtable$?_Copy@?$basic_string@DU?$char_traits@D@std@@V?$allocator@D@2@@std@@QAEXII@Z
	DD	02H
	DD	FLAT:__tryblocktable$?_Copy@?$basic_string@DU?$char_traits@D@std@@V?$allocator@D@2@@std@@QAEXII@Z
	DD	2 DUP(00H)
	DD	00H
	DD	01H
__tryblocktable$?_Copy@?$basic_string@DU?$char_traits@D@std@@V?$allocator@D@2@@std@@QAEXII@Z DD 02H
	DD	02H
	DD	03H
	DD	01H
	DD	FLAT:__catchsym$?_Copy@?$basic_string@DU?$char_traits@D@std@@V?$allocator@D@2@@std@@QAEXII@Z$4
	DD	00H
	DD	00H
	DD	03H
	DD	01H
	DD	FLAT:__catchsym$?_Copy@?$basic_string@DU?$char_traits@D@std@@V?$allocator@D@2@@std@@QAEXII@Z$5
; Function compile flags: /Odtp /RTCsu /ZI
xdata$x	ENDS
;	COMDAT ?_Copy@?$basic_string@DU?$char_traits@D@std@@V?$allocator@D@2@@std@@QAEXII@Z
_TEXT	SEGMENT
tv185 = -248						; size = 4
tv184 = -248						; size = 4
__Ptr$ = -48						; size = 4
__Newres$ = -36						; size = 4
_this$ = -24						; size = 4
__$EHRec$ = -16						; size = 16
__Newsize$ = 8						; size = 4
__Oldlen$ = 12						; size = 4
?_Copy@?$basic_string@DU?$char_traits@D@std@@V?$allocator@D@2@@std@@QAEXII@Z PROC ; std::basic_string<char,std::char_traits<char>,std::allocator<char> >::_Copy, COMDAT
; _this$ = ecx

; 1919 : 		{	// copy _Oldlen elements to newly allocated buffer

	push	ebp
	mov	ebp, esp
	push	-1
	push	__ehhandler$?_Copy@?$basic_string@DU?$char_traits@D@std@@V?$allocator@D@2@@std@@QAEXII@Z
	mov	eax, DWORD PTR fs:0
	push	eax
	push	ecx
	sub	esp, 232				; 000000e8H
	push	ebx
	push	esi
	push	edi
	push	ecx
	lea	edi, DWORD PTR [ebp-248]
	mov	ecx, 58					; 0000003aH
	mov	eax, -858993460				; ccccccccH
	rep stosd
	pop	ecx
	mov	eax, DWORD PTR ___security_cookie
	xor	eax, ebp
	push	eax
	lea	eax, DWORD PTR __$EHRec$[ebp+4]
	mov	DWORD PTR fs:0, eax
	mov	DWORD PTR __$EHRec$[ebp], esp
	mov	DWORD PTR _this$[ebp], ecx

; 1920 : 		size_type _Newres = _Newsize | this->_ALLOC_MASK;

	mov	eax, DWORD PTR __Newsize$[ebp]
	or	eax, 15					; 0000000fH
	mov	DWORD PTR __Newres$[ebp], eax

; 1921 : 		if (max_size() < _Newres)

	mov	ecx, DWORD PTR _this$[ebp]
	call	?max_size@?$basic_string@DU?$char_traits@D@std@@V?$allocator@D@2@@std@@QBEIXZ ; std::basic_string<char,std::char_traits<char>,std::allocator<char> >::max_size
	cmp	eax, DWORD PTR __Newres$[ebp]
	jae	SHORT $LN9@Copy

; 1922 : 			_Newres = _Newsize;	// undo roundup if too big

	mov	eax, DWORD PTR __Newsize$[ebp]
	mov	DWORD PTR __Newres$[ebp], eax
	jmp	SHORT $LN8@Copy
$LN9@Copy:

; 1923 : 		else if (this->_Myres / 2 <= _Newres / 3)

	mov	eax, DWORD PTR __Newres$[ebp]
	xor	edx, edx
	mov	ecx, 3
	div	ecx
	mov	edx, DWORD PTR _this$[ebp]
	mov	ecx, DWORD PTR [edx+24]
	shr	ecx, 1
	cmp	ecx, eax
	ja	SHORT $LN7@Copy
	jmp	SHORT $LN8@Copy
$LN7@Copy:

; 1924 : 			;
; 1925 : 		else if (this->_Myres <= max_size() - this->_Myres / 2)

	mov	eax, DWORD PTR _this$[ebp]
	mov	esi, DWORD PTR [eax+24]
	shr	esi, 1
	mov	ecx, DWORD PTR _this$[ebp]
	call	?max_size@?$basic_string@DU?$char_traits@D@std@@V?$allocator@D@2@@std@@QBEIXZ ; std::basic_string<char,std::char_traits<char>,std::allocator<char> >::max_size
	sub	eax, esi
	mov	ecx, DWORD PTR _this$[ebp]
	cmp	DWORD PTR [ecx+24], eax
	ja	SHORT $LN5@Copy

; 1926 : 			_Newres = this->_Myres
; 1927 : 				+ this->_Myres / 2;	// grow exponentially if possible

	mov	eax, DWORD PTR _this$[ebp]
	mov	ecx, DWORD PTR [eax+24]
	shr	ecx, 1
	mov	edx, DWORD PTR _this$[ebp]
	add	ecx, DWORD PTR [edx+24]
	mov	DWORD PTR __Newres$[ebp], ecx

; 1928 : 		else

	jmp	SHORT $LN8@Copy
$LN5@Copy:

; 1929 : 			_Newres = max_size();	// settle for max_size()

	mov	ecx, DWORD PTR _this$[ebp]
	call	?max_size@?$basic_string@DU?$char_traits@D@std@@V?$allocator@D@2@@std@@QBEIXZ ; std::basic_string<char,std::char_traits<char>,std::allocator<char> >::max_size
	mov	DWORD PTR __Newres$[ebp], eax
$LN8@Copy:

; 1930 : 
; 1931 : 		_Elem *_Ptr;
; 1932 : 		_TRY_BEGIN

	mov	DWORD PTR __$EHRec$[ebp+12], 0

; 1933 : 			_Ptr = this->_Alval.allocate(_Newres + 1);

	mov	eax, DWORD PTR __Newres$[ebp]
	add	eax, 1
	push	eax
	mov	ecx, DWORD PTR _this$[ebp]
	add	ecx, 28					; 0000001cH
	call	?allocate@?$allocator@D@std@@QAEPADI@Z	; std::allocator<char>::allocate
	mov	DWORD PTR tv184[ebp], eax
	mov	ecx, DWORD PTR tv184[ebp]
	mov	DWORD PTR __Ptr$[ebp], ecx
	jmp	SHORT $LN12@Copy
__catch$?_Copy@?$basic_string@DU?$char_traits@D@std@@V?$allocator@D@2@@std@@QAEXII@Z$0:

; 1934 : 		_CATCH_ALL

	mov	DWORD PTR __$EHRec$[ebp], esp

; 1935 : 			_Newres = _Newsize;	// allocation failed, undo roundup and retry

	mov	eax, DWORD PTR __Newsize$[ebp]
	mov	DWORD PTR __Newres$[ebp], eax

; 1936 : 			_TRY_BEGIN

	mov	BYTE PTR __$EHRec$[ebp+12], 2

; 1937 : 				_Ptr = this->_Alval.allocate(_Newres + 1);

	mov	eax, DWORD PTR __Newres$[ebp]
	add	eax, 1
	push	eax
	mov	ecx, DWORD PTR _this$[ebp]
	add	ecx, 28					; 0000001cH
	call	?allocate@?$allocator@D@std@@QAEPADI@Z	; std::allocator<char>::allocate
	mov	DWORD PTR tv185[ebp], eax
	mov	ecx, DWORD PTR tv185[ebp]
	mov	DWORD PTR __Ptr$[ebp], ecx
	jmp	SHORT $LN14@Copy
__catch$?_Copy@?$basic_string@DU?$char_traits@D@std@@V?$allocator@D@2@@std@@QAEXII@Z$1:

; 1938 : 			_CATCH_ALL
; 1939 : 			_Tidy(true);	// failed again, discard storage and reraise

	push	0
	push	1
	mov	ecx, DWORD PTR _this$[ebp]
	call	?_Tidy@?$basic_string@DU?$char_traits@D@std@@V?$allocator@D@2@@std@@QAEX_NI@Z ; std::basic_string<char,std::char_traits<char>,std::allocator<char> >::_Tidy

; 1940 : 			_RERAISE;

	push	0
	push	0
	call	__CxxThrowException@8

; 1941 : 			_CATCH_END

	mov	DWORD PTR __$EHRec$[ebp+12], 1
	mov	eax, __tryend$?_Copy@?$basic_string@DU?$char_traits@D@std@@V?$allocator@D@2@@std@@QAEXII@Z$2
	ret	0
$LN14@Copy:
	mov	DWORD PTR __$EHRec$[ebp+12], 1
__tryend$?_Copy@?$basic_string@DU?$char_traits@D@std@@V?$allocator@D@2@@std@@QAEXII@Z$2:

; 1942 : 		_CATCH_END

	mov	DWORD PTR __$EHRec$[ebp+12], 1
	mov	eax, __tryend$?_Copy@?$basic_string@DU?$char_traits@D@std@@V?$allocator@D@2@@std@@QAEXII@Z$3
	ret	0
$LN12@Copy:
	mov	DWORD PTR __$EHRec$[ebp+12], -1
__tryend$?_Copy@?$basic_string@DU?$char_traits@D@std@@V?$allocator@D@2@@std@@QAEXII@Z$3:

; 1943 : 
; 1944 : 		if (0 < _Oldlen)

	cmp	DWORD PTR __Oldlen$[ebp], 0
	jbe	SHORT $LN1@Copy

; 1945 : 			_Traits::copy(_Ptr, _Myptr(), _Oldlen);	// copy existing elements

	mov	eax, DWORD PTR __Oldlen$[ebp]
	push	eax
	mov	ecx, DWORD PTR _this$[ebp]
	call	?_Myptr@?$basic_string@DU?$char_traits@D@std@@V?$allocator@D@2@@std@@QAEPADXZ ; std::basic_string<char,std::char_traits<char>,std::allocator<char> >::_Myptr
	push	eax
	mov	ecx, DWORD PTR __Ptr$[ebp]
	push	ecx
	call	?copy@?$char_traits@D@std@@SAPADPADPBDI@Z ; std::char_traits<char>::copy
	add	esp, 12					; 0000000cH
$LN1@Copy:

; 1946 : 		_Tidy(true);

	push	0
	push	1
	mov	ecx, DWORD PTR _this$[ebp]
	call	?_Tidy@?$basic_string@DU?$char_traits@D@std@@V?$allocator@D@2@@std@@QAEX_NI@Z ; std::basic_string<char,std::char_traits<char>,std::allocator<char> >::_Tidy

; 1947 : 		this->_Bx._Ptr = _Ptr;

	mov	eax, DWORD PTR _this$[ebp]
	mov	ecx, DWORD PTR __Ptr$[ebp]
	mov	DWORD PTR [eax+4], ecx

; 1948 : 		this->_Myres = _Newres;

	mov	eax, DWORD PTR _this$[ebp]
	mov	ecx, DWORD PTR __Newres$[ebp]
	mov	DWORD PTR [eax+24], ecx

; 1949 : 		_Eos(_Oldlen);

	mov	eax, DWORD PTR __Oldlen$[ebp]
	push	eax
	mov	ecx, DWORD PTR _this$[ebp]
	call	?_Eos@?$basic_string@DU?$char_traits@D@std@@V?$allocator@D@2@@std@@QAEXI@Z ; std::basic_string<char,std::char_traits<char>,std::allocator<char> >::_Eos
$LN11@Copy:

; 1950 : 		}

	mov	ecx, DWORD PTR __$EHRec$[ebp+4]
	mov	DWORD PTR fs:0, ecx
	pop	ecx
	pop	edi
	pop	esi
	pop	ebx
	add	esp, 248				; 000000f8H
	cmp	ebp, esp
	call	__RTC_CheckEsp
	mov	esp, ebp
	pop	ebp
	ret	8
_TEXT	ENDS
;	COMDAT text$x
text$x	SEGMENT
__ehhandler$?_Copy@?$basic_string@DU?$char_traits@D@std@@V?$allocator@D@2@@std@@QAEXII@Z:
	mov	edx, DWORD PTR [esp+8]
	lea	eax, DWORD PTR [edx+12]
	mov	ecx, DWORD PTR [edx-252]
	xor	ecx, eax
	call	@__security_check_cookie@4
	mov	eax, OFFSET __ehfuncinfo$?_Copy@?$basic_string@DU?$char_traits@D@std@@V?$allocator@D@2@@std@@QAEXII@Z
	jmp	___CxxFrameHandler3
text$x	ENDS
?_Copy@?$basic_string@DU?$char_traits@D@std@@V?$allocator@D@2@@std@@QAEXII@Z ENDP ; std::basic_string<char,std::char_traits<char>,std::allocator<char> >::_Copy
; Function compile flags: /Odtp /RTCsu /ZI
;	COMDAT ?_Inside@?$basic_string@DU?$char_traits@D@std@@V?$allocator@D@2@@std@@QAE_NPBD@Z
_TEXT	SEGMENT
_this$ = -8						; size = 4
__Ptr$ = 8						; size = 4
?_Inside@?$basic_string@DU?$char_traits@D@std@@V?$allocator@D@2@@std@@QAE_NPBD@Z PROC ; std::basic_string<char,std::char_traits<char>,std::allocator<char> >::_Inside, COMDAT
; _this$ = ecx

; 1973 : 		{	// test if _Ptr points inside string

	push	ebp
	mov	ebp, esp
	sub	esp, 204				; 000000ccH
	push	ebx
	push	esi
	push	edi
	push	ecx
	lea	edi, DWORD PTR [ebp-204]
	mov	ecx, 51					; 00000033H
	mov	eax, -858993460				; ccccccccH
	rep stosd
	pop	ecx
	mov	DWORD PTR _this$[ebp], ecx

; 1974 : 		if (_Ptr == 0 || _Ptr < _Myptr() || _Myptr() + this->_Mysize <= _Ptr)

	cmp	DWORD PTR __Ptr$[ebp], 0
	je	SHORT $LN2@Inside
	mov	ecx, DWORD PTR _this$[ebp]
	call	?_Myptr@?$basic_string@DU?$char_traits@D@std@@V?$allocator@D@2@@std@@QAEPADXZ ; std::basic_string<char,std::char_traits<char>,std::allocator<char> >::_Myptr
	cmp	DWORD PTR __Ptr$[ebp], eax
	jb	SHORT $LN2@Inside
	mov	ecx, DWORD PTR _this$[ebp]
	call	?_Myptr@?$basic_string@DU?$char_traits@D@std@@V?$allocator@D@2@@std@@QAEPADXZ ; std::basic_string<char,std::char_traits<char>,std::allocator<char> >::_Myptr
	mov	ecx, DWORD PTR _this$[ebp]
	add	eax, DWORD PTR [ecx+20]
	cmp	eax, DWORD PTR __Ptr$[ebp]
	ja	SHORT $LN3@Inside
$LN2@Inside:

; 1975 : 			return (false);	// don't ask

	xor	al, al
	jmp	SHORT $LN4@Inside

; 1976 : 		else

	jmp	SHORT $LN4@Inside
$LN3@Inside:

; 1977 : 			return (true);

	mov	al, 1
$LN4@Inside:

; 1978 : 		}

	pop	edi
	pop	esi
	pop	ebx
	add	esp, 204				; 000000ccH
	cmp	ebp, esp
	call	__RTC_CheckEsp
	mov	esp, ebp
	pop	ebp
	ret	4
?_Inside@?$basic_string@DU?$char_traits@D@std@@V?$allocator@D@2@@std@@QAE_NPBD@Z ENDP ; std::basic_string<char,std::char_traits<char>,std::allocator<char> >::_Inside
; Function compile flags: /Odtp /RTCsu /ZI
_TEXT	ENDS
;	COMDAT ?_Myptr@?$basic_string@DU?$char_traits@D@std@@V?$allocator@D@2@@std@@QAEPADXZ
_TEXT	SEGMENT
tv82 = -208						; size = 4
_this$ = -8						; size = 4
?_Myptr@?$basic_string@DU?$char_traits@D@std@@V?$allocator@D@2@@std@@QAEPADXZ PROC ; std::basic_string<char,std::char_traits<char>,std::allocator<char> >::_Myptr, COMDAT
; _this$ = ecx

; 2003 : 		{	// determine current pointer to buffer for mutable string

	push	ebp
	mov	ebp, esp
	sub	esp, 208				; 000000d0H
	push	ebx
	push	esi
	push	edi
	push	ecx
	lea	edi, DWORD PTR [ebp-208]
	mov	ecx, 52					; 00000034H
	mov	eax, -858993460				; ccccccccH
	rep stosd
	pop	ecx
	mov	DWORD PTR _this$[ebp], ecx

; 2004 : 		return (this->_BUF_SIZE <= this->_Myres ? this->_Bx._Ptr
; 2005 : 			: this->_Bx._Buf);

	mov	eax, DWORD PTR _this$[ebp]
	cmp	DWORD PTR [eax+24], 16			; 00000010H
	jb	SHORT $LN3@Myptr@2
	mov	ecx, DWORD PTR _this$[ebp]
	mov	edx, DWORD PTR [ecx+4]
	mov	DWORD PTR tv82[ebp], edx
	jmp	SHORT $LN4@Myptr@2
$LN3@Myptr@2:
	mov	eax, DWORD PTR _this$[ebp]
	add	eax, 4
	mov	DWORD PTR tv82[ebp], eax
$LN4@Myptr@2:
	mov	eax, DWORD PTR tv82[ebp]

; 2006 : 		}

	pop	edi
	pop	esi
	pop	ebx
	mov	esp, ebp
	pop	ebp
	ret	0
?_Myptr@?$basic_string@DU?$char_traits@D@std@@V?$allocator@D@2@@std@@QAEPADXZ ENDP ; std::basic_string<char,std::char_traits<char>,std::allocator<char> >::_Myptr
_TEXT	ENDS
PUBLIC	??_C@_0BA@JFNIOLAK@string?5too?5long?$AA@	; `string'
EXTRN	?_Xlength_error@std@@YAXPBD@Z:PROC		; std::_Xlength_error
;	COMDAT ??_C@_0BA@JFNIOLAK@string?5too?5long?$AA@
CONST	SEGMENT
??_C@_0BA@JFNIOLAK@string?5too?5long?$AA@ DB 'string too long', 00H ; `string'
; Function compile flags: /Odtp /RTCsu /ZI
CONST	ENDS
;	COMDAT ?_Xlen@?$basic_string@DU?$char_traits@D@std@@V?$allocator@D@2@@std@@QBEXXZ
_TEXT	SEGMENT
_this$ = -8						; size = 4
?_Xlen@?$basic_string@DU?$char_traits@D@std@@V?$allocator@D@2@@std@@QBEXXZ PROC ; std::basic_string<char,std::char_traits<char>,std::allocator<char> >::_Xlen, COMDAT
; _this$ = ecx

; 2015 : 		{	// report a length_error

	push	ebp
	mov	ebp, esp
	sub	esp, 204				; 000000ccH
	push	ebx
	push	esi
	push	edi
	push	ecx
	lea	edi, DWORD PTR [ebp-204]
	mov	ecx, 51					; 00000033H
	mov	eax, -858993460				; ccccccccH
	rep stosd
	pop	ecx
	mov	DWORD PTR _this$[ebp], ecx

; 2016 : 		_Xlength_error("string too long");

	push	OFFSET ??_C@_0BA@JFNIOLAK@string?5too?5long?$AA@
	call	?_Xlength_error@std@@YAXPBD@Z		; std::_Xlength_error
$LN2@Xlen:

; 2017 : 		}

	pop	edi
	pop	esi
	pop	ebx
	add	esp, 204				; 000000ccH
	cmp	ebp, esp
	call	__RTC_CheckEsp
	mov	esp, ebp
	pop	ebp
	ret	0
?_Xlen@?$basic_string@DU?$char_traits@D@std@@V?$allocator@D@2@@std@@QBEXXZ ENDP ; std::basic_string<char,std::char_traits<char>,std::allocator<char> >::_Xlen
_TEXT	ENDS
PUBLIC	??_C@_0BI@CFPLBAOH@invalid?5string?5position?$AA@ ; `string'
EXTRN	?_Xout_of_range@std@@YAXPBD@Z:PROC		; std::_Xout_of_range
;	COMDAT ??_C@_0BI@CFPLBAOH@invalid?5string?5position?$AA@
CONST	SEGMENT
??_C@_0BI@CFPLBAOH@invalid?5string?5position?$AA@ DB 'invalid string posi'
	DB	'tion', 00H					; `string'
; Function compile flags: /Odtp /RTCsu /ZI
CONST	ENDS
;	COMDAT ?_Xran@?$basic_string@DU?$char_traits@D@std@@V?$allocator@D@2@@std@@QBEXXZ
_TEXT	SEGMENT
_this$ = -8						; size = 4
?_Xran@?$basic_string@DU?$char_traits@D@std@@V?$allocator@D@2@@std@@QBEXXZ PROC ; std::basic_string<char,std::char_traits<char>,std::allocator<char> >::_Xran, COMDAT
; _this$ = ecx

; 2020 : 		{	// report an out_of_range error

	push	ebp
	mov	ebp, esp
	sub	esp, 204				; 000000ccH
	push	ebx
	push	esi
	push	edi
	push	ecx
	lea	edi, DWORD PTR [ebp-204]
	mov	ecx, 51					; 00000033H
	mov	eax, -858993460				; ccccccccH
	rep stosd
	pop	ecx
	mov	DWORD PTR _this$[ebp], ecx

; 2021 : 		_Xout_of_range("invalid string position");

	push	OFFSET ??_C@_0BI@CFPLBAOH@invalid?5string?5position?$AA@
	call	?_Xout_of_range@std@@YAXPBD@Z		; std::_Xout_of_range
$LN2@Xran:

; 2022 : 		}

	pop	edi
	pop	esi
	pop	ebx
	add	esp, 204				; 000000ccH
	cmp	ebp, esp
	call	__RTC_CheckEsp
	mov	esp, ebp
	pop	ebp
	ret	0
?_Xran@?$basic_string@DU?$char_traits@D@std@@V?$allocator@D@2@@std@@QBEXXZ ENDP ; std::basic_string<char,std::char_traits<char>,std::allocator<char> >::_Xran
; Function compile flags: /Odtp /RTCsu /ZI
; File c:\program files (x86)\microsoft visual studio 10.0\vc\include\xmemory
_TEXT	ENDS
;	COMDAT ?deallocate@?$allocator@D@std@@QAEXPADI@Z
_TEXT	SEGMENT
_this$ = -8						; size = 4
__Ptr$ = 8						; size = 4
___formal$ = 12						; size = 4
?deallocate@?$allocator@D@std@@QAEXPADI@Z PROC		; std::allocator<char>::deallocate, COMDAT
; _this$ = ecx

; 181  : 		{	// deallocate object at _Ptr, ignore size

	push	ebp
	mov	ebp, esp
	sub	esp, 204				; 000000ccH
	push	ebx
	push	esi
	push	edi
	push	ecx
	lea	edi, DWORD PTR [ebp-204]
	mov	ecx, 51					; 00000033H
	mov	eax, -858993460				; ccccccccH
	rep stosd
	pop	ecx
	mov	DWORD PTR _this$[ebp], ecx

; 182  : 		::operator delete(_Ptr);

	mov	eax, DWORD PTR __Ptr$[ebp]
	push	eax
	call	??3@YAXPAX@Z				; operator delete
	add	esp, 4

; 183  : 		}

	pop	edi
	pop	esi
	pop	ebx
	add	esp, 204				; 000000ccH
	cmp	ebp, esp
	call	__RTC_CheckEsp
	mov	esp, ebp
	pop	ebp
	ret	8
?deallocate@?$allocator@D@std@@QAEXPADI@Z ENDP		; std::allocator<char>::deallocate
_TEXT	ENDS
PUBLIC	??_8?$basic_ostream@DU?$char_traits@D@std@@@std@@7B@ ; std::basic_ostream<char,std::char_traits<char> >::`vbtable'
EXTRN	?_Addstd@ios_base@std@@SAXPAV12@@Z:PROC		; std::ios_base::_Addstd
;	COMDAT ??_8?$basic_ostream@DU?$char_traits@D@std@@@std@@7B@
; File c:\program files (x86)\microsoft visual studio 10.0\vc\include\ostream
CONST	SEGMENT
??_8?$basic_ostream@DU?$char_traits@D@std@@@std@@7B@ DD 00H ; std::basic_ostream<char,std::char_traits<char> >::`vbtable'
	DD	08H
CONST	ENDS
;	COMDAT xdata$x
xdata$x	SEGMENT
__unwindtable$??0?$basic_ostream@DU?$char_traits@D@std@@@std@@QAE@W4_Uninitialized@1@_N@Z DD 0ffffffffH
	DD	FLAT:__unwindfunclet$??0?$basic_ostream@DU?$char_traits@D@std@@@std@@QAE@W4_Uninitialized@1@_N@Z$0
__ehfuncinfo$??0?$basic_ostream@DU?$char_traits@D@std@@@std@@QAE@W4_Uninitialized@1@_N@Z DD 019930522H
	DD	01H
	DD	FLAT:__unwindtable$??0?$basic_ostream@DU?$char_traits@D@std@@@std@@QAE@W4_Uninitialized@1@_N@Z
	DD	2 DUP(00H)
	DD	2 DUP(00H)
	DD	00H
	DD	01H
; Function compile flags: /Odtp /RTCsu /ZI
xdata$x	ENDS
;	COMDAT ??0?$basic_ostream@DU?$char_traits@D@std@@@std@@QAE@W4_Uninitialized@1@_N@Z
_TEXT	SEGMENT
tv130 = -232						; size = 4
$T37483 = -224						; size = 4
_this$ = -20						; size = 4
__$EHRec$ = -12						; size = 12
___formal$ = 8						; size = 4
__Addit$ = 12						; size = 1
_$initVBases$ = 16					; size = 4
??0?$basic_ostream@DU?$char_traits@D@std@@@std@@QAE@W4_Uninitialized@1@_N@Z PROC ; std::basic_ostream<char,std::char_traits<char> >::basic_ostream<char,std::char_traits<char> >, COMDAT
; _this$ = ecx

; 54   : 	__CLR_OR_THIS_CALL basic_ostream(_Uninitialized, bool _Addit = true)

	push	ebp
	mov	ebp, esp
	push	-1
	push	__ehhandler$??0?$basic_ostream@DU?$char_traits@D@std@@@std@@QAE@W4_Uninitialized@1@_N@Z
	mov	eax, DWORD PTR fs:0
	push	eax
	sub	esp, 220				; 000000dcH
	push	ebx
	push	esi
	push	edi
	push	ecx
	lea	edi, DWORD PTR [ebp-232]
	mov	ecx, 55					; 00000037H
	mov	eax, -858993460				; ccccccccH
	rep stosd
	pop	ecx
	mov	eax, DWORD PTR ___security_cookie
	xor	eax, ebp
	push	eax
	lea	eax, DWORD PTR __$EHRec$[ebp]
	mov	DWORD PTR fs:0, eax
	mov	DWORD PTR _this$[ebp], ecx
	mov	DWORD PTR $T37483[ebp], 0
	cmp	DWORD PTR _$initVBases$[ebp], 0
	je	SHORT $LN2@basic_ostr
	mov	eax, DWORD PTR _this$[ebp]
	mov	DWORD PTR [eax], OFFSET ??_8?$basic_ostream@DU?$char_traits@D@std@@@std@@7B@
	mov	ecx, DWORD PTR _this$[ebp]
	add	ecx, 8
	call	??0?$basic_ios@DU?$char_traits@D@std@@@std@@IAE@XZ ; std::basic_ios<char,std::char_traits<char> >::basic_ios<char,std::char_traits<char> >
	mov	DWORD PTR __$EHRec$[ebp+8], 0
	mov	eax, DWORD PTR $T37483[ebp]
	or	eax, 1
	mov	DWORD PTR $T37483[ebp], eax
$LN2@basic_ostr:
	mov	eax, DWORD PTR _this$[ebp]
	mov	ecx, DWORD PTR [eax]
	mov	edx, DWORD PTR [ecx+4]
	mov	eax, DWORD PTR _this$[ebp]
	mov	DWORD PTR [eax+edx], OFFSET ??_7?$basic_ostream@DU?$char_traits@D@std@@@std@@6B@

; 55   : 		{	// construct uninitialized
; 56   : 		if (_Addit)

	movzx	eax, BYTE PTR __Addit$[ebp]
	test	eax, eax
	je	SHORT $LN3@basic_ostr

; 57   : 			ios_base::_Addstd(this);	// suppress for basic_iostream

	cmp	DWORD PTR _this$[ebp], 0
	jne	SHORT $LN5@basic_ostr
	mov	DWORD PTR tv130[ebp], 0
	jmp	SHORT $LN6@basic_ostr
$LN5@basic_ostr:
	mov	eax, DWORD PTR _this$[ebp]
	mov	ecx, DWORD PTR [eax]
	mov	edx, DWORD PTR _this$[ebp]
	add	edx, DWORD PTR [ecx+4]
	mov	DWORD PTR tv130[ebp], edx
$LN6@basic_ostr:
	mov	eax, DWORD PTR tv130[ebp]
	push	eax
	call	?_Addstd@ios_base@std@@SAXPAV12@@Z	; std::ios_base::_Addstd
	add	esp, 4
$LN3@basic_ostr:

; 58   : 		}

	mov	DWORD PTR __$EHRec$[ebp+8], -1
	mov	eax, DWORD PTR _this$[ebp]
	mov	ecx, DWORD PTR __$EHRec$[ebp]
	mov	DWORD PTR fs:0, ecx
	pop	ecx
	pop	edi
	pop	esi
	pop	ebx
	add	esp, 232				; 000000e8H
	cmp	ebp, esp
	call	__RTC_CheckEsp
	mov	esp, ebp
	pop	ebp
	ret	12					; 0000000cH
_TEXT	ENDS
;	COMDAT text$x
text$x	SEGMENT
__unwindfunclet$??0?$basic_ostream@DU?$char_traits@D@std@@@std@@QAE@W4_Uninitialized@1@_N@Z$0:
	mov	eax, DWORD PTR $T37483[ebp]
	and	eax, 1
	je	$LN8@basic_ostr
	and	DWORD PTR $T37483[ebp], -2		; fffffffeH
	mov	ecx, DWORD PTR _this$[ebp]
	add	ecx, 8
	jmp	??1?$basic_ios@DU?$char_traits@D@std@@@std@@UAE@XZ ; std::basic_ios<char,std::char_traits<char> >::~basic_ios<char,std::char_traits<char> >
$LN8@basic_ostr:
	ret	0
__ehhandler$??0?$basic_ostream@DU?$char_traits@D@std@@@std@@QAE@W4_Uninitialized@1@_N@Z:
	mov	edx, DWORD PTR [esp+8]
	lea	eax, DWORD PTR [edx+12]
	mov	ecx, DWORD PTR [edx-236]
	xor	ecx, eax
	call	@__security_check_cookie@4
	mov	eax, OFFSET __ehfuncinfo$??0?$basic_ostream@DU?$char_traits@D@std@@@std@@QAE@W4_Uninitialized@1@_N@Z
	jmp	___CxxFrameHandler3
text$x	ENDS
??0?$basic_ostream@DU?$char_traits@D@std@@@std@@QAE@W4_Uninitialized@1@_N@Z ENDP ; std::basic_ostream<char,std::char_traits<char> >::basic_ostream<char,std::char_traits<char> >
;	COMDAT xdata$x
xdata$x	SEGMENT
__catchsym$?_Osfx@?$basic_ostream@DU?$char_traits@D@std@@@std@@QAEXXZ$2 DD 040H
	DD	00H
	DD	00H
	DD	FLAT:__catch$?_Osfx@?$basic_ostream@DU?$char_traits@D@std@@@std@@QAEXXZ$0
__unwindtable$?_Osfx@?$basic_ostream@DU?$char_traits@D@std@@@std@@QAEXXZ DD 0ffffffffH
	DD	00H
	DD	0ffffffffH
	DD	00H
__tryblocktable$?_Osfx@?$basic_ostream@DU?$char_traits@D@std@@@std@@QAEXXZ DD 00H
	DD	00H
	DD	01H
	DD	01H
	DD	FLAT:__catchsym$?_Osfx@?$basic_ostream@DU?$char_traits@D@std@@@std@@QAEXXZ$2
__ehfuncinfo$?_Osfx@?$basic_ostream@DU?$char_traits@D@std@@@std@@QAEXXZ DD 019930522H
	DD	02H
	DD	FLAT:__unwindtable$?_Osfx@?$basic_ostream@DU?$char_traits@D@std@@@std@@QAEXXZ
	DD	01H
	DD	FLAT:__tryblocktable$?_Osfx@?$basic_ostream@DU?$char_traits@D@std@@@std@@QAEXXZ
	DD	2 DUP(00H)
	DD	00H
	DD	01H
; Function compile flags: /Odtp /RTCsu /ZI
xdata$x	ENDS
;	COMDAT ?_Osfx@?$basic_ostream@DU?$char_traits@D@std@@@std@@QAEXXZ
_TEXT	SEGMENT
tv79 = -224						; size = 4
_this$ = -24						; size = 4
__$EHRec$ = -16						; size = 16
?_Osfx@?$basic_ostream@DU?$char_traits@D@std@@@std@@QAEXXZ PROC ; std::basic_ostream<char,std::char_traits<char> >::_Osfx, COMDAT
; _this$ = ecx

; 156  : 		{	// perform any wrapup

	push	ebp
	mov	ebp, esp
	push	-1
	push	__ehhandler$?_Osfx@?$basic_ostream@DU?$char_traits@D@std@@@std@@QAEXXZ
	mov	eax, DWORD PTR fs:0
	push	eax
	push	ecx
	sub	esp, 208				; 000000d0H
	push	ebx
	push	esi
	push	edi
	push	ecx
	lea	edi, DWORD PTR [ebp-224]
	mov	ecx, 52					; 00000034H
	mov	eax, -858993460				; ccccccccH
	rep stosd
	pop	ecx
	mov	eax, DWORD PTR ___security_cookie
	xor	eax, ebp
	push	eax
	lea	eax, DWORD PTR __$EHRec$[ebp+4]
	mov	DWORD PTR fs:0, eax
	mov	DWORD PTR __$EHRec$[ebp], esp
	mov	DWORD PTR _this$[ebp], ecx

; 157  : 		_TRY_BEGIN

	mov	DWORD PTR __$EHRec$[ebp+12], 0

; 158  : 		if (ios_base::flags() & ios_base::unitbuf)

	mov	eax, DWORD PTR _this$[ebp]
	mov	ecx, DWORD PTR [eax]
	mov	edx, DWORD PTR _this$[ebp]
	add	edx, DWORD PTR [ecx+4]
	mov	ecx, edx
	call	?flags@ios_base@std@@QBEHXZ		; std::ios_base::flags
	mov	DWORD PTR tv79[ebp], eax
	mov	eax, DWORD PTR tv79[ebp]
	and	eax, 2
	je	SHORT $LN1@Osfx

; 159  : 			flush();	// flush stream as needed

	mov	ecx, DWORD PTR _this$[ebp]
	call	?flush@?$basic_ostream@DU?$char_traits@D@std@@@std@@QAEAAV12@XZ ; std::basic_ostream<char,std::char_traits<char> >::flush
$LN1@Osfx:
	jmp	SHORT $LN5@Osfx
__catch$?_Osfx@?$basic_ostream@DU?$char_traits@D@std@@@std@@QAEXXZ$0:

; 160  : 		_CATCH_ALL
; 161  : 		_CATCH_END

	mov	DWORD PTR __$EHRec$[ebp+12], -1
	mov	eax, $LN3@Osfx
	ret	0
$LN5@Osfx:
	mov	DWORD PTR __$EHRec$[ebp+12], -1
$LN3@Osfx:

; 162  : 		}

	mov	ecx, DWORD PTR __$EHRec$[ebp+4]
	mov	DWORD PTR fs:0, ecx
	pop	ecx
	pop	edi
	pop	esi
	pop	ebx
	add	esp, 224				; 000000e0H
	cmp	ebp, esp
	call	__RTC_CheckEsp
	mov	esp, ebp
	pop	ebp
	ret	0
_TEXT	ENDS
;	COMDAT text$x
text$x	SEGMENT
__ehhandler$?_Osfx@?$basic_ostream@DU?$char_traits@D@std@@@std@@QAEXXZ:
	mov	edx, DWORD PTR [esp+8]
	lea	eax, DWORD PTR [edx+12]
	mov	ecx, DWORD PTR [edx-228]
	xor	ecx, eax
	call	@__security_check_cookie@4
	mov	eax, OFFSET __ehfuncinfo$?_Osfx@?$basic_ostream@DU?$char_traits@D@std@@@std@@QAEXXZ
	jmp	___CxxFrameHandler3
text$x	ENDS
?_Osfx@?$basic_ostream@DU?$char_traits@D@std@@@std@@QAEXXZ ENDP ; std::basic_ostream<char,std::char_traits<char> >::_Osfx
; Function compile flags: /Odtp /RTCsu /ZI
; File c:\program files (x86)\microsoft visual studio 10.0\vc\include\ios
;	COMDAT ?tie@?$basic_ios@DU?$char_traits@D@std@@@std@@QBEPAV?$basic_ostream@DU?$char_traits@D@std@@@2@XZ
_TEXT	SEGMENT
_this$ = -8						; size = 4
?tie@?$basic_ios@DU?$char_traits@D@std@@@std@@QBEPAV?$basic_ostream@DU?$char_traits@D@std@@@2@XZ PROC ; std::basic_ios<char,std::char_traits<char> >::tie, COMDAT
; _this$ = ecx

; 73   : 		{	// return tie pointer

	push	ebp
	mov	ebp, esp
	sub	esp, 204				; 000000ccH
	push	ebx
	push	esi
	push	edi
	push	ecx
	lea	edi, DWORD PTR [ebp-204]
	mov	ecx, 51					; 00000033H
	mov	eax, -858993460				; ccccccccH
	rep stosd
	pop	ecx
	mov	DWORD PTR _this$[ebp], ecx

; 74   : 		return (_Tiestr);

	mov	eax, DWORD PTR _this$[ebp]
	mov	eax, DWORD PTR [eax+60]

; 75   : 		}

	pop	edi
	pop	esi
	pop	ebx
	mov	esp, ebp
	pop	ebp
	ret	0
?tie@?$basic_ios@DU?$char_traits@D@std@@@std@@QBEPAV?$basic_ostream@DU?$char_traits@D@std@@@2@XZ ENDP ; std::basic_ios<char,std::char_traits<char> >::tie
_TEXT	ENDS
PUBLIC	?init@?$basic_ios@DU?$char_traits@D@std@@@std@@IAEXPAV?$basic_streambuf@DU?$char_traits@D@std@@@2@_N@Z ; std::basic_ios<char,std::char_traits<char> >::init
PUBLIC	??_8?$basic_istream@DU?$char_traits@D@std@@@std@@7B@ ; std::basic_istream<char,std::char_traits<char> >::`vbtable'
;	COMDAT ??_8?$basic_istream@DU?$char_traits@D@std@@@std@@7B@
; File c:\program files (x86)\microsoft visual studio 10.0\vc\include\istream
CONST	SEGMENT
??_8?$basic_istream@DU?$char_traits@D@std@@@std@@7B@ DD 00H ; std::basic_istream<char,std::char_traits<char> >::`vbtable'
	DD	010H
CONST	ENDS
;	COMDAT xdata$x
xdata$x	SEGMENT
__unwindtable$??0?$basic_istream@DU?$char_traits@D@std@@@std@@QAE@PAV?$basic_streambuf@DU?$char_traits@D@std@@@1@_N@Z DD 0ffffffffH
	DD	FLAT:__unwindfunclet$??0?$basic_istream@DU?$char_traits@D@std@@@std@@QAE@PAV?$basic_streambuf@DU?$char_traits@D@std@@@1@_N@Z$0
__ehfuncinfo$??0?$basic_istream@DU?$char_traits@D@std@@@std@@QAE@PAV?$basic_streambuf@DU?$char_traits@D@std@@@1@_N@Z DD 019930522H
	DD	01H
	DD	FLAT:__unwindtable$??0?$basic_istream@DU?$char_traits@D@std@@@std@@QAE@PAV?$basic_streambuf@DU?$char_traits@D@std@@@1@_N@Z
	DD	2 DUP(00H)
	DD	2 DUP(00H)
	DD	00H
	DD	01H
; Function compile flags: /Odtp /RTCsu /ZI
xdata$x	ENDS
;	COMDAT ??0?$basic_istream@DU?$char_traits@D@std@@@std@@QAE@PAV?$basic_streambuf@DU?$char_traits@D@std@@@1@_N@Z
_TEXT	SEGMENT
$T37511 = -224						; size = 4
_this$ = -20						; size = 4
__$EHRec$ = -12						; size = 12
__Strbuf$ = 8						; size = 4
__Isstd$ = 12						; size = 1
_$initVBases$ = 16					; size = 4
??0?$basic_istream@DU?$char_traits@D@std@@@std@@QAE@PAV?$basic_streambuf@DU?$char_traits@D@std@@@1@_N@Z PROC ; std::basic_istream<char,std::char_traits<char> >::basic_istream<char,std::char_traits<char> >, COMDAT
; _this$ = ecx

; 33   : 		{	// construct from stream buffer pointer

	push	ebp
	mov	ebp, esp
	push	-1
	push	__ehhandler$??0?$basic_istream@DU?$char_traits@D@std@@@std@@QAE@PAV?$basic_streambuf@DU?$char_traits@D@std@@@1@_N@Z
	mov	eax, DWORD PTR fs:0
	push	eax
	sub	esp, 216				; 000000d8H
	push	ebx
	push	esi
	push	edi
	push	ecx
	lea	edi, DWORD PTR [ebp-228]
	mov	ecx, 54					; 00000036H
	mov	eax, -858993460				; ccccccccH
	rep stosd
	pop	ecx
	mov	eax, DWORD PTR ___security_cookie
	xor	eax, ebp
	push	eax
	lea	eax, DWORD PTR __$EHRec$[ebp]
	mov	DWORD PTR fs:0, eax
	mov	DWORD PTR _this$[ebp], ecx
	mov	DWORD PTR $T37511[ebp], 0
	cmp	DWORD PTR _$initVBases$[ebp], 0
	je	SHORT $LN1@basic_istr
	mov	eax, DWORD PTR _this$[ebp]
	mov	DWORD PTR [eax], OFFSET ??_8?$basic_istream@DU?$char_traits@D@std@@@std@@7B@
	mov	ecx, DWORD PTR _this$[ebp]
	add	ecx, 16					; 00000010H
	call	??0?$basic_ios@DU?$char_traits@D@std@@@std@@IAE@XZ ; std::basic_ios<char,std::char_traits<char> >::basic_ios<char,std::char_traits<char> >
	mov	DWORD PTR __$EHRec$[ebp+8], 0
	mov	eax, DWORD PTR $T37511[ebp]
	or	eax, 1
	mov	DWORD PTR $T37511[ebp], eax
$LN1@basic_istr:
	mov	eax, DWORD PTR _this$[ebp]
	mov	ecx, DWORD PTR [eax]
	mov	edx, DWORD PTR [ecx+4]
	mov	eax, DWORD PTR _this$[ebp]
	mov	DWORD PTR [eax+edx], OFFSET ??_7?$basic_istream@DU?$char_traits@D@std@@@std@@6B@
	mov	eax, DWORD PTR _this$[ebp]
	mov	DWORD PTR [eax+8], 0
	mov	DWORD PTR [eax+12], 0

; 34   : 		_Myios::init(_Strbuf, _Isstd);

	movzx	eax, BYTE PTR __Isstd$[ebp]
	push	eax
	mov	ecx, DWORD PTR __Strbuf$[ebp]
	push	ecx
	mov	edx, DWORD PTR _this$[ebp]
	mov	eax, DWORD PTR [edx]
	mov	ecx, DWORD PTR _this$[ebp]
	add	ecx, DWORD PTR [eax+4]
	call	?init@?$basic_ios@DU?$char_traits@D@std@@@std@@IAEXPAV?$basic_streambuf@DU?$char_traits@D@std@@@2@_N@Z ; std::basic_ios<char,std::char_traits<char> >::init

; 35   : 		}

	mov	DWORD PTR __$EHRec$[ebp+8], -1
	mov	eax, DWORD PTR _this$[ebp]
	mov	ecx, DWORD PTR __$EHRec$[ebp]
	mov	DWORD PTR fs:0, ecx
	pop	ecx
	pop	edi
	pop	esi
	pop	ebx
	add	esp, 228				; 000000e4H
	cmp	ebp, esp
	call	__RTC_CheckEsp
	mov	esp, ebp
	pop	ebp
	ret	12					; 0000000cH
_TEXT	ENDS
;	COMDAT text$x
text$x	SEGMENT
__unwindfunclet$??0?$basic_istream@DU?$char_traits@D@std@@@std@@QAE@PAV?$basic_streambuf@DU?$char_traits@D@std@@@1@_N@Z$0:
	mov	eax, DWORD PTR $T37511[ebp]
	and	eax, 1
	je	$LN5@basic_istr
	and	DWORD PTR $T37511[ebp], -2		; fffffffeH
	mov	ecx, DWORD PTR _this$[ebp]
	add	ecx, 16					; 00000010H
	jmp	??1?$basic_ios@DU?$char_traits@D@std@@@std@@UAE@XZ ; std::basic_ios<char,std::char_traits<char> >::~basic_ios<char,std::char_traits<char> >
$LN5@basic_istr:
	ret	0
__ehhandler$??0?$basic_istream@DU?$char_traits@D@std@@@std@@QAE@PAV?$basic_streambuf@DU?$char_traits@D@std@@@1@_N@Z:
	mov	edx, DWORD PTR [esp+8]
	lea	eax, DWORD PTR [edx+12]
	mov	ecx, DWORD PTR [edx-232]
	xor	ecx, eax
	call	@__security_check_cookie@4
	mov	eax, OFFSET __ehfuncinfo$??0?$basic_istream@DU?$char_traits@D@std@@@std@@QAE@PAV?$basic_streambuf@DU?$char_traits@D@std@@@1@_N@Z
	jmp	___CxxFrameHandler3
text$x	ENDS
??0?$basic_istream@DU?$char_traits@D@std@@@std@@QAE@PAV?$basic_streambuf@DU?$char_traits@D@std@@@1@_N@Z ENDP ; std::basic_istream<char,std::char_traits<char> >::basic_istream<char,std::char_traits<char> >
PUBLIC	??0locale@std@@QAE@XZ				; std::locale::locale
PUBLIC	??_C@_0EJ@DKHAGIAK@c?3?2program?5files?5?$CIx86?$CJ?2microsoft@ ; `string'
EXTRN	??2@YAPAXIABU_DebugHeapTag_t@std@@PADH@Z:PROC	; operator new
EXTRN	?_DebugHeapTag_func@std@@YAABU_DebugHeapTag_t@1@XZ:PROC ; std::_DebugHeapTag_func
EXTRN	??0_Mutex@std@@QAE@XZ:PROC			; std::_Mutex::_Mutex
;	COMDAT ??_C@_0EJ@DKHAGIAK@c?3?2program?5files?5?$CIx86?$CJ?2microsoft@
; File c:\program files (x86)\microsoft visual studio 10.0\vc\include\streambuf
CONST	SEGMENT
??_C@_0EJ@DKHAGIAK@c?3?2program?5files?5?$CIx86?$CJ?2microsoft@ DB 'c:\pr'
	DB	'ogram files (x86)\microsoft visual studio 10.0\vc\include\str'
	DB	'eambuf', 00H				; `string'
CONST	ENDS
;	COMDAT xdata$x
xdata$x	SEGMENT
__unwindtable$??0?$basic_streambuf@DU?$char_traits@D@std@@@std@@IAE@XZ DD 0ffffffffH
	DD	FLAT:__unwindfunclet$??0?$basic_streambuf@DU?$char_traits@D@std@@@std@@IAE@XZ$0
__ehfuncinfo$??0?$basic_streambuf@DU?$char_traits@D@std@@@std@@IAE@XZ DD 019930522H
	DD	01H
	DD	FLAT:__unwindtable$??0?$basic_streambuf@DU?$char_traits@D@std@@@std@@IAE@XZ
	DD	2 DUP(00H)
	DD	2 DUP(00H)
	DD	00H
	DD	01H
; Function compile flags: /Odtp /RTCsu /ZI
xdata$x	ENDS
;	COMDAT ??0?$basic_streambuf@DU?$char_traits@D@std@@@std@@IAE@XZ
_TEXT	SEGMENT
tv79 = -232						; size = 4
$T37522 = -224						; size = 4
_this$ = -20						; size = 4
__$EHRec$ = -12						; size = 12
??0?$basic_streambuf@DU?$char_traits@D@std@@@std@@IAE@XZ PROC ; std::basic_streambuf<char,std::char_traits<char> >::basic_streambuf<char,std::char_traits<char> >, COMDAT
; _this$ = ecx

; 25   : 		{	// construct with no buffers

	push	ebp
	mov	ebp, esp
	push	-1
	push	__ehhandler$??0?$basic_streambuf@DU?$char_traits@D@std@@@std@@IAE@XZ
	mov	eax, DWORD PTR fs:0
	push	eax
	sub	esp, 220				; 000000dcH
	push	ebx
	push	esi
	push	edi
	push	ecx
	lea	edi, DWORD PTR [ebp-232]
	mov	ecx, 55					; 00000037H
	mov	eax, -858993460				; ccccccccH
	rep stosd
	pop	ecx
	mov	eax, DWORD PTR ___security_cookie
	xor	eax, ebp
	push	eax
	lea	eax, DWORD PTR __$EHRec$[ebp]
	mov	DWORD PTR fs:0, eax
	mov	DWORD PTR _this$[ebp], ecx
	mov	eax, DWORD PTR _this$[ebp]
	mov	DWORD PTR [eax], OFFSET ??_7?$basic_streambuf@DU?$char_traits@D@std@@@std@@6B@
	mov	ecx, DWORD PTR _this$[ebp]
	add	ecx, 4
	call	??0_Mutex@std@@QAE@XZ			; std::_Mutex::_Mutex
	mov	DWORD PTR __$EHRec$[ebp+8], 0
	push	24					; 00000018H
	push	OFFSET ??_C@_0EJ@DKHAGIAK@c?3?2program?5files?5?$CIx86?$CJ?2microsoft@
	call	?_DebugHeapTag_func@std@@YAABU_DebugHeapTag_t@1@XZ ; std::_DebugHeapTag_func
	push	eax
	push	4
	call	??2@YAPAXIABU_DebugHeapTag_t@std@@PADH@Z ; operator new
	add	esp, 16					; 00000010H
	mov	DWORD PTR $T37522[ebp], eax
	cmp	DWORD PTR $T37522[ebp], 0
	je	SHORT $LN3@basic_stre
	mov	ecx, DWORD PTR $T37522[ebp]
	call	??0locale@std@@QAE@XZ			; std::locale::locale
	mov	DWORD PTR tv79[ebp], eax
	jmp	SHORT $LN4@basic_stre
$LN3@basic_stre:
	mov	DWORD PTR tv79[ebp], 0
$LN4@basic_stre:
	mov	eax, DWORD PTR _this$[ebp]
	mov	ecx, DWORD PTR tv79[ebp]
	mov	DWORD PTR [eax+56], ecx

; 26   : 		_Init();

	mov	ecx, DWORD PTR _this$[ebp]
	call	?_Init@?$basic_streambuf@DU?$char_traits@D@std@@@std@@IAEXXZ ; std::basic_streambuf<char,std::char_traits<char> >::_Init

; 27   : 		}

	mov	DWORD PTR __$EHRec$[ebp+8], -1
	mov	eax, DWORD PTR _this$[ebp]
	mov	ecx, DWORD PTR __$EHRec$[ebp]
	mov	DWORD PTR fs:0, ecx
	pop	ecx
	pop	edi
	pop	esi
	pop	ebx
	add	esp, 232				; 000000e8H
	cmp	ebp, esp
	call	__RTC_CheckEsp
	mov	esp, ebp
	pop	ebp
	ret	0
_TEXT	ENDS
;	COMDAT text$x
text$x	SEGMENT
__unwindfunclet$??0?$basic_streambuf@DU?$char_traits@D@std@@@std@@IAE@XZ$0:
	mov	ecx, DWORD PTR _this$[ebp]
	add	ecx, 4
	jmp	??1_Mutex@std@@QAE@XZ			; std::_Mutex::~_Mutex
__ehhandler$??0?$basic_streambuf@DU?$char_traits@D@std@@@std@@IAE@XZ:
	mov	edx, DWORD PTR [esp+8]
	lea	eax, DWORD PTR [edx+12]
	mov	ecx, DWORD PTR [edx-236]
	xor	ecx, eax
	call	@__security_check_cookie@4
	mov	eax, OFFSET __ehfuncinfo$??0?$basic_streambuf@DU?$char_traits@D@std@@@std@@IAE@XZ
	jmp	___CxxFrameHandler3
text$x	ENDS
??0?$basic_streambuf@DU?$char_traits@D@std@@@std@@IAE@XZ ENDP ; std::basic_streambuf<char,std::char_traits<char> >::basic_streambuf<char,std::char_traits<char> >
EXTRN	?_Getgloballocale@locale@std@@CAPAV_Locimp@12@XZ:PROC ; std::locale::_Getgloballocale
EXTRN	?_Init@locale@std@@CAPAV_Locimp@12@XZ:PROC	; std::locale::_Init
; Function compile flags: /Odtp /RTCsu /ZI
; File c:\program files (x86)\microsoft visual studio 10.0\vc\include\xlocale
;	COMDAT ??0locale@std@@QAE@XZ
_TEXT	SEGMENT
_this$ = -8						; size = 4
??0locale@std@@QAE@XZ PROC				; std::locale::locale, COMDAT
; _this$ = ecx

; 315  : 		{	// construct from current locale

	push	ebp
	mov	ebp, esp
	sub	esp, 204				; 000000ccH
	push	ebx
	push	esi
	push	edi
	push	ecx
	lea	edi, DWORD PTR [ebp-204]
	mov	ecx, 51					; 00000033H
	mov	eax, -858993460				; ccccccccH
	rep stosd
	pop	ecx
	mov	DWORD PTR _this$[ebp], ecx
	call	?_Init@locale@std@@CAPAV_Locimp@12@XZ	; std::locale::_Init
	mov	ecx, DWORD PTR _this$[ebp]
	mov	DWORD PTR [ecx], eax

; 316  : 		_Getgloballocale()->_Incref();

	call	?_Getgloballocale@locale@std@@CAPAV_Locimp@12@XZ ; std::locale::_Getgloballocale
	mov	ecx, eax
	call	?_Incref@facet@locale@std@@QAEXXZ	; std::locale::facet::_Incref

; 317  : 		}

	mov	eax, DWORD PTR _this$[ebp]
	pop	edi
	pop	esi
	pop	ebx
	add	esp, 204				; 000000ccH
	cmp	ebp, esp
	call	__RTC_CheckEsp
	mov	esp, ebp
	pop	ebp
	ret	0
??0locale@std@@QAE@XZ ENDP				; std::locale::locale
; Function compile flags: /Odtp /RTCsu /ZI
; File c:\program files (x86)\microsoft visual studio 10.0\vc\include\streambuf
_TEXT	ENDS
;	COMDAT ?getloc@?$basic_streambuf@DU?$char_traits@D@std@@@std@@QBE?AVlocale@2@XZ
_TEXT	SEGMENT
$T37537 = -212						; size = 4
_this$ = -8						; size = 4
___$ReturnUdt$ = 8					; size = 4
?getloc@?$basic_streambuf@DU?$char_traits@D@std@@@std@@QBE?AVlocale@2@XZ PROC ; std::basic_streambuf<char,std::char_traits<char> >::getloc, COMDAT
; _this$ = ecx

; 129  : 		{	// get locale

	push	ebp
	mov	ebp, esp
	sub	esp, 216				; 000000d8H
	push	ebx
	push	esi
	push	edi
	push	ecx
	lea	edi, DWORD PTR [ebp-216]
	mov	ecx, 54					; 00000036H
	mov	eax, -858993460				; ccccccccH
	rep stosd
	pop	ecx
	mov	DWORD PTR _this$[ebp], ecx
	mov	DWORD PTR $T37537[ebp], 0

; 130  : 		return (*_Plocale);

	mov	eax, DWORD PTR _this$[ebp]
	mov	ecx, DWORD PTR [eax+56]
	push	ecx
	mov	ecx, DWORD PTR ___$ReturnUdt$[ebp]
	call	??0locale@std@@QAE@ABV01@@Z		; std::locale::locale
	mov	edx, DWORD PTR $T37537[ebp]
	or	edx, 1
	mov	DWORD PTR $T37537[ebp], edx
	mov	eax, DWORD PTR ___$ReturnUdt$[ebp]

; 131  : 		}

	pop	edi
	pop	esi
	pop	ebx
	add	esp, 216				; 000000d8H
	cmp	ebp, esp
	call	__RTC_CheckEsp
	mov	esp, ebp
	pop	ebp
	ret	4
?getloc@?$basic_streambuf@DU?$char_traits@D@std@@@std@@QBE?AVlocale@2@XZ ENDP ; std::basic_streambuf<char,std::char_traits<char> >::getloc
; Function compile flags: /Odtp /RTCsu /ZI
_TEXT	ENDS
;	COMDAT ?setg@?$basic_streambuf@DU?$char_traits@D@std@@@std@@IAEXPAD00@Z
_TEXT	SEGMENT
_this$ = -8						; size = 4
__First$ = 8						; size = 4
__Next$ = 12						; size = 4
__Last$ = 16						; size = 4
?setg@?$basic_streambuf@DU?$char_traits@D@std@@@std@@IAEXPAD00@Z PROC ; std::basic_streambuf<char,std::char_traits<char> >::setg, COMDAT
; _this$ = ecx

; 248  : 		{	// set pointers for read buffer

	push	ebp
	mov	ebp, esp
	sub	esp, 204				; 000000ccH
	push	ebx
	push	esi
	push	edi
	push	ecx
	lea	edi, DWORD PTR [ebp-204]
	mov	ecx, 51					; 00000033H
	mov	eax, -858993460				; ccccccccH
	rep stosd
	pop	ecx
	mov	DWORD PTR _this$[ebp], ecx

; 249  : 		*_IGfirst = _First;

	mov	eax, DWORD PTR _this$[ebp]
	mov	ecx, DWORD PTR [eax+16]
	mov	edx, DWORD PTR __First$[ebp]
	mov	DWORD PTR [ecx], edx

; 250  : 		*_IGnext = _Next;

	mov	eax, DWORD PTR _this$[ebp]
	mov	ecx, DWORD PTR [eax+32]
	mov	edx, DWORD PTR __Next$[ebp]
	mov	DWORD PTR [ecx], edx

; 251  : 		*_IGcount = (int)(_Last - _Next);

	mov	eax, DWORD PTR __Last$[ebp]
	sub	eax, DWORD PTR __Next$[ebp]
	mov	ecx, DWORD PTR _this$[ebp]
	mov	edx, DWORD PTR [ecx+48]
	mov	DWORD PTR [edx], eax

; 252  : 		}

	pop	edi
	pop	esi
	pop	ebx
	mov	esp, ebp
	pop	ebp
	ret	12					; 0000000cH
?setg@?$basic_streambuf@DU?$char_traits@D@std@@@std@@IAEXPAD00@Z ENDP ; std::basic_streambuf<char,std::char_traits<char> >::setg
_TEXT	ENDS
PUBLIC	?setp@?$basic_streambuf@DU?$char_traits@D@std@@@std@@IAEXPAD0@Z ; std::basic_streambuf<char,std::char_traits<char> >::setp
; Function compile flags: /Odtp /RTCsu /ZI
;	COMDAT ?_Init@?$basic_streambuf@DU?$char_traits@D@std@@@std@@IAEXXZ
_TEXT	SEGMENT
_this$ = -8						; size = 4
?_Init@?$basic_streambuf@DU?$char_traits@D@std@@@std@@IAEXXZ PROC ; std::basic_streambuf<char,std::char_traits<char> >::_Init, COMDAT
; _this$ = ecx

; 314  : 		{	// initialize buffer parameters for no buffers

	push	ebp
	mov	ebp, esp
	sub	esp, 204				; 000000ccH
	push	ebx
	push	esi
	push	edi
	push	ecx
	lea	edi, DWORD PTR [ebp-204]
	mov	ecx, 51					; 00000033H
	mov	eax, -858993460				; ccccccccH
	rep stosd
	pop	ecx
	mov	DWORD PTR _this$[ebp], ecx

; 315  : 		_IGfirst = &_Gfirst;

	mov	eax, DWORD PTR _this$[ebp]
	add	eax, 8
	mov	ecx, DWORD PTR _this$[ebp]
	mov	DWORD PTR [ecx+16], eax

; 316  : 		_IPfirst = &_Pfirst;

	mov	eax, DWORD PTR _this$[ebp]
	add	eax, 12					; 0000000cH
	mov	ecx, DWORD PTR _this$[ebp]
	mov	DWORD PTR [ecx+20], eax

; 317  : 		_IGnext = &_Gnext;

	mov	eax, DWORD PTR _this$[ebp]
	add	eax, 24					; 00000018H
	mov	ecx, DWORD PTR _this$[ebp]
	mov	DWORD PTR [ecx+32], eax

; 318  : 		_IPnext = &_Pnext;

	mov	eax, DWORD PTR _this$[ebp]
	add	eax, 28					; 0000001cH
	mov	ecx, DWORD PTR _this$[ebp]
	mov	DWORD PTR [ecx+36], eax

; 319  : 		_IGcount = &_Gcount;

	mov	eax, DWORD PTR _this$[ebp]
	add	eax, 40					; 00000028H
	mov	ecx, DWORD PTR _this$[ebp]
	mov	DWORD PTR [ecx+48], eax

; 320  : 		_IPcount = &_Pcount;

	mov	eax, DWORD PTR _this$[ebp]
	add	eax, 44					; 0000002cH
	mov	ecx, DWORD PTR _this$[ebp]
	mov	DWORD PTR [ecx+52], eax

; 321  : 		setp(0, 0);

	push	0
	push	0
	mov	ecx, DWORD PTR _this$[ebp]
	call	?setp@?$basic_streambuf@DU?$char_traits@D@std@@@std@@IAEXPAD0@Z ; std::basic_streambuf<char,std::char_traits<char> >::setp

; 322  : 		setg(0, 0, 0);

	push	0
	push	0
	push	0
	mov	ecx, DWORD PTR _this$[ebp]
	call	?setg@?$basic_streambuf@DU?$char_traits@D@std@@@std@@IAEXPAD00@Z ; std::basic_streambuf<char,std::char_traits<char> >::setg

; 323  : 		}

	pop	edi
	pop	esi
	pop	ebx
	add	esp, 204				; 000000ccH
	cmp	ebp, esp
	call	__RTC_CheckEsp
	mov	esp, ebp
	pop	ebp
	ret	0
?_Init@?$basic_streambuf@DU?$char_traits@D@std@@@std@@IAEXXZ ENDP ; std::basic_streambuf<char,std::char_traits<char> >::_Init
; Function compile flags: /Odtp /RTCsu /ZI
_TEXT	ENDS
;	COMDAT ?_Init@?$basic_streambuf@DU?$char_traits@D@std@@@std@@IAEXPAPAD0PAH001@Z
_TEXT	SEGMENT
_this$ = -8						; size = 4
__Gf$ = 8						; size = 4
__Gn$ = 12						; size = 4
__Gc$ = 16						; size = 4
__Pf$ = 20						; size = 4
__Pn$ = 24						; size = 4
__Pc$ = 28						; size = 4
?_Init@?$basic_streambuf@DU?$char_traits@D@std@@@std@@IAEXPAPAD0PAH001@Z PROC ; std::basic_streambuf<char,std::char_traits<char> >::_Init, COMDAT
; _this$ = ecx

; 327  : 		{	// initialize buffer parameters as specified

	push	ebp
	mov	ebp, esp
	sub	esp, 204				; 000000ccH
	push	ebx
	push	esi
	push	edi
	push	ecx
	lea	edi, DWORD PTR [ebp-204]
	mov	ecx, 51					; 00000033H
	mov	eax, -858993460				; ccccccccH
	rep stosd
	pop	ecx
	mov	DWORD PTR _this$[ebp], ecx

; 328  : 		_IGfirst = _Gf;

	mov	eax, DWORD PTR _this$[ebp]
	mov	ecx, DWORD PTR __Gf$[ebp]
	mov	DWORD PTR [eax+16], ecx

; 329  : 		_IPfirst = _Pf;

	mov	eax, DWORD PTR _this$[ebp]
	mov	ecx, DWORD PTR __Pf$[ebp]
	mov	DWORD PTR [eax+20], ecx

; 330  : 		_IGnext = _Gn;

	mov	eax, DWORD PTR _this$[ebp]
	mov	ecx, DWORD PTR __Gn$[ebp]
	mov	DWORD PTR [eax+32], ecx

; 331  : 		_IPnext = _Pn;

	mov	eax, DWORD PTR _this$[ebp]
	mov	ecx, DWORD PTR __Pn$[ebp]
	mov	DWORD PTR [eax+36], ecx

; 332  : 		_IGcount = _Gc;

	mov	eax, DWORD PTR _this$[ebp]
	mov	ecx, DWORD PTR __Gc$[ebp]
	mov	DWORD PTR [eax+48], ecx

; 333  : 		_IPcount = _Pc;

	mov	eax, DWORD PTR _this$[ebp]
	mov	ecx, DWORD PTR __Pc$[ebp]
	mov	DWORD PTR [eax+52], ecx

; 334  : 		}

	pop	edi
	pop	esi
	pop	ebx
	mov	esp, ebp
	pop	ebp
	ret	24					; 00000018H
?_Init@?$basic_streambuf@DU?$char_traits@D@std@@@std@@IAEXPAPAD0PAH001@Z ENDP ; std::basic_streambuf<char,std::char_traits<char> >::_Init
_TEXT	ENDS
PUBLIC	??_C@_1BO@MEPPHOO@?$AA?$CC?$AAo?$AAu?$AAt?$AA?5?$AAo?$AAf?$AA?5?$AAr?$AAa?$AAn?$AAg?$AAe?$AA?$CC?$AA?$AA@ ; `string'
PUBLIC	??_C@_1NA@ICLOEHKI@?$AAs?$AAt?$AAd?$AA?3?$AA?3?$AA_?$AAS?$AAt?$AAr?$AAi?$AAn?$AAg?$AA_?$AAc?$AAo?$AAn?$AAs?$AAt?$AA_?$AAi?$AAt?$AAe?$AAr?$AAa?$AAt?$AAo?$AAr?$AA?$DM?$AAc?$AAh?$AAa?$AAr@ ; `string'
PUBLIC	??_C@_1FG@IBPIFFN@?$AA?$CC?$AAS?$AAt?$AAa?$AAn?$AAd?$AAa?$AAr?$AAd?$AA?5?$AAC?$AA?$CL?$AA?$CL?$AA?5?$AAL?$AAi?$AAb?$AAr?$AAa?$AAr?$AAi?$AAe?$AAs?$AA?5?$AAO?$AAu?$AAt?$AA?5?$AAo?$AAf?$AA?5?$AAR@ ; `string'
PUBLIC	??_C@_0CE@OFMIGAMM@Standard?5C?$CL?$CL?5Libraries?5Out?5of?5Ra@ ; `string'
PUBLIC	??_C@_1EG@CNCHLAOB@?$AAs?$AAt?$AAr?$AAi?$AAn?$AAg?$AA?5?$AAi?$AAt?$AAe?$AAr?$AAa?$AAt?$AAo?$AAr?$AA?5?$AAn?$AAo?$AAt?$AA?5?$AAd?$AAe?$AAr?$AAe?$AAf?$AAe?$AAr?$AAe?$AAn?$AAc?$AAa?$AAb@ ; `string'
PUBLIC	?_Getcont@_Iterator_base12@std@@QBEPBU_Container_base12@2@XZ ; std::_Iterator_base12::_Getcont
EXTRN	__invalid_parameter:PROC
EXTRN	__CrtDbgReportW:PROC
;	COMDAT ??_C@_1BO@MEPPHOO@?$AA?$CC?$AAo?$AAu?$AAt?$AA?5?$AAo?$AAf?$AA?5?$AAr?$AAa?$AAn?$AAg?$AAe?$AA?$CC?$AA?$AA@
; File c:\program files (x86)\microsoft visual studio 10.0\vc\include\xstring
CONST	SEGMENT
??_C@_1BO@MEPPHOO@?$AA?$CC?$AAo?$AAu?$AAt?$AA?5?$AAo?$AAf?$AA?5?$AAr?$AAa?$AAn?$AAg?$AAe?$AA?$CC?$AA?$AA@ DB '"'
	DB	00H, 'o', 00H, 'u', 00H, 't', 00H, ' ', 00H, 'o', 00H, 'f', 00H
	DB	' ', 00H, 'r', 00H, 'a', 00H, 'n', 00H, 'g', 00H, 'e', 00H, '"'
	DB	00H, 00H, 00H				; `string'
CONST	ENDS
;	COMDAT ??_C@_1NA@ICLOEHKI@?$AAs?$AAt?$AAd?$AA?3?$AA?3?$AA_?$AAS?$AAt?$AAr?$AAi?$AAn?$AAg?$AA_?$AAc?$AAo?$AAn?$AAs?$AAt?$AA_?$AAi?$AAt?$AAe?$AAr?$AAa?$AAt?$AAo?$AAr?$AA?$DM?$AAc?$AAh?$AAa?$AAr@
CONST	SEGMENT
??_C@_1NA@ICLOEHKI@?$AAs?$AAt?$AAd?$AA?3?$AA?3?$AA_?$AAS?$AAt?$AAr?$AAi?$AAn?$AAg?$AA_?$AAc?$AAo?$AAn?$AAs?$AAt?$AA_?$AAi?$AAt?$AAe?$AAr?$AAa?$AAt?$AAo?$AAr?$AA?$DM?$AAc?$AAh?$AAa?$AAr@ DB 's'
	DB	00H, 't', 00H, 'd', 00H, ':', 00H, ':', 00H, '_', 00H, 'S', 00H
	DB	't', 00H, 'r', 00H, 'i', 00H, 'n', 00H, 'g', 00H, '_', 00H, 'c'
	DB	00H, 'o', 00H, 'n', 00H, 's', 00H, 't', 00H, '_', 00H, 'i', 00H
	DB	't', 00H, 'e', 00H, 'r', 00H, 'a', 00H, 't', 00H, 'o', 00H, 'r'
	DB	00H, '<', 00H, 'c', 00H, 'h', 00H, 'a', 00H, 'r', 00H, ',', 00H
	DB	's', 00H, 't', 00H, 'r', 00H, 'u', 00H, 'c', 00H, 't', 00H, ' '
	DB	00H, 's', 00H, 't', 00H, 'd', 00H, ':', 00H, ':', 00H, 'c', 00H
	DB	'h', 00H, 'a', 00H, 'r', 00H, '_', 00H, 't', 00H, 'r', 00H, 'a'
	DB	00H, 'i', 00H, 't', 00H, 's', 00H, '<', 00H, 'c', 00H, 'h', 00H
	DB	'a', 00H, 'r', 00H, '>', 00H, ',', 00H, 'c', 00H, 'l', 00H, 'a'
	DB	00H, 's', 00H, 's', 00H, ' ', 00H, 's', 00H, 't', 00H, 'd', 00H
	DB	':', 00H, ':', 00H, 'a', 00H, 'l', 00H, 'l', 00H, 'o', 00H, 'c'
	DB	00H, 'a', 00H, 't', 00H, 'o', 00H, 'r', 00H, '<', 00H, 'c', 00H
	DB	'h', 00H, 'a', 00H, 'r', 00H, '>', 00H, ' ', 00H, '>', 00H, ':'
	DB	00H, ':', 00H, 'o', 00H, 'p', 00H, 'e', 00H, 'r', 00H, 'a', 00H
	DB	't', 00H, 'o', 00H, 'r', 00H, ' ', 00H, '*', 00H, 00H, 00H ; `string'
CONST	ENDS
;	COMDAT ??_C@_1FG@IBPIFFN@?$AA?$CC?$AAS?$AAt?$AAa?$AAn?$AAd?$AAa?$AAr?$AAd?$AA?5?$AAC?$AA?$CL?$AA?$CL?$AA?5?$AAL?$AAi?$AAb?$AAr?$AAa?$AAr?$AAi?$AAe?$AAs?$AA?5?$AAO?$AAu?$AAt?$AA?5?$AAo?$AAf?$AA?5?$AAR@
CONST	SEGMENT
??_C@_1FG@IBPIFFN@?$AA?$CC?$AAS?$AAt?$AAa?$AAn?$AAd?$AAa?$AAr?$AAd?$AA?5?$AAC?$AA?$CL?$AA?$CL?$AA?5?$AAL?$AAi?$AAb?$AAr?$AAa?$AAr?$AAi?$AAe?$AAs?$AA?5?$AAO?$AAu?$AAt?$AA?5?$AAo?$AAf?$AA?5?$AAR@ DB '"'
	DB	00H, 'S', 00H, 't', 00H, 'a', 00H, 'n', 00H, 'd', 00H, 'a', 00H
	DB	'r', 00H, 'd', 00H, ' ', 00H, 'C', 00H, '+', 00H, '+', 00H, ' '
	DB	00H, 'L', 00H, 'i', 00H, 'b', 00H, 'r', 00H, 'a', 00H, 'r', 00H
	DB	'i', 00H, 'e', 00H, 's', 00H, ' ', 00H, 'O', 00H, 'u', 00H, 't'
	DB	00H, ' ', 00H, 'o', 00H, 'f', 00H, ' ', 00H, 'R', 00H, 'a', 00H
	DB	'n', 00H, 'g', 00H, 'e', 00H, '"', 00H, ' ', 00H, '&', 00H, '&'
	DB	00H, ' ', 00H, '0', 00H, 00H, 00H		; `string'
CONST	ENDS
;	COMDAT ??_C@_0CE@OFMIGAMM@Standard?5C?$CL?$CL?5Libraries?5Out?5of?5Ra@
CONST	SEGMENT
??_C@_0CE@OFMIGAMM@Standard?5C?$CL?$CL?5Libraries?5Out?5of?5Ra@ DB 'Stand'
	DB	'ard C++ Libraries Out of Range', 00H	; `string'
CONST	ENDS
;	COMDAT ??_C@_1EG@CNCHLAOB@?$AAs?$AAt?$AAr?$AAi?$AAn?$AAg?$AA?5?$AAi?$AAt?$AAe?$AAr?$AAa?$AAt?$AAo?$AAr?$AA?5?$AAn?$AAo?$AAt?$AA?5?$AAd?$AAe?$AAr?$AAe?$AAf?$AAe?$AAr?$AAe?$AAn?$AAc?$AAa?$AAb@
CONST	SEGMENT
??_C@_1EG@CNCHLAOB@?$AAs?$AAt?$AAr?$AAi?$AAn?$AAg?$AA?5?$AAi?$AAt?$AAe?$AAr?$AAa?$AAt?$AAo?$AAr?$AA?5?$AAn?$AAo?$AAt?$AA?5?$AAd?$AAe?$AAr?$AAe?$AAf?$AAe?$AAr?$AAe?$AAn?$AAc?$AAa?$AAb@ DB 's'
	DB	00H, 't', 00H, 'r', 00H, 'i', 00H, 'n', 00H, 'g', 00H, ' ', 00H
	DB	'i', 00H, 't', 00H, 'e', 00H, 'r', 00H, 'a', 00H, 't', 00H, 'o'
	DB	00H, 'r', 00H, ' ', 00H, 'n', 00H, 'o', 00H, 't', 00H, ' ', 00H
	DB	'd', 00H, 'e', 00H, 'r', 00H, 'e', 00H, 'f', 00H, 'e', 00H, 'r'
	DB	00H, 'e', 00H, 'n', 00H, 'c', 00H, 'a', 00H, 'b', 00H, 'l', 00H
	DB	'e', 00H, 00H, 00H				; `string'
; Function compile flags: /Odtp /RTCsu /ZI
CONST	ENDS
;	COMDAT ??D?$_String_const_iterator@DU?$char_traits@D@std@@V?$allocator@D@2@@std@@QBEABDXZ
_TEXT	SEGMENT
_this$ = -8						; size = 4
??D?$_String_const_iterator@DU?$char_traits@D@std@@V?$allocator@D@2@@std@@QBEABDXZ PROC ; std::_String_const_iterator<char,std::char_traits<char>,std::allocator<char> >::operator*, COMDAT
; _this$ = ecx

; 70   : 		{	// return designated object

	push	ebp
	mov	ebp, esp
	sub	esp, 204				; 000000ccH
	push	ebx
	push	esi
	push	edi
	push	ecx
	lea	edi, DWORD PTR [ebp-204]
	mov	ecx, 51					; 00000033H
	mov	eax, -858993460				; ccccccccH
	rep stosd
	pop	ecx
	mov	DWORD PTR _this$[ebp], ecx

; 71   :  #if _ITERATOR_DEBUG_LEVEL == 2
; 72   : 		if (this->_Getcont() == 0
; 73   : 			|| this->_Ptr == 0
; 74   : 			|| this->_Ptr < ((_Mystr *)this->_Getcont())->_Myptr()
; 75   : 			|| ((_Mystr *)this->_Getcont())->_Myptr()
; 76   : 				+ ((_Mystr *)this->_Getcont())->_Mysize <= this->_Ptr)

	mov	ecx, DWORD PTR _this$[ebp]
	call	?_Getcont@_Iterator_base12@std@@QBEPBU_Container_base12@2@XZ ; std::_Iterator_base12::_Getcont
	test	eax, eax
	je	SHORT $LN1@operator
	mov	eax, DWORD PTR _this$[ebp]
	cmp	DWORD PTR [eax+8], 0
	je	SHORT $LN1@operator
	mov	ecx, DWORD PTR _this$[ebp]
	call	?_Getcont@_Iterator_base12@std@@QBEPBU_Container_base12@2@XZ ; std::_Iterator_base12::_Getcont
	mov	ecx, eax
	call	?_Myptr@?$basic_string@DU?$char_traits@D@std@@V?$allocator@D@2@@std@@QAEPADXZ ; std::basic_string<char,std::char_traits<char>,std::allocator<char> >::_Myptr
	mov	ecx, DWORD PTR _this$[ebp]
	cmp	DWORD PTR [ecx+8], eax
	jb	SHORT $LN1@operator
	mov	ecx, DWORD PTR _this$[ebp]
	call	?_Getcont@_Iterator_base12@std@@QBEPBU_Container_base12@2@XZ ; std::_Iterator_base12::_Getcont
	mov	ecx, eax
	call	?_Myptr@?$basic_string@DU?$char_traits@D@std@@V?$allocator@D@2@@std@@QAEPADXZ ; std::basic_string<char,std::char_traits<char>,std::allocator<char> >::_Myptr
	mov	esi, eax
	mov	ecx, DWORD PTR _this$[ebp]
	call	?_Getcont@_Iterator_base12@std@@QBEPBU_Container_base12@2@XZ ; std::_Iterator_base12::_Getcont
	add	esi, DWORD PTR [eax+20]
	mov	eax, DWORD PTR _this$[ebp]
	cmp	esi, DWORD PTR [eax+8]
	ja	SHORT $LN2@operator
$LN1@operator:

; 77   : 			{	// report error
; 78   : 			_DEBUG_ERROR("string iterator not dereferencable");

	push	78					; 0000004eH
	push	OFFSET ??_C@_1IO@GEGAMENF@?$AAc?$AA?3?$AA?2?$AAp?$AAr?$AAo?$AAg?$AAr?$AAa?$AAm?$AA?5?$AAf?$AAi?$AAl?$AAe?$AAs?$AA?5?$AA?$CI?$AAx?$AA8?$AA6?$AA?$CJ?$AA?2?$AAm?$AAi?$AAc?$AAr?$AAo?$AAs?$AAo?$AAf?$AAt@
	push	OFFSET ??_C@_1EG@CNCHLAOB@?$AAs?$AAt?$AAr?$AAi?$AAn?$AAg?$AA?5?$AAi?$AAt?$AAe?$AAr?$AAa?$AAt?$AAo?$AAr?$AA?5?$AAn?$AAo?$AAt?$AA?5?$AAd?$AAe?$AAr?$AAe?$AAf?$AAe?$AAr?$AAe?$AAn?$AAc?$AAa?$AAb@
	call	?_Debug_message@std@@YAXPB_W0I@Z	; std::_Debug_message
	add	esp, 12					; 0000000cH

; 79   : 			_SCL_SECURE_OUT_OF_RANGE;

	mov	eax, OFFSET ??_C@_0CE@OFMIGAMM@Standard?5C?$CL?$CL?5Libraries?5Out?5of?5Ra@
	test	eax, eax
	je	SHORT $LN5@operator
	xor	ecx, ecx
	jne	SHORT $LN6@operator
$LN5@operator:
	push	OFFSET ??_C@_1FG@IBPIFFN@?$AA?$CC?$AAS?$AAt?$AAa?$AAn?$AAd?$AAa?$AAr?$AAd?$AA?5?$AAC?$AA?$CL?$AA?$CL?$AA?5?$AAL?$AAi?$AAb?$AAr?$AAa?$AAr?$AAi?$AAe?$AAs?$AA?5?$AAO?$AAu?$AAt?$AA?5?$AAo?$AAf?$AA?5?$AAR@
	push	0
	push	79					; 0000004fH
	push	OFFSET ??_C@_1IO@GEGAMENF@?$AAc?$AA?3?$AA?2?$AAp?$AAr?$AAo?$AAg?$AAr?$AAa?$AAm?$AA?5?$AAf?$AAi?$AAl?$AAe?$AAs?$AA?5?$AA?$CI?$AAx?$AA8?$AA6?$AA?$CJ?$AA?2?$AAm?$AAi?$AAc?$AAr?$AAo?$AAs?$AAo?$AAf?$AAt@
	push	2
	call	__CrtDbgReportW
	add	esp, 20					; 00000014H
	cmp	eax, 1
	jne	SHORT $LN6@operator
	int	3
$LN6@operator:
	push	0
	push	79					; 0000004fH
	push	OFFSET ??_C@_1IO@GEGAMENF@?$AAc?$AA?3?$AA?2?$AAp?$AAr?$AAo?$AAg?$AAr?$AAa?$AAm?$AA?5?$AAf?$AAi?$AAl?$AAe?$AAs?$AA?5?$AA?$CI?$AAx?$AA8?$AA6?$AA?$CJ?$AA?2?$AAm?$AAi?$AAc?$AAr?$AAo?$AAs?$AAo?$AAf?$AAt@
	push	OFFSET ??_C@_1NA@ICLOEHKI@?$AAs?$AAt?$AAd?$AA?3?$AA?3?$AA_?$AAS?$AAt?$AAr?$AAi?$AAn?$AAg?$AA_?$AAc?$AAo?$AAn?$AAs?$AAt?$AA_?$AAi?$AAt?$AAe?$AAr?$AAa?$AAt?$AAo?$AAr?$AA?$DM?$AAc?$AAh?$AAa?$AAr@
	push	OFFSET ??_C@_1BO@MEPPHOO@?$AA?$CC?$AAo?$AAu?$AAt?$AA?5?$AAo?$AAf?$AA?5?$AAr?$AAa?$AAn?$AAg?$AAe?$AA?$CC?$AA?$AA@
	call	__invalid_parameter
	add	esp, 20					; 00000014H
$LN2@operator:

; 80   : 			}
; 81   : 
; 82   :  #elif _ITERATOR_DEBUG_LEVEL == 1
; 83   : 		_SCL_SECURE_VALIDATE(this->_Getcont() != 0 && this->_Ptr != 0);
; 84   : 		_SCL_SECURE_VALIDATE_RANGE(
; 85   : 			((_Mystr *)this->_Getcont())->_Myptr() <= this->_Ptr
; 86   : 			&& this->_Ptr < ((_Mystr *)this->_Getcont())->_Myptr()
; 87   : 				+ ((_Mystr *)this->_Getcont())->_Mysize);
; 88   :  #endif /* _ITERATOR_DEBUG_LEVEL */
; 89   : 
; 90   : 		__analysis_assume(this->_Ptr != 0);
; 91   : 
; 92   : 		return (*this->_Ptr);

	mov	eax, DWORD PTR _this$[ebp]
	mov	eax, DWORD PTR [eax+8]

; 93   : 		}

	pop	edi
	pop	esi
	pop	ebx
	add	esp, 204				; 000000ccH
	cmp	ebp, esp
	call	__RTC_CheckEsp
	mov	esp, ebp
	pop	ebp
	ret	0
??D?$_String_const_iterator@DU?$char_traits@D@std@@V?$allocator@D@2@@std@@QBEABDXZ ENDP ; std::_String_const_iterator<char,std::char_traits<char>,std::allocator<char> >::operator*
; Function compile flags: /Odtp /RTCsu /ZI
; File c:\program files (x86)\microsoft visual studio 10.0\vc\include\xutility
_TEXT	ENDS
;	COMDAT ?_Getcont@_Iterator_base12@std@@QBEPBU_Container_base12@2@XZ
_TEXT	SEGMENT
tv66 = -208						; size = 4
_this$ = -8						; size = 4
?_Getcont@_Iterator_base12@std@@QBEPBU_Container_base12@2@XZ PROC ; std::_Iterator_base12::_Getcont, COMDAT
; _this$ = ecx

; 162  : 		{	// get owning container

	push	ebp
	mov	ebp, esp
	sub	esp, 208				; 000000d0H
	push	ebx
	push	esi
	push	edi
	push	ecx
	lea	edi, DWORD PTR [ebp-208]
	mov	ecx, 52					; 00000034H
	mov	eax, -858993460				; ccccccccH
	rep stosd
	pop	ecx
	mov	DWORD PTR _this$[ebp], ecx

; 163  : 		return (_Myproxy == 0 ? 0 : _Myproxy->_Mycont);

	mov	eax, DWORD PTR _this$[ebp]
	cmp	DWORD PTR [eax], 0
	jne	SHORT $LN3@Getcont
	mov	DWORD PTR tv66[ebp], 0
	jmp	SHORT $LN4@Getcont
$LN3@Getcont:
	mov	ecx, DWORD PTR _this$[ebp]
	mov	edx, DWORD PTR [ecx]
	mov	eax, DWORD PTR [edx]
	mov	DWORD PTR tv66[ebp], eax
$LN4@Getcont:
	mov	eax, DWORD PTR tv66[ebp]

; 164  : 		}

	pop	edi
	pop	esi
	pop	ebx
	mov	esp, ebp
	pop	ebp
	ret	0
?_Getcont@_Iterator_base12@std@@QBEPBU_Container_base12@2@XZ ENDP ; std::_Iterator_base12::_Getcont
_TEXT	ENDS
PUBLIC	??0?$_String_const_iterator@DU?$char_traits@D@std@@V?$allocator@D@2@@std@@QAE@PBDPBU_Container_base12@1@@Z ; std::_String_const_iterator<char,std::char_traits<char>,std::allocator<char> >::_String_const_iterator<char,std::char_traits<char>,std::allocator<char> >
; Function compile flags: /Odtp /RTCsu /ZI
; File c:\program files (x86)\microsoft visual studio 10.0\vc\include\xstring
;	COMDAT ??0?$_String_iterator@DU?$char_traits@D@std@@V?$allocator@D@2@@std@@QAE@PADPBU_Container_base12@1@@Z
_TEXT	SEGMENT
_this$ = -8						; size = 4
__Parg$ = 8						; size = 4
__Pstring$ = 12						; size = 4
??0?$_String_iterator@DU?$char_traits@D@std@@V?$allocator@D@2@@std@@QAE@PADPBU_Container_base12@1@@Z PROC ; std::_String_iterator<char,std::char_traits<char>,std::allocator<char> >::_String_iterator<char,std::char_traits<char>,std::allocator<char> >, COMDAT
; _this$ = ecx

; 325  : 		{	// construct with pointer _Parg

	push	ebp
	mov	ebp, esp
	sub	esp, 204				; 000000ccH
	push	ebx
	push	esi
	push	edi
	push	ecx
	lea	edi, DWORD PTR [ebp-204]
	mov	ecx, 51					; 00000033H
	mov	eax, -858993460				; ccccccccH
	rep stosd
	pop	ecx
	mov	DWORD PTR _this$[ebp], ecx
	mov	eax, DWORD PTR __Pstring$[ebp]
	push	eax
	mov	ecx, DWORD PTR __Parg$[ebp]
	push	ecx
	mov	ecx, DWORD PTR _this$[ebp]
	call	??0?$_String_const_iterator@DU?$char_traits@D@std@@V?$allocator@D@2@@std@@QAE@PBDPBU_Container_base12@1@@Z ; std::_String_const_iterator<char,std::char_traits<char>,std::allocator<char> >::_String_const_iterator<char,std::char_traits<char>,std::allocator<char> >

; 326  : 		}

	mov	eax, DWORD PTR _this$[ebp]
	pop	edi
	pop	esi
	pop	ebx
	add	esp, 204				; 000000ccH
	cmp	ebp, esp
	call	__RTC_CheckEsp
	mov	esp, ebp
	pop	ebp
	ret	8
??0?$_String_iterator@DU?$char_traits@D@std@@V?$allocator@D@2@@std@@QAE@PADPBU_Container_base12@1@@Z ENDP ; std::_String_iterator<char,std::char_traits<char>,std::allocator<char> >::_String_iterator<char,std::char_traits<char>,std::allocator<char> >
; Function compile flags: /Odtp /RTCsu /ZI
; File c:\program files (x86)\microsoft visual studio 10.0\vc\include\ostream
_TEXT	ENDS
;	COMDAT ??0_Sentry_base@?$basic_ostream@DU?$char_traits@D@std@@@std@@QAE@AAV12@@Z
_TEXT	SEGMENT
tv90 = -208						; size = 4
_this$ = -8						; size = 4
__Ostr$ = 8						; size = 4
??0_Sentry_base@?$basic_ostream@DU?$char_traits@D@std@@@std@@QAE@AAV12@@Z PROC ; std::basic_ostream<char,std::char_traits<char> >::_Sentry_base::_Sentry_base, COMDAT
; _this$ = ecx

; 91   : 			{	// lock the stream buffer, if there

	push	ebp
	mov	ebp, esp
	sub	esp, 208				; 000000d0H
	push	ebx
	push	esi
	push	edi
	push	ecx
	lea	edi, DWORD PTR [ebp-208]
	mov	ecx, 52					; 00000034H
	mov	eax, -858993460				; ccccccccH
	rep stosd
	pop	ecx
	mov	DWORD PTR _this$[ebp], ecx
	mov	eax, DWORD PTR _this$[ebp]
	mov	ecx, DWORD PTR __Ostr$[ebp]
	mov	DWORD PTR [eax], ecx

; 92   : 			if (_Myostr.rdbuf() != 0)

	mov	eax, DWORD PTR _this$[ebp]
	mov	ecx, DWORD PTR [eax]
	mov	edx, DWORD PTR [ecx]
	mov	eax, DWORD PTR _this$[ebp]
	mov	ecx, DWORD PTR [eax]
	add	ecx, DWORD PTR [edx+4]
	call	?rdbuf@?$basic_ios@DU?$char_traits@D@std@@@std@@QBEPAV?$basic_streambuf@DU?$char_traits@D@std@@@2@XZ ; std::basic_ios<char,std::char_traits<char> >::rdbuf
	test	eax, eax
	je	SHORT $LN2@Sentry_bas@3

; 93   : 				_Myostr.rdbuf()->_Lock();

	mov	eax, DWORD PTR _this$[ebp]
	mov	ecx, DWORD PTR [eax]
	mov	edx, DWORD PTR [ecx]
	mov	eax, DWORD PTR _this$[ebp]
	mov	ecx, DWORD PTR [eax]
	add	ecx, DWORD PTR [edx+4]
	call	?rdbuf@?$basic_ios@DU?$char_traits@D@std@@@std@@QBEPAV?$basic_streambuf@DU?$char_traits@D@std@@@2@XZ ; std::basic_ios<char,std::char_traits<char> >::rdbuf
	mov	DWORD PTR tv90[ebp], eax
	mov	ecx, DWORD PTR tv90[ebp]
	mov	edx, DWORD PTR [ecx]
	mov	esi, esp
	mov	ecx, DWORD PTR tv90[ebp]
	mov	eax, DWORD PTR [edx+4]
	call	eax
	cmp	esi, esp
	call	__RTC_CheckEsp
$LN2@Sentry_bas@3:

; 94   : 			}

	mov	eax, DWORD PTR _this$[ebp]
	pop	edi
	pop	esi
	pop	ebx
	add	esp, 208				; 000000d0H
	cmp	ebp, esp
	call	__RTC_CheckEsp
	mov	esp, ebp
	pop	ebp
	ret	4
??0_Sentry_base@?$basic_ostream@DU?$char_traits@D@std@@@std@@QAE@AAV12@@Z ENDP ; std::basic_ostream<char,std::char_traits<char> >::_Sentry_base::_Sentry_base
; Function compile flags: /Odtp /RTCsu /ZI
_TEXT	ENDS
;	COMDAT ??1_Sentry_base@?$basic_ostream@DU?$char_traits@D@std@@@std@@QAE@XZ
_TEXT	SEGMENT
tv90 = -208						; size = 4
_this$ = -8						; size = 4
??1_Sentry_base@?$basic_ostream@DU?$char_traits@D@std@@@std@@QAE@XZ PROC ; std::basic_ostream<char,std::char_traits<char> >::_Sentry_base::~_Sentry_base, COMDAT
; _this$ = ecx

; 97   : 			{	// destroy after unlocking

	push	ebp
	mov	ebp, esp
	sub	esp, 208				; 000000d0H
	push	ebx
	push	esi
	push	edi
	push	ecx
	lea	edi, DWORD PTR [ebp-208]
	mov	ecx, 52					; 00000034H
	mov	eax, -858993460				; ccccccccH
	rep stosd
	pop	ecx
	mov	DWORD PTR _this$[ebp], ecx

; 98   : 			if (_Myostr.rdbuf() != 0)

	mov	eax, DWORD PTR _this$[ebp]
	mov	ecx, DWORD PTR [eax]
	mov	edx, DWORD PTR [ecx]
	mov	eax, DWORD PTR _this$[ebp]
	mov	ecx, DWORD PTR [eax]
	add	ecx, DWORD PTR [edx+4]
	call	?rdbuf@?$basic_ios@DU?$char_traits@D@std@@@std@@QBEPAV?$basic_streambuf@DU?$char_traits@D@std@@@2@XZ ; std::basic_ios<char,std::char_traits<char> >::rdbuf
	test	eax, eax
	je	SHORT $LN2@Sentry_bas@4

; 99   : 				_Myostr.rdbuf()->_Unlock();

	mov	eax, DWORD PTR _this$[ebp]
	mov	ecx, DWORD PTR [eax]
	mov	edx, DWORD PTR [ecx]
	mov	eax, DWORD PTR _this$[ebp]
	mov	ecx, DWORD PTR [eax]
	add	ecx, DWORD PTR [edx+4]
	call	?rdbuf@?$basic_ios@DU?$char_traits@D@std@@@std@@QBEPAV?$basic_streambuf@DU?$char_traits@D@std@@@2@XZ ; std::basic_ios<char,std::char_traits<char> >::rdbuf
	mov	DWORD PTR tv90[ebp], eax
	mov	ecx, DWORD PTR tv90[ebp]
	mov	edx, DWORD PTR [ecx]
	mov	esi, esp
	mov	ecx, DWORD PTR tv90[ebp]
	mov	eax, DWORD PTR [edx+8]
	call	eax
	cmp	esi, esp
	call	__RTC_CheckEsp
$LN2@Sentry_bas@4:

; 100  : 			}

	pop	edi
	pop	esi
	pop	ebx
	add	esp, 208				; 000000d0H
	cmp	ebp, esp
	call	__RTC_CheckEsp
	mov	esp, ebp
	pop	ebp
	ret	0
??1_Sentry_base@?$basic_ostream@DU?$char_traits@D@std@@@std@@QAE@XZ ENDP ; std::basic_ostream<char,std::char_traits<char> >::_Sentry_base::~_Sentry_base
; Function compile flags: /Odtp /RTCsu /ZI
; File c:\program files (x86)\microsoft visual studio 10.0\vc\include\xlocale
_TEXT	ENDS
;	COMDAT ?unshift@?$codecvt@DDH@std@@QBEHAAHPAD1AAPAD@Z
_TEXT	SEGMENT
_this$ = -8						; size = 4
__State$ = 8						; size = 4
__First2$ = 12						; size = 4
__Last2$ = 16						; size = 4
__Mid2$ = 20						; size = 4
?unshift@?$codecvt@DDH@std@@QBEHAAHPAD1AAPAD@Z PROC	; std::codecvt<char,char,int>::unshift, COMDAT
; _this$ = ecx

; 823  : 		{	// generate bytes to return to default shift state

	push	ebp
	mov	ebp, esp
	sub	esp, 204				; 000000ccH
	push	ebx
	push	esi
	push	edi
	push	ecx
	lea	edi, DWORD PTR [ebp-204]
	mov	ecx, 51					; 00000033H
	mov	eax, -858993460				; ccccccccH
	rep stosd
	pop	ecx
	mov	DWORD PTR _this$[ebp], ecx

; 824  : 		return (do_unshift(_State, _First2, _Last2, _Mid2));

	mov	esi, esp
	mov	eax, DWORD PTR __Mid2$[ebp]
	push	eax
	mov	ecx, DWORD PTR __Last2$[ebp]
	push	ecx
	mov	edx, DWORD PTR __First2$[ebp]
	push	edx
	mov	eax, DWORD PTR __State$[ebp]
	push	eax
	mov	ecx, DWORD PTR _this$[ebp]
	mov	edx, DWORD PTR [ecx]
	mov	ecx, DWORD PTR _this$[ebp]
	mov	eax, DWORD PTR [edx+24]
	call	eax
	cmp	esi, esp
	call	__RTC_CheckEsp

; 825  : 		}

	pop	edi
	pop	esi
	pop	ebx
	add	esp, 204				; 000000ccH
	cmp	ebp, esp
	call	__RTC_CheckEsp
	mov	esp, ebp
	pop	ebp
	ret	16					; 00000010H
?unshift@?$codecvt@DDH@std@@QBEHAAHPAD1AAPAD@Z ENDP	; std::codecvt<char,char,int>::unshift
; Function compile flags: /Odtp /RTCsu /ZI
; File c:\program files (x86)\microsoft visual studio 10.0\vc\include\xmemory
_TEXT	ENDS
;	COMDAT ?deallocate@?$allocator@U_Container_proxy@std@@@std@@QAEXPAU_Container_proxy@2@I@Z
_TEXT	SEGMENT
_this$ = -8						; size = 4
__Ptr$ = 8						; size = 4
___formal$ = 12						; size = 4
?deallocate@?$allocator@U_Container_proxy@std@@@std@@QAEXPAU_Container_proxy@2@I@Z PROC ; std::allocator<std::_Container_proxy>::deallocate, COMDAT
; _this$ = ecx

; 181  : 		{	// deallocate object at _Ptr, ignore size

	push	ebp
	mov	ebp, esp
	sub	esp, 204				; 000000ccH
	push	ebx
	push	esi
	push	edi
	push	ecx
	lea	edi, DWORD PTR [ebp-204]
	mov	ecx, 51					; 00000033H
	mov	eax, -858993460				; ccccccccH
	rep stosd
	pop	ecx
	mov	DWORD PTR _this$[ebp], ecx

; 182  : 		::operator delete(_Ptr);

	mov	eax, DWORD PTR __Ptr$[ebp]
	push	eax
	call	??3@YAXPAX@Z				; operator delete
	add	esp, 4

; 183  : 		}

	pop	edi
	pop	esi
	pop	ebx
	add	esp, 204				; 000000ccH
	cmp	ebp, esp
	call	__RTC_CheckEsp
	mov	esp, ebp
	pop	ebp
	ret	8
?deallocate@?$allocator@U_Container_proxy@std@@@std@@QAEXPAU_Container_proxy@2@I@Z ENDP ; std::allocator<std::_Container_proxy>::deallocate
_TEXT	ENDS
PUBLIC	??$_Allocate@U_Container_proxy@std@@@std@@YAPAU_Container_proxy@0@IPAU10@@Z ; std::_Allocate<std::_Container_proxy>
; Function compile flags: /Odtp /RTCsu /ZI
;	COMDAT ?allocate@?$allocator@U_Container_proxy@std@@@std@@QAEPAU_Container_proxy@2@I@Z
_TEXT	SEGMENT
_this$ = -8						; size = 4
__Count$ = 8						; size = 4
?allocate@?$allocator@U_Container_proxy@std@@@std@@QAEPAU_Container_proxy@2@I@Z PROC ; std::allocator<std::_Container_proxy>::allocate, COMDAT
; _this$ = ecx

; 186  : 		{	// allocate array of _Count elements

	push	ebp
	mov	ebp, esp
	sub	esp, 204				; 000000ccH
	push	ebx
	push	esi
	push	edi
	push	ecx
	lea	edi, DWORD PTR [ebp-204]
	mov	ecx, 51					; 00000033H
	mov	eax, -858993460				; ccccccccH
	rep stosd
	pop	ecx
	mov	DWORD PTR _this$[ebp], ecx

; 187  : 		return (_Allocate(_Count, (pointer)0));

	push	0
	mov	eax, DWORD PTR __Count$[ebp]
	push	eax
	call	??$_Allocate@U_Container_proxy@std@@@std@@YAPAU_Container_proxy@0@IPAU10@@Z ; std::_Allocate<std::_Container_proxy>
	add	esp, 8

; 188  : 		}

	pop	edi
	pop	esi
	pop	ebx
	add	esp, 204				; 000000ccH
	cmp	ebp, esp
	call	__RTC_CheckEsp
	mov	esp, ebp
	pop	ebp
	ret	4
?allocate@?$allocator@U_Container_proxy@std@@@std@@QAEPAU_Container_proxy@2@I@Z ENDP ; std::allocator<std::_Container_proxy>::allocate
; Function compile flags: /Odtp /RTCsu /ZI
; File c:\program files (x86)\microsoft visual studio 10.0\vc\include\xstring
_TEXT	ENDS
;	COMDAT ?assign@?$basic_string@DU?$char_traits@D@std@@V?$allocator@D@2@@std@@QAEAAV12@ABV12@II@Z
_TEXT	SEGMENT
__Num$ = -20						; size = 4
_this$ = -8						; size = 4
__Right$ = 8						; size = 4
__Roff$ = 12						; size = 4
__Count$ = 16						; size = 4
?assign@?$basic_string@DU?$char_traits@D@std@@V?$allocator@D@2@@std@@QAEAAV12@ABV12@II@Z PROC ; std::basic_string<char,std::char_traits<char>,std::allocator<char> >::assign, COMDAT
; _this$ = ecx

; 893  : 		{	// assign _Right [_Roff, _Roff + _Count)

	push	ebp
	mov	ebp, esp
	sub	esp, 216				; 000000d8H
	push	ebx
	push	esi
	push	edi
	push	ecx
	lea	edi, DWORD PTR [ebp-216]
	mov	ecx, 54					; 00000036H
	mov	eax, -858993460				; ccccccccH
	rep stosd
	pop	ecx
	mov	DWORD PTR _this$[ebp], ecx

; 894  : 		if (_Right.size() < _Roff)

	mov	ecx, DWORD PTR __Right$[ebp]
	call	?size@?$basic_string@DU?$char_traits@D@std@@V?$allocator@D@2@@std@@QBEIXZ ; std::basic_string<char,std::char_traits<char>,std::allocator<char> >::size
	cmp	eax, DWORD PTR __Roff$[ebp]
	jae	SHORT $LN5@assign@3

; 895  : 			_Xran();	// _Roff off end

	mov	ecx, DWORD PTR _this$[ebp]
	call	?_Xran@?$basic_string@DU?$char_traits@D@std@@V?$allocator@D@2@@std@@QBEXXZ ; std::basic_string<char,std::char_traits<char>,std::allocator<char> >::_Xran
$LN5@assign@3:

; 896  : 		size_type _Num = _Right.size() - _Roff;

	mov	ecx, DWORD PTR __Right$[ebp]
	call	?size@?$basic_string@DU?$char_traits@D@std@@V?$allocator@D@2@@std@@QBEIXZ ; std::basic_string<char,std::char_traits<char>,std::allocator<char> >::size
	sub	eax, DWORD PTR __Roff$[ebp]
	mov	DWORD PTR __Num$[ebp], eax

; 897  : 		if (_Count < _Num)

	mov	eax, DWORD PTR __Count$[ebp]
	cmp	eax, DWORD PTR __Num$[ebp]
	jae	SHORT $LN4@assign@3

; 898  : 			_Num = _Count;	// trim _Num to size

	mov	eax, DWORD PTR __Count$[ebp]
	mov	DWORD PTR __Num$[ebp], eax
$LN4@assign@3:

; 899  : 
; 900  : 		if (this == &_Right)

	mov	eax, DWORD PTR _this$[ebp]
	cmp	eax, DWORD PTR __Right$[ebp]
	jne	SHORT $LN3@assign@3

; 901  : 			erase((size_type)(_Roff + _Num)), erase(0, _Roff);	// substring

	mov	eax, DWORD PTR ?npos@?$basic_string@DU?$char_traits@D@std@@V?$allocator@D@2@@std@@2IB ; std::basic_string<char,std::char_traits<char>,std::allocator<char> >::npos
	push	eax
	mov	ecx, DWORD PTR __Roff$[ebp]
	add	ecx, DWORD PTR __Num$[ebp]
	push	ecx
	mov	ecx, DWORD PTR _this$[ebp]
	call	?erase@?$basic_string@DU?$char_traits@D@std@@V?$allocator@D@2@@std@@QAEAAV12@II@Z ; std::basic_string<char,std::char_traits<char>,std::allocator<char> >::erase
	mov	edx, DWORD PTR __Roff$[ebp]
	push	edx
	push	0
	mov	ecx, DWORD PTR _this$[ebp]
	call	?erase@?$basic_string@DU?$char_traits@D@std@@V?$allocator@D@2@@std@@QAEAAV12@II@Z ; std::basic_string<char,std::char_traits<char>,std::allocator<char> >::erase
	jmp	SHORT $LN2@assign@3
$LN3@assign@3:

; 902  : 		else if (_Grow(_Num))

	push	0
	mov	eax, DWORD PTR __Num$[ebp]
	push	eax
	mov	ecx, DWORD PTR _this$[ebp]
	call	?_Grow@?$basic_string@DU?$char_traits@D@std@@V?$allocator@D@2@@std@@QAE_NI_N@Z ; std::basic_string<char,std::char_traits<char>,std::allocator<char> >::_Grow
	movzx	ecx, al
	test	ecx, ecx
	je	SHORT $LN2@assign@3

; 903  : 			{	// make room and assign new stuff
; 904  : 			_Traits::copy(_Myptr(), _Right._Myptr() + _Roff, _Num);

	mov	eax, DWORD PTR __Num$[ebp]
	push	eax
	mov	ecx, DWORD PTR __Right$[ebp]
	call	?_Myptr@?$basic_string@DU?$char_traits@D@std@@V?$allocator@D@2@@std@@QBEPBDXZ ; std::basic_string<char,std::char_traits<char>,std::allocator<char> >::_Myptr
	add	eax, DWORD PTR __Roff$[ebp]
	push	eax
	mov	ecx, DWORD PTR _this$[ebp]
	call	?_Myptr@?$basic_string@DU?$char_traits@D@std@@V?$allocator@D@2@@std@@QAEPADXZ ; std::basic_string<char,std::char_traits<char>,std::allocator<char> >::_Myptr
	push	eax
	call	?copy@?$char_traits@D@std@@SAPADPADPBDI@Z ; std::char_traits<char>::copy
	add	esp, 12					; 0000000cH

; 905  : 			_Eos(_Num);

	mov	eax, DWORD PTR __Num$[ebp]
	push	eax
	mov	ecx, DWORD PTR _this$[ebp]
	call	?_Eos@?$basic_string@DU?$char_traits@D@std@@V?$allocator@D@2@@std@@QAEXI@Z ; std::basic_string<char,std::char_traits<char>,std::allocator<char> >::_Eos
$LN2@assign@3:

; 906  : 			}
; 907  : 		return (*this);

	mov	eax, DWORD PTR _this$[ebp]
$LN7@assign@3:

; 908  : 		}

	pop	edi
	pop	esi
	pop	ebx
	add	esp, 216				; 000000d8H
	cmp	ebp, esp
	call	__RTC_CheckEsp
	mov	esp, ebp
	pop	ebp
	ret	12					; 0000000cH
?assign@?$basic_string@DU?$char_traits@D@std@@V?$allocator@D@2@@std@@QAEAAV12@ABV12@II@Z ENDP ; std::basic_string<char,std::char_traits<char>,std::allocator<char> >::assign
_TEXT	ENDS
PUBLIC	??$_Allocate@D@std@@YAPADIPAD@Z			; std::_Allocate<char>
; Function compile flags: /Odtp /RTCsu /ZI
; File c:\program files (x86)\microsoft visual studio 10.0\vc\include\xmemory
;	COMDAT ?allocate@?$allocator@D@std@@QAEPADI@Z
_TEXT	SEGMENT
_this$ = -8						; size = 4
__Count$ = 8						; size = 4
?allocate@?$allocator@D@std@@QAEPADI@Z PROC		; std::allocator<char>::allocate, COMDAT
; _this$ = ecx

; 186  : 		{	// allocate array of _Count elements

	push	ebp
	mov	ebp, esp
	sub	esp, 204				; 000000ccH
	push	ebx
	push	esi
	push	edi
	push	ecx
	lea	edi, DWORD PTR [ebp-204]
	mov	ecx, 51					; 00000033H
	mov	eax, -858993460				; ccccccccH
	rep stosd
	pop	ecx
	mov	DWORD PTR _this$[ebp], ecx

; 187  : 		return (_Allocate(_Count, (pointer)0));

	push	0
	mov	eax, DWORD PTR __Count$[ebp]
	push	eax
	call	??$_Allocate@D@std@@YAPADIPAD@Z		; std::_Allocate<char>
	add	esp, 8

; 188  : 		}

	pop	edi
	pop	esi
	pop	ebx
	add	esp, 204				; 000000ccH
	cmp	ebp, esp
	call	__RTC_CheckEsp
	mov	esp, ebp
	pop	ebp
	ret	4
?allocate@?$allocator@D@std@@QAEPADI@Z ENDP		; std::allocator<char>::allocate
; Function compile flags: /Odtp /RTCsu /ZI
_TEXT	ENDS
;	COMDAT ?max_size@?$allocator@D@std@@QBEIXZ
_TEXT	SEGMENT
tv65 = -220						; size = 4
__Count$ = -20						; size = 4
_this$ = -8						; size = 4
?max_size@?$allocator@D@std@@QBEIXZ PROC		; std::allocator<char>::max_size, COMDAT
; _this$ = ecx

; 217  : 		{	// estimate maximum array size

	push	ebp
	mov	ebp, esp
	sub	esp, 220				; 000000dcH
	push	ebx
	push	esi
	push	edi
	push	ecx
	lea	edi, DWORD PTR [ebp-220]
	mov	ecx, 55					; 00000037H
	mov	eax, -858993460				; ccccccccH
	rep stosd
	pop	ecx
	mov	DWORD PTR _this$[ebp], ecx

; 218  : 		_SIZT _Count = (_SIZT)(-1) / sizeof (_Ty);

	mov	DWORD PTR __Count$[ebp], -1

; 219  : 		return (0 < _Count ? _Count : 1);

	cmp	DWORD PTR __Count$[ebp], 0
	jbe	SHORT $LN3@max_size@2
	mov	eax, DWORD PTR __Count$[ebp]
	mov	DWORD PTR tv65[ebp], eax
	jmp	SHORT $LN4@max_size@2
$LN3@max_size@2:
	mov	DWORD PTR tv65[ebp], 1
$LN4@max_size@2:
	mov	eax, DWORD PTR tv65[ebp]

; 220  : 		}

	pop	edi
	pop	esi
	pop	ebx
	mov	esp, ebp
	pop	ebp
	ret	0
?max_size@?$allocator@D@std@@QBEIXZ ENDP		; std::allocator<char>::max_size
_TEXT	ENDS
PUBLIC	?widen@?$basic_ios@DU?$char_traits@D@std@@@std@@QBEDD@Z ; std::basic_ios<char,std::char_traits<char> >::widen
PUBLIC	?_Init@ios_base@std@@IAEXXZ			; std::ios_base::_Init
; Function compile flags: /Odtp /RTCsu /ZI
; File c:\program files (x86)\microsoft visual studio 10.0\vc\include\ios
;	COMDAT ?init@?$basic_ios@DU?$char_traits@D@std@@@std@@IAEXPAV?$basic_streambuf@DU?$char_traits@D@std@@@2@_N@Z
_TEXT	SEGMENT
_this$ = -8						; size = 4
__Strbuf$ = 8						; size = 4
__Isstd$ = 12						; size = 1
?init@?$basic_ios@DU?$char_traits@D@std@@@std@@IAEXPAV?$basic_streambuf@DU?$char_traits@D@std@@@2@_N@Z PROC ; std::basic_ios<char,std::char_traits<char> >::init, COMDAT
; _this$ = ecx

; 154  : 		{	// initialize with stream buffer pointer

	push	ebp
	mov	ebp, esp
	sub	esp, 204				; 000000ccH
	push	ebx
	push	esi
	push	edi
	push	ecx
	lea	edi, DWORD PTR [ebp-204]
	mov	ecx, 51					; 00000033H
	mov	eax, -858993460				; ccccccccH
	rep stosd
	pop	ecx
	mov	DWORD PTR _this$[ebp], ecx

; 155  : 		_Init();	// initialize ios_base

	mov	ecx, DWORD PTR _this$[ebp]
	call	?_Init@ios_base@std@@IAEXXZ		; std::ios_base::_Init

; 156  : 		_Mystrbuf = _Strbuf;

	mov	eax, DWORD PTR _this$[ebp]
	mov	ecx, DWORD PTR __Strbuf$[ebp]
	mov	DWORD PTR [eax+56], ecx

; 157  : 		_Tiestr = 0;

	mov	eax, DWORD PTR _this$[ebp]
	mov	DWORD PTR [eax+60], 0

; 158  : 		_Fillch = widen(' ');

	push	32					; 00000020H
	mov	ecx, DWORD PTR _this$[ebp]
	call	?widen@?$basic_ios@DU?$char_traits@D@std@@@std@@QBEDD@Z ; std::basic_ios<char,std::char_traits<char> >::widen
	mov	ecx, DWORD PTR _this$[ebp]
	mov	BYTE PTR [ecx+64], al

; 159  : 
; 160  : 		if (_Mystrbuf == 0)

	mov	eax, DWORD PTR _this$[ebp]
	cmp	DWORD PTR [eax+56], 0
	jne	SHORT $LN2@init

; 161  : 			setstate(badbit);

	push	0
	push	4
	mov	ecx, DWORD PTR _this$[ebp]
	call	?setstate@?$basic_ios@DU?$char_traits@D@std@@@std@@QAEXH_N@Z ; std::basic_ios<char,std::char_traits<char> >::setstate
$LN2@init:

; 162  : 
; 163  : 		if (_Isstd)

	movzx	eax, BYTE PTR __Isstd$[ebp]
	test	eax, eax
	je	SHORT $LN3@init

; 164  : 			_Addstd(this);	// special handling for standard streams

	mov	eax, DWORD PTR _this$[ebp]
	push	eax
	call	?_Addstd@ios_base@std@@SAXPAV12@@Z	; std::ios_base::_Addstd
	add	esp, 4
$LN3@init:

; 165  : 		}

	pop	edi
	pop	esi
	pop	ebx
	add	esp, 204				; 000000ccH
	cmp	ebp, esp
	call	__RTC_CheckEsp
	mov	esp, ebp
	pop	ebp
	ret	8
?init@?$basic_ios@DU?$char_traits@D@std@@@std@@IAEXPAV?$basic_streambuf@DU?$char_traits@D@std@@@2@_N@Z ENDP ; std::basic_ios<char,std::char_traits<char> >::init
_TEXT	ENDS
PUBLIC	??_C@_0EI@INNFLINN@c?3?2program?5files?5?$CIx86?$CJ?2microsoft@ ; `string'
PUBLIC	?clear@ios_base@std@@QAEXH@Z			; std::ios_base::clear
;	COMDAT ??_C@_0EI@INNFLINN@c?3?2program?5files?5?$CIx86?$CJ?2microsoft@
; File c:\program files (x86)\microsoft visual studio 10.0\vc\include\xiosbase
CONST	SEGMENT
??_C@_0EI@INNFLINN@c?3?2program?5files?5?$CIx86?$CJ?2microsoft@ DB 'c:\pr'
	DB	'ogram files (x86)\microsoft visual studio 10.0\vc\include\xio'
	DB	'sbase', 00H					; `string'
; Function compile flags: /Odtp /RTCsu /ZI
CONST	ENDS
;	COMDAT ?_Init@ios_base@std@@IAEXXZ
_TEXT	SEGMENT
tv84 = -220						; size = 4
$T37578 = -212						; size = 4
_this$ = -8						; size = 4
?_Init@ios_base@std@@IAEXXZ PROC			; std::ios_base::_Init, COMDAT
; _this$ = ecx

; 554  : 		{	// initialize a new ios_base

	push	ebp
	mov	ebp, esp
	sub	esp, 220				; 000000dcH
	push	ebx
	push	esi
	push	edi
	push	ecx
	lea	edi, DWORD PTR [ebp-220]
	mov	ecx, 55					; 00000037H
	mov	eax, -858993460				; ccccccccH
	rep stosd
	pop	ecx
	mov	DWORD PTR _this$[ebp], ecx

; 555  : 		_Ploc = 0;

	mov	eax, DWORD PTR _this$[ebp]
	mov	DWORD PTR [eax+48], 0

; 556  : 		_Stdstr = 0;

	mov	eax, DWORD PTR _this$[ebp]
	mov	DWORD PTR [eax+8], 0

; 557  : 		_Except = goodbit;

	mov	eax, DWORD PTR _this$[ebp]
	mov	DWORD PTR [eax+16], 0

; 558  : 		_Fmtfl = (fmtflags)(skipws | dec);

	mov	eax, DWORD PTR _this$[ebp]
	mov	DWORD PTR [eax+20], 513			; 00000201H

; 559  : 		_Prec = 6;

	mov	eax, DWORD PTR _this$[ebp]
	mov	DWORD PTR [eax+24], 6
	mov	DWORD PTR [eax+28], 0

; 560  : 		_Wide = 0;

	mov	eax, DWORD PTR _this$[ebp]
	mov	DWORD PTR [eax+32], 0
	mov	DWORD PTR [eax+36], 0

; 561  : 		_Arr = 0;

	mov	eax, DWORD PTR _this$[ebp]
	mov	DWORD PTR [eax+40], 0

; 562  : 		_Calls = 0;

	mov	eax, DWORD PTR _this$[ebp]
	mov	DWORD PTR [eax+44], 0

; 563  : 		clear(goodbit);

	push	0
	mov	ecx, DWORD PTR _this$[ebp]
	call	?clear@ios_base@std@@QAEXH@Z		; std::ios_base::clear

; 564  : 		_Ploc = _NEW_CRT locale;

	push	564					; 00000234H
	push	OFFSET ??_C@_0EI@INNFLINN@c?3?2program?5files?5?$CIx86?$CJ?2microsoft@
	call	?_DebugHeapTag_func@std@@YAABU_DebugHeapTag_t@1@XZ ; std::_DebugHeapTag_func
	push	eax
	push	4
	call	??2@YAPAXIABU_DebugHeapTag_t@std@@PADH@Z ; operator new
	add	esp, 16					; 00000010H
	mov	DWORD PTR $T37578[ebp], eax
	cmp	DWORD PTR $T37578[ebp], 0
	je	SHORT $LN3@Init@2
	mov	ecx, DWORD PTR $T37578[ebp]
	call	??0locale@std@@QAE@XZ			; std::locale::locale
	mov	DWORD PTR tv84[ebp], eax
	jmp	SHORT $LN4@Init@2
$LN3@Init@2:
	mov	DWORD PTR tv84[ebp], 0
$LN4@Init@2:
	mov	eax, DWORD PTR _this$[ebp]
	mov	ecx, DWORD PTR tv84[ebp]
	mov	DWORD PTR [eax+48], ecx

; 565  : 		}

	pop	edi
	pop	esi
	pop	ebx
	add	esp, 220				; 000000dcH
	cmp	ebp, esp
	call	__RTC_CheckEsp
	mov	esp, ebp
	pop	ebp
	ret	0
?_Init@ios_base@std@@IAEXXZ ENDP			; std::ios_base::_Init
; Function compile flags: /Odtp /RTCsu /ZI
_TEXT	ENDS
;	COMDAT ?clear@ios_base@std@@QAEXH@Z
_TEXT	SEGMENT
_this$ = -8						; size = 4
__State$ = 8						; size = 4
?clear@ios_base@std@@QAEXH@Z PROC			; std::ios_base::clear, COMDAT
; _this$ = ecx

; 325  : 		{	// set state to argument

	push	ebp
	mov	ebp, esp
	sub	esp, 204				; 000000ccH
	push	ebx
	push	esi
	push	edi
	push	ecx
	lea	edi, DWORD PTR [ebp-204]
	mov	ecx, 51					; 00000033H
	mov	eax, -858993460				; ccccccccH
	rep stosd
	pop	ecx
	mov	DWORD PTR _this$[ebp], ecx

; 326  : 		clear(_State, false);

	push	0
	mov	eax, DWORD PTR __State$[ebp]
	push	eax
	mov	ecx, DWORD PTR _this$[ebp]
	call	?clear@ios_base@std@@QAEXH_N@Z		; std::ios_base::clear

; 327  : 		}

	pop	edi
	pop	esi
	pop	ebx
	add	esp, 204				; 000000ccH
	cmp	ebp, esp
	call	__RTC_CheckEsp
	mov	esp, ebp
	pop	ebp
	ret	4
?clear@ios_base@std@@QAEXH@Z ENDP			; std::ios_base::clear
; Function compile flags: /Odtp /RTCsu /ZI
; File c:\program files (x86)\microsoft visual studio 10.0\vc\include\streambuf
_TEXT	ENDS
;	COMDAT ?setp@?$basic_streambuf@DU?$char_traits@D@std@@@std@@IAEXPAD0@Z
_TEXT	SEGMENT
_this$ = -8						; size = 4
__First$ = 8						; size = 4
__Last$ = 12						; size = 4
?setp@?$basic_streambuf@DU?$char_traits@D@std@@@std@@IAEXPAD0@Z PROC ; std::basic_streambuf<char,std::char_traits<char> >::setp, COMDAT
; _this$ = ecx

; 289  : 		{	// set pointers for write buffer

	push	ebp
	mov	ebp, esp
	sub	esp, 204				; 000000ccH
	push	ebx
	push	esi
	push	edi
	push	ecx
	lea	edi, DWORD PTR [ebp-204]
	mov	ecx, 51					; 00000033H
	mov	eax, -858993460				; ccccccccH
	rep stosd
	pop	ecx
	mov	DWORD PTR _this$[ebp], ecx

; 290  : 		*_IPfirst = _First;

	mov	eax, DWORD PTR _this$[ebp]
	mov	ecx, DWORD PTR [eax+20]
	mov	edx, DWORD PTR __First$[ebp]
	mov	DWORD PTR [ecx], edx

; 291  : 		*_IPnext = _First;

	mov	eax, DWORD PTR _this$[ebp]
	mov	ecx, DWORD PTR [eax+36]
	mov	edx, DWORD PTR __First$[ebp]
	mov	DWORD PTR [ecx], edx

; 292  : 		*_IPcount = (int)(_Last - _First);

	mov	eax, DWORD PTR __Last$[ebp]
	sub	eax, DWORD PTR __First$[ebp]
	mov	ecx, DWORD PTR _this$[ebp]
	mov	edx, DWORD PTR [ecx+52]
	mov	DWORD PTR [edx], eax

; 293  : 		}

	pop	edi
	pop	esi
	pop	ebx
	mov	esp, ebp
	pop	ebp
	ret	8
?setp@?$basic_streambuf@DU?$char_traits@D@std@@@std@@IAEXPAD0@Z ENDP ; std::basic_streambuf<char,std::char_traits<char> >::setp
_TEXT	ENDS
PUBLIC	?_Adopt@_Iterator_base12@std@@QAEXPBU_Container_base12@2@@Z ; std::_Iterator_base12::_Adopt
PUBLIC	??0?$_Iterator012@Urandom_access_iterator_tag@std@@DHPBDABDU_Iterator_base12@2@@std@@QAE@XZ ; std::_Iterator012<std::random_access_iterator_tag,char,int,char const *,char const &,std::_Iterator_base12>::_Iterator012<std::random_access_iterator_tag,char,int,char const *,char const &,std::_Iterator_base12>
;	COMDAT xdata$x
; File c:\program files (x86)\microsoft visual studio 10.0\vc\include\xstring
xdata$x	SEGMENT
__unwindtable$??0?$_String_const_iterator@DU?$char_traits@D@std@@V?$allocator@D@2@@std@@QAE@PBDPBU_Container_base12@1@@Z DD 0ffffffffH
	DD	FLAT:__unwindfunclet$??0?$_String_const_iterator@DU?$char_traits@D@std@@V?$allocator@D@2@@std@@QAE@PBDPBU_Container_base12@1@@Z$0
__ehfuncinfo$??0?$_String_const_iterator@DU?$char_traits@D@std@@V?$allocator@D@2@@std@@QAE@PBDPBU_Container_base12@1@@Z DD 019930522H
	DD	01H
	DD	FLAT:__unwindtable$??0?$_String_const_iterator@DU?$char_traits@D@std@@V?$allocator@D@2@@std@@QAE@PBDPBU_Container_base12@1@@Z
	DD	2 DUP(00H)
	DD	2 DUP(00H)
	DD	00H
	DD	01H
; Function compile flags: /Odtp /RTCsu /ZI
xdata$x	ENDS
;	COMDAT ??0?$_String_const_iterator@DU?$char_traits@D@std@@V?$allocator@D@2@@std@@QAE@PBDPBU_Container_base12@1@@Z
_TEXT	SEGMENT
_this$ = -20						; size = 4
__$EHRec$ = -12						; size = 12
__Parg$ = 8						; size = 4
__Pstring$ = 12						; size = 4
??0?$_String_const_iterator@DU?$char_traits@D@std@@V?$allocator@D@2@@std@@QAE@PBDPBU_Container_base12@1@@Z PROC ; std::_String_const_iterator<char,std::char_traits<char>,std::allocator<char> >::_String_const_iterator<char,std::char_traits<char>,std::allocator<char> >, COMDAT
; _this$ = ecx

; 50   : 	_String_const_iterator(pointer _Parg, const _Container_base *_Pstring)

	push	ebp
	mov	ebp, esp
	push	-1
	push	__ehhandler$??0?$_String_const_iterator@DU?$char_traits@D@std@@V?$allocator@D@2@@std@@QAE@PBDPBU_Container_base12@1@@Z
	mov	eax, DWORD PTR fs:0
	push	eax
	sub	esp, 204				; 000000ccH
	push	ebx
	push	esi
	push	edi
	push	ecx
	lea	edi, DWORD PTR [ebp-216]
	mov	ecx, 51					; 00000033H
	mov	eax, -858993460				; ccccccccH
	rep stosd
	pop	ecx
	mov	eax, DWORD PTR ___security_cookie
	xor	eax, ebp
	push	eax
	lea	eax, DWORD PTR __$EHRec$[ebp]
	mov	DWORD PTR fs:0, eax
	mov	DWORD PTR _this$[ebp], ecx
	mov	ecx, DWORD PTR _this$[ebp]
	call	??0?$_Iterator012@Urandom_access_iterator_tag@std@@DHPBDABDU_Iterator_base12@2@@std@@QAE@XZ
	mov	DWORD PTR __$EHRec$[ebp+8], 0

; 51   : 		{	// construct with pointer _Parg
; 52   : 		this->_Adopt(_Pstring);

	mov	eax, DWORD PTR __Pstring$[ebp]
	push	eax
	mov	ecx, DWORD PTR _this$[ebp]
	call	?_Adopt@_Iterator_base12@std@@QAEXPBU_Container_base12@2@@Z ; std::_Iterator_base12::_Adopt

; 53   : 		this->_Ptr = _Parg;

	mov	eax, DWORD PTR _this$[ebp]
	mov	ecx, DWORD PTR __Parg$[ebp]
	mov	DWORD PTR [eax+8], ecx

; 54   : 		}

	mov	DWORD PTR __$EHRec$[ebp+8], -1
	mov	eax, DWORD PTR _this$[ebp]
	mov	ecx, DWORD PTR __$EHRec$[ebp]
	mov	DWORD PTR fs:0, ecx
	pop	ecx
	pop	edi
	pop	esi
	pop	ebx
	add	esp, 216				; 000000d8H
	cmp	ebp, esp
	call	__RTC_CheckEsp
	mov	esp, ebp
	pop	ebp
	ret	8
_TEXT	ENDS
;	COMDAT text$x
text$x	SEGMENT
__unwindfunclet$??0?$_String_const_iterator@DU?$char_traits@D@std@@V?$allocator@D@2@@std@@QAE@PBDPBU_Container_base12@1@@Z$0:
	mov	ecx, DWORD PTR _this$[ebp]
	jmp	??1?$_Iterator012@Urandom_access_iterator_tag@std@@DHPBDABDU_Iterator_base12@2@@std@@QAE@XZ
__ehhandler$??0?$_String_const_iterator@DU?$char_traits@D@std@@V?$allocator@D@2@@std@@QAE@PBDPBU_Container_base12@1@@Z:
	mov	edx, DWORD PTR [esp+8]
	lea	eax, DWORD PTR [edx+12]
	mov	ecx, DWORD PTR [edx-220]
	xor	ecx, eax
	call	@__security_check_cookie@4
	mov	eax, OFFSET __ehfuncinfo$??0?$_String_const_iterator@DU?$char_traits@D@std@@V?$allocator@D@2@@std@@QAE@PBDPBU_Container_base12@1@@Z
	jmp	___CxxFrameHandler3
text$x	ENDS
??0?$_String_const_iterator@DU?$char_traits@D@std@@V?$allocator@D@2@@std@@QAE@PBDPBU_Container_base12@1@@Z ENDP ; std::_String_const_iterator<char,std::char_traits<char>,std::allocator<char> >::_String_const_iterator<char,std::char_traits<char>,std::allocator<char> >
;	COMDAT xdata$x
; File c:\program files (x86)\microsoft visual studio 10.0\vc\include\xutility
xdata$x	SEGMENT
__unwindtable$?_Adopt@_Iterator_base12@std@@QAEXPBU_Container_base12@2@@Z DD 0ffffffffH
	DD	FLAT:__unwindfunclet$?_Adopt@_Iterator_base12@std@@QAEXPBU_Container_base12@2@@Z$0
__ehfuncinfo$?_Adopt@_Iterator_base12@std@@QAEXPBU_Container_base12@2@@Z DD 019930522H
	DD	01H
	DD	FLAT:__unwindtable$?_Adopt@_Iterator_base12@std@@QAEXPBU_Container_base12@2@@Z
	DD	2 DUP(00H)
	DD	2 DUP(00H)
	DD	00H
	DD	01H
; Function compile flags: /Odtp /RTCsu /ZI
xdata$x	ENDS
;	COMDAT ?_Adopt@_Iterator_base12@std@@QAEXPBU_Container_base12@2@@Z
_TEXT	SEGMENT
__Lock$12803 = -44					; size = 4
__Parent_proxy$12801 = -32				; size = 4
_this$ = -20						; size = 4
__$EHRec$ = -12						; size = 12
__Parent$ = 8						; size = 4
?_Adopt@_Iterator_base12@std@@QAEXPBU_Container_base12@2@@Z PROC ; std::_Iterator_base12::_Adopt, COMDAT
; _this$ = ecx

; 136  : 		{	// adopt this iterator by parent

	push	ebp
	mov	ebp, esp
	push	-1
	push	__ehhandler$?_Adopt@_Iterator_base12@std@@QAEXPBU_Container_base12@2@@Z
	mov	eax, DWORD PTR fs:0
	push	eax
	sub	esp, 228				; 000000e4H
	push	ebx
	push	esi
	push	edi
	push	ecx
	lea	edi, DWORD PTR [ebp-240]
	mov	ecx, 57					; 00000039H
	mov	eax, -858993460				; ccccccccH
	rep stosd
	pop	ecx
	mov	eax, DWORD PTR ___security_cookie
	xor	eax, ebp
	push	eax
	lea	eax, DWORD PTR __$EHRec$[ebp]
	mov	DWORD PTR fs:0, eax
	mov	DWORD PTR _this$[ebp], ecx

; 137  : 		if (_Parent != 0)

	cmp	DWORD PTR __Parent$[ebp], 0
	je	SHORT $LN3@Adopt

; 138  : 			{	// have a parent, do adoption
; 139  : 			_Container_proxy *_Parent_proxy = _Parent->_Myproxy;

	mov	eax, DWORD PTR __Parent$[ebp]
	mov	ecx, DWORD PTR [eax]
	mov	DWORD PTR __Parent_proxy$12801[ebp], ecx

; 140  : 
; 141  :  #if _ITERATOR_DEBUG_LEVEL == 2
; 142  : 			if (_Myproxy != _Parent_proxy)

	mov	eax, DWORD PTR _this$[ebp]
	mov	ecx, DWORD PTR [eax]
	cmp	ecx, DWORD PTR __Parent_proxy$12801[ebp]
	je	SHORT $LN3@Adopt

; 143  : 				{	// change parentage
; 144  : 				_Lockit _Lock(_LOCK_DEBUG);

	push	3
	lea	ecx, DWORD PTR __Lock$12803[ebp]
	call	??0_Lockit@std@@QAE@H@Z			; std::_Lockit::_Lockit
	mov	DWORD PTR __$EHRec$[ebp+8], 0

; 145  : 				_Orphan_me();

	mov	ecx, DWORD PTR _this$[ebp]
	call	?_Orphan_me@_Iterator_base12@std@@QAEXXZ ; std::_Iterator_base12::_Orphan_me

; 146  : 				_Mynextiter = _Parent_proxy->_Myfirstiter;

	mov	eax, DWORD PTR _this$[ebp]
	mov	ecx, DWORD PTR __Parent_proxy$12801[ebp]
	mov	edx, DWORD PTR [ecx+4]
	mov	DWORD PTR [eax+4], edx

; 147  : 				_Parent_proxy->_Myfirstiter = this;

	mov	eax, DWORD PTR __Parent_proxy$12801[ebp]
	mov	ecx, DWORD PTR _this$[ebp]
	mov	DWORD PTR [eax+4], ecx

; 148  : 				_Myproxy = _Parent_proxy;

	mov	eax, DWORD PTR _this$[ebp]
	mov	ecx, DWORD PTR __Parent_proxy$12801[ebp]
	mov	DWORD PTR [eax], ecx

; 149  : 				}

	mov	DWORD PTR __$EHRec$[ebp+8], -1
	lea	ecx, DWORD PTR __Lock$12803[ebp]
	call	??1_Lockit@std@@QAE@XZ			; std::_Lockit::~_Lockit
$LN3@Adopt:

; 150  :  #else /* _ITERATOR_DEBUG_LEVEL == 2 */
; 151  : 			_Myproxy = _Parent_proxy;
; 152  :  #endif /* _ITERATOR_DEBUG_LEVEL == 2 */
; 153  : 			}
; 154  : 		}

	push	edx
	mov	ecx, ebp
	push	eax
	lea	edx, DWORD PTR $LN9@Adopt
	call	@_RTC_CheckStackVars@8
	pop	eax
	pop	edx
	mov	ecx, DWORD PTR __$EHRec$[ebp]
	mov	DWORD PTR fs:0, ecx
	pop	ecx
	pop	edi
	pop	esi
	pop	ebx
	add	esp, 240				; 000000f0H
	cmp	ebp, esp
	call	__RTC_CheckEsp
	mov	esp, ebp
	pop	ebp
	ret	4
	npad	3
$LN9@Adopt:
	DD	1
	DD	$LN8@Adopt
$LN8@Adopt:
	DD	-44					; ffffffd4H
	DD	4
	DD	$LN6@Adopt
$LN6@Adopt:
	DB	95					; 0000005fH
	DB	76					; 0000004cH
	DB	111					; 0000006fH
	DB	99					; 00000063H
	DB	107					; 0000006bH
	DB	0
_TEXT	ENDS
;	COMDAT text$x
text$x	SEGMENT
__unwindfunclet$?_Adopt@_Iterator_base12@std@@QAEXPBU_Container_base12@2@@Z$0:
	lea	ecx, DWORD PTR __Lock$12803[ebp]
	jmp	??1_Lockit@std@@QAE@XZ			; std::_Lockit::~_Lockit
__ehhandler$?_Adopt@_Iterator_base12@std@@QAEXPBU_Container_base12@2@@Z:
	mov	edx, DWORD PTR [esp+8]
	lea	eax, DWORD PTR [edx+12]
	mov	ecx, DWORD PTR [edx-244]
	xor	ecx, eax
	call	@__security_check_cookie@4
	mov	eax, OFFSET __ehfuncinfo$?_Adopt@_Iterator_base12@std@@QAEXPBU_Container_base12@2@@Z
	jmp	___CxxFrameHandler3
text$x	ENDS
?_Adopt@_Iterator_base12@std@@QAEXPBU_Container_base12@2@@Z ENDP ; std::_Iterator_base12::_Adopt
PUBLIC	??0_Iterator_base12@std@@QAE@XZ			; std::_Iterator_base12::_Iterator_base12
; Function compile flags: /Odtp /RTCsu /ZI
;	COMDAT ??0?$_Iterator012@Urandom_access_iterator_tag@std@@DHPBDABDU_Iterator_base12@2@@std@@QAE@XZ
_TEXT	SEGMENT
_this$ = -8						; size = 4
??0?$_Iterator012@Urandom_access_iterator_tag@std@@DHPBDABDU_Iterator_base12@2@@std@@QAE@XZ PROC ; std::_Iterator012<std::random_access_iterator_tag,char,int,char const *,char const &,std::_Iterator_base12>::_Iterator012<std::random_access_iterator_tag,char,int,char const *,char const &,std::_Iterator_base12>, COMDAT
; _this$ = ecx
	push	ebp
	mov	ebp, esp
	sub	esp, 204				; 000000ccH
	push	ebx
	push	esi
	push	edi
	push	ecx
	lea	edi, DWORD PTR [ebp-204]
	mov	ecx, 51					; 00000033H
	mov	eax, -858993460				; ccccccccH
	rep stosd
	pop	ecx
	mov	DWORD PTR _this$[ebp], ecx
	mov	ecx, DWORD PTR _this$[ebp]
	call	??0_Iterator_base12@std@@QAE@XZ		; std::_Iterator_base12::_Iterator_base12
	mov	eax, DWORD PTR _this$[ebp]
	pop	edi
	pop	esi
	pop	ebx
	add	esp, 204				; 000000ccH
	cmp	ebp, esp
	call	__RTC_CheckEsp
	mov	esp, ebp
	pop	ebp
	ret	0
??0?$_Iterator012@Urandom_access_iterator_tag@std@@DHPBDABDU_Iterator_base12@2@@std@@QAE@XZ ENDP ; std::_Iterator012<std::random_access_iterator_tag,char,int,char const *,char const &,std::_Iterator_base12>::_Iterator012<std::random_access_iterator_tag,char,int,char const *,char const &,std::_Iterator_base12>
; Function compile flags: /Odtp /RTCsu /ZI
_TEXT	ENDS
;	COMDAT ??0_Iterator_base12@std@@QAE@XZ
_TEXT	SEGMENT
_this$ = -8						; size = 4
??0_Iterator_base12@std@@QAE@XZ PROC			; std::_Iterator_base12::_Iterator_base12, COMDAT
; _this$ = ecx

; 111  : 		{	// construct orphaned iterator

	push	ebp
	mov	ebp, esp
	sub	esp, 204				; 000000ccH
	push	ebx
	push	esi
	push	edi
	push	ecx
	lea	edi, DWORD PTR [ebp-204]
	mov	ecx, 51					; 00000033H
	mov	eax, -858993460				; ccccccccH
	rep stosd
	pop	ecx
	mov	DWORD PTR _this$[ebp], ecx
	mov	eax, DWORD PTR _this$[ebp]
	mov	DWORD PTR [eax], 0
	mov	eax, DWORD PTR _this$[ebp]
	mov	DWORD PTR [eax+4], 0

; 112  : 		}

	mov	eax, DWORD PTR _this$[ebp]
	pop	edi
	pop	esi
	pop	ebx
	mov	esp, ebp
	pop	ebp
	ret	0
??0_Iterator_base12@std@@QAE@XZ ENDP			; std::_Iterator_base12::_Iterator_base12
_TEXT	ENDS
PUBLIC	?widen@?$ctype@D@std@@QBEDD@Z			; std::ctype<char>::widen
;	COMDAT xdata$x
; File c:\program files (x86)\microsoft visual studio 10.0\vc\include\ios
xdata$x	SEGMENT
__unwindtable$?widen@?$basic_ios@DU?$char_traits@D@std@@@std@@QBEDD@Z DD 0ffffffffH
	DD	FLAT:__unwindfunclet$?widen@?$basic_ios@DU?$char_traits@D@std@@@std@@QBEDD@Z$0
__ehfuncinfo$?widen@?$basic_ios@DU?$char_traits@D@std@@@std@@QBEDD@Z DD 019930522H
	DD	01H
	DD	FLAT:__unwindtable$?widen@?$basic_ios@DU?$char_traits@D@std@@@std@@QBEDD@Z
	DD	2 DUP(00H)
	DD	2 DUP(00H)
	DD	00H
	DD	01H
; Function compile flags: /Odtp /RTCsu /ZI
xdata$x	ENDS
;	COMDAT ?widen@?$basic_ios@DU?$char_traits@D@std@@@std@@QBEDD@Z
_TEXT	SEGMENT
tv79 = -248						; size = 4
tv80 = -244						; size = 4
$T37613 = -236						; size = 4
__Ctype_fac$ = -32					; size = 4
_this$ = -20						; size = 4
__$EHRec$ = -12						; size = 12
__Byte$ = 8						; size = 1
?widen@?$basic_ios@DU?$char_traits@D@std@@@std@@QBEDD@Z PROC ; std::basic_ios<char,std::char_traits<char> >::widen, COMDAT
; _this$ = ecx

; 124  : 		{	// convert _Byte to character using imbued locale

	push	ebp
	mov	ebp, esp
	push	-1
	push	__ehhandler$?widen@?$basic_ios@DU?$char_traits@D@std@@@std@@QBEDD@Z
	mov	eax, DWORD PTR fs:0
	push	eax
	sub	esp, 236				; 000000ecH
	push	ebx
	push	esi
	push	edi
	push	ecx
	lea	edi, DWORD PTR [ebp-248]
	mov	ecx, 59					; 0000003bH
	mov	eax, -858993460				; ccccccccH
	rep stosd
	pop	ecx
	mov	eax, DWORD PTR ___security_cookie
	xor	eax, ebp
	push	eax
	lea	eax, DWORD PTR __$EHRec$[ebp]
	mov	DWORD PTR fs:0, eax
	mov	DWORD PTR _this$[ebp], ecx

; 125  : 		const _Ctype& _Ctype_fac = _USE(getloc(), _Ctype);

	lea	eax, DWORD PTR $T37613[ebp]
	push	eax
	mov	ecx, DWORD PTR _this$[ebp]
	call	?getloc@ios_base@std@@QBE?AVlocale@2@XZ	; std::ios_base::getloc
	mov	DWORD PTR tv80[ebp], eax
	mov	ecx, DWORD PTR tv80[ebp]
	mov	DWORD PTR tv79[ebp], ecx
	mov	DWORD PTR __$EHRec$[ebp+8], 0
	mov	edx, DWORD PTR tv79[ebp]
	push	edx
	call	??$use_facet@V?$ctype@D@std@@@std@@YAABV?$ctype@D@0@ABVlocale@0@@Z ; std::use_facet<std::ctype<char> >
	add	esp, 4
	mov	DWORD PTR __Ctype_fac$[ebp], eax
	mov	DWORD PTR __$EHRec$[ebp+8], -1
	lea	ecx, DWORD PTR $T37613[ebp]
	call	??1locale@std@@QAE@XZ			; std::locale::~locale

; 126  : 		return (_Ctype_fac.widen(_Byte));

	movzx	eax, BYTE PTR __Byte$[ebp]
	push	eax
	mov	ecx, DWORD PTR __Ctype_fac$[ebp]
	call	?widen@?$ctype@D@std@@QBEDD@Z		; std::ctype<char>::widen

; 127  : 		}

	mov	ecx, DWORD PTR __$EHRec$[ebp]
	mov	DWORD PTR fs:0, ecx
	pop	ecx
	pop	edi
	pop	esi
	pop	ebx
	add	esp, 248				; 000000f8H
	cmp	ebp, esp
	call	__RTC_CheckEsp
	mov	esp, ebp
	pop	ebp
	ret	4
_TEXT	ENDS
;	COMDAT text$x
text$x	SEGMENT
__unwindfunclet$?widen@?$basic_ios@DU?$char_traits@D@std@@@std@@QBEDD@Z$0:
	lea	ecx, DWORD PTR $T37613[ebp]
	jmp	??1locale@std@@QAE@XZ			; std::locale::~locale
__ehhandler$?widen@?$basic_ios@DU?$char_traits@D@std@@@std@@QBEDD@Z:
	mov	edx, DWORD PTR [esp+8]
	lea	eax, DWORD PTR [edx+12]
	mov	ecx, DWORD PTR [edx-252]
	xor	ecx, eax
	call	@__security_check_cookie@4
	mov	eax, OFFSET __ehfuncinfo$?widen@?$basic_ios@DU?$char_traits@D@std@@@std@@QBEDD@Z
	jmp	___CxxFrameHandler3
text$x	ENDS
?widen@?$basic_ios@DU?$char_traits@D@std@@@std@@QBEDD@Z ENDP ; std::basic_ios<char,std::char_traits<char> >::widen
; Function compile flags: /Odtp /RTCsu /ZI
; File c:\program files (x86)\microsoft visual studio 10.0\vc\include\xlocale
;	COMDAT ?widen@?$ctype@D@std@@QBEDD@Z
_TEXT	SEGMENT
_this$ = -8						; size = 4
__Byte$ = 8						; size = 1
?widen@?$ctype@D@std@@QBEDD@Z PROC			; std::ctype<char>::widen, COMDAT
; _this$ = ecx

; 2324 : 		{	// widen char

	push	ebp
	mov	ebp, esp
	sub	esp, 204				; 000000ccH
	push	ebx
	push	esi
	push	edi
	push	ecx
	lea	edi, DWORD PTR [ebp-204]
	mov	ecx, 51					; 00000033H
	mov	eax, -858993460				; ccccccccH
	rep stosd
	pop	ecx
	mov	DWORD PTR _this$[ebp], ecx

; 2325 : 		return (do_widen(_Byte));

	mov	esi, esp
	movzx	eax, BYTE PTR __Byte$[ebp]
	push	eax
	mov	ecx, DWORD PTR _this$[ebp]
	mov	edx, DWORD PTR [ecx]
	mov	ecx, DWORD PTR _this$[ebp]
	mov	eax, DWORD PTR [edx+24]
	call	eax
	cmp	esi, esp
	call	__RTC_CheckEsp

; 2326 : 		}

	pop	edi
	pop	esi
	pop	ebx
	add	esp, 204				; 000000ccH
	cmp	ebp, esp
	call	__RTC_CheckEsp
	mov	esp, ebp
	pop	ebp
	ret	4
?widen@?$ctype@D@std@@QBEDD@Z ENDP			; std::ctype<char>::widen
_TEXT	ENDS
EXTRN	_free:PROC
; Function compile flags: /Odtp /RTCsu /ZI
; File c:\program files (x86)\microsoft visual studio 10.0\vc\include\xdebug
;	COMDAT ??$_DebugHeapDelete@Vfacet@locale@std@@@std@@YAXPAVfacet@locale@0@@Z
_TEXT	SEGMENT
__Ptr$ = 8						; size = 4
??$_DebugHeapDelete@Vfacet@locale@std@@@std@@YAXPAVfacet@locale@0@@Z PROC ; std::_DebugHeapDelete<std::locale::facet>, COMDAT

; 56   : 	{	// delete from the debug CRT heap even if operator delete exists

	push	ebp
	mov	ebp, esp
	sub	esp, 192				; 000000c0H
	push	ebx
	push	esi
	push	edi
	lea	edi, DWORD PTR [ebp-192]
	mov	ecx, 48					; 00000030H
	mov	eax, -858993460				; ccccccccH
	rep stosd

; 57   : 	if (_Ptr != 0)

	cmp	DWORD PTR __Ptr$[ebp], 0
	je	SHORT $LN2@DebugHeapD

; 58   : 		{	// worth deleting
; 59   : 		_Ptr->~_Ty();

	mov	esi, esp
	push	0
	mov	eax, DWORD PTR __Ptr$[ebp]
	mov	edx, DWORD PTR [eax]
	mov	ecx, DWORD PTR __Ptr$[ebp]
	mov	eax, DWORD PTR [edx]
	call	eax
	cmp	esi, esp
	call	__RTC_CheckEsp

; 60   : 		// delete as _NORMAL_BLOCK, not _CRT_BLOCK, since we might have
; 61   : 		// facets allocated by normal new.
; 62   : 		free(_Ptr);

	mov	eax, DWORD PTR __Ptr$[ebp]
	push	eax
	call	_free
	add	esp, 4
$LN2@DebugHeapD:

; 63   : 		}
; 64   : 	}

	pop	edi
	pop	esi
	pop	ebx
	add	esp, 192				; 000000c0H
	cmp	ebp, esp
	call	__RTC_CheckEsp
	mov	esp, ebp
	pop	ebp
	ret	0
??$_DebugHeapDelete@Vfacet@locale@std@@@std@@YAXPAVfacet@locale@0@@Z ENDP ; std::_DebugHeapDelete<std::locale::facet>
_TEXT	ENDS
PUBLIC	?_Register@facet@locale@std@@QAEXXZ		; std::locale::facet::_Register
PUBLIC	__TI2?AVbad_cast@std@@
PUBLIC	??_C@_08EPJLHIJG@bad?5cast?$AA@			; `string'
PUBLIC	?_Getcat@?$ctype@D@std@@SAIPAPBVfacet@locale@2@PBV42@@Z ; std::ctype<char>::_Getcat
PUBLIC	?_Getfacet@locale@std@@QBEPBVfacet@12@I@Z	; std::locale::_Getfacet
PUBLIC	??Bid@locale@std@@QAEIXZ			; std::locale::id::operator unsigned int
PUBLIC	?_Psave@?$_Facetptr@V?$ctype@D@std@@@std@@2PBVfacet@locale@2@B ; std::_Facetptr<std::ctype<char> >::_Psave
PUBLIC	__CTA2?AVbad_cast@std@@
PUBLIC	__CT??_R0?AVbad_cast@std@@@8??0bad_cast@std@@QAE@ABV01@@Z12
PUBLIC	??_R0?AVbad_cast@std@@@8			; std::bad_cast `RTTI Type Descriptor'
EXTRN	??0bad_cast@std@@QAE@PBD@Z:PROC			; std::bad_cast::bad_cast
EXTRN	?id@?$ctype@D@std@@2V0locale@2@A:DWORD		; std::ctype<char>::id
EXTRN	??1bad_cast@std@@UAE@XZ:PROC			; std::bad_cast::~bad_cast
EXTRN	??0bad_cast@std@@QAE@ABV01@@Z:PROC		; std::bad_cast::bad_cast
;	COMDAT ?_Psave@?$_Facetptr@V?$ctype@D@std@@@std@@2PBVfacet@locale@2@B
; File c:\program files (x86)\microsoft visual studio 10.0\vc\include\xlocale
_BSS	SEGMENT
?_Psave@?$_Facetptr@V?$ctype@D@std@@@std@@2PBVfacet@locale@2@B DD 01H DUP (?) ; std::_Facetptr<std::ctype<char> >::_Psave
_BSS	ENDS
;	COMDAT ??_R0?AVbad_cast@std@@@8
_DATA	SEGMENT
??_R0?AVbad_cast@std@@@8 DD FLAT:??_7type_info@@6B@	; std::bad_cast `RTTI Type Descriptor'
	DD	00H
	DB	'.?AVbad_cast@std@@', 00H
_DATA	ENDS
;	COMDAT __CT??_R0?AVbad_cast@std@@@8??0bad_cast@std@@QAE@ABV01@@Z12
xdata$x	SEGMENT
__CT??_R0?AVbad_cast@std@@@8??0bad_cast@std@@QAE@ABV01@@Z12 DD 00H
	DD	FLAT:??_R0?AVbad_cast@std@@@8
	DD	00H
	DD	0ffffffffH
	ORG $+4
	DD	0cH
	DD	FLAT:??0bad_cast@std@@QAE@ABV01@@Z
xdata$x	ENDS
;	COMDAT __CTA2?AVbad_cast@std@@
xdata$x	SEGMENT
__CTA2?AVbad_cast@std@@ DD 02H
	DD	FLAT:__CT??_R0?AVbad_cast@std@@@8??0bad_cast@std@@QAE@ABV01@@Z12
	DD	FLAT:__CT??_R0?AVexception@std@@@8??0exception@std@@QAE@ABV01@@Z12
xdata$x	ENDS
;	COMDAT __TI2?AVbad_cast@std@@
xdata$x	SEGMENT
__TI2?AVbad_cast@std@@ DD 00H
	DD	FLAT:??1bad_cast@std@@UAE@XZ
	DD	00H
	DD	FLAT:__CTA2?AVbad_cast@std@@
xdata$x	ENDS
;	COMDAT ??_C@_08EPJLHIJG@bad?5cast?$AA@
CONST	SEGMENT
??_C@_08EPJLHIJG@bad?5cast?$AA@ DB 'bad cast', 00H	; `string'
CONST	ENDS
;	COMDAT xdata$x
xdata$x	SEGMENT
__unwindtable$??$use_facet@V?$ctype@D@std@@@std@@YAABV?$ctype@D@0@ABVlocale@0@@Z DD 0ffffffffH
	DD	FLAT:__unwindfunclet$??$use_facet@V?$ctype@D@std@@@std@@YAABV?$ctype@D@0@ABVlocale@0@@Z$0
__ehfuncinfo$??$use_facet@V?$ctype@D@std@@@std@@YAABV?$ctype@D@0@ABVlocale@0@@Z DD 019930522H
	DD	01H
	DD	FLAT:__unwindtable$??$use_facet@V?$ctype@D@std@@@std@@YAABV?$ctype@D@0@ABVlocale@0@@Z
	DD	2 DUP(00H)
	DD	2 DUP(00H)
	DD	00H
	DD	01H
; Function compile flags: /Odtp /RTCsu /ZI
xdata$x	ENDS
;	COMDAT ??$use_facet@V?$ctype@D@std@@@std@@YAABV?$ctype@D@0@ABVlocale@0@@Z
_TEXT	SEGMENT
$T37627 = -292						; size = 12
$T37628 = -272						; size = 4
__Pfmod$34473 = -68					; size = 4
__Pf$34457 = -56					; size = 4
__Id$34456 = -44					; size = 4
__Psave$34444 = -32					; size = 4
__Lock$34443 = -20					; size = 4
__$EHRec$ = -12						; size = 12
__Loc$ = 8						; size = 4
??$use_facet@V?$ctype@D@std@@@std@@YAABV?$ctype@D@0@ABVlocale@0@@Z PROC ; std::use_facet<std::ctype<char> >, COMDAT

; 504  : 	{	// get facet reference from locale

	push	ebp
	mov	ebp, esp
	push	-1
	push	__ehhandler$??$use_facet@V?$ctype@D@std@@@std@@YAABV?$ctype@D@0@ABVlocale@0@@Z
	mov	eax, DWORD PTR fs:0
	push	eax
	sub	esp, 284				; 0000011cH
	push	ebx
	push	esi
	push	edi
	lea	edi, DWORD PTR [ebp-296]
	mov	ecx, 71					; 00000047H
	mov	eax, -858993460				; ccccccccH
	rep stosd
	mov	eax, DWORD PTR ___security_cookie
	xor	eax, ebp
	push	eax
	lea	eax, DWORD PTR __$EHRec$[ebp]
	mov	DWORD PTR fs:0, eax

; 505  : 	_BEGIN_LOCK(_LOCK_LOCALE)	// the thread lock, make get atomic

	push	0
	lea	ecx, DWORD PTR __Lock$34443[ebp]
	call	??0_Lockit@std@@QAE@H@Z			; std::_Lockit::_Lockit
	mov	DWORD PTR __$EHRec$[ebp+8], 0

; 506  : 		const locale::facet *_Psave =
; 507  : 			_Facetptr<_Facet>::_Psave;	// static pointer to lazy facet

	mov	eax, DWORD PTR ?_Psave@?$_Facetptr@V?$ctype@D@std@@@std@@2PBVfacet@locale@2@B ; std::_Facetptr<std::ctype<char> >::_Psave
	mov	DWORD PTR __Psave$34444[ebp], eax

; 508  : 
; 509  : 		size_t _Id = _Facet::id;

	mov	ecx, OFFSET ?id@?$ctype@D@std@@2V0locale@2@A ; std::ctype<char>::id
	call	??Bid@locale@std@@QAEIXZ		; std::locale::id::operator unsigned int
	mov	DWORD PTR __Id$34456[ebp], eax

; 510  : 		const locale::facet *_Pf = _Loc._Getfacet(_Id);

	mov	eax, DWORD PTR __Id$34456[ebp]
	push	eax
	mov	ecx, DWORD PTR __Loc$[ebp]
	call	?_Getfacet@locale@std@@QBEPBVfacet@12@I@Z ; std::locale::_Getfacet
	mov	DWORD PTR __Pf$34457[ebp], eax

; 511  : 
; 512  : 		if (_Pf != 0)

	cmp	DWORD PTR __Pf$34457[ebp], 0
	je	SHORT $LN6@use_facet
	jmp	SHORT $LN5@use_facet
$LN6@use_facet:

; 513  : 			;	// got facet from locale
; 514  : 		else if (_Psave != 0)

	cmp	DWORD PTR __Psave$34444[ebp], 0
	je	SHORT $LN4@use_facet

; 515  : 			_Pf = _Psave;	// lazy facet already allocated

	mov	eax, DWORD PTR __Psave$34444[ebp]
	mov	DWORD PTR __Pf$34457[ebp], eax
	jmp	SHORT $LN5@use_facet
$LN4@use_facet:

; 516  : 		else if (_Facet::_Getcat(&_Psave, &_Loc) == (size_t)(-1))

	mov	eax, DWORD PTR __Loc$[ebp]
	push	eax
	lea	ecx, DWORD PTR __Psave$34444[ebp]
	push	ecx
	call	?_Getcat@?$ctype@D@std@@SAIPAPBVfacet@locale@2@PBV42@@Z ; std::ctype<char>::_Getcat
	add	esp, 8
	cmp	eax, -1
	jne	SHORT $LN2@use_facet

; 517  : 
; 518  :  #if _HAS_EXCEPTIONS
; 519  : 
; 520  : 			_THROW_NCEE(bad_cast, _EMPTY_ARGUMENT);	// lazy disallowed

	push	OFFSET ??_C@_08EPJLHIJG@bad?5cast?$AA@
	lea	ecx, DWORD PTR $T37627[ebp]
	call	??0bad_cast@std@@QAE@PBD@Z		; std::bad_cast::bad_cast
	push	OFFSET __TI2?AVbad_cast@std@@
	lea	eax, DWORD PTR $T37627[ebp]
	push	eax
	call	__CxxThrowException@8

; 521  : 
; 522  :  #else /* _HAS_EXCEPTIONS */
; 523  : 			abort();	// lazy disallowed
; 524  :  #endif /* _HAS_EXCEPTIONS */
; 525  : 
; 526  : 		else

	jmp	SHORT $LN5@use_facet
$LN2@use_facet:

; 527  : 			{	// queue up lazy facet for destruction
; 528  : 			_Pf = _Psave;

	mov	eax, DWORD PTR __Psave$34444[ebp]
	mov	DWORD PTR __Pf$34457[ebp], eax

; 529  : 			_Facetptr<_Facet>::_Psave = _Psave;

	mov	eax, DWORD PTR __Psave$34444[ebp]
	mov	DWORD PTR ?_Psave@?$_Facetptr@V?$ctype@D@std@@@std@@2PBVfacet@locale@2@B, eax ; std::_Facetptr<std::ctype<char> >::_Psave

; 530  : 
; 531  : 			locale::facet *_Pfmod = (_Facet *)_Psave;

	mov	eax, DWORD PTR __Psave$34444[ebp]
	mov	DWORD PTR __Pfmod$34473[ebp], eax

; 532  : 			_Pfmod->_Incref();

	mov	ecx, DWORD PTR __Pfmod$34473[ebp]
	call	?_Incref@facet@locale@std@@QAEXXZ	; std::locale::facet::_Incref

; 533  : 			_Pfmod->_Register();

	mov	ecx, DWORD PTR __Pfmod$34473[ebp]
	call	?_Register@facet@locale@std@@QAEXXZ	; std::locale::facet::_Register
$LN5@use_facet:

; 534  : 			}
; 535  : 
; 536  : 		return ((const _Facet&)(*_Pf));	// should be dynamic_cast

	mov	eax, DWORD PTR __Pf$34457[ebp]
	mov	DWORD PTR $T37628[ebp], eax
	mov	DWORD PTR __$EHRec$[ebp+8], -1
	lea	ecx, DWORD PTR __Lock$34443[ebp]
	call	??1_Lockit@std@@QAE@XZ			; std::_Lockit::~_Lockit
	mov	eax, DWORD PTR $T37628[ebp]
$LN8@use_facet:

; 537  : 	_END_LOCK()
; 538  : 	}

	push	edx
	mov	ecx, ebp
	push	eax
	lea	edx, DWORD PTR $LN14@use_facet
	call	@_RTC_CheckStackVars@8
	pop	eax
	pop	edx
	mov	ecx, DWORD PTR __$EHRec$[ebp]
	mov	DWORD PTR fs:0, ecx
	pop	ecx
	pop	edi
	pop	esi
	pop	ebx
	add	esp, 296				; 00000128H
	cmp	ebp, esp
	call	__RTC_CheckEsp
	mov	esp, ebp
	pop	ebp
	ret	0
	npad	2
$LN14@use_facet:
	DD	2
	DD	$LN13@use_facet
$LN13@use_facet:
	DD	-20					; ffffffecH
	DD	4
	DD	$LN10@use_facet
	DD	-32					; ffffffe0H
	DD	4
	DD	$LN11@use_facet
$LN11@use_facet:
	DB	95					; 0000005fH
	DB	80					; 00000050H
	DB	115					; 00000073H
	DB	97					; 00000061H
	DB	118					; 00000076H
	DB	101					; 00000065H
	DB	0
$LN10@use_facet:
	DB	95					; 0000005fH
	DB	76					; 0000004cH
	DB	111					; 0000006fH
	DB	99					; 00000063H
	DB	107					; 0000006bH
	DB	0
_TEXT	ENDS
;	COMDAT text$x
text$x	SEGMENT
__unwindfunclet$??$use_facet@V?$ctype@D@std@@@std@@YAABV?$ctype@D@0@ABVlocale@0@@Z$0:
	lea	ecx, DWORD PTR __Lock$34443[ebp]
	jmp	??1_Lockit@std@@QAE@XZ			; std::_Lockit::~_Lockit
__ehhandler$??$use_facet@V?$ctype@D@std@@@std@@YAABV?$ctype@D@0@ABVlocale@0@@Z:
	mov	edx, DWORD PTR [esp+8]
	lea	eax, DWORD PTR [edx+12]
	mov	ecx, DWORD PTR [edx-300]
	xor	ecx, eax
	call	@__security_check_cookie@4
	mov	eax, OFFSET __ehfuncinfo$??$use_facet@V?$ctype@D@std@@@std@@YAABV?$ctype@D@0@ABVlocale@0@@Z
	jmp	___CxxFrameHandler3
text$x	ENDS
??$use_facet@V?$ctype@D@std@@@std@@YAABV?$ctype@D@0@ABVlocale@0@@Z ENDP ; std::use_facet<std::ctype<char> >
EXTRN	?_Id_cnt@id@locale@std@@0HA:DWORD		; std::locale::id::_Id_cnt
; Function compile flags: /Odtp /RTCsu /ZI
;	COMDAT ??Bid@locale@std@@QAEIXZ
_TEXT	SEGMENT
__Lock$17097 = -20					; size = 4
_this$ = -8						; size = 4
??Bid@locale@std@@QAEIXZ PROC				; std::locale::id::operator unsigned int, COMDAT
; _this$ = ecx

; 75   : 			{	// get stamp, with lazy allocation

	push	ebp
	mov	ebp, esp
	sub	esp, 216				; 000000d8H
	push	ebx
	push	esi
	push	edi
	push	ecx
	lea	edi, DWORD PTR [ebp-216]
	mov	ecx, 54					; 00000036H
	mov	eax, -858993460				; ccccccccH
	rep stosd
	pop	ecx
	mov	DWORD PTR _this$[ebp], ecx

; 76   : 			if (_Id == 0)

	mov	eax, DWORD PTR _this$[ebp]
	cmp	DWORD PTR [eax], 0
	jne	SHORT $LN2@operator@2

; 77   : 				{	// still zero, allocate stamp
; 78   : 				_BEGIN_LOCK(_LOCK_LOCALE)

	push	0
	lea	ecx, DWORD PTR __Lock$17097[ebp]
	call	??0_Lockit@std@@QAE@H@Z			; std::_Lockit::_Lockit

; 79   : 					if (_Id == 0)

	mov	eax, DWORD PTR _this$[ebp]
	cmp	DWORD PTR [eax], 0
	jne	SHORT $LN1@operator@2

; 80   : 						_Id = ++_Id_cnt;

	mov	eax, DWORD PTR ?_Id_cnt@id@locale@std@@0HA ; std::locale::id::_Id_cnt
	add	eax, 1
	mov	DWORD PTR ?_Id_cnt@id@locale@std@@0HA, eax ; std::locale::id::_Id_cnt
	mov	ecx, DWORD PTR _this$[ebp]
	mov	edx, DWORD PTR ?_Id_cnt@id@locale@std@@0HA ; std::locale::id::_Id_cnt
	mov	DWORD PTR [ecx], edx
$LN1@operator@2:

; 81   : 				_END_LOCK()

	lea	ecx, DWORD PTR __Lock$17097[ebp]
	call	??1_Lockit@std@@QAE@XZ			; std::_Lockit::~_Lockit
$LN2@operator@2:

; 82   : 				}
; 83   : 			return (_Id);

	mov	eax, DWORD PTR _this$[ebp]
	mov	eax, DWORD PTR [eax]

; 84   : 			}

	push	edx
	mov	ecx, ebp
	push	eax
	lea	edx, DWORD PTR $LN8@operator@2
	call	@_RTC_CheckStackVars@8
	pop	eax
	pop	edx
	pop	edi
	pop	esi
	pop	ebx
	add	esp, 216				; 000000d8H
	cmp	ebp, esp
	call	__RTC_CheckEsp
	mov	esp, ebp
	pop	ebp
	ret	0
	npad	1
$LN8@operator@2:
	DD	1
	DD	$LN7@operator@2
$LN7@operator@2:
	DD	-20					; ffffffecH
	DD	4
	DD	$LN6@operator@2
$LN6@operator@2:
	DB	95					; 0000005fH
	DB	76					; 0000004cH
	DB	111					; 0000006fH
	DB	99					; 00000063H
	DB	107					; 0000006bH
	DB	0
??Bid@locale@std@@QAEIXZ ENDP				; std::locale::id::operator unsigned int
_TEXT	ENDS
EXTRN	?_Facet_Register@facet@locale@std@@CAXPAV123@@Z:PROC ; std::locale::facet::_Facet_Register
; Function compile flags: /Odtp /RTCsu /ZI
;	COMDAT ?_Register@facet@locale@std@@QAEXXZ
_TEXT	SEGMENT
_this$ = -8						; size = 4
?_Register@facet@locale@std@@QAEXXZ PROC		; std::locale::facet::_Register, COMDAT
; _this$ = ecx

; 128  : 			{	// queue lazy facet destruction

	push	ebp
	mov	ebp, esp
	sub	esp, 204				; 000000ccH
	push	ebx
	push	esi
	push	edi
	push	ecx
	lea	edi, DWORD PTR [ebp-204]
	mov	ecx, 51					; 00000033H
	mov	eax, -858993460				; ccccccccH
	rep stosd
	pop	ecx
	mov	DWORD PTR _this$[ebp], ecx

; 129  :  #if defined(_M_CEE)
; 130  : 			_Facet_Register_m(this);
; 131  : 
; 132  :  #else /* defined(_M_CEE) */
; 133  : 			_Facet_Register(this);

	mov	eax, DWORD PTR _this$[ebp]
	push	eax
	call	?_Facet_Register@facet@locale@std@@CAXPAV123@@Z ; std::locale::facet::_Facet_Register
	add	esp, 4

; 134  :  #endif /* defined(_M_CEE) */
; 135  : 			}

	pop	edi
	pop	esi
	pop	ebx
	add	esp, 204				; 000000ccH
	cmp	ebp, esp
	call	__RTC_CheckEsp
	mov	esp, ebp
	pop	ebp
	ret	0
?_Register@facet@locale@std@@QAEXXZ ENDP		; std::locale::facet::_Register
; Function compile flags: /Odtp /RTCsu /ZI
_TEXT	ENDS
;	COMDAT ?_Getfacet@locale@std@@QBEPBVfacet@12@I@Z
_TEXT	SEGMENT
tv80 = -232						; size = 4
tv69 = -232						; size = 4
__Ptr$17226 = -32					; size = 4
__Facptr$ = -20						; size = 4
_this$ = -8						; size = 4
__Id$ = 8						; size = 4
?_Getfacet@locale@std@@QBEPBVfacet@12@I@Z PROC		; std::locale::_Getfacet, COMDAT
; _this$ = ecx

; 436  : 		{	// look up a facet in locale object

	push	ebp
	mov	ebp, esp
	sub	esp, 232				; 000000e8H
	push	ebx
	push	esi
	push	edi
	push	ecx
	lea	edi, DWORD PTR [ebp-232]
	mov	ecx, 58					; 0000003aH
	mov	eax, -858993460				; ccccccccH
	rep stosd
	pop	ecx
	mov	DWORD PTR _this$[ebp], ecx

; 437  : 		const facet *_Facptr = _Id < _Ptr->_Facetcount
; 438  : 			? _Ptr->_Facetvec[_Id] : 0;	// null if id off end

	mov	eax, DWORD PTR _this$[ebp]
	mov	ecx, DWORD PTR [eax]
	mov	edx, DWORD PTR __Id$[ebp]
	cmp	edx, DWORD PTR [ecx+12]
	jae	SHORT $LN6@Getfacet
	mov	eax, DWORD PTR _this$[ebp]
	mov	ecx, DWORD PTR [eax]
	mov	edx, DWORD PTR [ecx+8]
	mov	eax, DWORD PTR __Id$[ebp]
	mov	ecx, DWORD PTR [edx+eax*4]
	mov	DWORD PTR tv69[ebp], ecx
	jmp	SHORT $LN7@Getfacet
$LN6@Getfacet:
	mov	DWORD PTR tv69[ebp], 0
$LN7@Getfacet:
	mov	edx, DWORD PTR tv69[ebp]
	mov	DWORD PTR __Facptr$[ebp], edx

; 439  : 		if (_Facptr != 0 || !_Ptr->_Xparent)

	cmp	DWORD PTR __Facptr$[ebp], 0
	jne	SHORT $LN2@Getfacet
	mov	eax, DWORD PTR _this$[ebp]
	mov	ecx, DWORD PTR [eax]
	movzx	edx, BYTE PTR [ecx+20]
	test	edx, edx
	jne	SHORT $LN3@Getfacet
$LN2@Getfacet:

; 440  : 			return (_Facptr);	// found facet or not transparent

	mov	eax, DWORD PTR __Facptr$[ebp]
	jmp	SHORT $LN4@Getfacet

; 441  : 		else

	jmp	SHORT $LN4@Getfacet
$LN3@Getfacet:

; 442  : 			{	// look in current locale
; 443  : 			locale::_Locimp *_Ptr = _Getgloballocale();

	call	?_Getgloballocale@locale@std@@CAPAV_Locimp@12@XZ ; std::locale::_Getgloballocale
	mov	DWORD PTR __Ptr$17226[ebp], eax

; 444  : 			return (_Id < _Ptr->_Facetcount
; 445  : 				? _Ptr->_Facetvec[_Id]	// get from current locale
; 446  : 				: 0);	// no entry in current locale

	mov	eax, DWORD PTR __Ptr$17226[ebp]
	mov	ecx, DWORD PTR __Id$[ebp]
	cmp	ecx, DWORD PTR [eax+12]
	jae	SHORT $LN8@Getfacet
	mov	edx, DWORD PTR __Ptr$17226[ebp]
	mov	eax, DWORD PTR [edx+8]
	mov	ecx, DWORD PTR __Id$[ebp]
	mov	edx, DWORD PTR [eax+ecx*4]
	mov	DWORD PTR tv80[ebp], edx
	jmp	SHORT $LN9@Getfacet
$LN8@Getfacet:
	mov	DWORD PTR tv80[ebp], 0
$LN9@Getfacet:
	mov	eax, DWORD PTR tv80[ebp]
$LN4@Getfacet:

; 447  : 			}
; 448  : 		}

	pop	edi
	pop	esi
	pop	ebx
	add	esp, 232				; 000000e8H
	cmp	ebp, esp
	call	__RTC_CheckEsp
	mov	esp, ebp
	pop	ebp
	ret	4
?_Getfacet@locale@std@@QBEPBVfacet@12@I@Z ENDP		; std::locale::_Getfacet
_TEXT	ENDS
PUBLIC	??3facet@locale@std@@SAXPAXABU_DebugHeapTag_t@2@PADH@Z ; std::locale::facet::operator delete
PUBLIC	??1_Locinfo@std@@QAE@XZ				; std::_Locinfo::~_Locinfo
PUBLIC	??0?$ctype@D@std@@QAE@ABV_Locinfo@1@I@Z		; std::ctype<char>::ctype<char>
PUBLIC	??0_Locinfo@std@@QAE@PBD@Z			; std::_Locinfo::_Locinfo
PUBLIC	?c_str@locale@std@@QBEPBDXZ			; std::locale::c_str
PUBLIC	??2facet@locale@std@@SAPAXIABU_DebugHeapTag_t@2@PADH@Z ; std::locale::facet::operator new
PUBLIC	??_C@_0EH@NEEAIMIH@c?3?2program?5files?5?$CIx86?$CJ?2microsoft@ ; `string'
;	COMDAT ??_C@_0EH@NEEAIMIH@c?3?2program?5files?5?$CIx86?$CJ?2microsoft@
CONST	SEGMENT
??_C@_0EH@NEEAIMIH@c?3?2program?5files?5?$CIx86?$CJ?2microsoft@ DB 'c:\pr'
	DB	'ogram files (x86)\microsoft visual studio 10.0\vc\include\xlo'
	DB	'cale', 00H					; `string'
CONST	ENDS
;	COMDAT xdata$x
xdata$x	SEGMENT
__unwindtable$?_Getcat@?$ctype@D@std@@SAIPAPBVfacet@locale@2@PBV42@@Z DD 0ffffffffH
	DD	FLAT:__unwindfunclet$?_Getcat@?$ctype@D@std@@SAIPAPBVfacet@locale@2@PBV42@@Z$0
	DD	00H
	DD	FLAT:__unwindfunclet$?_Getcat@?$ctype@D@std@@SAIPAPBVfacet@locale@2@PBV42@@Z$1
	DD	0ffffffffH
	DD	FLAT:__unwindfunclet$?_Getcat@?$ctype@D@std@@SAIPAPBVfacet@locale@2@PBV42@@Z$1
__ehfuncinfo$?_Getcat@?$ctype@D@std@@SAIPAPBVfacet@locale@2@PBV42@@Z DD 019930522H
	DD	03H
	DD	FLAT:__unwindtable$?_Getcat@?$ctype@D@std@@SAIPAPBVfacet@locale@2@PBV42@@Z
	DD	2 DUP(00H)
	DD	2 DUP(00H)
	DD	00H
	DD	01H
; Function compile flags: /Odtp /RTCsu /ZI
xdata$x	ENDS
;	COMDAT ?_Getcat@?$ctype@D@std@@SAIPAPBVfacet@locale@2@PBV42@@Z
_TEXT	SEGMENT
tv92 = -308						; size = 4
tv133 = -304						; size = 4
tv138 = -300						; size = 4
$T37657 = -292						; size = 4
$T37658 = -280						; size = 4
$T37659 = -268						; size = 4
$T37660 = -256						; size = 36
$T37664 = -212						; size = 4
__$EHRec$ = -12						; size = 12
__Ppf$ = 8						; size = 4
__Ploc$ = 12						; size = 4
?_Getcat@?$ctype@D@std@@SAIPAPBVfacet@locale@2@PBV42@@Z PROC ; std::ctype<char>::_Getcat, COMDAT

; 2371 : 		{	// return locale category mask and construct standard facet

	push	ebp
	mov	ebp, esp
	push	-1
	push	__ehhandler$?_Getcat@?$ctype@D@std@@SAIPAPBVfacet@locale@2@PBV42@@Z
	mov	eax, DWORD PTR fs:0
	push	eax
	sub	esp, 296				; 00000128H
	push	ebx
	push	esi
	push	edi
	lea	edi, DWORD PTR [ebp-308]
	mov	ecx, 74					; 0000004aH
	mov	eax, -858993460				; ccccccccH
	rep stosd
	mov	eax, DWORD PTR ___security_cookie
	xor	eax, ebp
	push	eax
	lea	eax, DWORD PTR __$EHRec$[ebp]
	mov	DWORD PTR fs:0, eax
	mov	DWORD PTR $T37664[ebp], 0

; 2372 : 		if (_Ppf != 0 && *_Ppf == 0)

	cmp	DWORD PTR __Ppf$[ebp], 0
	je	$LN1@Getcat
	mov	eax, DWORD PTR __Ppf$[ebp]
	cmp	DWORD PTR [eax], 0
	jne	$LN1@Getcat

; 2373 : 			*_Ppf = _NEW_CRT ctype<_Elem>(
; 2374 : 				_Locinfo(_Ploc->c_str()));

	call	?_DebugHeapTag_func@std@@YAABU_DebugHeapTag_t@1@XZ ; std::_DebugHeapTag_func
	mov	DWORD PTR $T37659[ebp], eax
	push	2373					; 00000945H
	push	OFFSET ??_C@_0EH@NEEAIMIH@c?3?2program?5files?5?$CIx86?$CJ?2microsoft@
	mov	eax, DWORD PTR $T37659[ebp]
	push	eax
	push	24					; 00000018H
	call	??2facet@locale@std@@SAPAXIABU_DebugHeapTag_t@2@PADH@Z ; std::locale::facet::operator new
	add	esp, 16					; 00000010H
	mov	DWORD PTR $T37658[ebp], eax
	mov	DWORD PTR __$EHRec$[ebp+8], 0
	cmp	DWORD PTR $T37658[ebp], 0
	je	SHORT $LN4@Getcat
	push	0
	mov	ecx, DWORD PTR __Ploc$[ebp]
	call	?c_str@locale@std@@QBEPBDXZ		; std::locale::c_str
	push	eax
	lea	ecx, DWORD PTR $T37660[ebp]
	call	??0_Locinfo@std@@QAE@PBD@Z		; std::_Locinfo::_Locinfo
	mov	DWORD PTR tv138[ebp], eax
	mov	ecx, DWORD PTR tv138[ebp]
	mov	DWORD PTR tv133[ebp], ecx
	mov	BYTE PTR __$EHRec$[ebp+8], 1
	mov	edx, DWORD PTR $T37664[ebp]
	or	edx, 1
	mov	DWORD PTR $T37664[ebp], edx
	mov	eax, DWORD PTR tv133[ebp]
	push	eax
	mov	ecx, DWORD PTR $T37658[ebp]
	call	??0?$ctype@D@std@@QAE@ABV_Locinfo@1@I@Z	; std::ctype<char>::ctype<char>
	mov	DWORD PTR tv92[ebp], eax
	jmp	SHORT $LN5@Getcat
$LN4@Getcat:
	mov	DWORD PTR tv92[ebp], 0
$LN5@Getcat:
	mov	ecx, DWORD PTR tv92[ebp]
	mov	DWORD PTR $T37657[ebp], ecx
	mov	DWORD PTR __$EHRec$[ebp+8], 2
	mov	edx, DWORD PTR __Ppf$[ebp]
	mov	eax, DWORD PTR $T37657[ebp]
	mov	DWORD PTR [edx], eax
	mov	DWORD PTR __$EHRec$[ebp+8], -1
	mov	ecx, DWORD PTR $T37664[ebp]
	and	ecx, 1
	je	SHORT $LN1@Getcat
	and	DWORD PTR $T37664[ebp], -2		; fffffffeH
	lea	ecx, DWORD PTR $T37660[ebp]
	call	??1_Locinfo@std@@QAE@XZ			; std::_Locinfo::~_Locinfo
$LN1@Getcat:

; 2375 : 		return (_X_CTYPE);

	mov	eax, 2

; 2376 : 		}

	mov	ecx, DWORD PTR __$EHRec$[ebp]
	mov	DWORD PTR fs:0, ecx
	pop	ecx
	pop	edi
	pop	esi
	pop	ebx
	add	esp, 308				; 00000134H
	cmp	ebp, esp
	call	__RTC_CheckEsp
	mov	esp, ebp
	pop	ebp
	ret	0
_TEXT	ENDS
;	COMDAT text$x
text$x	SEGMENT
__unwindfunclet$?_Getcat@?$ctype@D@std@@SAIPAPBVfacet@locale@2@PBV42@@Z$0:
	push	2373					; 00000945H
	push	OFFSET ??_C@_0EH@NEEAIMIH@c?3?2program?5files?5?$CIx86?$CJ?2microsoft@
	mov	eax, DWORD PTR $T37659[ebp]
	push	eax
	mov	ecx, DWORD PTR $T37658[ebp]
	push	ecx
	call	??3facet@locale@std@@SAXPAXABU_DebugHeapTag_t@2@PADH@Z ; std::locale::facet::operator delete
	add	esp, 16					; 00000010H
	ret	0
__unwindfunclet$?_Getcat@?$ctype@D@std@@SAIPAPBVfacet@locale@2@PBV42@@Z$1:
	mov	eax, DWORD PTR $T37664[ebp]
	and	eax, 1
	je	$LN8@Getcat
	and	DWORD PTR $T37664[ebp], -2		; fffffffeH
	lea	ecx, DWORD PTR $T37660[ebp]
	jmp	??1_Locinfo@std@@QAE@XZ			; std::_Locinfo::~_Locinfo
$LN8@Getcat:
	ret	0
__ehhandler$?_Getcat@?$ctype@D@std@@SAIPAPBVfacet@locale@2@PBV42@@Z:
	mov	edx, DWORD PTR [esp+8]
	lea	eax, DWORD PTR [edx+12]
	mov	ecx, DWORD PTR [edx-312]
	xor	ecx, eax
	call	@__security_check_cookie@4
	mov	eax, OFFSET __ehfuncinfo$?_Getcat@?$ctype@D@std@@SAIPAPBVfacet@locale@2@PBV42@@Z
	jmp	___CxxFrameHandler3
text$x	ENDS
?_Getcat@?$ctype@D@std@@SAIPAPBVfacet@locale@2@PBV42@@Z ENDP ; std::ctype<char>::_Getcat
PUBLIC	??1?$_Yarn@D@std@@QAE@XZ			; std::_Yarn<char>::~_Yarn<char>
PUBLIC	__TI2?AVruntime_error@std@@
PUBLIC	??_C@_0BA@ELKIONDK@bad?5locale?5name?$AA@	; `string'
PUBLIC	??0?$_Yarn@D@std@@QAE@XZ			; std::_Yarn<char>::_Yarn<char>
PUBLIC	__CTA2?AVruntime_error@std@@
EXTRN	?_Locinfo_ctor@_Locinfo@std@@SAXPAV12@PBD@Z:PROC ; std::_Locinfo::_Locinfo_ctor
;	COMDAT __CTA2?AVruntime_error@std@@
; File c:\program files (x86)\microsoft visual studio 10.0\vc\include\xlocinfo
xdata$x	SEGMENT
__CTA2?AVruntime_error@std@@ DD 02H
	DD	FLAT:__CT??_R0?AVruntime_error@std@@@8??0runtime_error@std@@QAE@ABV01@@Z12
	DD	FLAT:__CT??_R0?AVexception@std@@@8??0exception@std@@QAE@ABV01@@Z12
xdata$x	ENDS
;	COMDAT __TI2?AVruntime_error@std@@
xdata$x	SEGMENT
__TI2?AVruntime_error@std@@ DD 00H
	DD	FLAT:??1runtime_error@std@@UAE@XZ
	DD	00H
	DD	FLAT:__CTA2?AVruntime_error@std@@
xdata$x	ENDS
;	COMDAT ??_C@_0BA@ELKIONDK@bad?5locale?5name?$AA@
CONST	SEGMENT
??_C@_0BA@ELKIONDK@bad?5locale?5name?$AA@ DB 'bad locale name', 00H ; `string'
CONST	ENDS
;	COMDAT xdata$x
xdata$x	SEGMENT
__ehfuncinfo$??0_Locinfo@std@@QAE@PBD@Z DD 019930522H
	DD	05H
	DD	FLAT:__unwindtable$??0_Locinfo@std@@QAE@PBD@Z
	DD	2 DUP(00H)
	DD	2 DUP(00H)
	DD	00H
	DD	01H
__unwindtable$??0_Locinfo@std@@QAE@PBD@Z DD 0ffffffffH
	DD	FLAT:__unwindfunclet$??0_Locinfo@std@@QAE@PBD@Z$0
	DD	00H
	DD	FLAT:__unwindfunclet$??0_Locinfo@std@@QAE@PBD@Z$1
	DD	01H
	DD	FLAT:__unwindfunclet$??0_Locinfo@std@@QAE@PBD@Z$2
	DD	02H
	DD	FLAT:__unwindfunclet$??0_Locinfo@std@@QAE@PBD@Z$3
	DD	03H
	DD	FLAT:__unwindfunclet$??0_Locinfo@std@@QAE@PBD@Z$4
; Function compile flags: /Odtp /RTCsu /ZI
xdata$x	ENDS
;	COMDAT ??0_Locinfo@std@@QAE@PBD@Z
_TEXT	SEGMENT
$T37676 = -232						; size = 12
_this$ = -20						; size = 4
__$EHRec$ = -12						; size = 12
__Pch$ = 8						; size = 4
??0_Locinfo@std@@QAE@PBD@Z PROC				; std::_Locinfo::_Locinfo, COMDAT
; _this$ = ecx

; 76   :         {	// construct from NTBS

	push	ebp
	mov	ebp, esp
	push	-1
	push	__ehhandler$??0_Locinfo@std@@QAE@PBD@Z
	mov	eax, DWORD PTR fs:0
	push	eax
	sub	esp, 224				; 000000e0H
	push	ebx
	push	esi
	push	edi
	push	ecx
	lea	edi, DWORD PTR [ebp-236]
	mov	ecx, 56					; 00000038H
	mov	eax, -858993460				; ccccccccH
	rep stosd
	pop	ecx
	mov	eax, DWORD PTR ___security_cookie
	xor	eax, ebp
	push	eax
	lea	eax, DWORD PTR __$EHRec$[ebp]
	mov	DWORD PTR fs:0, eax
	mov	DWORD PTR _this$[ebp], ecx
	push	0
	mov	ecx, DWORD PTR _this$[ebp]
	call	??0_Lockit@std@@QAE@H@Z			; std::_Lockit::_Lockit
	mov	DWORD PTR __$EHRec$[ebp+8], 0
	mov	ecx, DWORD PTR _this$[ebp]
	add	ecx, 4
	call	??0?$_Yarn@D@std@@QAE@XZ		; std::_Yarn<char>::_Yarn<char>
	mov	BYTE PTR __$EHRec$[ebp+8], 1
	mov	ecx, DWORD PTR _this$[ebp]
	add	ecx, 12					; 0000000cH
	call	??0?$_Yarn@D@std@@QAE@XZ		; std::_Yarn<char>::_Yarn<char>
	mov	BYTE PTR __$EHRec$[ebp+8], 2
	mov	ecx, DWORD PTR _this$[ebp]
	add	ecx, 20					; 00000014H
	call	??0?$_Yarn@D@std@@QAE@XZ		; std::_Yarn<char>::_Yarn<char>
	mov	BYTE PTR __$EHRec$[ebp+8], 3
	mov	ecx, DWORD PTR _this$[ebp]
	add	ecx, 28					; 0000001cH
	call	??0?$_Yarn@D@std@@QAE@XZ		; std::_Yarn<char>::_Yarn<char>
	mov	BYTE PTR __$EHRec$[ebp+8], 4

; 77   :         if (_Pch == 0)

	cmp	DWORD PTR __Pch$[ebp], 0
	jne	SHORT $LN1@Locinfo

; 78   :             _THROW_NCEE(runtime_error, "bad locale name");

	push	OFFSET ??_C@_0BA@ELKIONDK@bad?5locale?5name?$AA@
	lea	ecx, DWORD PTR $T37676[ebp]
	call	??0runtime_error@std@@QAE@PBD@Z		; std::runtime_error::runtime_error
	push	OFFSET __TI2?AVruntime_error@std@@
	lea	eax, DWORD PTR $T37676[ebp]
	push	eax
	call	__CxxThrowException@8
$LN1@Locinfo:

; 79   :         _Locinfo_ctor(this, _Pch);

	mov	eax, DWORD PTR __Pch$[ebp]
	push	eax
	mov	ecx, DWORD PTR _this$[ebp]
	push	ecx
	call	?_Locinfo_ctor@_Locinfo@std@@SAXPAV12@PBD@Z ; std::_Locinfo::_Locinfo_ctor
	add	esp, 8

; 80   :         }

	mov	DWORD PTR __$EHRec$[ebp+8], -1
	mov	eax, DWORD PTR _this$[ebp]
$LN3@Locinfo:
	mov	ecx, DWORD PTR __$EHRec$[ebp]
	mov	DWORD PTR fs:0, ecx
	pop	ecx
	pop	edi
	pop	esi
	pop	ebx
	add	esp, 236				; 000000ecH
	cmp	ebp, esp
	call	__RTC_CheckEsp
	mov	esp, ebp
	pop	ebp
	ret	4
_TEXT	ENDS
;	COMDAT text$x
text$x	SEGMENT
__unwindfunclet$??0_Locinfo@std@@QAE@PBD@Z$0:
	mov	ecx, DWORD PTR _this$[ebp]
	jmp	??1_Lockit@std@@QAE@XZ			; std::_Lockit::~_Lockit
__unwindfunclet$??0_Locinfo@std@@QAE@PBD@Z$1:
	mov	ecx, DWORD PTR _this$[ebp]
	add	ecx, 4
	jmp	??1?$_Yarn@D@std@@QAE@XZ		; std::_Yarn<char>::~_Yarn<char>
__unwindfunclet$??0_Locinfo@std@@QAE@PBD@Z$2:
	mov	ecx, DWORD PTR _this$[ebp]
	add	ecx, 12					; 0000000cH
	jmp	??1?$_Yarn@D@std@@QAE@XZ		; std::_Yarn<char>::~_Yarn<char>
__unwindfunclet$??0_Locinfo@std@@QAE@PBD@Z$3:
	mov	ecx, DWORD PTR _this$[ebp]
	add	ecx, 20					; 00000014H
	jmp	??1?$_Yarn@D@std@@QAE@XZ		; std::_Yarn<char>::~_Yarn<char>
__unwindfunclet$??0_Locinfo@std@@QAE@PBD@Z$4:
	mov	ecx, DWORD PTR _this$[ebp]
	add	ecx, 28					; 0000001cH
	jmp	??1?$_Yarn@D@std@@QAE@XZ		; std::_Yarn<char>::~_Yarn<char>
__ehhandler$??0_Locinfo@std@@QAE@PBD@Z:
	mov	edx, DWORD PTR [esp+8]
	lea	eax, DWORD PTR [edx+12]
	mov	ecx, DWORD PTR [edx-240]
	xor	ecx, eax
	call	@__security_check_cookie@4
	mov	eax, OFFSET __ehfuncinfo$??0_Locinfo@std@@QAE@PBD@Z
	jmp	___CxxFrameHandler3
text$x	ENDS
??0_Locinfo@std@@QAE@PBD@Z ENDP				; std::_Locinfo::_Locinfo
EXTRN	?_Locinfo_dtor@_Locinfo@std@@SAXPAV12@@Z:PROC	; std::_Locinfo::_Locinfo_dtor
;	COMDAT xdata$x
xdata$x	SEGMENT
__ehfuncinfo$??1_Locinfo@std@@QAE@XZ DD 019930522H
	DD	05H
	DD	FLAT:__unwindtable$??1_Locinfo@std@@QAE@XZ
	DD	2 DUP(00H)
	DD	2 DUP(00H)
	DD	00H
	DD	01H
__unwindtable$??1_Locinfo@std@@QAE@XZ DD 0ffffffffH
	DD	FLAT:__unwindfunclet$??1_Locinfo@std@@QAE@XZ$0
	DD	00H
	DD	FLAT:__unwindfunclet$??1_Locinfo@std@@QAE@XZ$1
	DD	01H
	DD	FLAT:__unwindfunclet$??1_Locinfo@std@@QAE@XZ$2
	DD	02H
	DD	FLAT:__unwindfunclet$??1_Locinfo@std@@QAE@XZ$3
	DD	03H
	DD	FLAT:__unwindfunclet$??1_Locinfo@std@@QAE@XZ$4
; Function compile flags: /Odtp /RTCsu /ZI
xdata$x	ENDS
;	COMDAT ??1_Locinfo@std@@QAE@XZ
_TEXT	SEGMENT
_this$ = -20						; size = 4
__$EHRec$ = -12						; size = 12
??1_Locinfo@std@@QAE@XZ PROC				; std::_Locinfo::~_Locinfo, COMDAT
; _this$ = ecx

; 93   :         {

	push	ebp
	mov	ebp, esp
	push	-1
	push	__ehhandler$??1_Locinfo@std@@QAE@XZ
	mov	eax, DWORD PTR fs:0
	push	eax
	sub	esp, 204				; 000000ccH
	push	ebx
	push	esi
	push	edi
	push	ecx
	lea	edi, DWORD PTR [ebp-216]
	mov	ecx, 51					; 00000033H
	mov	eax, -858993460				; ccccccccH
	rep stosd
	pop	ecx
	mov	eax, DWORD PTR ___security_cookie
	xor	eax, ebp
	push	eax
	lea	eax, DWORD PTR __$EHRec$[ebp]
	mov	DWORD PTR fs:0, eax
	mov	DWORD PTR _this$[ebp], ecx
	mov	DWORD PTR __$EHRec$[ebp+8], 4

; 94   :         _Locinfo_dtor(this);

	mov	eax, DWORD PTR _this$[ebp]
	push	eax
	call	?_Locinfo_dtor@_Locinfo@std@@SAXPAV12@@Z ; std::_Locinfo::_Locinfo_dtor
	add	esp, 4

; 95   :         }

	mov	BYTE PTR __$EHRec$[ebp+8], 3
	mov	ecx, DWORD PTR _this$[ebp]
	add	ecx, 28					; 0000001cH
	call	??1?$_Yarn@D@std@@QAE@XZ		; std::_Yarn<char>::~_Yarn<char>
	mov	BYTE PTR __$EHRec$[ebp+8], 2
	mov	ecx, DWORD PTR _this$[ebp]
	add	ecx, 20					; 00000014H
	call	??1?$_Yarn@D@std@@QAE@XZ		; std::_Yarn<char>::~_Yarn<char>
	mov	BYTE PTR __$EHRec$[ebp+8], 1
	mov	ecx, DWORD PTR _this$[ebp]
	add	ecx, 12					; 0000000cH
	call	??1?$_Yarn@D@std@@QAE@XZ		; std::_Yarn<char>::~_Yarn<char>
	mov	BYTE PTR __$EHRec$[ebp+8], 0
	mov	ecx, DWORD PTR _this$[ebp]
	add	ecx, 4
	call	??1?$_Yarn@D@std@@QAE@XZ		; std::_Yarn<char>::~_Yarn<char>
	mov	DWORD PTR __$EHRec$[ebp+8], -1
	mov	ecx, DWORD PTR _this$[ebp]
	call	??1_Lockit@std@@QAE@XZ			; std::_Lockit::~_Lockit
	mov	ecx, DWORD PTR __$EHRec$[ebp]
	mov	DWORD PTR fs:0, ecx
	pop	ecx
	pop	edi
	pop	esi
	pop	ebx
	add	esp, 216				; 000000d8H
	cmp	ebp, esp
	call	__RTC_CheckEsp
	mov	esp, ebp
	pop	ebp
	ret	0
_TEXT	ENDS
;	COMDAT text$x
text$x	SEGMENT
__unwindfunclet$??1_Locinfo@std@@QAE@XZ$0:
	mov	ecx, DWORD PTR _this$[ebp]
	jmp	??1_Lockit@std@@QAE@XZ			; std::_Lockit::~_Lockit
__unwindfunclet$??1_Locinfo@std@@QAE@XZ$1:
	mov	ecx, DWORD PTR _this$[ebp]
	add	ecx, 4
	jmp	??1?$_Yarn@D@std@@QAE@XZ		; std::_Yarn<char>::~_Yarn<char>
__unwindfunclet$??1_Locinfo@std@@QAE@XZ$2:
	mov	ecx, DWORD PTR _this$[ebp]
	add	ecx, 12					; 0000000cH
	jmp	??1?$_Yarn@D@std@@QAE@XZ		; std::_Yarn<char>::~_Yarn<char>
__unwindfunclet$??1_Locinfo@std@@QAE@XZ$3:
	mov	ecx, DWORD PTR _this$[ebp]
	add	ecx, 20					; 00000014H
	jmp	??1?$_Yarn@D@std@@QAE@XZ		; std::_Yarn<char>::~_Yarn<char>
__unwindfunclet$??1_Locinfo@std@@QAE@XZ$4:
	mov	ecx, DWORD PTR _this$[ebp]
	add	ecx, 28					; 0000001cH
	jmp	??1?$_Yarn@D@std@@QAE@XZ		; std::_Yarn<char>::~_Yarn<char>
__ehhandler$??1_Locinfo@std@@QAE@XZ:
	mov	edx, DWORD PTR [esp+8]
	lea	eax, DWORD PTR [edx+12]
	mov	ecx, DWORD PTR [edx-220]
	xor	ecx, eax
	call	@__security_check_cookie@4
	mov	eax, OFFSET __ehfuncinfo$??1_Locinfo@std@@QAE@XZ
	jmp	___CxxFrameHandler3
text$x	ENDS
??1_Locinfo@std@@QAE@XZ ENDP				; std::_Locinfo::~_Locinfo
; Function compile flags: /Odtp /RTCsu /ZI
; File c:\program files (x86)\microsoft visual studio 10.0\vc\include\xlocale
;	COMDAT ??2facet@locale@std@@SAPAXIABU_DebugHeapTag_t@2@PADH@Z
_TEXT	SEGMENT
__Size$ = 8						; size = 4
__Tag$ = 12						; size = 4
__File$ = 16						; size = 4
__Line$ = 20						; size = 4
??2facet@locale@std@@SAPAXIABU_DebugHeapTag_t@2@PADH@Z PROC ; std::locale::facet::operator new, COMDAT

; 146  : 			{	// replace debugging operator new

	push	ebp
	mov	ebp, esp
	sub	esp, 192				; 000000c0H
	push	ebx
	push	esi
	push	edi
	lea	edi, DWORD PTR [ebp-192]
	mov	ecx, 48					; 00000030H
	mov	eax, -858993460				; ccccccccH
	rep stosd

; 147  : 			return (::operator new(_Size, _Tag, _File, _Line));

	mov	eax, DWORD PTR __Line$[ebp]
	push	eax
	mov	ecx, DWORD PTR __File$[ebp]
	push	ecx
	mov	edx, DWORD PTR __Tag$[ebp]
	push	edx
	mov	eax, DWORD PTR __Size$[ebp]
	push	eax
	call	??2@YAPAXIABU_DebugHeapTag_t@std@@PADH@Z ; operator new
	add	esp, 16					; 00000010H

; 148  : 			}

	pop	edi
	pop	esi
	pop	ebx
	add	esp, 192				; 000000c0H
	cmp	ebp, esp
	call	__RTC_CheckEsp
	mov	esp, ebp
	pop	ebp
	ret	0
??2facet@locale@std@@SAPAXIABU_DebugHeapTag_t@2@PADH@Z ENDP ; std::locale::facet::operator new
_TEXT	ENDS
PUBLIC	??3facet@locale@std@@SAXPAX@Z			; std::locale::facet::operator delete
; Function compile flags: /Odtp /RTCsu /ZI
;	COMDAT ??3facet@locale@std@@SAXPAXABU_DebugHeapTag_t@2@PADH@Z
_TEXT	SEGMENT
__Ptr$ = 8						; size = 4
___formal$ = 12						; size = 4
___formal$ = 16						; size = 4
___formal$ = 20						; size = 4
??3facet@locale@std@@SAXPAXABU_DebugHeapTag_t@2@PADH@Z PROC ; std::locale::facet::operator delete, COMDAT

; 152  : 			{	// replace debugging operator delete

	push	ebp
	mov	ebp, esp
	sub	esp, 192				; 000000c0H
	push	ebx
	push	esi
	push	edi
	lea	edi, DWORD PTR [ebp-192]
	mov	ecx, 48					; 00000030H
	mov	eax, -858993460				; ccccccccH
	rep stosd

; 153  : 			operator delete(_Ptr);

	mov	eax, DWORD PTR __Ptr$[ebp]
	push	eax
	call	??3facet@locale@std@@SAXPAX@Z		; std::locale::facet::operator delete
	add	esp, 4

; 154  : 			}

	pop	edi
	pop	esi
	pop	ebx
	add	esp, 192				; 000000c0H
	cmp	ebp, esp
	call	__RTC_CheckEsp
	mov	esp, ebp
	pop	ebp
	ret	0
??3facet@locale@std@@SAXPAXABU_DebugHeapTag_t@2@PADH@Z ENDP ; std::locale::facet::operator delete
; Function compile flags: /Odtp /RTCsu /ZI
_TEXT	ENDS
;	COMDAT ??3facet@locale@std@@SAXPAX@Z
_TEXT	SEGMENT
__Ptr$ = 8						; size = 4
??3facet@locale@std@@SAXPAX@Z PROC			; std::locale::facet::operator delete, COMDAT

; 157  : 			{	// replace operator delete

	push	ebp
	mov	ebp, esp
	sub	esp, 192				; 000000c0H
	push	ebx
	push	esi
	push	edi
	lea	edi, DWORD PTR [ebp-192]
	mov	ecx, 48					; 00000030H
	mov	eax, -858993460				; ccccccccH
	rep stosd

; 158  : 			_DebugHeapDelete((facet *)_Ptr);

	mov	eax, DWORD PTR __Ptr$[ebp]
	push	eax
	call	??$_DebugHeapDelete@Vfacet@locale@std@@@std@@YAXPAVfacet@locale@0@@Z ; std::_DebugHeapDelete<std::locale::facet>
	add	esp, 4

; 159  : 			}

	pop	edi
	pop	esi
	pop	ebx
	add	esp, 192				; 000000c0H
	cmp	ebp, esp
	call	__RTC_CheckEsp
	mov	esp, ebp
	pop	ebp
	ret	0
??3facet@locale@std@@SAXPAX@Z ENDP			; std::locale::facet::operator delete
_TEXT	ENDS
PUBLIC	?c_str@?$_Yarn@D@std@@QBEPBDXZ			; std::_Yarn<char>::c_str
; Function compile flags: /Odtp /RTCsu /ZI
;	COMDAT ?c_str@locale@std@@QBEPBDXZ
_TEXT	SEGMENT
_this$ = -8						; size = 4
?c_str@locale@std@@QBEPBDXZ PROC			; std::locale::c_str, COMDAT
; _this$ = ecx

; 431  : 		{	// return locale name as NTBS

	push	ebp
	mov	ebp, esp
	sub	esp, 204				; 000000ccH
	push	ebx
	push	esi
	push	edi
	push	ecx
	lea	edi, DWORD PTR [ebp-204]
	mov	ecx, 51					; 00000033H
	mov	eax, -858993460				; ccccccccH
	rep stosd
	pop	ecx
	mov	DWORD PTR _this$[ebp], ecx

; 432  : 		return (_Ptr->_Name.c_str());

	mov	eax, DWORD PTR _this$[ebp]
	mov	ecx, DWORD PTR [eax]
	add	ecx, 24					; 00000018H
	call	?c_str@?$_Yarn@D@std@@QBEPBDXZ		; std::_Yarn<char>::c_str

; 433  : 		}

	pop	edi
	pop	esi
	pop	ebx
	add	esp, 204				; 000000ccH
	cmp	ebp, esp
	call	__RTC_CheckEsp
	mov	esp, ebp
	pop	ebp
	ret	0
?c_str@locale@std@@QBEPBDXZ ENDP			; std::locale::c_str
_TEXT	ENDS
PUBLIC	??1ctype_base@std@@UAE@XZ			; std::ctype_base::~ctype_base
PUBLIC	?_Init@?$ctype@D@std@@IAEXABV_Locinfo@2@@Z	; std::ctype<char>::_Init
PUBLIC	??_7?$ctype@D@std@@6B@				; std::ctype<char>::`vftable'
PUBLIC	??0ctype_base@std@@QAE@I@Z			; std::ctype_base::ctype_base
PUBLIC	??_R4?$ctype@D@std@@6B@				; std::ctype<char>::`RTTI Complete Object Locator'
PUBLIC	??_R0?AV?$ctype@D@std@@@8			; std::ctype<char> `RTTI Type Descriptor'
PUBLIC	??_R3?$ctype@D@std@@8				; std::ctype<char>::`RTTI Class Hierarchy Descriptor'
PUBLIC	??_R2?$ctype@D@std@@8				; std::ctype<char>::`RTTI Base Class Array'
PUBLIC	??_R1A@?0A@EA@?$ctype@D@std@@8			; std::ctype<char>::`RTTI Base Class Descriptor at (0,-1,0,64)'
PUBLIC	??_R1A@?0A@EA@ctype_base@std@@8			; std::ctype_base::`RTTI Base Class Descriptor at (0,-1,0,64)'
PUBLIC	??_R0?AUctype_base@std@@@8			; std::ctype_base `RTTI Type Descriptor'
PUBLIC	??_R3ctype_base@std@@8				; std::ctype_base::`RTTI Class Hierarchy Descriptor'
PUBLIC	??_R2ctype_base@std@@8				; std::ctype_base::`RTTI Base Class Array'
PUBLIC	??_R1A@?0A@EA@facet@locale@std@@8		; std::locale::facet::`RTTI Base Class Descriptor at (0,-1,0,64)'
PUBLIC	??_R0?AVfacet@locale@std@@@8			; std::locale::facet `RTTI Type Descriptor'
PUBLIC	??_R3facet@locale@std@@8			; std::locale::facet::`RTTI Class Hierarchy Descriptor'
PUBLIC	??_R2facet@locale@std@@8			; std::locale::facet::`RTTI Base Class Array'
PUBLIC	?do_tolower@?$ctype@D@std@@MBEPBDPADPBD@Z	; std::ctype<char>::do_tolower
PUBLIC	?do_tolower@?$ctype@D@std@@MBEDD@Z		; std::ctype<char>::do_tolower
PUBLIC	?do_toupper@?$ctype@D@std@@MBEPBDPADPBD@Z	; std::ctype<char>::do_toupper
PUBLIC	?do_toupper@?$ctype@D@std@@MBEDD@Z		; std::ctype<char>::do_toupper
PUBLIC	?do_widen@?$ctype@D@std@@MBEPBDPBD0PAD@Z	; std::ctype<char>::do_widen
PUBLIC	?do_widen@?$ctype@D@std@@MBEDD@Z		; std::ctype<char>::do_widen
PUBLIC	?do_narrow@?$ctype@D@std@@MBEPBDPBD0DPAD@Z	; std::ctype<char>::do_narrow
PUBLIC	?do_narrow@?$ctype@D@std@@MBEDDD@Z		; std::ctype<char>::do_narrow
EXTRN	??_E?$ctype@D@std@@MAEPAXI@Z:PROC		; std::ctype<char>::`vector deleting destructor'
;	COMDAT ??_R2facet@locale@std@@8
rdata$r	SEGMENT
??_R2facet@locale@std@@8 DD FLAT:??_R1A@?0A@EA@facet@locale@std@@8 ; std::locale::facet::`RTTI Base Class Array'
rdata$r	ENDS
;	COMDAT ??_R3facet@locale@std@@8
rdata$r	SEGMENT
??_R3facet@locale@std@@8 DD 00H				; std::locale::facet::`RTTI Class Hierarchy Descriptor'
	DD	00H
	DD	01H
	DD	FLAT:??_R2facet@locale@std@@8
rdata$r	ENDS
;	COMDAT ??_R0?AVfacet@locale@std@@@8
_DATA	SEGMENT
??_R0?AVfacet@locale@std@@@8 DD FLAT:??_7type_info@@6B@	; std::locale::facet `RTTI Type Descriptor'
	DD	00H
	DB	'.?AVfacet@locale@std@@', 00H
_DATA	ENDS
;	COMDAT ??_R1A@?0A@EA@facet@locale@std@@8
rdata$r	SEGMENT
??_R1A@?0A@EA@facet@locale@std@@8 DD FLAT:??_R0?AVfacet@locale@std@@@8 ; std::locale::facet::`RTTI Base Class Descriptor at (0,-1,0,64)'
	DD	00H
	DD	00H
	DD	0ffffffffH
	DD	00H
	DD	040H
	DD	FLAT:??_R3facet@locale@std@@8
rdata$r	ENDS
;	COMDAT ??_R2ctype_base@std@@8
rdata$r	SEGMENT
??_R2ctype_base@std@@8 DD FLAT:??_R1A@?0A@EA@ctype_base@std@@8 ; std::ctype_base::`RTTI Base Class Array'
	DD	FLAT:??_R1A@?0A@EA@facet@locale@std@@8
rdata$r	ENDS
;	COMDAT ??_R3ctype_base@std@@8
rdata$r	SEGMENT
??_R3ctype_base@std@@8 DD 00H				; std::ctype_base::`RTTI Class Hierarchy Descriptor'
	DD	00H
	DD	02H
	DD	FLAT:??_R2ctype_base@std@@8
rdata$r	ENDS
;	COMDAT ??_R0?AUctype_base@std@@@8
_DATA	SEGMENT
??_R0?AUctype_base@std@@@8 DD FLAT:??_7type_info@@6B@	; std::ctype_base `RTTI Type Descriptor'
	DD	00H
	DB	'.?AUctype_base@std@@', 00H
_DATA	ENDS
;	COMDAT ??_R1A@?0A@EA@ctype_base@std@@8
rdata$r	SEGMENT
??_R1A@?0A@EA@ctype_base@std@@8 DD FLAT:??_R0?AUctype_base@std@@@8 ; std::ctype_base::`RTTI Base Class Descriptor at (0,-1,0,64)'
	DD	01H
	DD	00H
	DD	0ffffffffH
	DD	00H
	DD	040H
	DD	FLAT:??_R3ctype_base@std@@8
rdata$r	ENDS
;	COMDAT ??_R1A@?0A@EA@?$ctype@D@std@@8
rdata$r	SEGMENT
??_R1A@?0A@EA@?$ctype@D@std@@8 DD FLAT:??_R0?AV?$ctype@D@std@@@8 ; std::ctype<char>::`RTTI Base Class Descriptor at (0,-1,0,64)'
	DD	02H
	DD	00H
	DD	0ffffffffH
	DD	00H
	DD	040H
	DD	FLAT:??_R3?$ctype@D@std@@8
rdata$r	ENDS
;	COMDAT ??_R2?$ctype@D@std@@8
rdata$r	SEGMENT
??_R2?$ctype@D@std@@8 DD FLAT:??_R1A@?0A@EA@?$ctype@D@std@@8 ; std::ctype<char>::`RTTI Base Class Array'
	DD	FLAT:??_R1A@?0A@EA@ctype_base@std@@8
	DD	FLAT:??_R1A@?0A@EA@facet@locale@std@@8
rdata$r	ENDS
;	COMDAT ??_R3?$ctype@D@std@@8
rdata$r	SEGMENT
??_R3?$ctype@D@std@@8 DD 00H				; std::ctype<char>::`RTTI Class Hierarchy Descriptor'
	DD	00H
	DD	03H
	DD	FLAT:??_R2?$ctype@D@std@@8
rdata$r	ENDS
;	COMDAT ??_R0?AV?$ctype@D@std@@@8
_DATA	SEGMENT
??_R0?AV?$ctype@D@std@@@8 DD FLAT:??_7type_info@@6B@	; std::ctype<char> `RTTI Type Descriptor'
	DD	00H
	DB	'.?AV?$ctype@D@std@@', 00H
_DATA	ENDS
;	COMDAT ??_R4?$ctype@D@std@@6B@
rdata$r	SEGMENT
??_R4?$ctype@D@std@@6B@ DD 00H				; std::ctype<char>::`RTTI Complete Object Locator'
	DD	00H
	DD	00H
	DD	FLAT:??_R0?AV?$ctype@D@std@@@8
	DD	FLAT:??_R3?$ctype@D@std@@8
rdata$r	ENDS
;	COMDAT ??_7?$ctype@D@std@@6B@
CONST	SEGMENT
??_7?$ctype@D@std@@6B@ DD FLAT:??_R4?$ctype@D@std@@6B@	; std::ctype<char>::`vftable'
	DD	FLAT:??_E?$ctype@D@std@@MAEPAXI@Z
	DD	FLAT:?do_tolower@?$ctype@D@std@@MBEPBDPADPBD@Z
	DD	FLAT:?do_tolower@?$ctype@D@std@@MBEDD@Z
	DD	FLAT:?do_toupper@?$ctype@D@std@@MBEPBDPADPBD@Z
	DD	FLAT:?do_toupper@?$ctype@D@std@@MBEDD@Z
	DD	FLAT:?do_widen@?$ctype@D@std@@MBEPBDPBD0PAD@Z
	DD	FLAT:?do_widen@?$ctype@D@std@@MBEDD@Z
	DD	FLAT:?do_narrow@?$ctype@D@std@@MBEPBDPBD0DPAD@Z
	DD	FLAT:?do_narrow@?$ctype@D@std@@MBEDDD@Z
CONST	ENDS
;	COMDAT xdata$x
xdata$x	SEGMENT
__unwindtable$??0?$ctype@D@std@@QAE@ABV_Locinfo@1@I@Z DD 0ffffffffH
	DD	FLAT:__unwindfunclet$??0?$ctype@D@std@@QAE@ABV_Locinfo@1@I@Z$0
__ehfuncinfo$??0?$ctype@D@std@@QAE@ABV_Locinfo@1@I@Z DD 019930522H
	DD	01H
	DD	FLAT:__unwindtable$??0?$ctype@D@std@@QAE@ABV_Locinfo@1@I@Z
	DD	2 DUP(00H)
	DD	2 DUP(00H)
	DD	00H
	DD	01H
; Function compile flags: /Odtp /RTCsu /ZI
xdata$x	ENDS
;	COMDAT ??0?$ctype@D@std@@QAE@ABV_Locinfo@1@I@Z
_TEXT	SEGMENT
_this$ = -20						; size = 4
__$EHRec$ = -12						; size = 12
__Lobj$ = 8						; size = 4
__Refs$ = 12						; size = 4
??0?$ctype@D@std@@QAE@ABV_Locinfo@1@I@Z PROC		; std::ctype<char>::ctype<char>, COMDAT
; _this$ = ecx

; 2365 : 		{	// construct from current locale

	push	ebp
	mov	ebp, esp
	push	-1
	push	__ehhandler$??0?$ctype@D@std@@QAE@ABV_Locinfo@1@I@Z
	mov	eax, DWORD PTR fs:0
	push	eax
	sub	esp, 204				; 000000ccH
	push	ebx
	push	esi
	push	edi
	push	ecx
	lea	edi, DWORD PTR [ebp-216]
	mov	ecx, 51					; 00000033H
	mov	eax, -858993460				; ccccccccH
	rep stosd
	pop	ecx
	mov	eax, DWORD PTR ___security_cookie
	xor	eax, ebp
	push	eax
	lea	eax, DWORD PTR __$EHRec$[ebp]
	mov	DWORD PTR fs:0, eax
	mov	DWORD PTR _this$[ebp], ecx
	mov	eax, DWORD PTR __Refs$[ebp]
	push	eax
	mov	ecx, DWORD PTR _this$[ebp]
	call	??0ctype_base@std@@QAE@I@Z		; std::ctype_base::ctype_base
	mov	DWORD PTR __$EHRec$[ebp+8], 0
	mov	eax, DWORD PTR _this$[ebp]
	mov	DWORD PTR [eax], OFFSET ??_7?$ctype@D@std@@6B@

; 2366 : 		_Init(_Lobj);

	mov	eax, DWORD PTR __Lobj$[ebp]
	push	eax
	mov	ecx, DWORD PTR _this$[ebp]
	call	?_Init@?$ctype@D@std@@IAEXABV_Locinfo@2@@Z ; std::ctype<char>::_Init

; 2367 : 		}

	mov	DWORD PTR __$EHRec$[ebp+8], -1
	mov	eax, DWORD PTR _this$[ebp]
	mov	ecx, DWORD PTR __$EHRec$[ebp]
	mov	DWORD PTR fs:0, ecx
	pop	ecx
	pop	edi
	pop	esi
	pop	ebx
	add	esp, 216				; 000000d8H
	cmp	ebp, esp
	call	__RTC_CheckEsp
	mov	esp, ebp
	pop	ebp
	ret	8
_TEXT	ENDS
;	COMDAT text$x
text$x	SEGMENT
__unwindfunclet$??0?$ctype@D@std@@QAE@ABV_Locinfo@1@I@Z$0:
	mov	ecx, DWORD PTR _this$[ebp]
	jmp	??1ctype_base@std@@UAE@XZ		; std::ctype_base::~ctype_base
__ehhandler$??0?$ctype@D@std@@QAE@ABV_Locinfo@1@I@Z:
	mov	edx, DWORD PTR [esp+8]
	lea	eax, DWORD PTR [edx+12]
	mov	ecx, DWORD PTR [edx-220]
	xor	ecx, eax
	call	@__security_check_cookie@4
	mov	eax, OFFSET __ehfuncinfo$??0?$ctype@D@std@@QAE@ABV_Locinfo@1@I@Z
	jmp	___CxxFrameHandler3
text$x	ENDS
??0?$ctype@D@std@@QAE@ABV_Locinfo@1@I@Z ENDP		; std::ctype<char>::ctype<char>
PUBLIC	??_7ctype_base@std@@6B@				; std::ctype_base::`vftable'
PUBLIC	??0facet@locale@std@@IAE@I@Z			; std::locale::facet::facet
PUBLIC	??_R4ctype_base@std@@6B@			; std::ctype_base::`RTTI Complete Object Locator'
EXTRN	??_Ectype_base@std@@UAEPAXI@Z:PROC		; std::ctype_base::`vector deleting destructor'
;	COMDAT ??_R4ctype_base@std@@6B@
rdata$r	SEGMENT
??_R4ctype_base@std@@6B@ DD 00H				; std::ctype_base::`RTTI Complete Object Locator'
	DD	00H
	DD	00H
	DD	FLAT:??_R0?AUctype_base@std@@@8
	DD	FLAT:??_R3ctype_base@std@@8
rdata$r	ENDS
;	COMDAT ??_7ctype_base@std@@6B@
CONST	SEGMENT
??_7ctype_base@std@@6B@ DD FLAT:??_R4ctype_base@std@@6B@ ; std::ctype_base::`vftable'
	DD	FLAT:??_Ectype_base@std@@UAEPAXI@Z
; Function compile flags: /Odtp /RTCsu /ZI
CONST	ENDS
;	COMDAT ??0ctype_base@std@@QAE@I@Z
_TEXT	SEGMENT
_this$ = -8						; size = 4
__Refs$ = 8						; size = 4
??0ctype_base@std@@QAE@I@Z PROC				; std::ctype_base::ctype_base, COMDAT
; _this$ = ecx

; 2011 : 		{	// default constructor

	push	ebp
	mov	ebp, esp
	sub	esp, 204				; 000000ccH
	push	ebx
	push	esi
	push	edi
	push	ecx
	lea	edi, DWORD PTR [ebp-204]
	mov	ecx, 51					; 00000033H
	mov	eax, -858993460				; ccccccccH
	rep stosd
	pop	ecx
	mov	DWORD PTR _this$[ebp], ecx
	mov	eax, DWORD PTR __Refs$[ebp]
	push	eax
	mov	ecx, DWORD PTR _this$[ebp]
	call	??0facet@locale@std@@IAE@I@Z		; std::locale::facet::facet
	mov	eax, DWORD PTR _this$[ebp]
	mov	DWORD PTR [eax], OFFSET ??_7ctype_base@std@@6B@

; 2012 : 		}

	mov	eax, DWORD PTR _this$[ebp]
	pop	edi
	pop	esi
	pop	ebx
	add	esp, 204				; 000000ccH
	cmp	ebp, esp
	call	__RTC_CheckEsp
	mov	esp, ebp
	pop	ebp
	ret	4
??0ctype_base@std@@QAE@I@Z ENDP				; std::ctype_base::ctype_base
_TEXT	ENDS
PUBLIC	??_7facet@locale@std@@6B@			; std::locale::facet::`vftable'
PUBLIC	??_R4facet@locale@std@@6B@			; std::locale::facet::`RTTI Complete Object Locator'
EXTRN	??_Efacet@locale@std@@UAEPAXI@Z:PROC		; std::locale::facet::`vector deleting destructor'
;	COMDAT ??_R4facet@locale@std@@6B@
rdata$r	SEGMENT
??_R4facet@locale@std@@6B@ DD 00H			; std::locale::facet::`RTTI Complete Object Locator'
	DD	00H
	DD	00H
	DD	FLAT:??_R0?AVfacet@locale@std@@@8
	DD	FLAT:??_R3facet@locale@std@@8
rdata$r	ENDS
;	COMDAT ??_7facet@locale@std@@6B@
CONST	SEGMENT
??_7facet@locale@std@@6B@ DD FLAT:??_R4facet@locale@std@@6B@ ; std::locale::facet::`vftable'
	DD	FLAT:??_Efacet@locale@std@@UAEPAXI@Z
; Function compile flags: /Odtp /RTCsu /ZI
CONST	ENDS
;	COMDAT ??0facet@locale@std@@IAE@I@Z
_TEXT	SEGMENT
_this$ = -8						; size = 4
__Initrefs$ = 8						; size = 4
??0facet@locale@std@@IAE@I@Z PROC			; std::locale::facet::facet, COMDAT
; _this$ = ecx

; 170  : 			{	// construct with initial reference count

	push	ebp
	mov	ebp, esp
	sub	esp, 204				; 000000ccH
	push	ebx
	push	esi
	push	edi
	push	ecx
	lea	edi, DWORD PTR [ebp-204]
	mov	ecx, 51					; 00000033H
	mov	eax, -858993460				; ccccccccH
	rep stosd
	pop	ecx
	mov	DWORD PTR _this$[ebp], ecx
	mov	eax, DWORD PTR _this$[ebp]
	mov	DWORD PTR [eax], OFFSET ??_7facet@locale@std@@6B@
	mov	eax, DWORD PTR _this$[ebp]
	mov	ecx, DWORD PTR __Initrefs$[ebp]
	mov	DWORD PTR [eax+4], ecx

; 171  : 			}

	mov	eax, DWORD PTR _this$[ebp]
	pop	edi
	pop	esi
	pop	ebx
	mov	esp, ebp
	pop	ebp
	ret	4
??0facet@locale@std@@IAE@I@Z ENDP			; std::locale::facet::facet
_TEXT	ENDS
PUBLIC	??1facet@locale@std@@UAE@XZ			; std::locale::facet::~facet
; Function compile flags: /Odtp /RTCsu /ZI
;	COMDAT ??_Gfacet@locale@std@@UAEPAXI@Z
_TEXT	SEGMENT
_this$ = -8						; size = 4
___flags$ = 8						; size = 4
??_Gfacet@locale@std@@UAEPAXI@Z PROC			; std::locale::facet::`scalar deleting destructor', COMDAT
; _this$ = ecx
	push	ebp
	mov	ebp, esp
	sub	esp, 204				; 000000ccH
	push	ebx
	push	esi
	push	edi
	push	ecx
	lea	edi, DWORD PTR [ebp-204]
	mov	ecx, 51					; 00000033H
	mov	eax, -858993460				; ccccccccH
	rep stosd
	pop	ecx
	mov	DWORD PTR _this$[ebp], ecx
	mov	ecx, DWORD PTR _this$[ebp]
	call	??1facet@locale@std@@UAE@XZ		; std::locale::facet::~facet
	mov	eax, DWORD PTR ___flags$[ebp]
	and	eax, 1
	je	SHORT $LN1@scalar@12
	mov	eax, DWORD PTR _this$[ebp]
	push	eax
	call	??3facet@locale@std@@SAXPAX@Z		; std::locale::facet::operator delete
	add	esp, 4
$LN1@scalar@12:
	mov	eax, DWORD PTR _this$[ebp]
	pop	edi
	pop	esi
	pop	ebx
	add	esp, 204				; 000000ccH
	cmp	ebp, esp
	call	__RTC_CheckEsp
	mov	esp, ebp
	pop	ebp
	ret	4
??_Gfacet@locale@std@@UAEPAXI@Z ENDP			; std::locale::facet::`scalar deleting destructor'
; Function compile flags: /Odtp /RTCsu /ZI
_TEXT	ENDS
;	COMDAT ??1facet@locale@std@@UAE@XZ
_TEXT	SEGMENT
_this$ = -8						; size = 4
??1facet@locale@std@@UAE@XZ PROC			; std::locale::facet::~facet, COMDAT
; _this$ = ecx

; 164  : 			{	// destroy the object

	push	ebp
	mov	ebp, esp
	sub	esp, 204				; 000000ccH
	push	ebx
	push	esi
	push	edi
	push	ecx
	lea	edi, DWORD PTR [ebp-204]
	mov	ecx, 51					; 00000033H
	mov	eax, -858993460				; ccccccccH
	rep stosd
	pop	ecx
	mov	DWORD PTR _this$[ebp], ecx
	mov	eax, DWORD PTR _this$[ebp]
	mov	DWORD PTR [eax], OFFSET ??_7facet@locale@std@@6B@

; 165  : 			}

	pop	edi
	pop	esi
	pop	ebx
	mov	esp, ebp
	pop	ebp
	ret	0
??1facet@locale@std@@UAE@XZ ENDP			; std::locale::facet::~facet
; Function compile flags: /Odtp /RTCsu /ZI
_TEXT	ENDS
;	COMDAT ??1ctype_base@std@@UAE@XZ
_TEXT	SEGMENT
_this$ = -8						; size = 4
??1ctype_base@std@@UAE@XZ PROC				; std::ctype_base::~ctype_base, COMDAT
; _this$ = ecx

; 2015 : 		{	// destroy the object

	push	ebp
	mov	ebp, esp
	sub	esp, 204				; 000000ccH
	push	ebx
	push	esi
	push	edi
	push	ecx
	lea	edi, DWORD PTR [ebp-204]
	mov	ecx, 51					; 00000033H
	mov	eax, -858993460				; ccccccccH
	rep stosd
	pop	ecx
	mov	DWORD PTR _this$[ebp], ecx
	mov	eax, DWORD PTR _this$[ebp]
	mov	DWORD PTR [eax], OFFSET ??_7ctype_base@std@@6B@

; 2016 : 		}

	mov	ecx, DWORD PTR _this$[ebp]
	call	??1facet@locale@std@@UAE@XZ		; std::locale::facet::~facet
	pop	edi
	pop	esi
	pop	ebx
	add	esp, 204				; 000000ccH
	cmp	ebp, esp
	call	__RTC_CheckEsp
	mov	esp, ebp
	pop	ebp
	ret	0
??1ctype_base@std@@UAE@XZ ENDP				; std::ctype_base::~ctype_base
; Function compile flags: /Odtp /RTCsu /ZI
_TEXT	ENDS
;	COMDAT ??_Gctype_base@std@@UAEPAXI@Z
_TEXT	SEGMENT
_this$ = -8						; size = 4
___flags$ = 8						; size = 4
??_Gctype_base@std@@UAEPAXI@Z PROC			; std::ctype_base::`scalar deleting destructor', COMDAT
; _this$ = ecx
	push	ebp
	mov	ebp, esp
	sub	esp, 204				; 000000ccH
	push	ebx
	push	esi
	push	edi
	push	ecx
	lea	edi, DWORD PTR [ebp-204]
	mov	ecx, 51					; 00000033H
	mov	eax, -858993460				; ccccccccH
	rep stosd
	pop	ecx
	mov	DWORD PTR _this$[ebp], ecx
	mov	ecx, DWORD PTR _this$[ebp]
	call	??1ctype_base@std@@UAE@XZ		; std::ctype_base::~ctype_base
	mov	eax, DWORD PTR ___flags$[ebp]
	and	eax, 1
	je	SHORT $LN1@scalar@13
	mov	eax, DWORD PTR _this$[ebp]
	push	eax
	call	??3facet@locale@std@@SAXPAX@Z		; std::locale::facet::operator delete
	add	esp, 4
$LN1@scalar@13:
	mov	eax, DWORD PTR _this$[ebp]
	pop	edi
	pop	esi
	pop	ebx
	add	esp, 204				; 000000ccH
	cmp	ebp, esp
	call	__RTC_CheckEsp
	mov	esp, ebp
	pop	ebp
	ret	4
??_Gctype_base@std@@UAEPAXI@Z ENDP			; std::ctype_base::`scalar deleting destructor'
_TEXT	ENDS
PUBLIC	?_Getctype@_Locinfo@std@@QBE?AU_Ctypevec@@XZ	; std::_Locinfo::_Getctype
; Function compile flags: /Odtp /RTCsu /ZI
;	COMDAT ?_Init@?$ctype@D@std@@IAEXABV_Locinfo@2@@Z
_TEXT	SEGMENT
$T37734 = -224						; size = 16
_this$ = -8						; size = 4
__Lobj$ = 8						; size = 4
?_Init@?$ctype@D@std@@IAEXABV_Locinfo@2@@Z PROC		; std::ctype<char>::_Init, COMDAT
; _this$ = ecx

; 2399 : 		{	// initialize from _Lobj

	push	ebp
	mov	ebp, esp
	sub	esp, 228				; 000000e4H
	push	ebx
	push	esi
	push	edi
	push	ecx
	lea	edi, DWORD PTR [ebp-228]
	mov	ecx, 57					; 00000039H
	mov	eax, -858993460				; ccccccccH
	rep stosd
	pop	ecx
	mov	DWORD PTR _this$[ebp], ecx

; 2400 : 		_Ctype = _Lobj._Getctype();

	lea	eax, DWORD PTR $T37734[ebp]
	push	eax
	mov	ecx, DWORD PTR __Lobj$[ebp]
	call	?_Getctype@_Locinfo@std@@QBE?AU_Ctypevec@@XZ ; std::_Locinfo::_Getctype
	mov	ecx, DWORD PTR _this$[ebp]
	add	ecx, 8
	mov	edx, DWORD PTR [eax]
	mov	DWORD PTR [ecx], edx
	mov	edx, DWORD PTR [eax+4]
	mov	DWORD PTR [ecx+4], edx
	mov	edx, DWORD PTR [eax+8]
	mov	DWORD PTR [ecx+8], edx
	mov	eax, DWORD PTR [eax+12]
	mov	DWORD PTR [ecx+12], eax

; 2401 : 		}

	pop	edi
	pop	esi
	pop	ebx
	add	esp, 228				; 000000e4H
	cmp	ebp, esp
	call	__RTC_CheckEsp
	mov	esp, ebp
	pop	ebp
	ret	4
?_Init@?$ctype@D@std@@IAEXABV_Locinfo@2@@Z ENDP		; std::ctype<char>::_Init
_TEXT	ENDS
EXTRN	__Getctype:PROC
; Function compile flags: /Odtp /RTCsu /ZI
; File c:\program files (x86)\microsoft visual studio 10.0\vc\include\xlocinfo
;	COMDAT ?_Getctype@_Locinfo@std@@QBE?AU_Ctypevec@@XZ
_TEXT	SEGMENT
$T37737 = -248						; size = 16
$T37738 = -224						; size = 16
_this$ = -8						; size = 4
___$ReturnUdt$ = 8					; size = 4
?_Getctype@_Locinfo@std@@QBE?AU_Ctypevec@@XZ PROC	; std::_Locinfo::_Getctype, COMDAT
; _this$ = ecx

; 117  : 		{	// return ctype stuff

	push	ebp
	mov	ebp, esp
	sub	esp, 252				; 000000fcH
	push	ebx
	push	esi
	push	edi
	push	ecx
	lea	edi, DWORD PTR [ebp-252]
	mov	ecx, 63					; 0000003fH
	mov	eax, -858993460				; ccccccccH
	rep stosd
	pop	ecx
	mov	DWORD PTR _this$[ebp], ecx

; 118  : 		return (::_Getctype());

	lea	eax, DWORD PTR $T37738[ebp]
	push	eax
	call	__Getctype
	add	esp, 4
	mov	ecx, DWORD PTR [eax]
	mov	DWORD PTR $T37737[ebp], ecx
	mov	edx, DWORD PTR [eax+4]
	mov	DWORD PTR $T37737[ebp+4], edx
	mov	ecx, DWORD PTR [eax+8]
	mov	DWORD PTR $T37737[ebp+8], ecx
	mov	edx, DWORD PTR [eax+12]
	mov	DWORD PTR $T37737[ebp+12], edx
	mov	eax, DWORD PTR ___$ReturnUdt$[ebp]
	mov	ecx, DWORD PTR $T37737[ebp]
	mov	DWORD PTR [eax], ecx
	mov	edx, DWORD PTR $T37737[ebp+4]
	mov	DWORD PTR [eax+4], edx
	mov	ecx, DWORD PTR $T37737[ebp+8]
	mov	DWORD PTR [eax+8], ecx
	mov	edx, DWORD PTR $T37737[ebp+12]
	mov	DWORD PTR [eax+12], edx
	mov	eax, DWORD PTR ___$ReturnUdt$[ebp]

; 119  : 		}

	pop	edi
	pop	esi
	pop	ebx
	add	esp, 252				; 000000fcH
	cmp	ebp, esp
	call	__RTC_CheckEsp
	mov	esp, ebp
	pop	ebp
	ret	4
?_Getctype@_Locinfo@std@@QBE?AU_Ctypevec@@XZ ENDP	; std::_Locinfo::_Getctype
_TEXT	ENDS
EXTRN	__Tolower:PROC
; Function compile flags: /Odtp /RTCsu /ZI
; File c:\program files (x86)\microsoft visual studio 10.0\vc\include\xlocale
;	COMDAT ?do_tolower@?$ctype@D@std@@MBEDD@Z
_TEXT	SEGMENT
_this$ = -8						; size = 4
__Ch$ = 8						; size = 1
?do_tolower@?$ctype@D@std@@MBEDD@Z PROC			; std::ctype<char>::do_tolower, COMDAT
; _this$ = ecx

; 2412 : 		{	// convert element to lower case

	push	ebp
	mov	ebp, esp
	sub	esp, 204				; 000000ccH
	push	ebx
	push	esi
	push	edi
	push	ecx
	lea	edi, DWORD PTR [ebp-204]
	mov	ecx, 51					; 00000033H
	mov	eax, -858993460				; ccccccccH
	rep stosd
	pop	ecx
	mov	DWORD PTR _this$[ebp], ecx

; 2413 : 		return ((_Elem)_Tolower((unsigned char)_Ch, &_Ctype));

	mov	eax, DWORD PTR _this$[ebp]
	add	eax, 8
	push	eax
	movzx	ecx, BYTE PTR __Ch$[ebp]
	push	ecx
	call	__Tolower
	add	esp, 8

; 2414 : 		}

	pop	edi
	pop	esi
	pop	ebx
	add	esp, 204				; 000000ccH
	cmp	ebp, esp
	call	__RTC_CheckEsp
	mov	esp, ebp
	pop	ebp
	ret	4
?do_tolower@?$ctype@D@std@@MBEDD@Z ENDP			; std::ctype<char>::do_tolower
_TEXT	ENDS
PUBLIC	??$_Debug_range@PBD@std@@YAXPBD0PB_WI@Z		; std::_Debug_range<char const *>
PUBLIC	??_C@_1IO@NFIEJNFO@?$AAc?$AA?3?$AA?2?$AAp?$AAr?$AAo?$AAg?$AAr?$AAa?$AAm?$AA?5?$AAf?$AAi?$AAl?$AAe?$AAs?$AA?5?$AA?$CI?$AAx?$AA8?$AA6?$AA?$CJ?$AA?2?$AAm?$AAi?$AAc?$AAr?$AAo?$AAs?$AAo?$AAf?$AAt@ ; `string'
;	COMDAT ??_C@_1IO@NFIEJNFO@?$AAc?$AA?3?$AA?2?$AAp?$AAr?$AAo?$AAg?$AAr?$AAa?$AAm?$AA?5?$AAf?$AAi?$AAl?$AAe?$AAs?$AA?5?$AA?$CI?$AAx?$AA8?$AA6?$AA?$CJ?$AA?2?$AAm?$AAi?$AAc?$AAr?$AAo?$AAs?$AAo?$AAf?$AAt@
CONST	SEGMENT
??_C@_1IO@NFIEJNFO@?$AAc?$AA?3?$AA?2?$AAp?$AAr?$AAo?$AAg?$AAr?$AAa?$AAm?$AA?5?$AAf?$AAi?$AAl?$AAe?$AAs?$AA?5?$AA?$CI?$AAx?$AA8?$AA6?$AA?$CJ?$AA?2?$AAm?$AAi?$AAc?$AAr?$AAo?$AAs?$AAo?$AAf?$AAt@ DB 'c'
	DB	00H, ':', 00H, '\', 00H, 'p', 00H, 'r', 00H, 'o', 00H, 'g', 00H
	DB	'r', 00H, 'a', 00H, 'm', 00H, ' ', 00H, 'f', 00H, 'i', 00H, 'l'
	DB	00H, 'e', 00H, 's', 00H, ' ', 00H, '(', 00H, 'x', 00H, '8', 00H
	DB	'6', 00H, ')', 00H, '\', 00H, 'm', 00H, 'i', 00H, 'c', 00H, 'r'
	DB	00H, 'o', 00H, 's', 00H, 'o', 00H, 'f', 00H, 't', 00H, ' ', 00H
	DB	'v', 00H, 'i', 00H, 's', 00H, 'u', 00H, 'a', 00H, 'l', 00H, ' '
	DB	00H, 's', 00H, 't', 00H, 'u', 00H, 'd', 00H, 'i', 00H, 'o', 00H
	DB	' ', 00H, '1', 00H, '0', 00H, '.', 00H, '0', 00H, '\', 00H, 'v'
	DB	00H, 'c', 00H, '\', 00H, 'i', 00H, 'n', 00H, 'c', 00H, 'l', 00H
	DB	'u', 00H, 'd', 00H, 'e', 00H, '\', 00H, 'x', 00H, 'l', 00H, 'o'
	DB	00H, 'c', 00H, 'a', 00H, 'l', 00H, 'e', 00H, 00H, 00H ; `string'
; Function compile flags: /Odtp /RTCsu /ZI
CONST	ENDS
;	COMDAT ?do_tolower@?$ctype@D@std@@MBEPBDPADPBD@Z
_TEXT	SEGMENT
_this$ = -8						; size = 4
__First$ = 8						; size = 4
__Last$ = 12						; size = 4
?do_tolower@?$ctype@D@std@@MBEPBDPADPBD@Z PROC		; std::ctype<char>::do_tolower, COMDAT
; _this$ = ecx

; 2418 : 		{	// convert [_First, _Last) in place to lower case

	push	ebp
	mov	ebp, esp
	sub	esp, 204				; 000000ccH
	push	ebx
	push	esi
	push	edi
	push	ecx
	lea	edi, DWORD PTR [ebp-204]
	mov	ecx, 51					; 00000033H
	mov	eax, -858993460				; ccccccccH
	rep stosd
	pop	ecx
	mov	DWORD PTR _this$[ebp], ecx

; 2419 : 		_DEBUG_RANGE((const _Elem *)_First, _Last);

	push	2419					; 00000973H
	push	OFFSET ??_C@_1IO@NFIEJNFO@?$AAc?$AA?3?$AA?2?$AAp?$AAr?$AAo?$AAg?$AAr?$AAa?$AAm?$AA?5?$AAf?$AAi?$AAl?$AAe?$AAs?$AA?5?$AA?$CI?$AAx?$AA8?$AA6?$AA?$CJ?$AA?2?$AAm?$AAi?$AAc?$AAr?$AAo?$AAs?$AAo?$AAf?$AAt@
	mov	eax, DWORD PTR __Last$[ebp]
	push	eax
	mov	ecx, DWORD PTR __First$[ebp]
	push	ecx
	call	??$_Debug_range@PBD@std@@YAXPBD0PB_WI@Z	; std::_Debug_range<char const *>
	add	esp, 16					; 00000010H
	jmp	SHORT $LN3@do_tolower
$LN2@do_tolower:

; 2420 : 		for (; _First != _Last; ++_First)

	mov	eax, DWORD PTR __First$[ebp]
	add	eax, 1
	mov	DWORD PTR __First$[ebp], eax
$LN3@do_tolower:
	mov	eax, DWORD PTR __First$[ebp]
	cmp	eax, DWORD PTR __Last$[ebp]
	je	SHORT $LN1@do_tolower

; 2421 : 			*_First = (_Elem)_Tolower((unsigned char)*_First, &_Ctype);

	mov	eax, DWORD PTR _this$[ebp]
	add	eax, 8
	push	eax
	mov	ecx, DWORD PTR __First$[ebp]
	movzx	edx, BYTE PTR [ecx]
	push	edx
	call	__Tolower
	add	esp, 8
	mov	ecx, DWORD PTR __First$[ebp]
	mov	BYTE PTR [ecx], al
	jmp	SHORT $LN2@do_tolower
$LN1@do_tolower:

; 2422 : 		return ((const _Elem *)_First);

	mov	eax, DWORD PTR __First$[ebp]

; 2423 : 		}

	pop	edi
	pop	esi
	pop	ebx
	add	esp, 204				; 000000ccH
	cmp	ebp, esp
	call	__RTC_CheckEsp
	mov	esp, ebp
	pop	ebp
	ret	8
?do_tolower@?$ctype@D@std@@MBEPBDPADPBD@Z ENDP		; std::ctype<char>::do_tolower
_TEXT	ENDS
EXTRN	__Toupper:PROC
; Function compile flags: /Odtp /RTCsu /ZI
;	COMDAT ?do_toupper@?$ctype@D@std@@MBEDD@Z
_TEXT	SEGMENT
_this$ = -8						; size = 4
__Ch$ = 8						; size = 1
?do_toupper@?$ctype@D@std@@MBEDD@Z PROC			; std::ctype<char>::do_toupper, COMDAT
; _this$ = ecx

; 2426 : 		{	// convert element to upper case

	push	ebp
	mov	ebp, esp
	sub	esp, 204				; 000000ccH
	push	ebx
	push	esi
	push	edi
	push	ecx
	lea	edi, DWORD PTR [ebp-204]
	mov	ecx, 51					; 00000033H
	mov	eax, -858993460				; ccccccccH
	rep stosd
	pop	ecx
	mov	DWORD PTR _this$[ebp], ecx

; 2427 : 		return ((_Elem)_Toupper((unsigned char)_Ch, &_Ctype));

	mov	eax, DWORD PTR _this$[ebp]
	add	eax, 8
	push	eax
	movzx	ecx, BYTE PTR __Ch$[ebp]
	push	ecx
	call	__Toupper
	add	esp, 8

; 2428 : 		}

	pop	edi
	pop	esi
	pop	ebx
	add	esp, 204				; 000000ccH
	cmp	ebp, esp
	call	__RTC_CheckEsp
	mov	esp, ebp
	pop	ebp
	ret	4
?do_toupper@?$ctype@D@std@@MBEDD@Z ENDP			; std::ctype<char>::do_toupper
; Function compile flags: /Odtp /RTCsu /ZI
_TEXT	ENDS
;	COMDAT ?do_toupper@?$ctype@D@std@@MBEPBDPADPBD@Z
_TEXT	SEGMENT
_this$ = -8						; size = 4
__First$ = 8						; size = 4
__Last$ = 12						; size = 4
?do_toupper@?$ctype@D@std@@MBEPBDPADPBD@Z PROC		; std::ctype<char>::do_toupper, COMDAT
; _this$ = ecx

; 2432 : 		{	// convert [_First, _Last) in place to upper case

	push	ebp
	mov	ebp, esp
	sub	esp, 204				; 000000ccH
	push	ebx
	push	esi
	push	edi
	push	ecx
	lea	edi, DWORD PTR [ebp-204]
	mov	ecx, 51					; 00000033H
	mov	eax, -858993460				; ccccccccH
	rep stosd
	pop	ecx
	mov	DWORD PTR _this$[ebp], ecx

; 2433 : 		_DEBUG_RANGE((const _Elem *)_First, _Last);

	push	2433					; 00000981H
	push	OFFSET ??_C@_1IO@NFIEJNFO@?$AAc?$AA?3?$AA?2?$AAp?$AAr?$AAo?$AAg?$AAr?$AAa?$AAm?$AA?5?$AAf?$AAi?$AAl?$AAe?$AAs?$AA?5?$AA?$CI?$AAx?$AA8?$AA6?$AA?$CJ?$AA?2?$AAm?$AAi?$AAc?$AAr?$AAo?$AAs?$AAo?$AAf?$AAt@
	mov	eax, DWORD PTR __Last$[ebp]
	push	eax
	mov	ecx, DWORD PTR __First$[ebp]
	push	ecx
	call	??$_Debug_range@PBD@std@@YAXPBD0PB_WI@Z	; std::_Debug_range<char const *>
	add	esp, 16					; 00000010H
	jmp	SHORT $LN3@do_toupper
$LN2@do_toupper:

; 2434 : 		for (; _First != _Last; ++_First)

	mov	eax, DWORD PTR __First$[ebp]
	add	eax, 1
	mov	DWORD PTR __First$[ebp], eax
$LN3@do_toupper:
	mov	eax, DWORD PTR __First$[ebp]
	cmp	eax, DWORD PTR __Last$[ebp]
	je	SHORT $LN1@do_toupper

; 2435 : 			*_First = (_Elem)_Toupper((unsigned char)*_First, &_Ctype);

	mov	eax, DWORD PTR _this$[ebp]
	add	eax, 8
	push	eax
	mov	ecx, DWORD PTR __First$[ebp]
	movzx	edx, BYTE PTR [ecx]
	push	edx
	call	__Toupper
	add	esp, 8
	mov	ecx, DWORD PTR __First$[ebp]
	mov	BYTE PTR [ecx], al
	jmp	SHORT $LN2@do_toupper
$LN1@do_toupper:

; 2436 : 		return ((const _Elem *)_First);

	mov	eax, DWORD PTR __First$[ebp]

; 2437 : 		}

	pop	edi
	pop	esi
	pop	ebx
	add	esp, 204				; 000000ccH
	cmp	ebp, esp
	call	__RTC_CheckEsp
	mov	esp, ebp
	pop	ebp
	ret	8
?do_toupper@?$ctype@D@std@@MBEPBDPADPBD@Z ENDP		; std::ctype<char>::do_toupper
; Function compile flags: /Odtp /RTCsu /ZI
_TEXT	ENDS
;	COMDAT ?do_widen@?$ctype@D@std@@MBEDD@Z
_TEXT	SEGMENT
_this$ = -8						; size = 4
__Byte$ = 8						; size = 1
?do_widen@?$ctype@D@std@@MBEDD@Z PROC			; std::ctype<char>::do_widen, COMDAT
; _this$ = ecx

; 2440 : 		{	// widen char

	push	ebp
	mov	ebp, esp
	sub	esp, 204				; 000000ccH
	push	ebx
	push	esi
	push	edi
	push	ecx
	lea	edi, DWORD PTR [ebp-204]
	mov	ecx, 51					; 00000033H
	mov	eax, -858993460				; ccccccccH
	rep stosd
	pop	ecx
	mov	DWORD PTR _this$[ebp], ecx

; 2441 : 		return (_Byte);

	mov	al, BYTE PTR __Byte$[ebp]

; 2442 : 		}

	pop	edi
	pop	esi
	pop	ebx
	mov	esp, ebp
	pop	ebp
	ret	4
?do_widen@?$ctype@D@std@@MBEDD@Z ENDP			; std::ctype<char>::do_widen
; Function compile flags: /Odtp /RTCsu /ZI
_TEXT	ENDS
;	COMDAT ?do_widen@?$ctype@D@std@@MBEPBDPBD0PAD@Z
_TEXT	SEGMENT
_this$ = -8						; size = 4
__First$ = 8						; size = 4
__Last$ = 12						; size = 4
__Dest$ = 16						; size = 4
?do_widen@?$ctype@D@std@@MBEPBDPBD0PAD@Z PROC		; std::ctype<char>::do_widen, COMDAT
; _this$ = ecx

; 2446 : 		{	// widen chars in [_First, _Last)

	push	ebp
	mov	ebp, esp
	sub	esp, 204				; 000000ccH
	push	ebx
	push	esi
	push	edi
	push	ecx
	lea	edi, DWORD PTR [ebp-204]
	mov	ecx, 51					; 00000033H
	mov	eax, -858993460				; ccccccccH
	rep stosd
	pop	ecx
	mov	DWORD PTR _this$[ebp], ecx

; 2447 : 		_DEBUG_RANGE(_First, _Last);

	push	2447					; 0000098fH
	push	OFFSET ??_C@_1IO@NFIEJNFO@?$AAc?$AA?3?$AA?2?$AAp?$AAr?$AAo?$AAg?$AAr?$AAa?$AAm?$AA?5?$AAf?$AAi?$AAl?$AAe?$AAs?$AA?5?$AA?$CI?$AAx?$AA8?$AA6?$AA?$CJ?$AA?2?$AAm?$AAi?$AAc?$AAr?$AAo?$AAs?$AAo?$AAf?$AAt@
	mov	eax, DWORD PTR __Last$[ebp]
	push	eax
	mov	ecx, DWORD PTR __First$[ebp]
	push	ecx
	call	??$_Debug_range@PBD@std@@YAXPBD0PB_WI@Z	; std::_Debug_range<char const *>
	add	esp, 16					; 00000010H

; 2448 : 		_DEBUG_POINTER(_Dest);

	push	2448					; 00000990H
	push	OFFSET ??_C@_1IO@NFIEJNFO@?$AAc?$AA?3?$AA?2?$AAp?$AAr?$AAo?$AAg?$AAr?$AAa?$AAm?$AA?5?$AAf?$AAi?$AAl?$AAe?$AAs?$AA?5?$AA?$CI?$AAx?$AA8?$AA6?$AA?$CJ?$AA?2?$AAm?$AAi?$AAc?$AAr?$AAo?$AAs?$AAo?$AAf?$AAt@
	mov	eax, DWORD PTR __Dest$[ebp]
	push	eax
	call	??$_Debug_pointer@D@std@@YAXPADPB_WI@Z	; std::_Debug_pointer<char>
	add	esp, 12					; 0000000cH

; 2449 : 		_CSTD memcpy(_Dest, _First, _Last - _First);

	mov	eax, DWORD PTR __Last$[ebp]
	sub	eax, DWORD PTR __First$[ebp]
	push	eax
	mov	ecx, DWORD PTR __First$[ebp]
	push	ecx
	mov	edx, DWORD PTR __Dest$[ebp]
	push	edx
	call	_memcpy
	add	esp, 12					; 0000000cH

; 2450 : 		return (_Last);

	mov	eax, DWORD PTR __Last$[ebp]

; 2451 : 		}

	pop	edi
	pop	esi
	pop	ebx
	add	esp, 204				; 000000ccH
	cmp	ebp, esp
	call	__RTC_CheckEsp
	mov	esp, ebp
	pop	ebp
	ret	12					; 0000000cH
?do_widen@?$ctype@D@std@@MBEPBDPBD0PAD@Z ENDP		; std::ctype<char>::do_widen
; Function compile flags: /Odtp /RTCsu /ZI
_TEXT	ENDS
;	COMDAT ?do_narrow@?$ctype@D@std@@MBEDDD@Z
_TEXT	SEGMENT
_this$ = -8						; size = 4
__Ch$ = 8						; size = 1
___formal$ = 12						; size = 1
?do_narrow@?$ctype@D@std@@MBEDDD@Z PROC			; std::ctype<char>::do_narrow, COMDAT
; _this$ = ecx

; 2454 : 		{	// narrow char

	push	ebp
	mov	ebp, esp
	sub	esp, 204				; 000000ccH
	push	ebx
	push	esi
	push	edi
	push	ecx
	lea	edi, DWORD PTR [ebp-204]
	mov	ecx, 51					; 00000033H
	mov	eax, -858993460				; ccccccccH
	rep stosd
	pop	ecx
	mov	DWORD PTR _this$[ebp], ecx

; 2455 : 		return (_Ch);

	mov	al, BYTE PTR __Ch$[ebp]

; 2456 : 		}

	pop	edi
	pop	esi
	pop	ebx
	mov	esp, ebp
	pop	ebp
	ret	8
?do_narrow@?$ctype@D@std@@MBEDDD@Z ENDP			; std::ctype<char>::do_narrow
; Function compile flags: /Odtp /RTCsu /ZI
_TEXT	ENDS
;	COMDAT ?do_narrow@?$ctype@D@std@@MBEPBDPBD0DPAD@Z
_TEXT	SEGMENT
_this$ = -8						; size = 4
__First$ = 8						; size = 4
__Last$ = 12						; size = 4
___formal$ = 16						; size = 1
__Dest$ = 20						; size = 4
?do_narrow@?$ctype@D@std@@MBEPBDPBD0DPAD@Z PROC		; std::ctype<char>::do_narrow, COMDAT
; _this$ = ecx

; 2460 : 		{	// narrow elements in [_First, _Last) to chars

	push	ebp
	mov	ebp, esp
	sub	esp, 204				; 000000ccH
	push	ebx
	push	esi
	push	edi
	push	ecx
	lea	edi, DWORD PTR [ebp-204]
	mov	ecx, 51					; 00000033H
	mov	eax, -858993460				; ccccccccH
	rep stosd
	pop	ecx
	mov	DWORD PTR _this$[ebp], ecx

; 2461 : 		_DEBUG_RANGE(_First, _Last);

	push	2461					; 0000099dH
	push	OFFSET ??_C@_1IO@NFIEJNFO@?$AAc?$AA?3?$AA?2?$AAp?$AAr?$AAo?$AAg?$AAr?$AAa?$AAm?$AA?5?$AAf?$AAi?$AAl?$AAe?$AAs?$AA?5?$AA?$CI?$AAx?$AA8?$AA6?$AA?$CJ?$AA?2?$AAm?$AAi?$AAc?$AAr?$AAo?$AAs?$AAo?$AAf?$AAt@
	mov	eax, DWORD PTR __Last$[ebp]
	push	eax
	mov	ecx, DWORD PTR __First$[ebp]
	push	ecx
	call	??$_Debug_range@PBD@std@@YAXPBD0PB_WI@Z	; std::_Debug_range<char const *>
	add	esp, 16					; 00000010H

; 2462 : 		_DEBUG_POINTER(_Dest);

	push	2462					; 0000099eH
	push	OFFSET ??_C@_1IO@NFIEJNFO@?$AAc?$AA?3?$AA?2?$AAp?$AAr?$AAo?$AAg?$AAr?$AAa?$AAm?$AA?5?$AAf?$AAi?$AAl?$AAe?$AAs?$AA?5?$AA?$CI?$AAx?$AA8?$AA6?$AA?$CJ?$AA?2?$AAm?$AAi?$AAc?$AAr?$AAo?$AAs?$AAo?$AAf?$AAt@
	mov	eax, DWORD PTR __Dest$[ebp]
	push	eax
	call	??$_Debug_pointer@D@std@@YAXPADPB_WI@Z	; std::_Debug_pointer<char>
	add	esp, 12					; 0000000cH

; 2463 : 		_CSTD memcpy(_Dest, _First, _Last - _First);

	mov	eax, DWORD PTR __Last$[ebp]
	sub	eax, DWORD PTR __First$[ebp]
	push	eax
	mov	ecx, DWORD PTR __First$[ebp]
	push	ecx
	mov	edx, DWORD PTR __Dest$[ebp]
	push	edx
	call	_memcpy
	add	esp, 12					; 0000000cH

; 2464 : 		return (_Last);

	mov	eax, DWORD PTR __Last$[ebp]

; 2465 : 		}

	pop	edi
	pop	esi
	pop	ebx
	add	esp, 204				; 000000ccH
	cmp	ebp, esp
	call	__RTC_CheckEsp
	mov	esp, ebp
	pop	ebp
	ret	16					; 00000010H
?do_narrow@?$ctype@D@std@@MBEPBDPBD0DPAD@Z ENDP		; std::ctype<char>::do_narrow
_TEXT	ENDS
PUBLIC	??1?$ctype@D@std@@MAE@XZ			; std::ctype<char>::~ctype<char>
; Function compile flags: /Odtp /RTCsu /ZI
;	COMDAT ??_G?$ctype@D@std@@MAEPAXI@Z
_TEXT	SEGMENT
_this$ = -8						; size = 4
___flags$ = 8						; size = 4
??_G?$ctype@D@std@@MAEPAXI@Z PROC			; std::ctype<char>::`scalar deleting destructor', COMDAT
; _this$ = ecx
	push	ebp
	mov	ebp, esp
	sub	esp, 204				; 000000ccH
	push	ebx
	push	esi
	push	edi
	push	ecx
	lea	edi, DWORD PTR [ebp-204]
	mov	ecx, 51					; 00000033H
	mov	eax, -858993460				; ccccccccH
	rep stosd
	pop	ecx
	mov	DWORD PTR _this$[ebp], ecx
	mov	ecx, DWORD PTR _this$[ebp]
	call	??1?$ctype@D@std@@MAE@XZ		; std::ctype<char>::~ctype<char>
	mov	eax, DWORD PTR ___flags$[ebp]
	and	eax, 1
	je	SHORT $LN1@scalar@14
	mov	eax, DWORD PTR _this$[ebp]
	push	eax
	call	??3facet@locale@std@@SAXPAX@Z		; std::locale::facet::operator delete
	add	esp, 4
$LN1@scalar@14:
	mov	eax, DWORD PTR _this$[ebp]
	pop	edi
	pop	esi
	pop	ebx
	add	esp, 204				; 000000ccH
	cmp	ebp, esp
	call	__RTC_CheckEsp
	mov	esp, ebp
	pop	ebp
	ret	4
??_G?$ctype@D@std@@MAEPAXI@Z ENDP			; std::ctype<char>::`scalar deleting destructor'
_TEXT	ENDS
PUBLIC	?_Tidy@?$ctype@D@std@@IAEXXZ			; std::ctype<char>::_Tidy
;	COMDAT xdata$x
xdata$x	SEGMENT
__unwindtable$??1?$ctype@D@std@@MAE@XZ DD 0ffffffffH
	DD	FLAT:__unwindfunclet$??1?$ctype@D@std@@MAE@XZ$0
__ehfuncinfo$??1?$ctype@D@std@@MAE@XZ DD 019930522H
	DD	01H
	DD	FLAT:__unwindtable$??1?$ctype@D@std@@MAE@XZ
	DD	2 DUP(00H)
	DD	2 DUP(00H)
	DD	00H
	DD	01H
; Function compile flags: /Odtp /RTCsu /ZI
xdata$x	ENDS
;	COMDAT ??1?$ctype@D@std@@MAE@XZ
_TEXT	SEGMENT
_this$ = -20						; size = 4
__$EHRec$ = -12						; size = 12
??1?$ctype@D@std@@MAE@XZ PROC				; std::ctype<char>::~ctype<char>, COMDAT
; _this$ = ecx

; 2394 : 		{	// destroy the object

	push	ebp
	mov	ebp, esp
	push	-1
	push	__ehhandler$??1?$ctype@D@std@@MAE@XZ
	mov	eax, DWORD PTR fs:0
	push	eax
	sub	esp, 204				; 000000ccH
	push	ebx
	push	esi
	push	edi
	push	ecx
	lea	edi, DWORD PTR [ebp-216]
	mov	ecx, 51					; 00000033H
	mov	eax, -858993460				; ccccccccH
	rep stosd
	pop	ecx
	mov	eax, DWORD PTR ___security_cookie
	xor	eax, ebp
	push	eax
	lea	eax, DWORD PTR __$EHRec$[ebp]
	mov	DWORD PTR fs:0, eax
	mov	DWORD PTR _this$[ebp], ecx
	mov	eax, DWORD PTR _this$[ebp]
	mov	DWORD PTR [eax], OFFSET ??_7?$ctype@D@std@@6B@
	mov	DWORD PTR __$EHRec$[ebp+8], 0

; 2395 : 		_Tidy();

	mov	ecx, DWORD PTR _this$[ebp]
	call	?_Tidy@?$ctype@D@std@@IAEXXZ		; std::ctype<char>::_Tidy

; 2396 : 		}

	mov	DWORD PTR __$EHRec$[ebp+8], -1
	mov	ecx, DWORD PTR _this$[ebp]
	call	??1ctype_base@std@@UAE@XZ		; std::ctype_base::~ctype_base
	mov	ecx, DWORD PTR __$EHRec$[ebp]
	mov	DWORD PTR fs:0, ecx
	pop	ecx
	pop	edi
	pop	esi
	pop	ebx
	add	esp, 216				; 000000d8H
	cmp	ebp, esp
	call	__RTC_CheckEsp
	mov	esp, ebp
	pop	ebp
	ret	0
_TEXT	ENDS
;	COMDAT text$x
text$x	SEGMENT
__unwindfunclet$??1?$ctype@D@std@@MAE@XZ$0:
	mov	ecx, DWORD PTR _this$[ebp]
	jmp	??1ctype_base@std@@UAE@XZ		; std::ctype_base::~ctype_base
__ehhandler$??1?$ctype@D@std@@MAE@XZ:
	mov	edx, DWORD PTR [esp+8]
	lea	eax, DWORD PTR [edx+12]
	mov	ecx, DWORD PTR [edx-220]
	xor	ecx, eax
	call	@__security_check_cookie@4
	mov	eax, OFFSET __ehfuncinfo$??1?$ctype@D@std@@MAE@XZ
	jmp	___CxxFrameHandler3
text$x	ENDS
??1?$ctype@D@std@@MAE@XZ ENDP				; std::ctype<char>::~ctype<char>
; Function compile flags: /Odtp /RTCsu /ZI
;	COMDAT ?_Tidy@?$ctype@D@std@@IAEXXZ
_TEXT	SEGMENT
$T37768 = -212						; size = 4
_this$ = -8						; size = 4
?_Tidy@?$ctype@D@std@@IAEXXZ PROC			; std::ctype<char>::_Tidy, COMDAT
; _this$ = ecx

; 2404 : 		{	// free any allocated storage

	push	ebp
	mov	ebp, esp
	sub	esp, 216				; 000000d8H
	push	ebx
	push	esi
	push	edi
	push	ecx
	lea	edi, DWORD PTR [ebp-216]
	mov	ecx, 54					; 00000036H
	mov	eax, -858993460				; ccccccccH
	rep stosd
	pop	ecx
	mov	DWORD PTR _this$[ebp], ecx

; 2405 : 		if (0 < _Ctype._Delfl)

	mov	eax, DWORD PTR _this$[ebp]
	cmp	DWORD PTR [eax+20], 0
	jle	SHORT $LN3@Tidy@2

; 2406 : 			free((void *)_Ctype._Table);

	mov	eax, DWORD PTR _this$[ebp]
	mov	ecx, DWORD PTR [eax+16]
	push	ecx
	call	_free
	add	esp, 4
	jmp	SHORT $LN4@Tidy@2
$LN3@Tidy@2:

; 2407 : 		else if (_Ctype._Delfl < 0)

	mov	eax, DWORD PTR _this$[ebp]
	cmp	DWORD PTR [eax+20], 0
	jge	SHORT $LN4@Tidy@2

; 2408 : 			delete[] (void *)_Ctype._Table;

	mov	eax, DWORD PTR _this$[ebp]
	mov	ecx, DWORD PTR [eax+16]
	mov	DWORD PTR $T37768[ebp], ecx
	mov	edx, DWORD PTR $T37768[ebp]
	push	edx
	call	??_V@YAXPAX@Z				; operator delete[]
	add	esp, 4
$LN4@Tidy@2:

; 2409 : 		}

	pop	edi
	pop	esi
	pop	ebx
	add	esp, 216				; 000000d8H
	cmp	ebp, esp
	call	__RTC_CheckEsp
	mov	esp, ebp
	pop	ebp
	ret	0
?_Tidy@?$ctype@D@std@@IAEXXZ ENDP			; std::ctype<char>::_Tidy
; Function compile flags: /Odtp /RTCsu /ZI
; File c:\program files (x86)\microsoft visual studio 10.0\vc\include\xutility
_TEXT	ENDS
;	COMDAT ??0?$_Yarn@D@std@@QAE@XZ
_TEXT	SEGMENT
_this$ = -8						; size = 4
??0?$_Yarn@D@std@@QAE@XZ PROC				; std::_Yarn<char>::_Yarn<char>, COMDAT
; _this$ = ecx

; 3315 : 		{	// default construct

	push	ebp
	mov	ebp, esp
	sub	esp, 204				; 000000ccH
	push	ebx
	push	esi
	push	edi
	push	ecx
	lea	edi, DWORD PTR [ebp-204]
	mov	ecx, 51					; 00000033H
	mov	eax, -858993460				; ccccccccH
	rep stosd
	pop	ecx
	mov	DWORD PTR _this$[ebp], ecx
	mov	eax, DWORD PTR _this$[ebp]
	mov	DWORD PTR [eax], 0
	mov	eax, DWORD PTR _this$[ebp]
	mov	BYTE PTR [eax+4], 0

; 3316 : 		}

	mov	eax, DWORD PTR _this$[ebp]
	pop	edi
	pop	esi
	pop	ebx
	mov	esp, ebp
	pop	ebp
	ret	0
??0?$_Yarn@D@std@@QAE@XZ ENDP				; std::_Yarn<char>::_Yarn<char>
_TEXT	ENDS
PUBLIC	?_Tidy@?$_Yarn@D@std@@AAEXXZ			; std::_Yarn<char>::_Tidy
; Function compile flags: /Odtp /RTCsu /ZI
;	COMDAT ??1?$_Yarn@D@std@@QAE@XZ
_TEXT	SEGMENT
_this$ = -8						; size = 4
??1?$_Yarn@D@std@@QAE@XZ PROC				; std::_Yarn<char>::~_Yarn<char>, COMDAT
; _this$ = ecx

; 3365 : 		{	// destroy the object

	push	ebp
	mov	ebp, esp
	sub	esp, 204				; 000000ccH
	push	ebx
	push	esi
	push	edi
	push	ecx
	lea	edi, DWORD PTR [ebp-204]
	mov	ecx, 51					; 00000033H
	mov	eax, -858993460				; ccccccccH
	rep stosd
	pop	ecx
	mov	DWORD PTR _this$[ebp], ecx

; 3366 : 		_Tidy();

	mov	ecx, DWORD PTR _this$[ebp]
	call	?_Tidy@?$_Yarn@D@std@@AAEXXZ		; std::_Yarn<char>::_Tidy

; 3367 : 		}

	pop	edi
	pop	esi
	pop	ebx
	add	esp, 204				; 000000ccH
	cmp	ebp, esp
	call	__RTC_CheckEsp
	mov	esp, ebp
	pop	ebp
	ret	0
??1?$_Yarn@D@std@@QAE@XZ ENDP				; std::_Yarn<char>::~_Yarn<char>
; Function compile flags: /Odtp /RTCsu /ZI
_TEXT	ENDS
;	COMDAT ?c_str@?$_Yarn@D@std@@QBEPBDXZ
_TEXT	SEGMENT
tv66 = -208						; size = 4
_this$ = -8						; size = 4
?c_str@?$_Yarn@D@std@@QBEPBDXZ PROC			; std::_Yarn<char>::c_str, COMDAT
; _this$ = ecx

; 3375 : 		{	// return NTBS

	push	ebp
	mov	ebp, esp
	sub	esp, 208				; 000000d0H
	push	ebx
	push	esi
	push	edi
	push	ecx
	lea	edi, DWORD PTR [ebp-208]
	mov	ecx, 52					; 00000034H
	mov	eax, -858993460				; ccccccccH
	rep stosd
	pop	ecx
	mov	DWORD PTR _this$[ebp], ecx

; 3376 : 		return (_Myptr != 0 ? _Myptr : &_Nul);

	mov	eax, DWORD PTR _this$[ebp]
	cmp	DWORD PTR [eax], 0
	je	SHORT $LN3@c_str
	mov	ecx, DWORD PTR _this$[ebp]
	mov	edx, DWORD PTR [ecx]
	mov	DWORD PTR tv66[ebp], edx
	jmp	SHORT $LN4@c_str
$LN3@c_str:
	mov	eax, DWORD PTR _this$[ebp]
	add	eax, 4
	mov	DWORD PTR tv66[ebp], eax
$LN4@c_str:
	mov	eax, DWORD PTR tv66[ebp]

; 3377 : 		}

	pop	edi
	pop	esi
	pop	ebx
	mov	esp, ebp
	pop	ebp
	ret	0
?c_str@?$_Yarn@D@std@@QBEPBDXZ ENDP			; std::_Yarn<char>::c_str
_TEXT	ENDS
EXTRN	__free_dbg:PROC
; Function compile flags: /Odtp /RTCsu /ZI
;	COMDAT ?_Tidy@?$_Yarn@D@std@@AAEXXZ
_TEXT	SEGMENT
_this$ = -8						; size = 4
?_Tidy@?$_Yarn@D@std@@AAEXXZ PROC			; std::_Yarn<char>::_Tidy, COMDAT
; _this$ = ecx

; 3391 : 		{	// discard any string

	push	ebp
	mov	ebp, esp
	sub	esp, 204				; 000000ccH
	push	ebx
	push	esi
	push	edi
	push	ecx
	lea	edi, DWORD PTR [ebp-204]
	mov	ecx, 51					; 00000033H
	mov	eax, -858993460				; ccccccccH
	rep stosd
	pop	ecx
	mov	DWORD PTR _this$[ebp], ecx

; 3392 : 		if (_Myptr != 0)

	mov	eax, DWORD PTR _this$[ebp]
	cmp	DWORD PTR [eax], 0
	je	SHORT $LN1@Tidy@3

; 3393 : 
; 3394 :  #ifdef _DEBUG
; 3395 : 			_free_dbg(_Myptr, _CRT_BLOCK);

	push	2
	mov	eax, DWORD PTR _this$[ebp]
	mov	ecx, DWORD PTR [eax]
	push	ecx
	call	__free_dbg
	add	esp, 8
$LN1@Tidy@3:

; 3396 : 
; 3397 :  #else /* _DEBUG */
; 3398 : 			_CSTD free(_Myptr);
; 3399 :  #endif /* _DEBUG */
; 3400 : 
; 3401 : 		_Myptr = 0;

	mov	eax, DWORD PTR _this$[ebp]
	mov	DWORD PTR [eax], 0

; 3402 : 		}

	pop	edi
	pop	esi
	pop	ebx
	add	esp, 204				; 000000ccH
	cmp	ebp, esp
	call	__RTC_CheckEsp
	mov	esp, ebp
	pop	ebp
	ret	0
?_Tidy@?$_Yarn@D@std@@AAEXXZ ENDP			; std::_Yarn<char>::_Tidy
_TEXT	ENDS
PUBLIC	??$_Debug_range2@PBD@std@@YAXPBD0PB_WIUrandom_access_iterator_tag@0@@Z ; std::_Debug_range2<char const *>
PUBLIC	??$_Iter_cat@PBD@std@@YA?AUrandom_access_iterator_tag@0@ABQBD@Z ; std::_Iter_cat<char const *>
; Function compile flags: /Odtp /RTCsu /ZI
;	COMDAT ??$_Debug_range@PBD@std@@YAXPBD0PB_WI@Z
_TEXT	SEGMENT
$T37781 = -197						; size = 1
__First$ = 8						; size = 4
__Last$ = 12						; size = 4
__File$ = 16						; size = 4
__Line$ = 20						; size = 4
??$_Debug_range@PBD@std@@YAXPBD0PB_WI@Z PROC		; std::_Debug_range<char const *>, COMDAT

; 727  : 	{	// test iterator pair for valid range

	push	ebp
	mov	ebp, esp
	sub	esp, 204				; 000000ccH
	push	ebx
	push	esi
	push	edi
	lea	edi, DWORD PTR [ebp-204]
	mov	ecx, 51					; 00000033H
	mov	eax, -858993460				; ccccccccH
	rep stosd

; 728  : 	_Debug_range2(_First, _Last, _File, _Line, _Iter_cat(_First));

	lea	eax, DWORD PTR __First$[ebp]
	push	eax
	lea	ecx, DWORD PTR $T37781[ebp]
	push	ecx
	call	??$_Iter_cat@PBD@std@@YA?AUrandom_access_iterator_tag@0@ABQBD@Z ; std::_Iter_cat<char const *>
	add	esp, 8
	movzx	edx, BYTE PTR [eax]
	push	edx
	mov	eax, DWORD PTR __Line$[ebp]
	push	eax
	mov	ecx, DWORD PTR __File$[ebp]
	push	ecx
	mov	edx, DWORD PTR __Last$[ebp]
	push	edx
	mov	eax, DWORD PTR __First$[ebp]
	push	eax
	call	??$_Debug_range2@PBD@std@@YAXPBD0PB_WIUrandom_access_iterator_tag@0@@Z ; std::_Debug_range2<char const *>
	add	esp, 20					; 00000014H

; 729  : 	}

	pop	edi
	pop	esi
	pop	ebx
	add	esp, 204				; 000000ccH
	cmp	ebp, esp
	call	__RTC_CheckEsp
	mov	esp, ebp
	pop	ebp
	ret	0
??$_Debug_range@PBD@std@@YAXPBD0PB_WI@Z ENDP		; std::_Debug_range<char const *>
_TEXT	ENDS
PUBLIC	??_C@_1CK@EOPGIILJ@?$AAi?$AAn?$AAv?$AAa?$AAl?$AAi?$AAd?$AA?5?$AAn?$AAu?$AAl?$AAl?$AA?5?$AAp?$AAo?$AAi?$AAn?$AAt?$AAe?$AAr?$AA?$AA@ ; `string'
;	COMDAT ??_C@_1CK@EOPGIILJ@?$AAi?$AAn?$AAv?$AAa?$AAl?$AAi?$AAd?$AA?5?$AAn?$AAu?$AAl?$AAl?$AA?5?$AAp?$AAo?$AAi?$AAn?$AAt?$AAe?$AAr?$AA?$AA@
CONST	SEGMENT
??_C@_1CK@EOPGIILJ@?$AAi?$AAn?$AAv?$AAa?$AAl?$AAi?$AAd?$AA?5?$AAn?$AAu?$AAl?$AAl?$AA?5?$AAp?$AAo?$AAi?$AAn?$AAt?$AAe?$AAr?$AA?$AA@ DB 'i'
	DB	00H, 'n', 00H, 'v', 00H, 'a', 00H, 'l', 00H, 'i', 00H, 'd', 00H
	DB	' ', 00H, 'n', 00H, 'u', 00H, 'l', 00H, 'l', 00H, ' ', 00H, 'p'
	DB	00H, 'o', 00H, 'i', 00H, 'n', 00H, 't', 00H, 'e', 00H, 'r', 00H
	DB	00H, 00H					; `string'
; Function compile flags: /Odtp /RTCsu /ZI
CONST	ENDS
;	COMDAT ??$_Debug_pointer@D@std@@YAXPADPB_WI@Z
_TEXT	SEGMENT
__First$ = 8						; size = 4
__File$ = 12						; size = 4
__Line$ = 16						; size = 4
??$_Debug_pointer@D@std@@YAXPADPB_WI@Z PROC		; std::_Debug_pointer<char>, COMDAT

; 696  : 	{	// test iterator for non-singularity, pointers

	push	ebp
	mov	ebp, esp
	sub	esp, 192				; 000000c0H
	push	ebx
	push	esi
	push	edi
	lea	edi, DWORD PTR [ebp-192]
	mov	ecx, 48					; 00000030H
	mov	eax, -858993460				; ccccccccH
	rep stosd

; 697  : 	if (_First == 0)

	cmp	DWORD PTR __First$[ebp], 0
	jne	SHORT $LN2@Debug_poin

; 698  : 		_DEBUG_ERROR2("invalid null pointer", _File, _Line);

	mov	eax, DWORD PTR __Line$[ebp]
	push	eax
	mov	ecx, DWORD PTR __File$[ebp]
	push	ecx
	push	OFFSET ??_C@_1CK@EOPGIILJ@?$AAi?$AAn?$AAv?$AAa?$AAl?$AAi?$AAd?$AA?5?$AAn?$AAu?$AAl?$AAl?$AA?5?$AAp?$AAo?$AAi?$AAn?$AAt?$AAe?$AAr?$AA?$AA@
	call	?_Debug_message@std@@YAXPB_W0I@Z	; std::_Debug_message
	add	esp, 12					; 0000000cH
$LN2@Debug_poin:

; 699  : 	}

	pop	edi
	pop	esi
	pop	ebx
	add	esp, 192				; 000000c0H
	cmp	ebp, esp
	call	__RTC_CheckEsp
	mov	esp, ebp
	pop	ebp
	ret	0
??$_Debug_pointer@D@std@@YAXPADPB_WI@Z ENDP		; std::_Debug_pointer<char>
; Function compile flags: /Odtp /RTCsu /ZI
_TEXT	ENDS
;	COMDAT ??$_Debug_pointer@D@std@@YAXPBDPB_WI@Z
_TEXT	SEGMENT
__First$ = 8						; size = 4
__File$ = 12						; size = 4
__Line$ = 16						; size = 4
??$_Debug_pointer@D@std@@YAXPBDPB_WI@Z PROC		; std::_Debug_pointer<char>, COMDAT

; 689  : 	{	// test iterator for non-singularity, const pointers

	push	ebp
	mov	ebp, esp
	sub	esp, 192				; 000000c0H
	push	ebx
	push	esi
	push	edi
	lea	edi, DWORD PTR [ebp-192]
	mov	ecx, 48					; 00000030H
	mov	eax, -858993460				; ccccccccH
	rep stosd

; 690  : 	if (_First == 0)

	cmp	DWORD PTR __First$[ebp], 0
	jne	SHORT $LN2@Debug_poin@2

; 691  : 		_DEBUG_ERROR2("invalid null pointer", _File, _Line);

	mov	eax, DWORD PTR __Line$[ebp]
	push	eax
	mov	ecx, DWORD PTR __File$[ebp]
	push	ecx
	push	OFFSET ??_C@_1CK@EOPGIILJ@?$AAi?$AAn?$AAv?$AAa?$AAl?$AAi?$AAd?$AA?5?$AAn?$AAu?$AAl?$AAl?$AA?5?$AAp?$AAo?$AAi?$AAn?$AAt?$AAe?$AAr?$AA?$AA@
	call	?_Debug_message@std@@YAXPB_W0I@Z	; std::_Debug_message
	add	esp, 12					; 0000000cH
$LN2@Debug_poin@2:

; 692  : 	}

	pop	edi
	pop	esi
	pop	ebx
	add	esp, 192				; 000000c0H
	cmp	ebp, esp
	call	__RTC_CheckEsp
	mov	esp, ebp
	pop	ebp
	ret	0
??$_Debug_pointer@D@std@@YAXPBDPB_WI@Z ENDP		; std::_Debug_pointer<char>
_TEXT	ENDS
PUBLIC	??_Glocale@std@@QAEPAXI@Z			; std::locale::`scalar deleting destructor'
; Function compile flags: /Odtp /RTCsu /ZI
; File c:\program files (x86)\microsoft visual studio 10.0\vc\include\xdebug
;	COMDAT ??$_DebugHeapDelete@Vlocale@std@@@std@@YAXPAVlocale@0@@Z
_TEXT	SEGMENT
__Ptr$ = 8						; size = 4
??$_DebugHeapDelete@Vlocale@std@@@std@@YAXPAVlocale@0@@Z PROC ; std::_DebugHeapDelete<std::locale>, COMDAT

; 56   : 	{	// delete from the debug CRT heap even if operator delete exists

	push	ebp
	mov	ebp, esp
	sub	esp, 192				; 000000c0H
	push	ebx
	push	esi
	push	edi
	lea	edi, DWORD PTR [ebp-192]
	mov	ecx, 48					; 00000030H
	mov	eax, -858993460				; ccccccccH
	rep stosd

; 57   : 	if (_Ptr != 0)

	cmp	DWORD PTR __Ptr$[ebp], 0
	je	SHORT $LN2@DebugHeapD@2

; 58   : 		{	// worth deleting
; 59   : 		_Ptr->~_Ty();

	push	0
	mov	ecx, DWORD PTR __Ptr$[ebp]
	call	??_Glocale@std@@QAEPAXI@Z

; 60   : 		// delete as _NORMAL_BLOCK, not _CRT_BLOCK, since we might have
; 61   : 		// facets allocated by normal new.
; 62   : 		free(_Ptr);

	mov	eax, DWORD PTR __Ptr$[ebp]
	push	eax
	call	_free
	add	esp, 4
$LN2@DebugHeapD@2:

; 63   : 		}
; 64   : 	}

	pop	edi
	pop	esi
	pop	ebx
	add	esp, 192				; 000000c0H
	cmp	ebp, esp
	call	__RTC_CheckEsp
	mov	esp, ebp
	pop	ebp
	ret	0
??$_DebugHeapDelete@Vlocale@std@@@std@@YAXPAVlocale@0@@Z ENDP ; std::_DebugHeapDelete<std::locale>
_TEXT	ENDS
PUBLIC	?_Getcat@?$codecvt@DDH@std@@SAIPAPBVfacet@locale@2@PBV42@@Z ; std::codecvt<char,char,int>::_Getcat
PUBLIC	?_Psave@?$_Facetptr@V?$codecvt@DDH@std@@@std@@2PBVfacet@locale@2@B ; std::_Facetptr<std::codecvt<char,char,int> >::_Psave
;	COMDAT ?_Psave@?$_Facetptr@V?$codecvt@DDH@std@@@std@@2PBVfacet@locale@2@B
; File c:\program files (x86)\microsoft visual studio 10.0\vc\include\xlocale
_BSS	SEGMENT
?_Psave@?$_Facetptr@V?$codecvt@DDH@std@@@std@@2PBVfacet@locale@2@B DD 01H DUP (?) ; std::_Facetptr<std::codecvt<char,char,int> >::_Psave
_BSS	ENDS
;	COMDAT xdata$x
xdata$x	SEGMENT
__unwindtable$??$use_facet@V?$codecvt@DDH@std@@@std@@YAABV?$codecvt@DDH@0@ABVlocale@0@@Z DD 0ffffffffH
	DD	FLAT:__unwindfunclet$??$use_facet@V?$codecvt@DDH@std@@@std@@YAABV?$codecvt@DDH@0@ABVlocale@0@@Z$0
__ehfuncinfo$??$use_facet@V?$codecvt@DDH@std@@@std@@YAABV?$codecvt@DDH@0@ABVlocale@0@@Z DD 019930522H
	DD	01H
	DD	FLAT:__unwindtable$??$use_facet@V?$codecvt@DDH@std@@@std@@YAABV?$codecvt@DDH@0@ABVlocale@0@@Z
	DD	2 DUP(00H)
	DD	2 DUP(00H)
	DD	00H
	DD	01H
; Function compile flags: /Odtp /RTCsu /ZI
xdata$x	ENDS
;	COMDAT ??$use_facet@V?$codecvt@DDH@std@@@std@@YAABV?$codecvt@DDH@0@ABVlocale@0@@Z
_TEXT	SEGMENT
$T37790 = -292						; size = 12
$T37791 = -272						; size = 4
__Pfmod$34676 = -68					; size = 4
__Pf$34665 = -56					; size = 4
__Id$34664 = -44					; size = 4
__Psave$34652 = -32					; size = 4
__Lock$34651 = -20					; size = 4
__$EHRec$ = -12						; size = 12
__Loc$ = 8						; size = 4
??$use_facet@V?$codecvt@DDH@std@@@std@@YAABV?$codecvt@DDH@0@ABVlocale@0@@Z PROC ; std::use_facet<std::codecvt<char,char,int> >, COMDAT

; 504  : 	{	// get facet reference from locale

	push	ebp
	mov	ebp, esp
	push	-1
	push	__ehhandler$??$use_facet@V?$codecvt@DDH@std@@@std@@YAABV?$codecvt@DDH@0@ABVlocale@0@@Z
	mov	eax, DWORD PTR fs:0
	push	eax
	sub	esp, 284				; 0000011cH
	push	ebx
	push	esi
	push	edi
	lea	edi, DWORD PTR [ebp-296]
	mov	ecx, 71					; 00000047H
	mov	eax, -858993460				; ccccccccH
	rep stosd
	mov	eax, DWORD PTR ___security_cookie
	xor	eax, ebp
	push	eax
	lea	eax, DWORD PTR __$EHRec$[ebp]
	mov	DWORD PTR fs:0, eax

; 505  : 	_BEGIN_LOCK(_LOCK_LOCALE)	// the thread lock, make get atomic

	push	0
	lea	ecx, DWORD PTR __Lock$34651[ebp]
	call	??0_Lockit@std@@QAE@H@Z			; std::_Lockit::_Lockit
	mov	DWORD PTR __$EHRec$[ebp+8], 0

; 506  : 		const locale::facet *_Psave =
; 507  : 			_Facetptr<_Facet>::_Psave;	// static pointer to lazy facet

	mov	eax, DWORD PTR ?_Psave@?$_Facetptr@V?$codecvt@DDH@std@@@std@@2PBVfacet@locale@2@B ; std::_Facetptr<std::codecvt<char,char,int> >::_Psave
	mov	DWORD PTR __Psave$34652[ebp], eax

; 508  : 
; 509  : 		size_t _Id = _Facet::id;

	mov	ecx, OFFSET ?id@?$codecvt@DDH@std@@2V0locale@2@A ; std::codecvt<char,char,int>::id
	call	??Bid@locale@std@@QAEIXZ		; std::locale::id::operator unsigned int
	mov	DWORD PTR __Id$34664[ebp], eax

; 510  : 		const locale::facet *_Pf = _Loc._Getfacet(_Id);

	mov	eax, DWORD PTR __Id$34664[ebp]
	push	eax
	mov	ecx, DWORD PTR __Loc$[ebp]
	call	?_Getfacet@locale@std@@QBEPBVfacet@12@I@Z ; std::locale::_Getfacet
	mov	DWORD PTR __Pf$34665[ebp], eax

; 511  : 
; 512  : 		if (_Pf != 0)

	cmp	DWORD PTR __Pf$34665[ebp], 0
	je	SHORT $LN6@use_facet@2
	jmp	SHORT $LN5@use_facet@2
$LN6@use_facet@2:

; 513  : 			;	// got facet from locale
; 514  : 		else if (_Psave != 0)

	cmp	DWORD PTR __Psave$34652[ebp], 0
	je	SHORT $LN4@use_facet@2

; 515  : 			_Pf = _Psave;	// lazy facet already allocated

	mov	eax, DWORD PTR __Psave$34652[ebp]
	mov	DWORD PTR __Pf$34665[ebp], eax
	jmp	SHORT $LN5@use_facet@2
$LN4@use_facet@2:

; 516  : 		else if (_Facet::_Getcat(&_Psave, &_Loc) == (size_t)(-1))

	mov	eax, DWORD PTR __Loc$[ebp]
	push	eax
	lea	ecx, DWORD PTR __Psave$34652[ebp]
	push	ecx
	call	?_Getcat@?$codecvt@DDH@std@@SAIPAPBVfacet@locale@2@PBV42@@Z ; std::codecvt<char,char,int>::_Getcat
	add	esp, 8
	cmp	eax, -1
	jne	SHORT $LN2@use_facet@2

; 517  : 
; 518  :  #if _HAS_EXCEPTIONS
; 519  : 
; 520  : 			_THROW_NCEE(bad_cast, _EMPTY_ARGUMENT);	// lazy disallowed

	push	OFFSET ??_C@_08EPJLHIJG@bad?5cast?$AA@
	lea	ecx, DWORD PTR $T37790[ebp]
	call	??0bad_cast@std@@QAE@PBD@Z		; std::bad_cast::bad_cast
	push	OFFSET __TI2?AVbad_cast@std@@
	lea	eax, DWORD PTR $T37790[ebp]
	push	eax
	call	__CxxThrowException@8

; 521  : 
; 522  :  #else /* _HAS_EXCEPTIONS */
; 523  : 			abort();	// lazy disallowed
; 524  :  #endif /* _HAS_EXCEPTIONS */
; 525  : 
; 526  : 		else

	jmp	SHORT $LN5@use_facet@2
$LN2@use_facet@2:

; 527  : 			{	// queue up lazy facet for destruction
; 528  : 			_Pf = _Psave;

	mov	eax, DWORD PTR __Psave$34652[ebp]
	mov	DWORD PTR __Pf$34665[ebp], eax

; 529  : 			_Facetptr<_Facet>::_Psave = _Psave;

	mov	eax, DWORD PTR __Psave$34652[ebp]
	mov	DWORD PTR ?_Psave@?$_Facetptr@V?$codecvt@DDH@std@@@std@@2PBVfacet@locale@2@B, eax ; std::_Facetptr<std::codecvt<char,char,int> >::_Psave

; 530  : 
; 531  : 			locale::facet *_Pfmod = (_Facet *)_Psave;

	mov	eax, DWORD PTR __Psave$34652[ebp]
	mov	DWORD PTR __Pfmod$34676[ebp], eax

; 532  : 			_Pfmod->_Incref();

	mov	ecx, DWORD PTR __Pfmod$34676[ebp]
	call	?_Incref@facet@locale@std@@QAEXXZ	; std::locale::facet::_Incref

; 533  : 			_Pfmod->_Register();

	mov	ecx, DWORD PTR __Pfmod$34676[ebp]
	call	?_Register@facet@locale@std@@QAEXXZ	; std::locale::facet::_Register
$LN5@use_facet@2:

; 534  : 			}
; 535  : 
; 536  : 		return ((const _Facet&)(*_Pf));	// should be dynamic_cast

	mov	eax, DWORD PTR __Pf$34665[ebp]
	mov	DWORD PTR $T37791[ebp], eax
	mov	DWORD PTR __$EHRec$[ebp+8], -1
	lea	ecx, DWORD PTR __Lock$34651[ebp]
	call	??1_Lockit@std@@QAE@XZ			; std::_Lockit::~_Lockit
	mov	eax, DWORD PTR $T37791[ebp]
$LN8@use_facet@2:

; 537  : 	_END_LOCK()
; 538  : 	}

	push	edx
	mov	ecx, ebp
	push	eax
	lea	edx, DWORD PTR $LN14@use_facet@2
	call	@_RTC_CheckStackVars@8
	pop	eax
	pop	edx
	mov	ecx, DWORD PTR __$EHRec$[ebp]
	mov	DWORD PTR fs:0, ecx
	pop	ecx
	pop	edi
	pop	esi
	pop	ebx
	add	esp, 296				; 00000128H
	cmp	ebp, esp
	call	__RTC_CheckEsp
	mov	esp, ebp
	pop	ebp
	ret	0
	npad	2
$LN14@use_facet@2:
	DD	2
	DD	$LN13@use_facet@2
$LN13@use_facet@2:
	DD	-20					; ffffffecH
	DD	4
	DD	$LN10@use_facet@2
	DD	-32					; ffffffe0H
	DD	4
	DD	$LN11@use_facet@2
$LN11@use_facet@2:
	DB	95					; 0000005fH
	DB	80					; 00000050H
	DB	115					; 00000073H
	DB	97					; 00000061H
	DB	118					; 00000076H
	DB	101					; 00000065H
	DB	0
$LN10@use_facet@2:
	DB	95					; 0000005fH
	DB	76					; 0000004cH
	DB	111					; 0000006fH
	DB	99					; 00000063H
	DB	107					; 0000006bH
	DB	0
_TEXT	ENDS
;	COMDAT text$x
text$x	SEGMENT
__unwindfunclet$??$use_facet@V?$codecvt@DDH@std@@@std@@YAABV?$codecvt@DDH@0@ABVlocale@0@@Z$0:
	lea	ecx, DWORD PTR __Lock$34651[ebp]
	jmp	??1_Lockit@std@@QAE@XZ			; std::_Lockit::~_Lockit
__ehhandler$??$use_facet@V?$codecvt@DDH@std@@@std@@YAABV?$codecvt@DDH@0@ABVlocale@0@@Z:
	mov	edx, DWORD PTR [esp+8]
	lea	eax, DWORD PTR [edx+12]
	mov	ecx, DWORD PTR [edx-300]
	xor	ecx, eax
	call	@__security_check_cookie@4
	mov	eax, OFFSET __ehfuncinfo$??$use_facet@V?$codecvt@DDH@std@@@std@@YAABV?$codecvt@DDH@0@ABVlocale@0@@Z
	jmp	___CxxFrameHandler3
text$x	ENDS
??$use_facet@V?$codecvt@DDH@std@@@std@@YAABV?$codecvt@DDH@0@ABVlocale@0@@Z ENDP ; std::use_facet<std::codecvt<char,char,int> >
; Function compile flags: /Odtp /RTCsu /ZI
; File c:\program files (x86)\microsoft visual studio 10.0\vc\include\xmemory
;	COMDAT ??$?0D@?$allocator@U_Container_proxy@std@@@std@@QAE@ABV?$allocator@D@1@@Z
_TEXT	SEGMENT
_this$ = -8						; size = 4
___formal$ = 8						; size = 4
??$?0D@?$allocator@U_Container_proxy@std@@@std@@QAE@ABV?$allocator@D@1@@Z PROC ; std::allocator<std::_Container_proxy>::allocator<std::_Container_proxy><char>, COMDAT
; _this$ = ecx

; 170  : 		_ALLOCATOR(const _ALLOCATOR<_Other>&) _THROW0()

	push	ebp
	mov	ebp, esp
	sub	esp, 204				; 000000ccH
	push	ebx
	push	esi
	push	edi
	push	ecx
	lea	edi, DWORD PTR [ebp-204]
	mov	ecx, 51					; 00000033H
	mov	eax, -858993460				; ccccccccH
	rep stosd
	pop	ecx
	mov	DWORD PTR _this$[ebp], ecx

; 171  : 		{	// construct from a related allocator (do nothing)
; 172  : 		}

	mov	eax, DWORD PTR _this$[ebp]
	pop	edi
	pop	esi
	pop	ebx
	mov	esp, ebp
	pop	ebp
	ret	4
??$?0D@?$allocator@U_Container_proxy@std@@@std@@QAE@ABV?$allocator@D@1@@Z ENDP ; std::allocator<std::_Container_proxy>::allocator<std::_Container_proxy><char>
_TEXT	ENDS
PUBLIC	?construct@?$allocator@U_Container_proxy@std@@@std@@QAEXPAU_Container_proxy@2@$$QAU32@@Z ; std::allocator<std::_Container_proxy>::construct
PUBLIC	??$forward@U_Container_proxy@std@@@std@@YA$$QAU_Container_proxy@0@AAU10@@Z ; std::forward<std::_Container_proxy>
; Function compile flags: /Odtp /RTCsu /ZI
;	COMDAT ??$_Cons_val@V?$allocator@U_Container_proxy@std@@@std@@U_Container_proxy@2@U32@@std@@YAXAAV?$allocator@U_Container_proxy@std@@@0@PAU_Container_proxy@0@$$QAU20@@Z
_TEXT	SEGMENT
__Alval$ = 8						; size = 4
__Pdest$ = 12						; size = 4
__Src$ = 16						; size = 4
??$_Cons_val@V?$allocator@U_Container_proxy@std@@@std@@U_Container_proxy@2@U32@@std@@YAXAAV?$allocator@U_Container_proxy@std@@@0@PAU_Container_proxy@0@$$QAU20@@Z PROC ; std::_Cons_val<std::allocator<std::_Container_proxy>,std::_Container_proxy,std::_Container_proxy>, COMDAT

; 279  : 	{	// construct using allocator

	push	ebp
	mov	ebp, esp
	sub	esp, 192				; 000000c0H
	push	ebx
	push	esi
	push	edi
	lea	edi, DWORD PTR [ebp-192]
	mov	ecx, 48					; 00000030H
	mov	eax, -858993460				; ccccccccH
	rep stosd

; 280  : 	_Alval.construct(_Pdest, _STD forward<_Ty2>(_Src));

	mov	eax, DWORD PTR __Src$[ebp]
	push	eax
	call	??$forward@U_Container_proxy@std@@@std@@YA$$QAU_Container_proxy@0@AAU10@@Z ; std::forward<std::_Container_proxy>
	add	esp, 4
	push	eax
	mov	ecx, DWORD PTR __Pdest$[ebp]
	push	ecx
	mov	ecx, DWORD PTR __Alval$[ebp]
	call	?construct@?$allocator@U_Container_proxy@std@@@std@@QAEXPAU_Container_proxy@2@$$QAU32@@Z ; std::allocator<std::_Container_proxy>::construct

; 281  : 	}

	pop	edi
	pop	esi
	pop	ebx
	add	esp, 192				; 000000c0H
	cmp	ebp, esp
	call	__RTC_CheckEsp
	mov	esp, ebp
	pop	ebp
	ret	0
??$_Cons_val@V?$allocator@U_Container_proxy@std@@@std@@U_Container_proxy@2@U32@@std@@YAXAAV?$allocator@U_Container_proxy@std@@@0@PAU_Container_proxy@0@$$QAU20@@Z ENDP ; std::_Cons_val<std::allocator<std::_Container_proxy>,std::_Container_proxy,std::_Container_proxy>
_TEXT	ENDS
PUBLIC	?destroy@?$allocator@U_Container_proxy@std@@@std@@QAEXPAU_Container_proxy@2@@Z ; std::allocator<std::_Container_proxy>::destroy
; Function compile flags: /Odtp /RTCsu /ZI
;	COMDAT ??$_Dest_val@V?$allocator@U_Container_proxy@std@@@std@@U_Container_proxy@2@@std@@YAXAAV?$allocator@U_Container_proxy@std@@@0@PAU_Container_proxy@0@@Z
_TEXT	SEGMENT
__Alval$ = 8						; size = 4
__Pdest$ = 12						; size = 4
??$_Dest_val@V?$allocator@U_Container_proxy@std@@@std@@U_Container_proxy@2@@std@@YAXAAV?$allocator@U_Container_proxy@std@@@0@PAU_Container_proxy@0@@Z PROC ; std::_Dest_val<std::allocator<std::_Container_proxy>,std::_Container_proxy>, COMDAT

; 286  : 	{	// destroy using allocator

	push	ebp
	mov	ebp, esp
	sub	esp, 192				; 000000c0H
	push	ebx
	push	esi
	push	edi
	lea	edi, DWORD PTR [ebp-192]
	mov	ecx, 48					; 00000030H
	mov	eax, -858993460				; ccccccccH
	rep stosd

; 287  : 	_Alval.destroy(_Pdest);

	mov	eax, DWORD PTR __Pdest$[ebp]
	push	eax
	mov	ecx, DWORD PTR __Alval$[ebp]
	call	?destroy@?$allocator@U_Container_proxy@std@@@std@@QAEXPAU_Container_proxy@2@@Z ; std::allocator<std::_Container_proxy>::destroy

; 288  : 	}

	pop	edi
	pop	esi
	pop	ebx
	add	esp, 192				; 000000c0H
	cmp	ebp, esp
	call	__RTC_CheckEsp
	mov	esp, ebp
	pop	ebp
	ret	0
??$_Dest_val@V?$allocator@U_Container_proxy@std@@@std@@U_Container_proxy@2@@std@@YAXAAV?$allocator@U_Container_proxy@std@@@0@PAU_Container_proxy@0@@Z ENDP ; std::_Dest_val<std::allocator<std::_Container_proxy>,std::_Container_proxy>
_TEXT	ENDS
PUBLIC	__TI2?AVbad_alloc@std@@
PUBLIC	??0bad_alloc@std@@QAE@PBD@Z			; std::bad_alloc::bad_alloc
PUBLIC	??1bad_alloc@std@@UAE@XZ			; std::bad_alloc::~bad_alloc
PUBLIC	__CTA2?AVbad_alloc@std@@
PUBLIC	__CT??_R0?AVbad_alloc@std@@@8??0bad_alloc@std@@QAE@ABV01@@Z12
PUBLIC	??_R0?AVbad_alloc@std@@@8			; std::bad_alloc `RTTI Type Descriptor'
PUBLIC	??0bad_alloc@std@@QAE@ABV01@@Z			; std::bad_alloc::bad_alloc
EXTRN	??2@YAPAXI@Z:PROC				; operator new
;	COMDAT ??_R0?AVbad_alloc@std@@@8
_DATA	SEGMENT
??_R0?AVbad_alloc@std@@@8 DD FLAT:??_7type_info@@6B@	; std::bad_alloc `RTTI Type Descriptor'
	DD	00H
	DB	'.?AVbad_alloc@std@@', 00H
_DATA	ENDS
;	COMDAT __CT??_R0?AVbad_alloc@std@@@8??0bad_alloc@std@@QAE@ABV01@@Z12
xdata$x	SEGMENT
__CT??_R0?AVbad_alloc@std@@@8??0bad_alloc@std@@QAE@ABV01@@Z12 DD 00H
	DD	FLAT:??_R0?AVbad_alloc@std@@@8
	DD	00H
	DD	0ffffffffH
	ORG $+4
	DD	0cH
	DD	FLAT:??0bad_alloc@std@@QAE@ABV01@@Z
xdata$x	ENDS
;	COMDAT __CTA2?AVbad_alloc@std@@
xdata$x	SEGMENT
__CTA2?AVbad_alloc@std@@ DD 02H
	DD	FLAT:__CT??_R0?AVbad_alloc@std@@@8??0bad_alloc@std@@QAE@ABV01@@Z12
	DD	FLAT:__CT??_R0?AVexception@std@@@8??0exception@std@@QAE@ABV01@@Z12
xdata$x	ENDS
;	COMDAT __TI2?AVbad_alloc@std@@
xdata$x	SEGMENT
__TI2?AVbad_alloc@std@@ DD 00H
	DD	FLAT:??1bad_alloc@std@@UAE@XZ
	DD	00H
	DD	FLAT:__CTA2?AVbad_alloc@std@@
; Function compile flags: /Odtp /RTCsu /ZI
xdata$x	ENDS
;	COMDAT ??$_Allocate@U_Container_proxy@std@@@std@@YAPAU_Container_proxy@0@IPAU10@@Z
_TEXT	SEGMENT
$T37812 = -220						; size = 12
__Ptr$ = -8						; size = 4
__Count$ = 8						; size = 4
___formal$ = 12						; size = 4
??$_Allocate@U_Container_proxy@std@@@std@@YAPAU_Container_proxy@0@IPAU10@@Z PROC ; std::_Allocate<std::_Container_proxy>, COMDAT

; 30   : 	{	// allocate storage for _Count elements of type _Ty

	push	ebp
	mov	ebp, esp
	sub	esp, 224				; 000000e0H
	push	ebx
	push	esi
	push	edi
	lea	edi, DWORD PTR [ebp-224]
	mov	ecx, 56					; 00000038H
	mov	eax, -858993460				; ccccccccH
	rep stosd

; 31   : 	void *_Ptr = 0;

	mov	DWORD PTR __Ptr$[ebp], 0

; 32   : 
; 33   : 	if (_Count <= 0)

	cmp	DWORD PTR __Count$[ebp], 0
	ja	SHORT $LN4@Allocate

; 34   : 		_Count = 0;

	mov	DWORD PTR __Count$[ebp], 0

; 35   : 	else if (((_SIZT)(-1) / sizeof (_Ty) < _Count)

	jmp	SHORT $LN3@Allocate
$LN4@Allocate:

; 36   : 		|| (_Ptr = ::operator new(_Count * sizeof (_Ty))) == 0)

	cmp	DWORD PTR __Count$[ebp], 536870911	; 1fffffffH
	ja	SHORT $LN1@Allocate
	mov	eax, DWORD PTR __Count$[ebp]
	shl	eax, 3
	push	eax
	call	??2@YAPAXI@Z				; operator new
	add	esp, 4
	mov	DWORD PTR __Ptr$[ebp], eax
	cmp	DWORD PTR __Ptr$[ebp], 0
	jne	SHORT $LN3@Allocate
$LN1@Allocate:

; 37   : 		_THROW_NCEE(bad_alloc, 0);

	push	0
	lea	ecx, DWORD PTR $T37812[ebp]
	call	??0bad_alloc@std@@QAE@PBD@Z		; std::bad_alloc::bad_alloc
	push	OFFSET __TI2?AVbad_alloc@std@@
	lea	eax, DWORD PTR $T37812[ebp]
	push	eax
	call	__CxxThrowException@8
$LN3@Allocate:

; 38   : 
; 39   : 	return ((_Ty _FARQ *)_Ptr);

	mov	eax, DWORD PTR __Ptr$[ebp]
$LN6@Allocate:

; 40   : 	}

	pop	edi
	pop	esi
	pop	ebx
	add	esp, 224				; 000000e0H
	cmp	ebp, esp
	call	__RTC_CheckEsp
	mov	esp, ebp
	pop	ebp
	ret	0
??$_Allocate@U_Container_proxy@std@@@std@@YAPAU_Container_proxy@0@IPAU10@@Z ENDP ; std::_Allocate<std::_Container_proxy>
_TEXT	ENDS
PUBLIC	??_7bad_alloc@std@@6B@				; std::bad_alloc::`vftable'
PUBLIC	??_R4bad_alloc@std@@6B@				; std::bad_alloc::`RTTI Complete Object Locator'
PUBLIC	??_R3bad_alloc@std@@8				; std::bad_alloc::`RTTI Class Hierarchy Descriptor'
PUBLIC	??_R2bad_alloc@std@@8				; std::bad_alloc::`RTTI Base Class Array'
PUBLIC	??_R1A@?0A@EA@bad_alloc@std@@8			; std::bad_alloc::`RTTI Base Class Descriptor at (0,-1,0,64)'
EXTRN	??_Ebad_alloc@std@@UAEPAXI@Z:PROC		; std::bad_alloc::`vector deleting destructor'
;	COMDAT ??_R1A@?0A@EA@bad_alloc@std@@8
; File c:\program files (x86)\microsoft visual studio 10.0\vc\include\exception
rdata$r	SEGMENT
??_R1A@?0A@EA@bad_alloc@std@@8 DD FLAT:??_R0?AVbad_alloc@std@@@8 ; std::bad_alloc::`RTTI Base Class Descriptor at (0,-1,0,64)'
	DD	01H
	DD	00H
	DD	0ffffffffH
	DD	00H
	DD	040H
	DD	FLAT:??_R3bad_alloc@std@@8
rdata$r	ENDS
;	COMDAT ??_R2bad_alloc@std@@8
rdata$r	SEGMENT
??_R2bad_alloc@std@@8 DD FLAT:??_R1A@?0A@EA@bad_alloc@std@@8 ; std::bad_alloc::`RTTI Base Class Array'
	DD	FLAT:??_R1A@?0A@EA@exception@std@@8
rdata$r	ENDS
;	COMDAT ??_R3bad_alloc@std@@8
rdata$r	SEGMENT
??_R3bad_alloc@std@@8 DD 00H				; std::bad_alloc::`RTTI Class Hierarchy Descriptor'
	DD	00H
	DD	02H
	DD	FLAT:??_R2bad_alloc@std@@8
rdata$r	ENDS
;	COMDAT ??_R4bad_alloc@std@@6B@
rdata$r	SEGMENT
??_R4bad_alloc@std@@6B@ DD 00H				; std::bad_alloc::`RTTI Complete Object Locator'
	DD	00H
	DD	00H
	DD	FLAT:??_R0?AVbad_alloc@std@@@8
	DD	FLAT:??_R3bad_alloc@std@@8
rdata$r	ENDS
;	COMDAT ??_7bad_alloc@std@@6B@
CONST	SEGMENT
??_7bad_alloc@std@@6B@ DD FLAT:??_R4bad_alloc@std@@6B@	; std::bad_alloc::`vftable'
	DD	FLAT:??_Ebad_alloc@std@@UAEPAXI@Z
	DD	FLAT:?what@exception@std@@UBEPBDXZ
; Function compile flags: /Odtp /RTCsu /ZI
CONST	ENDS
;	COMDAT ??0bad_alloc@std@@QAE@PBD@Z
_TEXT	SEGMENT
_this$ = -8						; size = 4
__Message$ = 8						; size = 4
??0bad_alloc@std@@QAE@PBD@Z PROC			; std::bad_alloc::bad_alloc, COMDAT
; _this$ = ecx

; 345  : 		{	// construct from message string

	push	ebp
	mov	ebp, esp
	sub	esp, 204				; 000000ccH
	push	ebx
	push	esi
	push	edi
	push	ecx
	lea	edi, DWORD PTR [ebp-204]
	mov	ecx, 51					; 00000033H
	mov	eax, -858993460				; ccccccccH
	rep stosd
	pop	ecx
	mov	DWORD PTR _this$[ebp], ecx
	lea	eax, DWORD PTR __Message$[ebp]
	push	eax
	mov	ecx, DWORD PTR _this$[ebp]
	call	??0exception@std@@QAE@ABQBD@Z		; std::exception::exception
	mov	eax, DWORD PTR _this$[ebp]
	mov	DWORD PTR [eax], OFFSET ??_7bad_alloc@std@@6B@

; 346  : 		}

	mov	eax, DWORD PTR _this$[ebp]
	pop	edi
	pop	esi
	pop	ebx
	add	esp, 204				; 000000ccH
	cmp	ebp, esp
	call	__RTC_CheckEsp
	mov	esp, ebp
	pop	ebp
	ret	4
??0bad_alloc@std@@QAE@PBD@Z ENDP			; std::bad_alloc::bad_alloc
; Function compile flags: /Odtp /RTCsu /ZI
_TEXT	ENDS
;	COMDAT ??1bad_alloc@std@@UAE@XZ
_TEXT	SEGMENT
_this$ = -8						; size = 4
??1bad_alloc@std@@UAE@XZ PROC				; std::bad_alloc::~bad_alloc, COMDAT
; _this$ = ecx

; 354  : 		{	// destroy the object

	push	ebp
	mov	ebp, esp
	sub	esp, 204				; 000000ccH
	push	ebx
	push	esi
	push	edi
	push	ecx
	lea	edi, DWORD PTR [ebp-204]
	mov	ecx, 51					; 00000033H
	mov	eax, -858993460				; ccccccccH
	rep stosd
	pop	ecx
	mov	DWORD PTR _this$[ebp], ecx
	mov	eax, DWORD PTR _this$[ebp]
	mov	DWORD PTR [eax], OFFSET ??_7bad_alloc@std@@6B@

; 355  : 		}

	mov	ecx, DWORD PTR _this$[ebp]
	call	??1exception@std@@UAE@XZ		; std::exception::~exception
	pop	edi
	pop	esi
	pop	ebx
	add	esp, 204				; 000000ccH
	cmp	ebp, esp
	call	__RTC_CheckEsp
	mov	esp, ebp
	pop	ebp
	ret	0
??1bad_alloc@std@@UAE@XZ ENDP				; std::bad_alloc::~bad_alloc
; Function compile flags: /Odtp /RTCsu /ZI
_TEXT	ENDS
;	COMDAT ??_Gbad_alloc@std@@UAEPAXI@Z
_TEXT	SEGMENT
_this$ = -8						; size = 4
___flags$ = 8						; size = 4
??_Gbad_alloc@std@@UAEPAXI@Z PROC			; std::bad_alloc::`scalar deleting destructor', COMDAT
; _this$ = ecx
	push	ebp
	mov	ebp, esp
	sub	esp, 204				; 000000ccH
	push	ebx
	push	esi
	push	edi
	push	ecx
	lea	edi, DWORD PTR [ebp-204]
	mov	ecx, 51					; 00000033H
	mov	eax, -858993460				; ccccccccH
	rep stosd
	pop	ecx
	mov	DWORD PTR _this$[ebp], ecx
	mov	ecx, DWORD PTR _this$[ebp]
	call	??1bad_alloc@std@@UAE@XZ		; std::bad_alloc::~bad_alloc
	mov	eax, DWORD PTR ___flags$[ebp]
	and	eax, 1
	je	SHORT $LN1@scalar@15
	mov	eax, DWORD PTR _this$[ebp]
	push	eax
	call	??3@YAXPAX@Z				; operator delete
	add	esp, 4
$LN1@scalar@15:
	mov	eax, DWORD PTR _this$[ebp]
	pop	edi
	pop	esi
	pop	ebx
	add	esp, 204				; 000000ccH
	cmp	ebp, esp
	call	__RTC_CheckEsp
	mov	esp, ebp
	pop	ebp
	ret	4
??_Gbad_alloc@std@@UAEPAXI@Z ENDP			; std::bad_alloc::`scalar deleting destructor'
; Function compile flags: /Odtp /RTCsu /ZI
; File c:\program files (x86)\microsoft visual studio 10.0\vc\include\xmemory
_TEXT	ENDS
;	COMDAT ??$_Allocate@D@std@@YAPADIPAD@Z
_TEXT	SEGMENT
$T37821 = -220						; size = 12
__Ptr$ = -8						; size = 4
__Count$ = 8						; size = 4
___formal$ = 12						; size = 4
??$_Allocate@D@std@@YAPADIPAD@Z PROC			; std::_Allocate<char>, COMDAT

; 30   : 	{	// allocate storage for _Count elements of type _Ty

	push	ebp
	mov	ebp, esp
	sub	esp, 224				; 000000e0H
	push	ebx
	push	esi
	push	edi
	lea	edi, DWORD PTR [ebp-224]
	mov	ecx, 56					; 00000038H
	mov	eax, -858993460				; ccccccccH
	rep stosd

; 31   : 	void *_Ptr = 0;

	mov	DWORD PTR __Ptr$[ebp], 0

; 32   : 
; 33   : 	if (_Count <= 0)

	cmp	DWORD PTR __Count$[ebp], 0
	ja	SHORT $LN4@Allocate@2

; 34   : 		_Count = 0;

	mov	DWORD PTR __Count$[ebp], 0

; 35   : 	else if (((_SIZT)(-1) / sizeof (_Ty) < _Count)

	jmp	SHORT $LN3@Allocate@2
$LN4@Allocate@2:

; 36   : 		|| (_Ptr = ::operator new(_Count * sizeof (_Ty))) == 0)

	cmp	DWORD PTR __Count$[ebp], -1
	ja	SHORT $LN1@Allocate@2
	mov	eax, DWORD PTR __Count$[ebp]
	push	eax
	call	??2@YAPAXI@Z				; operator new
	add	esp, 4
	mov	DWORD PTR __Ptr$[ebp], eax
	cmp	DWORD PTR __Ptr$[ebp], 0
	jne	SHORT $LN3@Allocate@2
$LN1@Allocate@2:

; 37   : 		_THROW_NCEE(bad_alloc, 0);

	push	0
	lea	ecx, DWORD PTR $T37821[ebp]
	call	??0bad_alloc@std@@QAE@PBD@Z		; std::bad_alloc::bad_alloc
	push	OFFSET __TI2?AVbad_alloc@std@@
	lea	eax, DWORD PTR $T37821[ebp]
	push	eax
	call	__CxxThrowException@8
$LN3@Allocate@2:

; 38   : 
; 39   : 	return ((_Ty _FARQ *)_Ptr);

	mov	eax, DWORD PTR __Ptr$[ebp]
$LN6@Allocate@2:

; 40   : 	}

	pop	edi
	pop	esi
	pop	ebx
	add	esp, 224				; 000000e0H
	cmp	ebp, esp
	call	__RTC_CheckEsp
	mov	esp, ebp
	pop	ebp
	ret	0
??$_Allocate@D@std@@YAPADIPAD@Z ENDP			; std::_Allocate<char>
; Function compile flags: /Odtp /RTCsu /ZI
_TEXT	ENDS
;	COMDAT ??_Glocale@std@@QAEPAXI@Z
_TEXT	SEGMENT
_this$ = -8						; size = 4
___flags$ = 8						; size = 4
??_Glocale@std@@QAEPAXI@Z PROC				; std::locale::`scalar deleting destructor', COMDAT
; _this$ = ecx
	push	ebp
	mov	ebp, esp
	sub	esp, 204				; 000000ccH
	push	ebx
	push	esi
	push	edi
	push	ecx
	lea	edi, DWORD PTR [ebp-204]
	mov	ecx, 51					; 00000033H
	mov	eax, -858993460				; ccccccccH
	rep stosd
	pop	ecx
	mov	DWORD PTR _this$[ebp], ecx
	mov	ecx, DWORD PTR _this$[ebp]
	call	??1locale@std@@QAE@XZ			; std::locale::~locale
	mov	eax, DWORD PTR ___flags$[ebp]
	and	eax, 1
	je	SHORT $LN1@scalar@16
	mov	eax, DWORD PTR _this$[ebp]
	push	eax
	call	??3@YAXPAX@Z				; operator delete
	add	esp, 4
$LN1@scalar@16:
	mov	eax, DWORD PTR _this$[ebp]
	pop	edi
	pop	esi
	pop	ebx
	add	esp, 204				; 000000ccH
	cmp	ebp, esp
	call	__RTC_CheckEsp
	mov	esp, ebp
	pop	ebp
	ret	4
??_Glocale@std@@QAEPAXI@Z ENDP				; std::locale::`scalar deleting destructor'
; Function compile flags: /Odtp /RTCsu /ZI
_TEXT	ENDS
;	COMDAT ??0bad_alloc@std@@QAE@ABV01@@Z
_TEXT	SEGMENT
_this$ = -8						; size = 4
___that$ = 8						; size = 4
??0bad_alloc@std@@QAE@ABV01@@Z PROC			; std::bad_alloc::bad_alloc, COMDAT
; _this$ = ecx
	push	ebp
	mov	ebp, esp
	sub	esp, 204				; 000000ccH
	push	ebx
	push	esi
	push	edi
	push	ecx
	lea	edi, DWORD PTR [ebp-204]
	mov	ecx, 51					; 00000033H
	mov	eax, -858993460				; ccccccccH
	rep stosd
	pop	ecx
	mov	DWORD PTR _this$[ebp], ecx
	mov	eax, DWORD PTR ___that$[ebp]
	push	eax
	mov	ecx, DWORD PTR _this$[ebp]
	call	??0exception@std@@QAE@ABV01@@Z		; std::exception::exception
	mov	eax, DWORD PTR _this$[ebp]
	mov	DWORD PTR [eax], OFFSET ??_7bad_alloc@std@@6B@
	mov	eax, DWORD PTR _this$[ebp]
	pop	edi
	pop	esi
	pop	ebx
	add	esp, 204				; 000000ccH
	cmp	ebp, esp
	call	__RTC_CheckEsp
	mov	esp, ebp
	pop	ebp
	ret	4
??0bad_alloc@std@@QAE@ABV01@@Z ENDP			; std::bad_alloc::bad_alloc
_TEXT	ENDS
PUBLIC	??0?$codecvt@DDH@std@@QAE@ABV_Locinfo@1@I@Z	; std::codecvt<char,char,int>::codecvt<char,char,int>
;	COMDAT xdata$x
; File c:\program files (x86)\microsoft visual studio 10.0\vc\include\xlocale
xdata$x	SEGMENT
__unwindtable$?_Getcat@?$codecvt@DDH@std@@SAIPAPBVfacet@locale@2@PBV42@@Z DD 0ffffffffH
	DD	FLAT:__unwindfunclet$?_Getcat@?$codecvt@DDH@std@@SAIPAPBVfacet@locale@2@PBV42@@Z$0
	DD	00H
	DD	FLAT:__unwindfunclet$?_Getcat@?$codecvt@DDH@std@@SAIPAPBVfacet@locale@2@PBV42@@Z$1
	DD	0ffffffffH
	DD	FLAT:__unwindfunclet$?_Getcat@?$codecvt@DDH@std@@SAIPAPBVfacet@locale@2@PBV42@@Z$1
__ehfuncinfo$?_Getcat@?$codecvt@DDH@std@@SAIPAPBVfacet@locale@2@PBV42@@Z DD 019930522H
	DD	03H
	DD	FLAT:__unwindtable$?_Getcat@?$codecvt@DDH@std@@SAIPAPBVfacet@locale@2@PBV42@@Z
	DD	2 DUP(00H)
	DD	2 DUP(00H)
	DD	00H
	DD	01H
; Function compile flags: /Odtp /RTCsu /ZI
xdata$x	ENDS
;	COMDAT ?_Getcat@?$codecvt@DDH@std@@SAIPAPBVfacet@locale@2@PBV42@@Z
_TEXT	SEGMENT
tv92 = -308						; size = 4
tv133 = -304						; size = 4
tv138 = -300						; size = 4
$T37829 = -292						; size = 4
$T37830 = -280						; size = 4
$T37831 = -268						; size = 4
$T37832 = -256						; size = 36
$T37836 = -212						; size = 4
__$EHRec$ = -12						; size = 12
__Ppf$ = 8						; size = 4
__Ploc$ = 12						; size = 4
?_Getcat@?$codecvt@DDH@std@@SAIPAPBVfacet@locale@2@PBV42@@Z PROC ; std::codecvt<char,char,int>::_Getcat, COMDAT

; 849  : 		{	// return locale category mask and construct standard facet

	push	ebp
	mov	ebp, esp
	push	-1
	push	__ehhandler$?_Getcat@?$codecvt@DDH@std@@SAIPAPBVfacet@locale@2@PBV42@@Z
	mov	eax, DWORD PTR fs:0
	push	eax
	sub	esp, 296				; 00000128H
	push	ebx
	push	esi
	push	edi
	lea	edi, DWORD PTR [ebp-308]
	mov	ecx, 74					; 0000004aH
	mov	eax, -858993460				; ccccccccH
	rep stosd
	mov	eax, DWORD PTR ___security_cookie
	xor	eax, ebp
	push	eax
	lea	eax, DWORD PTR __$EHRec$[ebp]
	mov	DWORD PTR fs:0, eax
	mov	DWORD PTR $T37836[ebp], 0

; 850  : 		if (_Ppf != 0 && *_Ppf == 0)

	cmp	DWORD PTR __Ppf$[ebp], 0
	je	$LN1@Getcat@2
	mov	eax, DWORD PTR __Ppf$[ebp]
	cmp	DWORD PTR [eax], 0
	jne	$LN1@Getcat@2

; 851  : 			*_Ppf = _NEW_CRT codecvt<_Elem, _Byte, _Statype>(
; 852  : 				_Locinfo(_Ploc->c_str()));

	call	?_DebugHeapTag_func@std@@YAABU_DebugHeapTag_t@1@XZ ; std::_DebugHeapTag_func
	mov	DWORD PTR $T37831[ebp], eax
	push	851					; 00000353H
	push	OFFSET ??_C@_0EH@NEEAIMIH@c?3?2program?5files?5?$CIx86?$CJ?2microsoft@
	mov	eax, DWORD PTR $T37831[ebp]
	push	eax
	push	8
	call	??2facet@locale@std@@SAPAXIABU_DebugHeapTag_t@2@PADH@Z ; std::locale::facet::operator new
	add	esp, 16					; 00000010H
	mov	DWORD PTR $T37830[ebp], eax
	mov	DWORD PTR __$EHRec$[ebp+8], 0
	cmp	DWORD PTR $T37830[ebp], 0
	je	SHORT $LN4@Getcat@2
	push	0
	mov	ecx, DWORD PTR __Ploc$[ebp]
	call	?c_str@locale@std@@QBEPBDXZ		; std::locale::c_str
	push	eax
	lea	ecx, DWORD PTR $T37832[ebp]
	call	??0_Locinfo@std@@QAE@PBD@Z		; std::_Locinfo::_Locinfo
	mov	DWORD PTR tv138[ebp], eax
	mov	ecx, DWORD PTR tv138[ebp]
	mov	DWORD PTR tv133[ebp], ecx
	mov	BYTE PTR __$EHRec$[ebp+8], 1
	mov	edx, DWORD PTR $T37836[ebp]
	or	edx, 1
	mov	DWORD PTR $T37836[ebp], edx
	mov	eax, DWORD PTR tv133[ebp]
	push	eax
	mov	ecx, DWORD PTR $T37830[ebp]
	call	??0?$codecvt@DDH@std@@QAE@ABV_Locinfo@1@I@Z ; std::codecvt<char,char,int>::codecvt<char,char,int>
	mov	DWORD PTR tv92[ebp], eax
	jmp	SHORT $LN5@Getcat@2
$LN4@Getcat@2:
	mov	DWORD PTR tv92[ebp], 0
$LN5@Getcat@2:
	mov	ecx, DWORD PTR tv92[ebp]
	mov	DWORD PTR $T37829[ebp], ecx
	mov	DWORD PTR __$EHRec$[ebp+8], 2
	mov	edx, DWORD PTR __Ppf$[ebp]
	mov	eax, DWORD PTR $T37829[ebp]
	mov	DWORD PTR [edx], eax
	mov	DWORD PTR __$EHRec$[ebp+8], -1
	mov	ecx, DWORD PTR $T37836[ebp]
	and	ecx, 1
	je	SHORT $LN1@Getcat@2
	and	DWORD PTR $T37836[ebp], -2		; fffffffeH
	lea	ecx, DWORD PTR $T37832[ebp]
	call	??1_Locinfo@std@@QAE@XZ			; std::_Locinfo::~_Locinfo
$LN1@Getcat@2:

; 853  : 		return (_X_CTYPE);

	mov	eax, 2

; 854  : 		}

	mov	ecx, DWORD PTR __$EHRec$[ebp]
	mov	DWORD PTR fs:0, ecx
	pop	ecx
	pop	edi
	pop	esi
	pop	ebx
	add	esp, 308				; 00000134H
	cmp	ebp, esp
	call	__RTC_CheckEsp
	mov	esp, ebp
	pop	ebp
	ret	0
_TEXT	ENDS
;	COMDAT text$x
text$x	SEGMENT
__unwindfunclet$?_Getcat@?$codecvt@DDH@std@@SAIPAPBVfacet@locale@2@PBV42@@Z$0:
	push	851					; 00000353H
	push	OFFSET ??_C@_0EH@NEEAIMIH@c?3?2program?5files?5?$CIx86?$CJ?2microsoft@
	mov	eax, DWORD PTR $T37831[ebp]
	push	eax
	mov	ecx, DWORD PTR $T37830[ebp]
	push	ecx
	call	??3facet@locale@std@@SAXPAXABU_DebugHeapTag_t@2@PADH@Z ; std::locale::facet::operator delete
	add	esp, 16					; 00000010H
	ret	0
__unwindfunclet$?_Getcat@?$codecvt@DDH@std@@SAIPAPBVfacet@locale@2@PBV42@@Z$1:
	mov	eax, DWORD PTR $T37836[ebp]
	and	eax, 1
	je	$LN8@Getcat@2
	and	DWORD PTR $T37836[ebp], -2		; fffffffeH
	lea	ecx, DWORD PTR $T37832[ebp]
	jmp	??1_Locinfo@std@@QAE@XZ			; std::_Locinfo::~_Locinfo
$LN8@Getcat@2:
	ret	0
__ehhandler$?_Getcat@?$codecvt@DDH@std@@SAIPAPBVfacet@locale@2@PBV42@@Z:
	mov	edx, DWORD PTR [esp+8]
	lea	eax, DWORD PTR [edx+12]
	mov	ecx, DWORD PTR [edx-312]
	xor	ecx, eax
	call	@__security_check_cookie@4
	mov	eax, OFFSET __ehfuncinfo$?_Getcat@?$codecvt@DDH@std@@SAIPAPBVfacet@locale@2@PBV42@@Z
	jmp	___CxxFrameHandler3
text$x	ENDS
?_Getcat@?$codecvt@DDH@std@@SAIPAPBVfacet@locale@2@PBV42@@Z ENDP ; std::codecvt<char,char,int>::_Getcat
PUBLIC	??3@YAXPAX0@Z					; operator delete
PUBLIC	??2@YAPAXIPAX@Z					; operator new
;	COMDAT xdata$x
; File c:\program files (x86)\microsoft visual studio 10.0\vc\include\xmemory
xdata$x	SEGMENT
__unwindtable$?construct@?$allocator@U_Container_proxy@std@@@std@@QAEXPAU_Container_proxy@2@$$QAU32@@Z DD 0ffffffffH
	DD	FLAT:__unwindfunclet$?construct@?$allocator@U_Container_proxy@std@@@std@@QAEXPAU_Container_proxy@2@$$QAU32@@Z$0
__ehfuncinfo$?construct@?$allocator@U_Container_proxy@std@@@std@@QAEXPAU_Container_proxy@2@$$QAU32@@Z DD 019930522H
	DD	01H
	DD	FLAT:__unwindtable$?construct@?$allocator@U_Container_proxy@std@@@std@@QAEXPAU_Container_proxy@2@$$QAU32@@Z
	DD	2 DUP(00H)
	DD	2 DUP(00H)
	DD	00H
	DD	01H
; Function compile flags: /Odtp /RTCsu /ZI
xdata$x	ENDS
;	COMDAT ?construct@?$allocator@U_Container_proxy@std@@@std@@QAEXPAU_Container_proxy@2@$$QAU32@@Z
_TEXT	SEGMENT
tv74 = -244						; size = 4
$T37848 = -236						; size = 4
$T37849 = -224						; size = 4
_this$ = -20						; size = 4
__$EHRec$ = -12						; size = 12
__Ptr$ = 8						; size = 4
__Val$ = 12						; size = 4
?construct@?$allocator@U_Container_proxy@std@@@std@@QAEXPAU_Container_proxy@2@$$QAU32@@Z PROC ; std::allocator<std::_Container_proxy>::construct, COMDAT
; _this$ = ecx

; 201  : 		{	// construct object at _Ptr with value _Val

	push	ebp
	mov	ebp, esp
	push	-1
	push	__ehhandler$?construct@?$allocator@U_Container_proxy@std@@@std@@QAEXPAU_Container_proxy@2@$$QAU32@@Z
	mov	eax, DWORD PTR fs:0
	push	eax
	sub	esp, 232				; 000000e8H
	push	ebx
	push	esi
	push	edi
	push	ecx
	lea	edi, DWORD PTR [ebp-244]
	mov	ecx, 58					; 0000003aH
	mov	eax, -858993460				; ccccccccH
	rep stosd
	pop	ecx
	mov	eax, DWORD PTR ___security_cookie
	xor	eax, ebp
	push	eax
	lea	eax, DWORD PTR __$EHRec$[ebp]
	mov	DWORD PTR fs:0, eax
	mov	DWORD PTR _this$[ebp], ecx

; 202  : 		::new ((void _FARQ *)_Ptr) _Ty(_STD forward<_Ty>(_Val));

	mov	eax, DWORD PTR __Ptr$[ebp]
	push	eax
	push	8
	call	??2@YAPAXIPAX@Z				; operator new
	add	esp, 8
	mov	DWORD PTR $T37849[ebp], eax
	mov	DWORD PTR __$EHRec$[ebp+8], 0
	cmp	DWORD PTR $T37849[ebp], 0
	je	SHORT $LN3@construct
	mov	ecx, DWORD PTR __Val$[ebp]
	push	ecx
	call	??$forward@U_Container_proxy@std@@@std@@YA$$QAU_Container_proxy@0@AAU10@@Z ; std::forward<std::_Container_proxy>
	add	esp, 4
	mov	edx, DWORD PTR [eax]
	mov	eax, DWORD PTR [eax+4]
	mov	ecx, DWORD PTR $T37849[ebp]
	mov	DWORD PTR [ecx], edx
	mov	DWORD PTR [ecx+4], eax
	mov	edx, DWORD PTR $T37849[ebp]
	mov	DWORD PTR tv74[ebp], edx
	jmp	SHORT $LN4@construct
$LN3@construct:
	mov	DWORD PTR tv74[ebp], 0
$LN4@construct:
	mov	eax, DWORD PTR tv74[ebp]
	mov	DWORD PTR $T37848[ebp], eax
	mov	DWORD PTR __$EHRec$[ebp+8], -1

; 203  : 		}

	mov	ecx, DWORD PTR __$EHRec$[ebp]
	mov	DWORD PTR fs:0, ecx
	pop	ecx
	pop	edi
	pop	esi
	pop	ebx
	add	esp, 244				; 000000f4H
	cmp	ebp, esp
	call	__RTC_CheckEsp
	mov	esp, ebp
	pop	ebp
	ret	8
_TEXT	ENDS
;	COMDAT text$x
text$x	SEGMENT
__unwindfunclet$?construct@?$allocator@U_Container_proxy@std@@@std@@QAEXPAU_Container_proxy@2@$$QAU32@@Z$0:
	mov	eax, DWORD PTR __Ptr$[ebp]
	push	eax
	mov	ecx, DWORD PTR $T37849[ebp]
	push	ecx
	call	??3@YAXPAX0@Z				; operator delete
	add	esp, 8
	ret	0
__ehhandler$?construct@?$allocator@U_Container_proxy@std@@@std@@QAEXPAU_Container_proxy@2@$$QAU32@@Z:
	mov	edx, DWORD PTR [esp+8]
	lea	eax, DWORD PTR [edx+12]
	mov	ecx, DWORD PTR [edx-248]
	xor	ecx, eax
	call	@__security_check_cookie@4
	mov	eax, OFFSET __ehfuncinfo$?construct@?$allocator@U_Container_proxy@std@@@std@@QAEXPAU_Container_proxy@2@$$QAU32@@Z
	jmp	___CxxFrameHandler3
text$x	ENDS
?construct@?$allocator@U_Container_proxy@std@@@std@@QAEXPAU_Container_proxy@2@$$QAU32@@Z ENDP ; std::allocator<std::_Container_proxy>::construct
; Function compile flags: /Odtp /RTCsu /ZI
; File c:\program files (x86)\microsoft visual studio 10.0\vc\include\new
;	COMDAT ??2@YAPAXIPAX@Z
_TEXT	SEGMENT
___formal$ = 8						; size = 4
__Where$ = 12						; size = 4
??2@YAPAXIPAX@Z PROC					; operator new, COMDAT

; 56   : 	{	// construct array with placement at _Where

	push	ebp
	mov	ebp, esp
	sub	esp, 192				; 000000c0H
	push	ebx
	push	esi
	push	edi
	lea	edi, DWORD PTR [ebp-192]
	mov	ecx, 48					; 00000030H
	mov	eax, -858993460				; ccccccccH
	rep stosd

; 57   : 	return (_Where);

	mov	eax, DWORD PTR __Where$[ebp]

; 58   : 	}

	pop	edi
	pop	esi
	pop	ebx
	mov	esp, ebp
	pop	ebp
	ret	0
??2@YAPAXIPAX@Z ENDP					; operator new
; Function compile flags: /Odtp /RTCsu /ZI
_TEXT	ENDS
;	COMDAT ??3@YAXPAX0@Z
_TEXT	SEGMENT
___formal$ = 8						; size = 4
___formal$ = 12						; size = 4
??3@YAXPAX0@Z PROC					; operator delete, COMDAT

; 61   : 	{	// delete if placement new fails

	push	ebp
	mov	ebp, esp
	sub	esp, 192				; 000000c0H
	push	ebx
	push	esi
	push	edi
	lea	edi, DWORD PTR [ebp-192]
	mov	ecx, 48					; 00000030H
	mov	eax, -858993460				; ccccccccH
	rep stosd

; 62   : 	}

	pop	edi
	pop	esi
	pop	ebx
	mov	esp, ebp
	pop	ebp
	ret	0
??3@YAXPAX0@Z ENDP					; operator delete
_TEXT	ENDS
PUBLIC	??$_Destroy@U_Container_proxy@std@@@std@@YAXPAU_Container_proxy@0@@Z ; std::_Destroy<std::_Container_proxy>
; Function compile flags: /Odtp /RTCsu /ZI
; File c:\program files (x86)\microsoft visual studio 10.0\vc\include\xmemory
;	COMDAT ?destroy@?$allocator@U_Container_proxy@std@@@std@@QAEXPAU_Container_proxy@2@@Z
_TEXT	SEGMENT
_this$ = -8						; size = 4
__Ptr$ = 8						; size = 4
?destroy@?$allocator@U_Container_proxy@std@@@std@@QAEXPAU_Container_proxy@2@@Z PROC ; std::allocator<std::_Container_proxy>::destroy, COMDAT
; _this$ = ecx

; 212  : 		{	// destroy object at _Ptr

	push	ebp
	mov	ebp, esp
	sub	esp, 204				; 000000ccH
	push	ebx
	push	esi
	push	edi
	push	ecx
	lea	edi, DWORD PTR [ebp-204]
	mov	ecx, 51					; 00000033H
	mov	eax, -858993460				; ccccccccH
	rep stosd
	pop	ecx
	mov	DWORD PTR _this$[ebp], ecx

; 213  : 		_Destroy(_Ptr);

	mov	eax, DWORD PTR __Ptr$[ebp]
	push	eax
	call	??$_Destroy@U_Container_proxy@std@@@std@@YAXPAU_Container_proxy@0@@Z ; std::_Destroy<std::_Container_proxy>
	add	esp, 4

; 214  : 		}

	pop	edi
	pop	esi
	pop	ebx
	add	esp, 204				; 000000ccH
	cmp	ebp, esp
	call	__RTC_CheckEsp
	mov	esp, ebp
	pop	ebp
	ret	4
?destroy@?$allocator@U_Container_proxy@std@@@std@@QAEXPAU_Container_proxy@2@@Z ENDP ; std::allocator<std::_Container_proxy>::destroy
_TEXT	ENDS
PUBLIC	??1codecvt_base@std@@UAE@XZ			; std::codecvt_base::~codecvt_base
PUBLIC	?_Init@?$codecvt@DDH@std@@IAEXABV_Locinfo@2@@Z	; std::codecvt<char,char,int>::_Init
PUBLIC	??_7?$codecvt@DDH@std@@6B@			; std::codecvt<char,char,int>::`vftable'
PUBLIC	??0codecvt_base@std@@QAE@I@Z			; std::codecvt_base::codecvt_base
PUBLIC	??_R4?$codecvt@DDH@std@@6B@			; std::codecvt<char,char,int>::`RTTI Complete Object Locator'
PUBLIC	??_R0?AV?$codecvt@DDH@std@@@8			; std::codecvt<char,char,int> `RTTI Type Descriptor'
PUBLIC	??_R3?$codecvt@DDH@std@@8			; std::codecvt<char,char,int>::`RTTI Class Hierarchy Descriptor'
PUBLIC	??_R2?$codecvt@DDH@std@@8			; std::codecvt<char,char,int>::`RTTI Base Class Array'
PUBLIC	??_R1A@?0A@EA@?$codecvt@DDH@std@@8		; std::codecvt<char,char,int>::`RTTI Base Class Descriptor at (0,-1,0,64)'
PUBLIC	??_R1A@?0A@EA@codecvt_base@std@@8		; std::codecvt_base::`RTTI Base Class Descriptor at (0,-1,0,64)'
PUBLIC	??_R0?AVcodecvt_base@std@@@8			; std::codecvt_base `RTTI Type Descriptor'
PUBLIC	??_R3codecvt_base@std@@8			; std::codecvt_base::`RTTI Class Hierarchy Descriptor'
PUBLIC	??_R2codecvt_base@std@@8			; std::codecvt_base::`RTTI Base Class Array'
PUBLIC	?do_always_noconv@codecvt_base@std@@MBE_NXZ	; std::codecvt_base::do_always_noconv
PUBLIC	?do_max_length@codecvt_base@std@@MBEHXZ		; std::codecvt_base::do_max_length
PUBLIC	?do_encoding@codecvt_base@std@@MBEHXZ		; std::codecvt_base::do_encoding
PUBLIC	?do_in@?$codecvt@DDH@std@@MBEHAAHPBD1AAPBDPAD3AAPAD@Z ; std::codecvt<char,char,int>::do_in
PUBLIC	?do_out@?$codecvt@DDH@std@@MBEHAAHPBD1AAPBDPAD3AAPAD@Z ; std::codecvt<char,char,int>::do_out
PUBLIC	?do_unshift@?$codecvt@DDH@std@@MBEHAAHPAD1AAPAD@Z ; std::codecvt<char,char,int>::do_unshift
PUBLIC	?do_length@?$codecvt@DDH@std@@MBEHABHPBD1I@Z	; std::codecvt<char,char,int>::do_length
EXTRN	??_E?$codecvt@DDH@std@@MAEPAXI@Z:PROC		; std::codecvt<char,char,int>::`vector deleting destructor'
;	COMDAT ??_R2codecvt_base@std@@8
; File c:\program files (x86)\microsoft visual studio 10.0\vc\include\xlocale
rdata$r	SEGMENT
??_R2codecvt_base@std@@8 DD FLAT:??_R1A@?0A@EA@codecvt_base@std@@8 ; std::codecvt_base::`RTTI Base Class Array'
	DD	FLAT:??_R1A@?0A@EA@facet@locale@std@@8
rdata$r	ENDS
;	COMDAT ??_R3codecvt_base@std@@8
rdata$r	SEGMENT
??_R3codecvt_base@std@@8 DD 00H				; std::codecvt_base::`RTTI Class Hierarchy Descriptor'
	DD	00H
	DD	02H
	DD	FLAT:??_R2codecvt_base@std@@8
rdata$r	ENDS
;	COMDAT ??_R0?AVcodecvt_base@std@@@8
_DATA	SEGMENT
??_R0?AVcodecvt_base@std@@@8 DD FLAT:??_7type_info@@6B@	; std::codecvt_base `RTTI Type Descriptor'
	DD	00H
	DB	'.?AVcodecvt_base@std@@', 00H
_DATA	ENDS
;	COMDAT ??_R1A@?0A@EA@codecvt_base@std@@8
rdata$r	SEGMENT
??_R1A@?0A@EA@codecvt_base@std@@8 DD FLAT:??_R0?AVcodecvt_base@std@@@8 ; std::codecvt_base::`RTTI Base Class Descriptor at (0,-1,0,64)'
	DD	01H
	DD	00H
	DD	0ffffffffH
	DD	00H
	DD	040H
	DD	FLAT:??_R3codecvt_base@std@@8
rdata$r	ENDS
;	COMDAT ??_R1A@?0A@EA@?$codecvt@DDH@std@@8
rdata$r	SEGMENT
??_R1A@?0A@EA@?$codecvt@DDH@std@@8 DD FLAT:??_R0?AV?$codecvt@DDH@std@@@8 ; std::codecvt<char,char,int>::`RTTI Base Class Descriptor at (0,-1,0,64)'
	DD	02H
	DD	00H
	DD	0ffffffffH
	DD	00H
	DD	040H
	DD	FLAT:??_R3?$codecvt@DDH@std@@8
rdata$r	ENDS
;	COMDAT ??_R2?$codecvt@DDH@std@@8
rdata$r	SEGMENT
??_R2?$codecvt@DDH@std@@8 DD FLAT:??_R1A@?0A@EA@?$codecvt@DDH@std@@8 ; std::codecvt<char,char,int>::`RTTI Base Class Array'
	DD	FLAT:??_R1A@?0A@EA@codecvt_base@std@@8
	DD	FLAT:??_R1A@?0A@EA@facet@locale@std@@8
rdata$r	ENDS
;	COMDAT ??_R3?$codecvt@DDH@std@@8
rdata$r	SEGMENT
??_R3?$codecvt@DDH@std@@8 DD 00H			; std::codecvt<char,char,int>::`RTTI Class Hierarchy Descriptor'
	DD	00H
	DD	03H
	DD	FLAT:??_R2?$codecvt@DDH@std@@8
rdata$r	ENDS
;	COMDAT ??_R0?AV?$codecvt@DDH@std@@@8
_DATA	SEGMENT
??_R0?AV?$codecvt@DDH@std@@@8 DD FLAT:??_7type_info@@6B@ ; std::codecvt<char,char,int> `RTTI Type Descriptor'
	DD	00H
	DB	'.?AV?$codecvt@DDH@std@@', 00H
_DATA	ENDS
;	COMDAT ??_R4?$codecvt@DDH@std@@6B@
rdata$r	SEGMENT
??_R4?$codecvt@DDH@std@@6B@ DD 00H			; std::codecvt<char,char,int>::`RTTI Complete Object Locator'
	DD	00H
	DD	00H
	DD	FLAT:??_R0?AV?$codecvt@DDH@std@@@8
	DD	FLAT:??_R3?$codecvt@DDH@std@@8
rdata$r	ENDS
;	COMDAT ??_7?$codecvt@DDH@std@@6B@
CONST	SEGMENT
??_7?$codecvt@DDH@std@@6B@ DD FLAT:??_R4?$codecvt@DDH@std@@6B@ ; std::codecvt<char,char,int>::`vftable'
	DD	FLAT:??_E?$codecvt@DDH@std@@MAEPAXI@Z
	DD	FLAT:?do_always_noconv@codecvt_base@std@@MBE_NXZ
	DD	FLAT:?do_max_length@codecvt_base@std@@MBEHXZ
	DD	FLAT:?do_encoding@codecvt_base@std@@MBEHXZ
	DD	FLAT:?do_in@?$codecvt@DDH@std@@MBEHAAHPBD1AAPBDPAD3AAPAD@Z
	DD	FLAT:?do_out@?$codecvt@DDH@std@@MBEHAAHPBD1AAPBDPAD3AAPAD@Z
	DD	FLAT:?do_unshift@?$codecvt@DDH@std@@MBEHAAHPAD1AAPAD@Z
	DD	FLAT:?do_length@?$codecvt@DDH@std@@MBEHABHPBD1I@Z
CONST	ENDS
;	COMDAT xdata$x
xdata$x	SEGMENT
__unwindtable$??0?$codecvt@DDH@std@@QAE@ABV_Locinfo@1@I@Z DD 0ffffffffH
	DD	FLAT:__unwindfunclet$??0?$codecvt@DDH@std@@QAE@ABV_Locinfo@1@I@Z$0
__ehfuncinfo$??0?$codecvt@DDH@std@@QAE@ABV_Locinfo@1@I@Z DD 019930522H
	DD	01H
	DD	FLAT:__unwindtable$??0?$codecvt@DDH@std@@QAE@ABV_Locinfo@1@I@Z
	DD	2 DUP(00H)
	DD	2 DUP(00H)
	DD	00H
	DD	01H
; Function compile flags: /Odtp /RTCsu /ZI
xdata$x	ENDS
;	COMDAT ??0?$codecvt@DDH@std@@QAE@ABV_Locinfo@1@I@Z
_TEXT	SEGMENT
_this$ = -20						; size = 4
__$EHRec$ = -12						; size = 12
__Lobj$ = 8						; size = 4
__Refs$ = 12						; size = 4
??0?$codecvt@DDH@std@@QAE@ABV_Locinfo@1@I@Z PROC	; std::codecvt<char,char,int>::codecvt<char,char,int>, COMDAT
; _this$ = ecx

; 843  : 		{	// construct from specified locale

	push	ebp
	mov	ebp, esp
	push	-1
	push	__ehhandler$??0?$codecvt@DDH@std@@QAE@ABV_Locinfo@1@I@Z
	mov	eax, DWORD PTR fs:0
	push	eax
	sub	esp, 204				; 000000ccH
	push	ebx
	push	esi
	push	edi
	push	ecx
	lea	edi, DWORD PTR [ebp-216]
	mov	ecx, 51					; 00000033H
	mov	eax, -858993460				; ccccccccH
	rep stosd
	pop	ecx
	mov	eax, DWORD PTR ___security_cookie
	xor	eax, ebp
	push	eax
	lea	eax, DWORD PTR __$EHRec$[ebp]
	mov	DWORD PTR fs:0, eax
	mov	DWORD PTR _this$[ebp], ecx
	mov	eax, DWORD PTR __Refs$[ebp]
	push	eax
	mov	ecx, DWORD PTR _this$[ebp]
	call	??0codecvt_base@std@@QAE@I@Z		; std::codecvt_base::codecvt_base
	mov	DWORD PTR __$EHRec$[ebp+8], 0
	mov	eax, DWORD PTR _this$[ebp]
	mov	DWORD PTR [eax], OFFSET ??_7?$codecvt@DDH@std@@6B@

; 844  : 		_Init(_Lobj);

	mov	eax, DWORD PTR __Lobj$[ebp]
	push	eax
	mov	ecx, DWORD PTR _this$[ebp]
	call	?_Init@?$codecvt@DDH@std@@IAEXABV_Locinfo@2@@Z ; std::codecvt<char,char,int>::_Init

; 845  : 		}

	mov	DWORD PTR __$EHRec$[ebp+8], -1
	mov	eax, DWORD PTR _this$[ebp]
	mov	ecx, DWORD PTR __$EHRec$[ebp]
	mov	DWORD PTR fs:0, ecx
	pop	ecx
	pop	edi
	pop	esi
	pop	ebx
	add	esp, 216				; 000000d8H
	cmp	ebp, esp
	call	__RTC_CheckEsp
	mov	esp, ebp
	pop	ebp
	ret	8
_TEXT	ENDS
;	COMDAT text$x
text$x	SEGMENT
__unwindfunclet$??0?$codecvt@DDH@std@@QAE@ABV_Locinfo@1@I@Z$0:
	mov	ecx, DWORD PTR _this$[ebp]
	jmp	??1codecvt_base@std@@UAE@XZ		; std::codecvt_base::~codecvt_base
__ehhandler$??0?$codecvt@DDH@std@@QAE@ABV_Locinfo@1@I@Z:
	mov	edx, DWORD PTR [esp+8]
	lea	eax, DWORD PTR [edx+12]
	mov	ecx, DWORD PTR [edx-220]
	xor	ecx, eax
	call	@__security_check_cookie@4
	mov	eax, OFFSET __ehfuncinfo$??0?$codecvt@DDH@std@@QAE@ABV_Locinfo@1@I@Z
	jmp	___CxxFrameHandler3
text$x	ENDS
??0?$codecvt@DDH@std@@QAE@ABV_Locinfo@1@I@Z ENDP	; std::codecvt<char,char,int>::codecvt<char,char,int>
PUBLIC	??_7codecvt_base@std@@6B@			; std::codecvt_base::`vftable'
PUBLIC	??_R4codecvt_base@std@@6B@			; std::codecvt_base::`RTTI Complete Object Locator'
EXTRN	??_Ecodecvt_base@std@@UAEPAXI@Z:PROC		; std::codecvt_base::`vector deleting destructor'
;	COMDAT ??_R4codecvt_base@std@@6B@
rdata$r	SEGMENT
??_R4codecvt_base@std@@6B@ DD 00H			; std::codecvt_base::`RTTI Complete Object Locator'
	DD	00H
	DD	00H
	DD	FLAT:??_R0?AVcodecvt_base@std@@@8
	DD	FLAT:??_R3codecvt_base@std@@8
rdata$r	ENDS
;	COMDAT ??_7codecvt_base@std@@6B@
CONST	SEGMENT
??_7codecvt_base@std@@6B@ DD FLAT:??_R4codecvt_base@std@@6B@ ; std::codecvt_base::`vftable'
	DD	FLAT:??_Ecodecvt_base@std@@UAEPAXI@Z
	DD	FLAT:?do_always_noconv@codecvt_base@std@@MBE_NXZ
	DD	FLAT:?do_max_length@codecvt_base@std@@MBEHXZ
	DD	FLAT:?do_encoding@codecvt_base@std@@MBEHXZ
; Function compile flags: /Odtp /RTCsu /ZI
CONST	ENDS
;	COMDAT ??0codecvt_base@std@@QAE@I@Z
_TEXT	SEGMENT
_this$ = -8						; size = 4
__Refs$ = 8						; size = 4
??0codecvt_base@std@@QAE@I@Z PROC			; std::codecvt_base::codecvt_base, COMDAT
; _this$ = ecx

; 752  : 		{	// default constructor

	push	ebp
	mov	ebp, esp
	sub	esp, 204				; 000000ccH
	push	ebx
	push	esi
	push	edi
	push	ecx
	lea	edi, DWORD PTR [ebp-204]
	mov	ecx, 51					; 00000033H
	mov	eax, -858993460				; ccccccccH
	rep stosd
	pop	ecx
	mov	DWORD PTR _this$[ebp], ecx
	mov	eax, DWORD PTR __Refs$[ebp]
	push	eax
	mov	ecx, DWORD PTR _this$[ebp]
	call	??0facet@locale@std@@IAE@I@Z		; std::locale::facet::facet
	mov	eax, DWORD PTR _this$[ebp]
	mov	DWORD PTR [eax], OFFSET ??_7codecvt_base@std@@6B@

; 753  : 		}

	mov	eax, DWORD PTR _this$[ebp]
	pop	edi
	pop	esi
	pop	ebx
	add	esp, 204				; 000000ccH
	cmp	ebp, esp
	call	__RTC_CheckEsp
	mov	esp, ebp
	pop	ebp
	ret	4
??0codecvt_base@std@@QAE@I@Z ENDP			; std::codecvt_base::codecvt_base
; Function compile flags: /Odtp /RTCsu /ZI
_TEXT	ENDS
;	COMDAT ??1codecvt_base@std@@UAE@XZ
_TEXT	SEGMENT
_this$ = -8						; size = 4
??1codecvt_base@std@@UAE@XZ PROC			; std::codecvt_base::~codecvt_base, COMDAT
; _this$ = ecx

; 771  : 		{	// destroy the object

	push	ebp
	mov	ebp, esp
	sub	esp, 204				; 000000ccH
	push	ebx
	push	esi
	push	edi
	push	ecx
	lea	edi, DWORD PTR [ebp-204]
	mov	ecx, 51					; 00000033H
	mov	eax, -858993460				; ccccccccH
	rep stosd
	pop	ecx
	mov	DWORD PTR _this$[ebp], ecx
	mov	eax, DWORD PTR _this$[ebp]
	mov	DWORD PTR [eax], OFFSET ??_7codecvt_base@std@@6B@

; 772  : 		}

	mov	ecx, DWORD PTR _this$[ebp]
	call	??1facet@locale@std@@UAE@XZ		; std::locale::facet::~facet
	pop	edi
	pop	esi
	pop	ebx
	add	esp, 204				; 000000ccH
	cmp	ebp, esp
	call	__RTC_CheckEsp
	mov	esp, ebp
	pop	ebp
	ret	0
??1codecvt_base@std@@UAE@XZ ENDP			; std::codecvt_base::~codecvt_base
; Function compile flags: /Odtp /RTCsu /ZI
_TEXT	ENDS
;	COMDAT ?do_always_noconv@codecvt_base@std@@MBE_NXZ
_TEXT	SEGMENT
_this$ = -8						; size = 4
?do_always_noconv@codecvt_base@std@@MBE_NXZ PROC	; std::codecvt_base::do_always_noconv, COMDAT
; _this$ = ecx

; 776  : 		{	// return true if conversions never change input (from codecvt)

	push	ebp
	mov	ebp, esp
	sub	esp, 204				; 000000ccH
	push	ebx
	push	esi
	push	edi
	push	ecx
	lea	edi, DWORD PTR [ebp-204]
	mov	ecx, 51					; 00000033H
	mov	eax, -858993460				; ccccccccH
	rep stosd
	pop	ecx
	mov	DWORD PTR _this$[ebp], ecx

; 777  : 		return (true);

	mov	al, 1

; 778  : 		}

	pop	edi
	pop	esi
	pop	ebx
	mov	esp, ebp
	pop	ebp
	ret	0
?do_always_noconv@codecvt_base@std@@MBE_NXZ ENDP	; std::codecvt_base::do_always_noconv
; Function compile flags: /Odtp /RTCsu /ZI
_TEXT	ENDS
;	COMDAT ?do_max_length@codecvt_base@std@@MBEHXZ
_TEXT	SEGMENT
_this$ = -8						; size = 4
?do_max_length@codecvt_base@std@@MBEHXZ PROC		; std::codecvt_base::do_max_length, COMDAT
; _this$ = ecx

; 781  : 		{	// return maximum length required for a conversion (from codecvt)

	push	ebp
	mov	ebp, esp
	sub	esp, 204				; 000000ccH
	push	ebx
	push	esi
	push	edi
	push	ecx
	lea	edi, DWORD PTR [ebp-204]
	mov	ecx, 51					; 00000033H
	mov	eax, -858993460				; ccccccccH
	rep stosd
	pop	ecx
	mov	DWORD PTR _this$[ebp], ecx

; 782  : 		return (1);

	mov	eax, 1

; 783  : 		}

	pop	edi
	pop	esi
	pop	ebx
	mov	esp, ebp
	pop	ebp
	ret	0
?do_max_length@codecvt_base@std@@MBEHXZ ENDP		; std::codecvt_base::do_max_length
; Function compile flags: /Odtp /RTCsu /ZI
_TEXT	ENDS
;	COMDAT ?do_encoding@codecvt_base@std@@MBEHXZ
_TEXT	SEGMENT
_this$ = -8						; size = 4
?do_encoding@codecvt_base@std@@MBEHXZ PROC		; std::codecvt_base::do_encoding, COMDAT
; _this$ = ecx

; 786  : 		{	// return length of code sequence (from codecvt)

	push	ebp
	mov	ebp, esp
	sub	esp, 204				; 000000ccH
	push	ebx
	push	esi
	push	edi
	push	ecx
	lea	edi, DWORD PTR [ebp-204]
	mov	ecx, 51					; 00000033H
	mov	eax, -858993460				; ccccccccH
	rep stosd
	pop	ecx
	mov	DWORD PTR _this$[ebp], ecx

; 787  : 		return (1);	// -1 ==> state dependent, 0 ==> varying length

	mov	eax, 1

; 788  : 		}

	pop	edi
	pop	esi
	pop	ebx
	mov	esp, ebp
	pop	ebp
	ret	0
?do_encoding@codecvt_base@std@@MBEHXZ ENDP		; std::codecvt_base::do_encoding
; Function compile flags: /Odtp /RTCsu /ZI
_TEXT	ENDS
;	COMDAT ??_Gcodecvt_base@std@@UAEPAXI@Z
_TEXT	SEGMENT
_this$ = -8						; size = 4
___flags$ = 8						; size = 4
??_Gcodecvt_base@std@@UAEPAXI@Z PROC			; std::codecvt_base::`scalar deleting destructor', COMDAT
; _this$ = ecx
	push	ebp
	mov	ebp, esp
	sub	esp, 204				; 000000ccH
	push	ebx
	push	esi
	push	edi
	push	ecx
	lea	edi, DWORD PTR [ebp-204]
	mov	ecx, 51					; 00000033H
	mov	eax, -858993460				; ccccccccH
	rep stosd
	pop	ecx
	mov	DWORD PTR _this$[ebp], ecx
	mov	ecx, DWORD PTR _this$[ebp]
	call	??1codecvt_base@std@@UAE@XZ		; std::codecvt_base::~codecvt_base
	mov	eax, DWORD PTR ___flags$[ebp]
	and	eax, 1
	je	SHORT $LN1@scalar@17
	mov	eax, DWORD PTR _this$[ebp]
	push	eax
	call	??3facet@locale@std@@SAXPAX@Z		; std::locale::facet::operator delete
	add	esp, 4
$LN1@scalar@17:
	mov	eax, DWORD PTR _this$[ebp]
	pop	edi
	pop	esi
	pop	ebx
	add	esp, 204				; 000000ccH
	cmp	ebp, esp
	call	__RTC_CheckEsp
	mov	esp, ebp
	pop	ebp
	ret	4
??_Gcodecvt_base@std@@UAEPAXI@Z ENDP			; std::codecvt_base::`scalar deleting destructor'
; Function compile flags: /Odtp /RTCsu /ZI
_TEXT	ENDS
;	COMDAT ?do_in@?$codecvt@DDH@std@@MBEHAAHPBD1AAPBDPAD3AAPAD@Z
_TEXT	SEGMENT
_this$ = -8						; size = 4
___formal$ = 8						; size = 4
__First1$ = 12						; size = 4
___formal$ = 16						; size = 4
__Mid1$ = 20						; size = 4
__First2$ = 24						; size = 4
___formal$ = 28						; size = 4
__Mid2$ = 32						; size = 4
?do_in@?$codecvt@DDH@std@@MBEHAAHPBD1AAPBDPAD3AAPAD@Z PROC ; std::codecvt<char,char,int>::do_in, COMDAT
; _this$ = ecx

; 868  : 		{	// convert bytes [_First1, _Last1) to [_First2, _Last)

	push	ebp
	mov	ebp, esp
	sub	esp, 204				; 000000ccH
	push	ebx
	push	esi
	push	edi
	push	ecx
	lea	edi, DWORD PTR [ebp-204]
	mov	ecx, 51					; 00000033H
	mov	eax, -858993460				; ccccccccH
	rep stosd
	pop	ecx
	mov	DWORD PTR _this$[ebp], ecx

; 869  : 		_Mid1 = _First1, _Mid2 = _First2;

	mov	eax, DWORD PTR __Mid1$[ebp]
	mov	ecx, DWORD PTR __First1$[ebp]
	mov	DWORD PTR [eax], ecx
	mov	edx, DWORD PTR __Mid2$[ebp]
	mov	eax, DWORD PTR __First2$[ebp]
	mov	DWORD PTR [edx], eax

; 870  : 		return (noconv);	// convert nothing

	mov	eax, 3

; 871  : 		}

	pop	edi
	pop	esi
	pop	ebx
	mov	esp, ebp
	pop	ebp
	ret	28					; 0000001cH
?do_in@?$codecvt@DDH@std@@MBEHAAHPBD1AAPBDPAD3AAPAD@Z ENDP ; std::codecvt<char,char,int>::do_in
; Function compile flags: /Odtp /RTCsu /ZI
_TEXT	ENDS
;	COMDAT ?do_out@?$codecvt@DDH@std@@MBEHAAHPBD1AAPBDPAD3AAPAD@Z
_TEXT	SEGMENT
_this$ = -8						; size = 4
___formal$ = 8						; size = 4
__First1$ = 12						; size = 4
___formal$ = 16						; size = 4
__Mid1$ = 20						; size = 4
__First2$ = 24						; size = 4
___formal$ = 28						; size = 4
__Mid2$ = 32						; size = 4
?do_out@?$codecvt@DDH@std@@MBEHAAHPBD1AAPBDPAD3AAPAD@Z PROC ; std::codecvt<char,char,int>::do_out, COMDAT
; _this$ = ecx

; 876  : 		{	// convert [_First1, _Last1) to bytes [_First2, _Last)

	push	ebp
	mov	ebp, esp
	sub	esp, 204				; 000000ccH
	push	ebx
	push	esi
	push	edi
	push	ecx
	lea	edi, DWORD PTR [ebp-204]
	mov	ecx, 51					; 00000033H
	mov	eax, -858993460				; ccccccccH
	rep stosd
	pop	ecx
	mov	DWORD PTR _this$[ebp], ecx

; 877  : 		_Mid1 = _First1, _Mid2 = _First2;

	mov	eax, DWORD PTR __Mid1$[ebp]
	mov	ecx, DWORD PTR __First1$[ebp]
	mov	DWORD PTR [eax], ecx
	mov	edx, DWORD PTR __Mid2$[ebp]
	mov	eax, DWORD PTR __First2$[ebp]
	mov	DWORD PTR [edx], eax

; 878  : 		return (noconv);	// convert nothing

	mov	eax, 3

; 879  : 		}

	pop	edi
	pop	esi
	pop	ebx
	mov	esp, ebp
	pop	ebp
	ret	28					; 0000001cH
?do_out@?$codecvt@DDH@std@@MBEHAAHPBD1AAPBDPAD3AAPAD@Z ENDP ; std::codecvt<char,char,int>::do_out
; Function compile flags: /Odtp /RTCsu /ZI
_TEXT	ENDS
;	COMDAT ?do_unshift@?$codecvt@DDH@std@@MBEHAAHPAD1AAPAD@Z
_TEXT	SEGMENT
_this$ = -8						; size = 4
___formal$ = 8						; size = 4
__First2$ = 12						; size = 4
___formal$ = 16						; size = 4
__Mid2$ = 20						; size = 4
?do_unshift@?$codecvt@DDH@std@@MBEHAAHPAD1AAPAD@Z PROC	; std::codecvt<char,char,int>::do_unshift, COMDAT
; _this$ = ecx

; 883  : 		{	// generate bytes to return to default shift state

	push	ebp
	mov	ebp, esp
	sub	esp, 204				; 000000ccH
	push	ebx
	push	esi
	push	edi
	push	ecx
	lea	edi, DWORD PTR [ebp-204]
	mov	ecx, 51					; 00000033H
	mov	eax, -858993460				; ccccccccH
	rep stosd
	pop	ecx
	mov	DWORD PTR _this$[ebp], ecx

; 884  : 		_Mid2 = _First2;

	mov	eax, DWORD PTR __Mid2$[ebp]
	mov	ecx, DWORD PTR __First2$[ebp]
	mov	DWORD PTR [eax], ecx

; 885  : 		return (noconv);	// convert nothing

	mov	eax, 3

; 886  : 		}

	pop	edi
	pop	esi
	pop	ebx
	mov	esp, ebp
	pop	ebp
	ret	16					; 00000010H
?do_unshift@?$codecvt@DDH@std@@MBEHAAHPAD1AAPAD@Z ENDP	; std::codecvt<char,char,int>::do_unshift
; Function compile flags: /Odtp /RTCsu /ZI
_TEXT	ENDS
;	COMDAT ?do_length@?$codecvt@DDH@std@@MBEHABHPBD1I@Z
_TEXT	SEGMENT
tv67 = -208						; size = 4
_this$ = -8						; size = 4
___formal$ = 8						; size = 4
__First1$ = 12						; size = 4
__Last1$ = 16						; size = 4
__Count$ = 20						; size = 4
?do_length@?$codecvt@DDH@std@@MBEHABHPBD1I@Z PROC	; std::codecvt<char,char,int>::do_length, COMDAT
; _this$ = ecx

; 890  : 		{	// return min(_Count, converted length of bytes [_First1, _Last1))

	push	ebp
	mov	ebp, esp
	sub	esp, 208				; 000000d0H
	push	ebx
	push	esi
	push	edi
	push	ecx
	lea	edi, DWORD PTR [ebp-208]
	mov	ecx, 52					; 00000034H
	mov	eax, -858993460				; ccccccccH
	rep stosd
	pop	ecx
	mov	DWORD PTR _this$[ebp], ecx

; 891  : 		return ((int)(_Count < (size_t)(_Last1 - _First1)
; 892  : 			? _Count : _Last1 - _First1));	// assume 1-to-1 conversion

	mov	eax, DWORD PTR __Last1$[ebp]
	sub	eax, DWORD PTR __First1$[ebp]
	cmp	DWORD PTR __Count$[ebp], eax
	jae	SHORT $LN3@do_length
	mov	ecx, DWORD PTR __Count$[ebp]
	mov	DWORD PTR tv67[ebp], ecx
	jmp	SHORT $LN4@do_length
$LN3@do_length:
	mov	edx, DWORD PTR __Last1$[ebp]
	sub	edx, DWORD PTR __First1$[ebp]
	mov	DWORD PTR tv67[ebp], edx
$LN4@do_length:
	mov	eax, DWORD PTR tv67[ebp]

; 893  : 		}

	pop	edi
	pop	esi
	pop	ebx
	mov	esp, ebp
	pop	ebp
	ret	16					; 00000010H
?do_length@?$codecvt@DDH@std@@MBEHABHPBD1I@Z ENDP	; std::codecvt<char,char,int>::do_length
_TEXT	ENDS
PUBLIC	??1?$codecvt@DDH@std@@MAE@XZ			; std::codecvt<char,char,int>::~codecvt<char,char,int>
; Function compile flags: /Odtp /RTCsu /ZI
;	COMDAT ??_G?$codecvt@DDH@std@@MAEPAXI@Z
_TEXT	SEGMENT
_this$ = -8						; size = 4
___flags$ = 8						; size = 4
??_G?$codecvt@DDH@std@@MAEPAXI@Z PROC			; std::codecvt<char,char,int>::`scalar deleting destructor', COMDAT
; _this$ = ecx
	push	ebp
	mov	ebp, esp
	sub	esp, 204				; 000000ccH
	push	ebx
	push	esi
	push	edi
	push	ecx
	lea	edi, DWORD PTR [ebp-204]
	mov	ecx, 51					; 00000033H
	mov	eax, -858993460				; ccccccccH
	rep stosd
	pop	ecx
	mov	DWORD PTR _this$[ebp], ecx
	mov	ecx, DWORD PTR _this$[ebp]
	call	??1?$codecvt@DDH@std@@MAE@XZ		; std::codecvt<char,char,int>::~codecvt<char,char,int>
	mov	eax, DWORD PTR ___flags$[ebp]
	and	eax, 1
	je	SHORT $LN1@scalar@18
	mov	eax, DWORD PTR _this$[ebp]
	push	eax
	call	??3facet@locale@std@@SAXPAX@Z		; std::locale::facet::operator delete
	add	esp, 4
$LN1@scalar@18:
	mov	eax, DWORD PTR _this$[ebp]
	pop	edi
	pop	esi
	pop	ebx
	add	esp, 204				; 000000ccH
	cmp	ebp, esp
	call	__RTC_CheckEsp
	mov	esp, ebp
	pop	ebp
	ret	4
??_G?$codecvt@DDH@std@@MAEPAXI@Z ENDP			; std::codecvt<char,char,int>::`scalar deleting destructor'
; Function compile flags: /Odtp /RTCsu /ZI
_TEXT	ENDS
;	COMDAT ??1?$codecvt@DDH@std@@MAE@XZ
_TEXT	SEGMENT
_this$ = -8						; size = 4
??1?$codecvt@DDH@std@@MAE@XZ PROC			; std::codecvt<char,char,int>::~codecvt<char,char,int>, COMDAT
; _this$ = ecx

; 858  : 		{	// destroy the object

	push	ebp
	mov	ebp, esp
	sub	esp, 204				; 000000ccH
	push	ebx
	push	esi
	push	edi
	push	ecx
	lea	edi, DWORD PTR [ebp-204]
	mov	ecx, 51					; 00000033H
	mov	eax, -858993460				; ccccccccH
	rep stosd
	pop	ecx
	mov	DWORD PTR _this$[ebp], ecx
	mov	eax, DWORD PTR _this$[ebp]
	mov	DWORD PTR [eax], OFFSET ??_7?$codecvt@DDH@std@@6B@

; 859  : 		}

	mov	ecx, DWORD PTR _this$[ebp]
	call	??1codecvt_base@std@@UAE@XZ		; std::codecvt_base::~codecvt_base
	pop	edi
	pop	esi
	pop	ebx
	add	esp, 204				; 000000ccH
	cmp	ebp, esp
	call	__RTC_CheckEsp
	mov	esp, ebp
	pop	ebp
	ret	0
??1?$codecvt@DDH@std@@MAE@XZ ENDP			; std::codecvt<char,char,int>::~codecvt<char,char,int>
; Function compile flags: /Odtp /RTCsu /ZI
_TEXT	ENDS
;	COMDAT ?_Init@?$codecvt@DDH@std@@IAEXABV_Locinfo@2@@Z
_TEXT	SEGMENT
_this$ = -8						; size = 4
___formal$ = 8						; size = 4
?_Init@?$codecvt@DDH@std@@IAEXABV_Locinfo@2@@Z PROC	; std::codecvt<char,char,int>::_Init, COMDAT
; _this$ = ecx

; 862  : 		{	// initialize from _Locinfo object

	push	ebp
	mov	ebp, esp
	sub	esp, 204				; 000000ccH
	push	ebx
	push	esi
	push	edi
	push	ecx
	lea	edi, DWORD PTR [ebp-204]
	mov	ecx, 51					; 00000033H
	mov	eax, -858993460				; ccccccccH
	rep stosd
	pop	ecx
	mov	DWORD PTR _this$[ebp], ecx

; 863  : 		}

	pop	edi
	pop	esi
	pop	ebx
	mov	esp, ebp
	pop	ebp
	ret	4
?_Init@?$codecvt@DDH@std@@IAEXABV_Locinfo@2@@Z ENDP	; std::codecvt<char,char,int>::_Init
; Function compile flags: /Odtp /RTCsu /ZI
; File c:\program files (x86)\microsoft visual studio 10.0\vc\include\xutility
_TEXT	ENDS
;	COMDAT ??$_Iter_cat@PBD@std@@YA?AUrandom_access_iterator_tag@0@ABQBD@Z
_TEXT	SEGMENT
__Cat$ = -5						; size = 1
___$ReturnUdt$ = 8					; size = 4
___formal$ = 12						; size = 4
??$_Iter_cat@PBD@std@@YA?AUrandom_access_iterator_tag@0@ABQBD@Z PROC ; std::_Iter_cat<char const *>, COMDAT

; 476  : 	{	// return category from iterator argument

	push	ebp
	mov	ebp, esp
	sub	esp, 204				; 000000ccH
	push	ebx
	push	esi
	push	edi
	lea	edi, DWORD PTR [ebp-204]
	mov	ecx, 51					; 00000033H
	mov	eax, -858993460				; ccccccccH
	rep stosd

; 477  : 	typename iterator_traits<_Iter>::iterator_category _Cat;
; 478  : 	return (_Cat);

	mov	eax, DWORD PTR ___$ReturnUdt$[ebp]
	mov	cl, BYTE PTR __Cat$[ebp]
	mov	BYTE PTR [eax], cl
	mov	eax, DWORD PTR ___$ReturnUdt$[ebp]

; 479  : 	}

	push	edx
	mov	ecx, ebp
	push	eax
	lea	edx, DWORD PTR $LN5@Iter_cat
	call	@_RTC_CheckStackVars@8
	pop	eax
	pop	edx
	pop	edi
	pop	esi
	pop	ebx
	mov	esp, ebp
	pop	ebp
	ret	0
	npad	3
$LN5@Iter_cat:
	DD	1
	DD	$LN4@Iter_cat
$LN4@Iter_cat:
	DD	-5					; fffffffbH
	DD	1
	DD	$LN3@Iter_cat
$LN3@Iter_cat:
	DB	95					; 0000005fH
	DB	67					; 00000043H
	DB	97					; 00000061H
	DB	116					; 00000074H
	DB	0
??$_Iter_cat@PBD@std@@YA?AUrandom_access_iterator_tag@0@ABQBD@Z ENDP ; std::_Iter_cat<char const *>
_TEXT	ENDS
PUBLIC	??_C@_1CO@DGLIKNHI@?$AAi?$AAn?$AAv?$AAa?$AAl?$AAi?$AAd?$AA?5?$AAi?$AAt?$AAe?$AAr?$AAa?$AAt?$AAo?$AAr?$AA?5?$AAr?$AAa?$AAn?$AAg?$AAe?$AA?$AA@ ; `string'
;	COMDAT ??_C@_1CO@DGLIKNHI@?$AAi?$AAn?$AAv?$AAa?$AAl?$AAi?$AAd?$AA?5?$AAi?$AAt?$AAe?$AAr?$AAa?$AAt?$AAo?$AAr?$AA?5?$AAr?$AAa?$AAn?$AAg?$AAe?$AA?$AA@
CONST	SEGMENT
??_C@_1CO@DGLIKNHI@?$AAi?$AAn?$AAv?$AAa?$AAl?$AAi?$AAd?$AA?5?$AAi?$AAt?$AAe?$AAr?$AAa?$AAt?$AAo?$AAr?$AA?5?$AAr?$AAa?$AAn?$AAg?$AAe?$AA?$AA@ DB 'i'
	DB	00H, 'n', 00H, 'v', 00H, 'a', 00H, 'l', 00H, 'i', 00H, 'd', 00H
	DB	' ', 00H, 'i', 00H, 't', 00H, 'e', 00H, 'r', 00H, 'a', 00H, 't'
	DB	00H, 'o', 00H, 'r', 00H, ' ', 00H, 'r', 00H, 'a', 00H, 'n', 00H
	DB	'g', 00H, 'e', 00H, 00H, 00H			; `string'
; Function compile flags: /Odtp /RTCsu /ZI
CONST	ENDS
;	COMDAT ??$_Debug_range2@PBD@std@@YAXPBD0PB_WIUrandom_access_iterator_tag@0@@Z
_TEXT	SEGMENT
__First$ = 8						; size = 4
__Last$ = 12						; size = 4
__File$ = 16						; size = 4
__Line$ = 20						; size = 4
___formal$ = 24						; size = 1
??$_Debug_range2@PBD@std@@YAXPBD0PB_WIUrandom_access_iterator_tag@0@@Z PROC ; std::_Debug_range2<char const *>, COMDAT

; 714  : 	{	// test iterator pair for valid range, random-access iterators

	push	ebp
	mov	ebp, esp
	sub	esp, 192				; 000000c0H
	push	ebx
	push	esi
	push	edi
	lea	edi, DWORD PTR [ebp-192]
	mov	ecx, 48					; 00000030H
	mov	eax, -858993460				; ccccccccH
	rep stosd

; 715  : 	if (_First != _Last)

	mov	eax, DWORD PTR __First$[ebp]
	cmp	eax, DWORD PTR __Last$[ebp]
	je	SHORT $LN3@Debug_rang

; 716  : 		{	// check for non-null pointers, valid range
; 717  : 		_DEBUG_POINTER2(_First, _File, _Line);

	mov	eax, DWORD PTR __Line$[ebp]
	push	eax
	mov	ecx, DWORD PTR __File$[ebp]
	push	ecx
	mov	edx, DWORD PTR __First$[ebp]
	push	edx
	call	??$_Debug_pointer@D@std@@YAXPBDPB_WI@Z	; std::_Debug_pointer<char>
	add	esp, 12					; 0000000cH

; 718  : 		_DEBUG_POINTER2(_Last, _File, _Line);

	mov	eax, DWORD PTR __Line$[ebp]
	push	eax
	mov	ecx, DWORD PTR __File$[ebp]
	push	ecx
	mov	edx, DWORD PTR __Last$[ebp]
	push	edx
	call	??$_Debug_pointer@D@std@@YAXPBDPB_WI@Z	; std::_Debug_pointer<char>
	add	esp, 12					; 0000000cH

; 719  : 		if (_Last < _First)

	mov	eax, DWORD PTR __Last$[ebp]
	cmp	eax, DWORD PTR __First$[ebp]
	jae	SHORT $LN3@Debug_rang

; 720  : 			_DEBUG_ERROR2("invalid iterator range", _File, _Line);

	mov	eax, DWORD PTR __Line$[ebp]
	push	eax
	mov	ecx, DWORD PTR __File$[ebp]
	push	ecx
	push	OFFSET ??_C@_1CO@DGLIKNHI@?$AAi?$AAn?$AAv?$AAa?$AAl?$AAi?$AAd?$AA?5?$AAi?$AAt?$AAe?$AAr?$AAa?$AAt?$AAo?$AAr?$AA?5?$AAr?$AAa?$AAn?$AAg?$AAe?$AA?$AA@
	call	?_Debug_message@std@@YAXPB_W0I@Z	; std::_Debug_message
	add	esp, 12					; 0000000cH
$LN3@Debug_rang:

; 721  : 		}
; 722  : 	}

	pop	edi
	pop	esi
	pop	ebx
	add	esp, 192				; 000000c0H
	cmp	ebp, esp
	call	__RTC_CheckEsp
	mov	esp, ebp
	pop	ebp
	ret	0
??$_Debug_range2@PBD@std@@YAXPBD0PB_WIUrandom_access_iterator_tag@0@@Z ENDP ; std::_Debug_range2<char const *>
; Function compile flags: /Odtp /RTCsu /ZI
; File c:\program files (x86)\microsoft visual studio 10.0\vc\include\utility
_TEXT	ENDS
;	COMDAT ??$forward@U_Container_proxy@std@@@std@@YA$$QAU_Container_proxy@0@AAU10@@Z
_TEXT	SEGMENT
__Arg$ = 8						; size = 4
??$forward@U_Container_proxy@std@@@std@@YA$$QAU_Container_proxy@0@AAU10@@Z PROC ; std::forward<std::_Container_proxy>, COMDAT

; 78   : 	{	// forward _Arg, given explicitly specified type parameter

	push	ebp
	mov	ebp, esp
	sub	esp, 192				; 000000c0H
	push	ebx
	push	esi
	push	edi
	lea	edi, DWORD PTR [ebp-192]
	mov	ecx, 48					; 00000030H
	mov	eax, -858993460				; ccccccccH
	rep stosd

; 79   : 	return ((_Ty&&)_Arg);

	mov	eax, DWORD PTR __Arg$[ebp]

; 80   : 	}

	pop	edi
	pop	esi
	pop	ebx
	mov	esp, ebp
	pop	ebp
	ret	0
??$forward@U_Container_proxy@std@@@std@@YA$$QAU_Container_proxy@0@AAU10@@Z ENDP ; std::forward<std::_Container_proxy>
; Function compile flags: /Odtp /RTCsu /ZI
; File c:\program files (x86)\microsoft visual studio 10.0\vc\include\xmemory
_TEXT	ENDS
;	COMDAT ??$_Destroy@U_Container_proxy@std@@@std@@YAXPAU_Container_proxy@0@@Z
_TEXT	SEGMENT
__Ptr$ = 8						; size = 4
??$_Destroy@U_Container_proxy@std@@@std@@YAXPAU_Container_proxy@0@@Z PROC ; std::_Destroy<std::_Container_proxy>, COMDAT

; 62   : 	{	// destroy object at _Ptr

	push	ebp
	mov	ebp, esp
	sub	esp, 192				; 000000c0H
	push	ebx
	push	esi
	push	edi
	lea	edi, DWORD PTR [ebp-192]
	mov	ecx, 48					; 00000030H
	mov	eax, -858993460				; ccccccccH
	rep stosd

; 63   : 	_Ptr->~_Ty();
; 64   : 	}

	pop	edi
	pop	esi
	pop	ebx
	mov	esp, ebp
	pop	ebp
	ret	0
??$_Destroy@U_Container_proxy@std@@@std@@YAXPAU_Container_proxy@0@@Z ENDP ; std::_Destroy<std::_Container_proxy>
_TEXT	ENDS
PUBLIC	??0id@locale@std@@QAE@I@Z			; std::locale::id::id
; Function compile flags: /Odtp /RTCsu /ZI
; File c:\program files (x86)\microsoft visual studio 10.0\vc\include\xlocale
;	COMDAT ??__E?id@?$codecvt@DDH@std@@2V0locale@2@A@@YAXXZ
text$yc	SEGMENT
??__E?id@?$codecvt@DDH@std@@2V0locale@2@A@@YAXXZ PROC	; `dynamic initializer for 'std::codecvt<char,char,int>::id'', COMDAT

; 862  : 		{	// initialize from _Locinfo object

	push	ebp
	mov	ebp, esp
	sub	esp, 192				; 000000c0H
	push	ebx
	push	esi
	push	edi
	lea	edi, DWORD PTR [ebp-192]
	mov	ecx, 48					; 00000030H
	mov	eax, -858993460				; ccccccccH
	rep stosd
	push	0
	mov	ecx, OFFSET ?id@?$codecvt@DDH@std@@2V0locale@2@A ; std::codecvt<char,char,int>::id
	call	??0id@locale@std@@QAE@I@Z		; std::locale::id::id
	pop	edi
	pop	esi
	pop	ebx
	add	esp, 192				; 000000c0H
	cmp	ebp, esp
	call	__RTC_CheckEsp
	mov	esp, ebp
	pop	ebp
	ret	0
??__E?id@?$codecvt@DDH@std@@2V0locale@2@A@@YAXXZ ENDP	; `dynamic initializer for 'std::codecvt<char,char,int>::id''
; Function compile flags: /Odtp /RTCsu /ZI
text$yc	ENDS
;	COMDAT ??0id@locale@std@@QAE@I@Z
_TEXT	SEGMENT
_this$ = -8						; size = 4
__Val$ = 8						; size = 4
??0id@locale@std@@QAE@I@Z PROC				; std::locale::id::id, COMDAT
; _this$ = ecx

; 71   : 			{	// construct with specified stamp value

	push	ebp
	mov	ebp, esp
	sub	esp, 204				; 000000ccH
	push	ebx
	push	esi
	push	edi
	push	ecx
	lea	edi, DWORD PTR [ebp-204]
	mov	ecx, 51					; 00000033H
	mov	eax, -858993460				; ccccccccH
	rep stosd
	pop	ecx
	mov	DWORD PTR _this$[ebp], ecx
	mov	eax, DWORD PTR _this$[ebp]
	mov	ecx, DWORD PTR __Val$[ebp]
	mov	DWORD PTR [eax], ecx

; 72   : 			}

	mov	eax, DWORD PTR _this$[ebp]
	pop	edi
	pop	esi
	pop	ebx
	mov	esp, ebp
	pop	ebp
	ret	4
??0id@locale@std@@QAE@I@Z ENDP				; std::locale::id::id
_TEXT	ENDS
PUBLIC	?id@?$codecvt@DDH@std@@2V0locale@2@A		; std::codecvt<char,char,int>::id
;	COMDAT ?id@?$codecvt@DDH@std@@2V0locale@2@A
_BSS	SEGMENT
?id@?$codecvt@DDH@std@@2V0locale@2@A DD 01H DUP (?)	; std::codecvt<char,char,int>::id
_BSS	ENDS
;	COMDAT CRT$XCU
CRT$XCU	SEGMENT
?id$initializer$@?$codecvt@DDH@std@@2P6AXXZA DD FLAT:??__E?id@?$codecvt@DDH@std@@2V0locale@2@A@@YAXXZ ; std::codecvt<char,char,int>::id$initializer$
CRT$XCU	ENDS
END
