; Listing generated by Microsoft (R) Optimizing Compiler Version 16.00.30319.01 

	TITLE	C:\Users\tdrol\Documents\Visual Studio 2010\Projects\analizator\analizator-bd-opencl\cl_encrypt.cpp
	.686P
	.XMM
	include listing.inc
	.model	flat

INCLUDELIB LIBCMTD
INCLUDELIB OLDNAMES

PUBLIC	??_C@_0FP@CIEIGBBB@C?3?1Users?1tdrol?1Documents?1Visual?5@ ; `string'
PUBLIC	?has_denorm@_Num_base@std@@2W4float_denorm_style@2@B ; std::_Num_base::has_denorm
PUBLIC	?has_denorm_loss@_Num_base@std@@2_NB		; std::_Num_base::has_denorm_loss
PUBLIC	?has_infinity@_Num_base@std@@2_NB		; std::_Num_base::has_infinity
PUBLIC	?has_quiet_NaN@_Num_base@std@@2_NB		; std::_Num_base::has_quiet_NaN
PUBLIC	?has_signaling_NaN@_Num_base@std@@2_NB		; std::_Num_base::has_signaling_NaN
PUBLIC	?is_bounded@_Num_base@std@@2_NB			; std::_Num_base::is_bounded
PUBLIC	?is_exact@_Num_base@std@@2_NB			; std::_Num_base::is_exact
PUBLIC	?is_iec559@_Num_base@std@@2_NB			; std::_Num_base::is_iec559
PUBLIC	?is_integer@_Num_base@std@@2_NB			; std::_Num_base::is_integer
PUBLIC	?is_modulo@_Num_base@std@@2_NB			; std::_Num_base::is_modulo
PUBLIC	?is_signed@_Num_base@std@@2_NB			; std::_Num_base::is_signed
PUBLIC	?is_specialized@_Num_base@std@@2_NB		; std::_Num_base::is_specialized
PUBLIC	?tinyness_before@_Num_base@std@@2_NB		; std::_Num_base::tinyness_before
PUBLIC	?traps@_Num_base@std@@2_NB			; std::_Num_base::traps
PUBLIC	?round_style@_Num_base@std@@2W4float_round_style@2@B ; std::_Num_base::round_style
PUBLIC	?digits@_Num_base@std@@2HB			; std::_Num_base::digits
PUBLIC	?digits10@_Num_base@std@@2HB			; std::_Num_base::digits10
PUBLIC	?max_digits10@_Num_base@std@@2HB		; std::_Num_base::max_digits10
PUBLIC	?max_exponent@_Num_base@std@@2HB		; std::_Num_base::max_exponent
PUBLIC	?max_exponent10@_Num_base@std@@2HB		; std::_Num_base::max_exponent10
PUBLIC	?min_exponent@_Num_base@std@@2HB		; std::_Num_base::min_exponent
PUBLIC	?min_exponent10@_Num_base@std@@2HB		; std::_Num_base::min_exponent10
PUBLIC	?radix@_Num_base@std@@2HB			; std::_Num_base::radix
PUBLIC	?is_bounded@_Num_int_base@std@@2_NB		; std::_Num_int_base::is_bounded
PUBLIC	?is_exact@_Num_int_base@std@@2_NB		; std::_Num_int_base::is_exact
PUBLIC	?is_integer@_Num_int_base@std@@2_NB		; std::_Num_int_base::is_integer
PUBLIC	?is_modulo@_Num_int_base@std@@2_NB		; std::_Num_int_base::is_modulo
PUBLIC	?is_specialized@_Num_int_base@std@@2_NB		; std::_Num_int_base::is_specialized
PUBLIC	?radix@_Num_int_base@std@@2HB			; std::_Num_int_base::radix
PUBLIC	?has_denorm@_Num_float_base@std@@2W4float_denorm_style@2@B ; std::_Num_float_base::has_denorm
PUBLIC	?has_denorm_loss@_Num_float_base@std@@2_NB	; std::_Num_float_base::has_denorm_loss
PUBLIC	?has_infinity@_Num_float_base@std@@2_NB		; std::_Num_float_base::has_infinity
PUBLIC	?has_quiet_NaN@_Num_float_base@std@@2_NB	; std::_Num_float_base::has_quiet_NaN
PUBLIC	?has_signaling_NaN@_Num_float_base@std@@2_NB	; std::_Num_float_base::has_signaling_NaN
PUBLIC	?is_bounded@_Num_float_base@std@@2_NB		; std::_Num_float_base::is_bounded
PUBLIC	?is_exact@_Num_float_base@std@@2_NB		; std::_Num_float_base::is_exact
PUBLIC	?is_iec559@_Num_float_base@std@@2_NB		; std::_Num_float_base::is_iec559
PUBLIC	?is_integer@_Num_float_base@std@@2_NB		; std::_Num_float_base::is_integer
PUBLIC	?is_modulo@_Num_float_base@std@@2_NB		; std::_Num_float_base::is_modulo
PUBLIC	?is_signed@_Num_float_base@std@@2_NB		; std::_Num_float_base::is_signed
PUBLIC	?is_specialized@_Num_float_base@std@@2_NB	; std::_Num_float_base::is_specialized
PUBLIC	?tinyness_before@_Num_float_base@std@@2_NB	; std::_Num_float_base::tinyness_before
PUBLIC	?traps@_Num_float_base@std@@2_NB		; std::_Num_float_base::traps
PUBLIC	?round_style@_Num_float_base@std@@2W4float_round_style@2@B ; std::_Num_float_base::round_style
PUBLIC	?radix@_Num_float_base@std@@2HB			; std::_Num_float_base::radix
PUBLIC	?is_signed@?$numeric_limits@D@std@@2_NB		; std::numeric_limits<char>::is_signed
PUBLIC	?digits@?$numeric_limits@D@std@@2HB		; std::numeric_limits<char>::digits
PUBLIC	?digits10@?$numeric_limits@D@std@@2HB		; std::numeric_limits<char>::digits10
PUBLIC	?max_digits10@?$numeric_limits@D@std@@2HB	; std::numeric_limits<char>::max_digits10
PUBLIC	?is_signed@?$numeric_limits@_W@std@@2_NB	; std::numeric_limits<wchar_t>::is_signed
PUBLIC	?digits@?$numeric_limits@_W@std@@2HB		; std::numeric_limits<wchar_t>::digits
PUBLIC	?digits10@?$numeric_limits@_W@std@@2HB		; std::numeric_limits<wchar_t>::digits10
PUBLIC	?max_digits10@?$numeric_limits@_W@std@@2HB	; std::numeric_limits<wchar_t>::max_digits10
PUBLIC	?is_modulo@?$numeric_limits@_N@std@@2_NB	; std::numeric_limits<bool>::is_modulo
PUBLIC	?is_signed@?$numeric_limits@_N@std@@2_NB	; std::numeric_limits<bool>::is_signed
PUBLIC	?digits@?$numeric_limits@_N@std@@2HB		; std::numeric_limits<bool>::digits
PUBLIC	?digits10@?$numeric_limits@_N@std@@2HB		; std::numeric_limits<bool>::digits10
PUBLIC	?max_digits10@?$numeric_limits@_N@std@@2HB	; std::numeric_limits<bool>::max_digits10
PUBLIC	?is_signed@?$numeric_limits@C@std@@2_NB		; std::numeric_limits<signed char>::is_signed
PUBLIC	?digits@?$numeric_limits@C@std@@2HB		; std::numeric_limits<signed char>::digits
PUBLIC	?digits10@?$numeric_limits@C@std@@2HB		; std::numeric_limits<signed char>::digits10
PUBLIC	?max_digits10@?$numeric_limits@C@std@@2HB	; std::numeric_limits<signed char>::max_digits10
PUBLIC	?is_signed@?$numeric_limits@E@std@@2_NB		; std::numeric_limits<unsigned char>::is_signed
PUBLIC	?digits@?$numeric_limits@E@std@@2HB		; std::numeric_limits<unsigned char>::digits
PUBLIC	?digits10@?$numeric_limits@E@std@@2HB		; std::numeric_limits<unsigned char>::digits10
PUBLIC	?max_digits10@?$numeric_limits@E@std@@2HB	; std::numeric_limits<unsigned char>::max_digits10
PUBLIC	?is_signed@?$numeric_limits@F@std@@2_NB		; std::numeric_limits<short>::is_signed
PUBLIC	?digits@?$numeric_limits@F@std@@2HB		; std::numeric_limits<short>::digits
PUBLIC	?digits10@?$numeric_limits@F@std@@2HB		; std::numeric_limits<short>::digits10
PUBLIC	?max_digits10@?$numeric_limits@F@std@@2HB	; std::numeric_limits<short>::max_digits10
PUBLIC	?is_signed@?$numeric_limits@G@std@@2_NB		; std::numeric_limits<unsigned short>::is_signed
PUBLIC	?digits@?$numeric_limits@G@std@@2HB		; std::numeric_limits<unsigned short>::digits
PUBLIC	?digits10@?$numeric_limits@G@std@@2HB		; std::numeric_limits<unsigned short>::digits10
PUBLIC	?max_digits10@?$numeric_limits@G@std@@2HB	; std::numeric_limits<unsigned short>::max_digits10
PUBLIC	?is_signed@?$numeric_limits@H@std@@2_NB		; std::numeric_limits<int>::is_signed
PUBLIC	?digits@?$numeric_limits@H@std@@2HB		; std::numeric_limits<int>::digits
PUBLIC	?digits10@?$numeric_limits@H@std@@2HB		; std::numeric_limits<int>::digits10
PUBLIC	?max_digits10@?$numeric_limits@H@std@@2HB	; std::numeric_limits<int>::max_digits10
PUBLIC	?is_signed@?$numeric_limits@I@std@@2_NB		; std::numeric_limits<unsigned int>::is_signed
PUBLIC	?digits@?$numeric_limits@I@std@@2HB		; std::numeric_limits<unsigned int>::digits
PUBLIC	?digits10@?$numeric_limits@I@std@@2HB		; std::numeric_limits<unsigned int>::digits10
PUBLIC	?max_digits10@?$numeric_limits@I@std@@2HB	; std::numeric_limits<unsigned int>::max_digits10
PUBLIC	?is_signed@?$numeric_limits@J@std@@2_NB		; std::numeric_limits<long>::is_signed
PUBLIC	?digits@?$numeric_limits@J@std@@2HB		; std::numeric_limits<long>::digits
PUBLIC	?digits10@?$numeric_limits@J@std@@2HB		; std::numeric_limits<long>::digits10
PUBLIC	?max_digits10@?$numeric_limits@J@std@@2HB	; std::numeric_limits<long>::max_digits10
PUBLIC	?is_signed@?$numeric_limits@K@std@@2_NB		; std::numeric_limits<unsigned long>::is_signed
PUBLIC	?digits@?$numeric_limits@K@std@@2HB		; std::numeric_limits<unsigned long>::digits
PUBLIC	?digits10@?$numeric_limits@K@std@@2HB		; std::numeric_limits<unsigned long>::digits10
PUBLIC	?max_digits10@?$numeric_limits@K@std@@2HB	; std::numeric_limits<unsigned long>::max_digits10
PUBLIC	?is_signed@?$numeric_limits@_J@std@@2_NB	; std::numeric_limits<__int64>::is_signed
PUBLIC	?digits@?$numeric_limits@_J@std@@2HB		; std::numeric_limits<__int64>::digits
PUBLIC	?digits10@?$numeric_limits@_J@std@@2HB		; std::numeric_limits<__int64>::digits10
PUBLIC	?max_digits10@?$numeric_limits@_J@std@@2HB	; std::numeric_limits<__int64>::max_digits10
PUBLIC	?is_signed@?$numeric_limits@_K@std@@2_NB	; std::numeric_limits<unsigned __int64>::is_signed
PUBLIC	?digits@?$numeric_limits@_K@std@@2HB		; std::numeric_limits<unsigned __int64>::digits
PUBLIC	?digits10@?$numeric_limits@_K@std@@2HB		; std::numeric_limits<unsigned __int64>::digits10
PUBLIC	?max_digits10@?$numeric_limits@_K@std@@2HB	; std::numeric_limits<unsigned __int64>::max_digits10
PUBLIC	?digits@?$numeric_limits@M@std@@2HB		; std::numeric_limits<float>::digits
PUBLIC	?digits10@?$numeric_limits@M@std@@2HB		; std::numeric_limits<float>::digits10
PUBLIC	?max_digits10@?$numeric_limits@M@std@@2HB	; std::numeric_limits<float>::max_digits10
PUBLIC	?max_exponent@?$numeric_limits@M@std@@2HB	; std::numeric_limits<float>::max_exponent
PUBLIC	?max_exponent10@?$numeric_limits@M@std@@2HB	; std::numeric_limits<float>::max_exponent10
PUBLIC	?min_exponent@?$numeric_limits@M@std@@2HB	; std::numeric_limits<float>::min_exponent
PUBLIC	?min_exponent10@?$numeric_limits@M@std@@2HB	; std::numeric_limits<float>::min_exponent10
PUBLIC	?digits@?$numeric_limits@N@std@@2HB		; std::numeric_limits<double>::digits
PUBLIC	?digits10@?$numeric_limits@N@std@@2HB		; std::numeric_limits<double>::digits10
PUBLIC	?max_digits10@?$numeric_limits@N@std@@2HB	; std::numeric_limits<double>::max_digits10
PUBLIC	?max_exponent@?$numeric_limits@N@std@@2HB	; std::numeric_limits<double>::max_exponent
PUBLIC	?max_exponent10@?$numeric_limits@N@std@@2HB	; std::numeric_limits<double>::max_exponent10
PUBLIC	?min_exponent@?$numeric_limits@N@std@@2HB	; std::numeric_limits<double>::min_exponent
PUBLIC	?min_exponent10@?$numeric_limits@N@std@@2HB	; std::numeric_limits<double>::min_exponent10
PUBLIC	?digits@?$numeric_limits@O@std@@2HB		; std::numeric_limits<long double>::digits
PUBLIC	?digits10@?$numeric_limits@O@std@@2HB		; std::numeric_limits<long double>::digits10
PUBLIC	?max_digits10@?$numeric_limits@O@std@@2HB	; std::numeric_limits<long double>::max_digits10
PUBLIC	?max_exponent@?$numeric_limits@O@std@@2HB	; std::numeric_limits<long double>::max_exponent
PUBLIC	?max_exponent10@?$numeric_limits@O@std@@2HB	; std::numeric_limits<long double>::max_exponent10
PUBLIC	?min_exponent@?$numeric_limits@O@std@@2HB	; std::numeric_limits<long double>::min_exponent
PUBLIC	?min_exponent10@?$numeric_limits@O@std@@2HB	; std::numeric_limits<long double>::min_exponent10
PUBLIC	?value@?$integral_constant@_N$0A@@tr1@std@@2_NB	; std::tr1::integral_constant<bool,0>::value
PUBLIC	?value@?$integral_constant@_N$00@tr1@std@@2_NB	; std::tr1::integral_constant<bool,1>::value
PUBLIC	?value@?$integral_constant@I$0A@@tr1@std@@2IB	; std::tr1::integral_constant<unsigned int,0>::value
PUBLIC	?_Rank@?$_Arithmetic_traits@_N@std@@2HB		; std::_Arithmetic_traits<bool>::_Rank
PUBLIC	?_Rank@?$_Arithmetic_traits@D@std@@2HB		; std::_Arithmetic_traits<char>::_Rank
PUBLIC	?_Rank@?$_Arithmetic_traits@C@std@@2HB		; std::_Arithmetic_traits<signed char>::_Rank
PUBLIC	?_Rank@?$_Arithmetic_traits@E@std@@2HB		; std::_Arithmetic_traits<unsigned char>::_Rank
PUBLIC	?_Rank@?$_Arithmetic_traits@F@std@@2HB		; std::_Arithmetic_traits<short>::_Rank
PUBLIC	?_Rank@?$_Arithmetic_traits@G@std@@2HB		; std::_Arithmetic_traits<unsigned short>::_Rank
PUBLIC	?_Rank@?$_Arithmetic_traits@H@std@@2HB		; std::_Arithmetic_traits<int>::_Rank
PUBLIC	?_Rank@?$_Arithmetic_traits@I@std@@2HB		; std::_Arithmetic_traits<unsigned int>::_Rank
PUBLIC	?_Rank@?$_Arithmetic_traits@J@std@@2HB		; std::_Arithmetic_traits<long>::_Rank
PUBLIC	?_Rank@?$_Arithmetic_traits@K@std@@2HB		; std::_Arithmetic_traits<unsigned long>::_Rank
PUBLIC	?_Rank@?$_Arithmetic_traits@_J@std@@2HB		; std::_Arithmetic_traits<__int64>::_Rank
PUBLIC	?_Rank@?$_Arithmetic_traits@_K@std@@2HB		; std::_Arithmetic_traits<unsigned __int64>::_Rank
PUBLIC	?_Rank@?$_Arithmetic_traits@M@std@@2HB		; std::_Arithmetic_traits<float>::_Rank
PUBLIC	?_Rank@?$_Arithmetic_traits@N@std@@2HB		; std::_Arithmetic_traits<double>::_Rank
PUBLIC	?_Rank@?$_Arithmetic_traits@O@std@@2HB		; std::_Arithmetic_traits<long double>::_Rank
PUBLIC	?collate@?$_Locbase@H@std@@2HB			; std::_Locbase<int>::collate
PUBLIC	?ctype@?$_Locbase@H@std@@2HB			; std::_Locbase<int>::ctype
PUBLIC	?monetary@?$_Locbase@H@std@@2HB			; std::_Locbase<int>::monetary
PUBLIC	?numeric@?$_Locbase@H@std@@2HB			; std::_Locbase<int>::numeric
PUBLIC	?time@?$_Locbase@H@std@@2HB			; std::_Locbase<int>::time
PUBLIC	?messages@?$_Locbase@H@std@@2HB			; std::_Locbase<int>::messages
PUBLIC	?all@?$_Locbase@H@std@@2HB			; std::_Locbase<int>::all
PUBLIC	?none@?$_Locbase@H@std@@2HB			; std::_Locbase<int>::none
PUBLIC	?table_size@?$ctype@D@std@@2IB			; std::ctype<char>::table_size
PUBLIC	?skipws@?$_Iosb@H@std@@2W4_Fmtflags@12@B	; std::_Iosb<int>::skipws
PUBLIC	?unitbuf@?$_Iosb@H@std@@2W4_Fmtflags@12@B	; std::_Iosb<int>::unitbuf
PUBLIC	?uppercase@?$_Iosb@H@std@@2W4_Fmtflags@12@B	; std::_Iosb<int>::uppercase
PUBLIC	?showbase@?$_Iosb@H@std@@2W4_Fmtflags@12@B	; std::_Iosb<int>::showbase
PUBLIC	?showpoint@?$_Iosb@H@std@@2W4_Fmtflags@12@B	; std::_Iosb<int>::showpoint
PUBLIC	?showpos@?$_Iosb@H@std@@2W4_Fmtflags@12@B	; std::_Iosb<int>::showpos
PUBLIC	?left@?$_Iosb@H@std@@2W4_Fmtflags@12@B		; std::_Iosb<int>::left
PUBLIC	?right@?$_Iosb@H@std@@2W4_Fmtflags@12@B		; std::_Iosb<int>::right
PUBLIC	?internal@?$_Iosb@H@std@@2W4_Fmtflags@12@B	; std::_Iosb<int>::internal
PUBLIC	?dec@?$_Iosb@H@std@@2W4_Fmtflags@12@B		; std::_Iosb<int>::dec
PUBLIC	?oct@?$_Iosb@H@std@@2W4_Fmtflags@12@B		; std::_Iosb<int>::oct
PUBLIC	?hex@?$_Iosb@H@std@@2W4_Fmtflags@12@B		; std::_Iosb<int>::hex
PUBLIC	?scientific@?$_Iosb@H@std@@2W4_Fmtflags@12@B	; std::_Iosb<int>::scientific
PUBLIC	?fixed@?$_Iosb@H@std@@2W4_Fmtflags@12@B		; std::_Iosb<int>::fixed
PUBLIC	?hexfloat@?$_Iosb@H@std@@2W4_Fmtflags@12@B	; std::_Iosb<int>::hexfloat
PUBLIC	?boolalpha@?$_Iosb@H@std@@2W4_Fmtflags@12@B	; std::_Iosb<int>::boolalpha
PUBLIC	?_Stdio@?$_Iosb@H@std@@2W4_Fmtflags@12@B	; std::_Iosb<int>::_Stdio
PUBLIC	?adjustfield@?$_Iosb@H@std@@2W4_Fmtflags@12@B	; std::_Iosb<int>::adjustfield
PUBLIC	?basefield@?$_Iosb@H@std@@2W4_Fmtflags@12@B	; std::_Iosb<int>::basefield
PUBLIC	?floatfield@?$_Iosb@H@std@@2W4_Fmtflags@12@B	; std::_Iosb<int>::floatfield
PUBLIC	?goodbit@?$_Iosb@H@std@@2W4_Iostate@12@B	; std::_Iosb<int>::goodbit
PUBLIC	?eofbit@?$_Iosb@H@std@@2W4_Iostate@12@B		; std::_Iosb<int>::eofbit
PUBLIC	?failbit@?$_Iosb@H@std@@2W4_Iostate@12@B	; std::_Iosb<int>::failbit
PUBLIC	?badbit@?$_Iosb@H@std@@2W4_Iostate@12@B		; std::_Iosb<int>::badbit
PUBLIC	?_Hardfail@?$_Iosb@H@std@@2W4_Iostate@12@B	; std::_Iosb<int>::_Hardfail
PUBLIC	?in@?$_Iosb@H@std@@2W4_Openmode@12@B		; std::_Iosb<int>::in
PUBLIC	?out@?$_Iosb@H@std@@2W4_Openmode@12@B		; std::_Iosb<int>::out
PUBLIC	?ate@?$_Iosb@H@std@@2W4_Openmode@12@B		; std::_Iosb<int>::ate
PUBLIC	?app@?$_Iosb@H@std@@2W4_Openmode@12@B		; std::_Iosb<int>::app
PUBLIC	?trunc@?$_Iosb@H@std@@2W4_Openmode@12@B		; std::_Iosb<int>::trunc
PUBLIC	?_Nocreate@?$_Iosb@H@std@@2W4_Openmode@12@B	; std::_Iosb<int>::_Nocreate
PUBLIC	?_Noreplace@?$_Iosb@H@std@@2W4_Openmode@12@B	; std::_Iosb<int>::_Noreplace
PUBLIC	?binary@?$_Iosb@H@std@@2W4_Openmode@12@B	; std::_Iosb<int>::binary
PUBLIC	?beg@?$_Iosb@H@std@@2W4_Seekdir@12@B		; std::_Iosb<int>::beg
PUBLIC	?cur@?$_Iosb@H@std@@2W4_Seekdir@12@B		; std::_Iosb<int>::cur
PUBLIC	?end@?$_Iosb@H@std@@2W4_Seekdir@12@B		; std::_Iosb<int>::end
_BSS	SEGMENT
_err	DD	01H DUP (?)
_platform_id DD	01H DUP (?)
_device_id DD	01H DUP (?)
_context DD	01H DUP (?)
_queue	DD	01H DUP (?)
_program DD	01H DUP (?)
_kernel	DD	01H DUP (?)
_mem_state DD	01H DUP (?)
_mem_roundkeys DD 01H DUP (?)
_BSS	ENDS
;	COMDAT ??_C@_0FP@CIEIGBBB@C?3?1Users?1tdrol?1Documents?1Visual?5@
CONST	SEGMENT
??_C@_0FP@CIEIGBBB@C?3?1Users?1tdrol?1Documents?1Visual?5@ DB 'C:/Users/t'
	DB	'drol/Documents/Visual Studio 2010/Projects/analizator/Release'
	DB	'/kernels/aes_encrypt.cl', 00H		; `string'
CONST	ENDS
;	COMDAT ?end@?$_Iosb@H@std@@2W4_Seekdir@12@B
CONST	SEGMENT
?end@?$_Iosb@H@std@@2W4_Seekdir@12@B DD 02H		; std::_Iosb<int>::end
CONST	ENDS
;	COMDAT ?cur@?$_Iosb@H@std@@2W4_Seekdir@12@B
CONST	SEGMENT
?cur@?$_Iosb@H@std@@2W4_Seekdir@12@B DD 01H		; std::_Iosb<int>::cur
CONST	ENDS
;	COMDAT ?beg@?$_Iosb@H@std@@2W4_Seekdir@12@B
CONST	SEGMENT
?beg@?$_Iosb@H@std@@2W4_Seekdir@12@B DD 00H		; std::_Iosb<int>::beg
CONST	ENDS
;	COMDAT ?binary@?$_Iosb@H@std@@2W4_Openmode@12@B
CONST	SEGMENT
?binary@?$_Iosb@H@std@@2W4_Openmode@12@B DD 020H	; std::_Iosb<int>::binary
CONST	ENDS
;	COMDAT ?_Noreplace@?$_Iosb@H@std@@2W4_Openmode@12@B
CONST	SEGMENT
?_Noreplace@?$_Iosb@H@std@@2W4_Openmode@12@B DD 080H	; std::_Iosb<int>::_Noreplace
CONST	ENDS
;	COMDAT ?_Nocreate@?$_Iosb@H@std@@2W4_Openmode@12@B
CONST	SEGMENT
?_Nocreate@?$_Iosb@H@std@@2W4_Openmode@12@B DD 040H	; std::_Iosb<int>::_Nocreate
CONST	ENDS
;	COMDAT ?trunc@?$_Iosb@H@std@@2W4_Openmode@12@B
CONST	SEGMENT
?trunc@?$_Iosb@H@std@@2W4_Openmode@12@B DD 010H		; std::_Iosb<int>::trunc
CONST	ENDS
;	COMDAT ?app@?$_Iosb@H@std@@2W4_Openmode@12@B
CONST	SEGMENT
?app@?$_Iosb@H@std@@2W4_Openmode@12@B DD 08H		; std::_Iosb<int>::app
CONST	ENDS
;	COMDAT ?ate@?$_Iosb@H@std@@2W4_Openmode@12@B
CONST	SEGMENT
?ate@?$_Iosb@H@std@@2W4_Openmode@12@B DD 04H		; std::_Iosb<int>::ate
CONST	ENDS
;	COMDAT ?out@?$_Iosb@H@std@@2W4_Openmode@12@B
CONST	SEGMENT
?out@?$_Iosb@H@std@@2W4_Openmode@12@B DD 02H		; std::_Iosb<int>::out
CONST	ENDS
;	COMDAT ?in@?$_Iosb@H@std@@2W4_Openmode@12@B
CONST	SEGMENT
?in@?$_Iosb@H@std@@2W4_Openmode@12@B DD 01H		; std::_Iosb<int>::in
CONST	ENDS
;	COMDAT ?_Hardfail@?$_Iosb@H@std@@2W4_Iostate@12@B
CONST	SEGMENT
?_Hardfail@?$_Iosb@H@std@@2W4_Iostate@12@B DD 010H	; std::_Iosb<int>::_Hardfail
CONST	ENDS
;	COMDAT ?badbit@?$_Iosb@H@std@@2W4_Iostate@12@B
CONST	SEGMENT
?badbit@?$_Iosb@H@std@@2W4_Iostate@12@B DD 04H		; std::_Iosb<int>::badbit
CONST	ENDS
;	COMDAT ?failbit@?$_Iosb@H@std@@2W4_Iostate@12@B
CONST	SEGMENT
?failbit@?$_Iosb@H@std@@2W4_Iostate@12@B DD 02H		; std::_Iosb<int>::failbit
CONST	ENDS
;	COMDAT ?eofbit@?$_Iosb@H@std@@2W4_Iostate@12@B
CONST	SEGMENT
?eofbit@?$_Iosb@H@std@@2W4_Iostate@12@B DD 01H		; std::_Iosb<int>::eofbit
CONST	ENDS
;	COMDAT ?goodbit@?$_Iosb@H@std@@2W4_Iostate@12@B
CONST	SEGMENT
?goodbit@?$_Iosb@H@std@@2W4_Iostate@12@B DD 00H		; std::_Iosb<int>::goodbit
CONST	ENDS
;	COMDAT ?floatfield@?$_Iosb@H@std@@2W4_Fmtflags@12@B
CONST	SEGMENT
?floatfield@?$_Iosb@H@std@@2W4_Fmtflags@12@B DD 03000H	; std::_Iosb<int>::floatfield
CONST	ENDS
;	COMDAT ?basefield@?$_Iosb@H@std@@2W4_Fmtflags@12@B
CONST	SEGMENT
?basefield@?$_Iosb@H@std@@2W4_Fmtflags@12@B DD 0e00H	; std::_Iosb<int>::basefield
CONST	ENDS
;	COMDAT ?adjustfield@?$_Iosb@H@std@@2W4_Fmtflags@12@B
CONST	SEGMENT
?adjustfield@?$_Iosb@H@std@@2W4_Fmtflags@12@B DD 01c0H	; std::_Iosb<int>::adjustfield
CONST	ENDS
;	COMDAT ?_Stdio@?$_Iosb@H@std@@2W4_Fmtflags@12@B
CONST	SEGMENT
?_Stdio@?$_Iosb@H@std@@2W4_Fmtflags@12@B DD 08000H	; std::_Iosb<int>::_Stdio
CONST	ENDS
;	COMDAT ?boolalpha@?$_Iosb@H@std@@2W4_Fmtflags@12@B
CONST	SEGMENT
?boolalpha@?$_Iosb@H@std@@2W4_Fmtflags@12@B DD 04000H	; std::_Iosb<int>::boolalpha
CONST	ENDS
;	COMDAT ?hexfloat@?$_Iosb@H@std@@2W4_Fmtflags@12@B
CONST	SEGMENT
?hexfloat@?$_Iosb@H@std@@2W4_Fmtflags@12@B DD 03000H	; std::_Iosb<int>::hexfloat
CONST	ENDS
;	COMDAT ?fixed@?$_Iosb@H@std@@2W4_Fmtflags@12@B
CONST	SEGMENT
?fixed@?$_Iosb@H@std@@2W4_Fmtflags@12@B DD 02000H	; std::_Iosb<int>::fixed
CONST	ENDS
;	COMDAT ?scientific@?$_Iosb@H@std@@2W4_Fmtflags@12@B
CONST	SEGMENT
?scientific@?$_Iosb@H@std@@2W4_Fmtflags@12@B DD 01000H	; std::_Iosb<int>::scientific
CONST	ENDS
;	COMDAT ?hex@?$_Iosb@H@std@@2W4_Fmtflags@12@B
CONST	SEGMENT
?hex@?$_Iosb@H@std@@2W4_Fmtflags@12@B DD 0800H		; std::_Iosb<int>::hex
CONST	ENDS
;	COMDAT ?oct@?$_Iosb@H@std@@2W4_Fmtflags@12@B
CONST	SEGMENT
?oct@?$_Iosb@H@std@@2W4_Fmtflags@12@B DD 0400H		; std::_Iosb<int>::oct
CONST	ENDS
;	COMDAT ?dec@?$_Iosb@H@std@@2W4_Fmtflags@12@B
CONST	SEGMENT
?dec@?$_Iosb@H@std@@2W4_Fmtflags@12@B DD 0200H		; std::_Iosb<int>::dec
CONST	ENDS
;	COMDAT ?internal@?$_Iosb@H@std@@2W4_Fmtflags@12@B
CONST	SEGMENT
?internal@?$_Iosb@H@std@@2W4_Fmtflags@12@B DD 0100H	; std::_Iosb<int>::internal
CONST	ENDS
;	COMDAT ?right@?$_Iosb@H@std@@2W4_Fmtflags@12@B
CONST	SEGMENT
?right@?$_Iosb@H@std@@2W4_Fmtflags@12@B DD 080H		; std::_Iosb<int>::right
CONST	ENDS
;	COMDAT ?left@?$_Iosb@H@std@@2W4_Fmtflags@12@B
CONST	SEGMENT
?left@?$_Iosb@H@std@@2W4_Fmtflags@12@B DD 040H		; std::_Iosb<int>::left
CONST	ENDS
;	COMDAT ?showpos@?$_Iosb@H@std@@2W4_Fmtflags@12@B
CONST	SEGMENT
?showpos@?$_Iosb@H@std@@2W4_Fmtflags@12@B DD 020H	; std::_Iosb<int>::showpos
CONST	ENDS
;	COMDAT ?showpoint@?$_Iosb@H@std@@2W4_Fmtflags@12@B
CONST	SEGMENT
?showpoint@?$_Iosb@H@std@@2W4_Fmtflags@12@B DD 010H	; std::_Iosb<int>::showpoint
CONST	ENDS
;	COMDAT ?showbase@?$_Iosb@H@std@@2W4_Fmtflags@12@B
CONST	SEGMENT
?showbase@?$_Iosb@H@std@@2W4_Fmtflags@12@B DD 08H	; std::_Iosb<int>::showbase
CONST	ENDS
;	COMDAT ?uppercase@?$_Iosb@H@std@@2W4_Fmtflags@12@B
CONST	SEGMENT
?uppercase@?$_Iosb@H@std@@2W4_Fmtflags@12@B DD 04H	; std::_Iosb<int>::uppercase
CONST	ENDS
;	COMDAT ?unitbuf@?$_Iosb@H@std@@2W4_Fmtflags@12@B
CONST	SEGMENT
?unitbuf@?$_Iosb@H@std@@2W4_Fmtflags@12@B DD 02H	; std::_Iosb<int>::unitbuf
CONST	ENDS
;	COMDAT ?skipws@?$_Iosb@H@std@@2W4_Fmtflags@12@B
CONST	SEGMENT
?skipws@?$_Iosb@H@std@@2W4_Fmtflags@12@B DD 01H		; std::_Iosb<int>::skipws
CONST	ENDS
;	COMDAT ?table_size@?$ctype@D@std@@2IB
CONST	SEGMENT
?table_size@?$ctype@D@std@@2IB DD 0100H			; std::ctype<char>::table_size
CONST	ENDS
;	COMDAT ?none@?$_Locbase@H@std@@2HB
CONST	SEGMENT
?none@?$_Locbase@H@std@@2HB DD 00H			; std::_Locbase<int>::none
CONST	ENDS
;	COMDAT ?all@?$_Locbase@H@std@@2HB
CONST	SEGMENT
?all@?$_Locbase@H@std@@2HB DD 03fH			; std::_Locbase<int>::all
CONST	ENDS
;	COMDAT ?messages@?$_Locbase@H@std@@2HB
CONST	SEGMENT
?messages@?$_Locbase@H@std@@2HB DD 020H			; std::_Locbase<int>::messages
CONST	ENDS
;	COMDAT ?time@?$_Locbase@H@std@@2HB
CONST	SEGMENT
?time@?$_Locbase@H@std@@2HB DD 010H			; std::_Locbase<int>::time
CONST	ENDS
;	COMDAT ?numeric@?$_Locbase@H@std@@2HB
CONST	SEGMENT
?numeric@?$_Locbase@H@std@@2HB DD 08H			; std::_Locbase<int>::numeric
CONST	ENDS
;	COMDAT ?monetary@?$_Locbase@H@std@@2HB
CONST	SEGMENT
?monetary@?$_Locbase@H@std@@2HB DD 04H			; std::_Locbase<int>::monetary
CONST	ENDS
;	COMDAT ?ctype@?$_Locbase@H@std@@2HB
CONST	SEGMENT
?ctype@?$_Locbase@H@std@@2HB DD 02H			; std::_Locbase<int>::ctype
CONST	ENDS
;	COMDAT ?collate@?$_Locbase@H@std@@2HB
CONST	SEGMENT
?collate@?$_Locbase@H@std@@2HB DD 01H			; std::_Locbase<int>::collate
CONST	ENDS
;	COMDAT ?_Rank@?$_Arithmetic_traits@O@std@@2HB
CONST	SEGMENT
?_Rank@?$_Arithmetic_traits@O@std@@2HB DD 09H		; std::_Arithmetic_traits<long double>::_Rank
CONST	ENDS
;	COMDAT ?_Rank@?$_Arithmetic_traits@N@std@@2HB
CONST	SEGMENT
?_Rank@?$_Arithmetic_traits@N@std@@2HB DD 08H		; std::_Arithmetic_traits<double>::_Rank
CONST	ENDS
;	COMDAT ?_Rank@?$_Arithmetic_traits@M@std@@2HB
CONST	SEGMENT
?_Rank@?$_Arithmetic_traits@M@std@@2HB DD 07H		; std::_Arithmetic_traits<float>::_Rank
CONST	ENDS
;	COMDAT ?_Rank@?$_Arithmetic_traits@_K@std@@2HB
CONST	SEGMENT
?_Rank@?$_Arithmetic_traits@_K@std@@2HB DD 06H		; std::_Arithmetic_traits<unsigned __int64>::_Rank
CONST	ENDS
;	COMDAT ?_Rank@?$_Arithmetic_traits@_J@std@@2HB
CONST	SEGMENT
?_Rank@?$_Arithmetic_traits@_J@std@@2HB DD 06H		; std::_Arithmetic_traits<__int64>::_Rank
CONST	ENDS
;	COMDAT ?_Rank@?$_Arithmetic_traits@K@std@@2HB
CONST	SEGMENT
?_Rank@?$_Arithmetic_traits@K@std@@2HB DD 05H		; std::_Arithmetic_traits<unsigned long>::_Rank
CONST	ENDS
;	COMDAT ?_Rank@?$_Arithmetic_traits@J@std@@2HB
CONST	SEGMENT
?_Rank@?$_Arithmetic_traits@J@std@@2HB DD 05H		; std::_Arithmetic_traits<long>::_Rank
CONST	ENDS
;	COMDAT ?_Rank@?$_Arithmetic_traits@I@std@@2HB
CONST	SEGMENT
?_Rank@?$_Arithmetic_traits@I@std@@2HB DD 04H		; std::_Arithmetic_traits<unsigned int>::_Rank
CONST	ENDS
;	COMDAT ?_Rank@?$_Arithmetic_traits@H@std@@2HB
CONST	SEGMENT
?_Rank@?$_Arithmetic_traits@H@std@@2HB DD 04H		; std::_Arithmetic_traits<int>::_Rank
CONST	ENDS
;	COMDAT ?_Rank@?$_Arithmetic_traits@G@std@@2HB
CONST	SEGMENT
?_Rank@?$_Arithmetic_traits@G@std@@2HB DD 03H		; std::_Arithmetic_traits<unsigned short>::_Rank
CONST	ENDS
;	COMDAT ?_Rank@?$_Arithmetic_traits@F@std@@2HB
CONST	SEGMENT
?_Rank@?$_Arithmetic_traits@F@std@@2HB DD 03H		; std::_Arithmetic_traits<short>::_Rank
CONST	ENDS
;	COMDAT ?_Rank@?$_Arithmetic_traits@E@std@@2HB
CONST	SEGMENT
?_Rank@?$_Arithmetic_traits@E@std@@2HB DD 02H		; std::_Arithmetic_traits<unsigned char>::_Rank
CONST	ENDS
;	COMDAT ?_Rank@?$_Arithmetic_traits@C@std@@2HB
CONST	SEGMENT
?_Rank@?$_Arithmetic_traits@C@std@@2HB DD 02H		; std::_Arithmetic_traits<signed char>::_Rank
CONST	ENDS
;	COMDAT ?_Rank@?$_Arithmetic_traits@D@std@@2HB
CONST	SEGMENT
?_Rank@?$_Arithmetic_traits@D@std@@2HB DD 02H		; std::_Arithmetic_traits<char>::_Rank
CONST	ENDS
;	COMDAT ?_Rank@?$_Arithmetic_traits@_N@std@@2HB
CONST	SEGMENT
?_Rank@?$_Arithmetic_traits@_N@std@@2HB DD 01H		; std::_Arithmetic_traits<bool>::_Rank
CONST	ENDS
;	COMDAT ?value@?$integral_constant@I$0A@@tr1@std@@2IB
CONST	SEGMENT
?value@?$integral_constant@I$0A@@tr1@std@@2IB DD 00H	; std::tr1::integral_constant<unsigned int,0>::value
CONST	ENDS
;	COMDAT ?value@?$integral_constant@_N$00@tr1@std@@2_NB
CONST	SEGMENT
?value@?$integral_constant@_N$00@tr1@std@@2_NB DB 01H	; std::tr1::integral_constant<bool,1>::value
CONST	ENDS
;	COMDAT ?value@?$integral_constant@_N$0A@@tr1@std@@2_NB
CONST	SEGMENT
?value@?$integral_constant@_N$0A@@tr1@std@@2_NB DB 00H	; std::tr1::integral_constant<bool,0>::value
CONST	ENDS
;	COMDAT ?min_exponent10@?$numeric_limits@O@std@@2HB
CONST	SEGMENT
?min_exponent10@?$numeric_limits@O@std@@2HB DD 0fffffecdH ; std::numeric_limits<long double>::min_exponent10
CONST	ENDS
;	COMDAT ?min_exponent@?$numeric_limits@O@std@@2HB
CONST	SEGMENT
?min_exponent@?$numeric_limits@O@std@@2HB DD 0fffffc03H	; std::numeric_limits<long double>::min_exponent
CONST	ENDS
;	COMDAT ?max_exponent10@?$numeric_limits@O@std@@2HB
CONST	SEGMENT
?max_exponent10@?$numeric_limits@O@std@@2HB DD 0134H	; std::numeric_limits<long double>::max_exponent10
CONST	ENDS
;	COMDAT ?max_exponent@?$numeric_limits@O@std@@2HB
CONST	SEGMENT
?max_exponent@?$numeric_limits@O@std@@2HB DD 0400H	; std::numeric_limits<long double>::max_exponent
CONST	ENDS
;	COMDAT ?max_digits10@?$numeric_limits@O@std@@2HB
CONST	SEGMENT
?max_digits10@?$numeric_limits@O@std@@2HB DD 011H	; std::numeric_limits<long double>::max_digits10
CONST	ENDS
;	COMDAT ?digits10@?$numeric_limits@O@std@@2HB
CONST	SEGMENT
?digits10@?$numeric_limits@O@std@@2HB DD 0fH		; std::numeric_limits<long double>::digits10
CONST	ENDS
;	COMDAT ?digits@?$numeric_limits@O@std@@2HB
CONST	SEGMENT
?digits@?$numeric_limits@O@std@@2HB DD 035H		; std::numeric_limits<long double>::digits
CONST	ENDS
;	COMDAT ?min_exponent10@?$numeric_limits@N@std@@2HB
CONST	SEGMENT
?min_exponent10@?$numeric_limits@N@std@@2HB DD 0fffffecdH ; std::numeric_limits<double>::min_exponent10
CONST	ENDS
;	COMDAT ?min_exponent@?$numeric_limits@N@std@@2HB
CONST	SEGMENT
?min_exponent@?$numeric_limits@N@std@@2HB DD 0fffffc03H	; std::numeric_limits<double>::min_exponent
CONST	ENDS
;	COMDAT ?max_exponent10@?$numeric_limits@N@std@@2HB
CONST	SEGMENT
?max_exponent10@?$numeric_limits@N@std@@2HB DD 0134H	; std::numeric_limits<double>::max_exponent10
CONST	ENDS
;	COMDAT ?max_exponent@?$numeric_limits@N@std@@2HB
CONST	SEGMENT
?max_exponent@?$numeric_limits@N@std@@2HB DD 0400H	; std::numeric_limits<double>::max_exponent
CONST	ENDS
;	COMDAT ?max_digits10@?$numeric_limits@N@std@@2HB
CONST	SEGMENT
?max_digits10@?$numeric_limits@N@std@@2HB DD 011H	; std::numeric_limits<double>::max_digits10
CONST	ENDS
;	COMDAT ?digits10@?$numeric_limits@N@std@@2HB
CONST	SEGMENT
?digits10@?$numeric_limits@N@std@@2HB DD 0fH		; std::numeric_limits<double>::digits10
CONST	ENDS
;	COMDAT ?digits@?$numeric_limits@N@std@@2HB
CONST	SEGMENT
?digits@?$numeric_limits@N@std@@2HB DD 035H		; std::numeric_limits<double>::digits
CONST	ENDS
;	COMDAT ?min_exponent10@?$numeric_limits@M@std@@2HB
CONST	SEGMENT
?min_exponent10@?$numeric_limits@M@std@@2HB DD 0ffffffdbH ; std::numeric_limits<float>::min_exponent10
CONST	ENDS
;	COMDAT ?min_exponent@?$numeric_limits@M@std@@2HB
CONST	SEGMENT
?min_exponent@?$numeric_limits@M@std@@2HB DD 0ffffff83H	; std::numeric_limits<float>::min_exponent
CONST	ENDS
;	COMDAT ?max_exponent10@?$numeric_limits@M@std@@2HB
CONST	SEGMENT
?max_exponent10@?$numeric_limits@M@std@@2HB DD 026H	; std::numeric_limits<float>::max_exponent10
CONST	ENDS
;	COMDAT ?max_exponent@?$numeric_limits@M@std@@2HB
CONST	SEGMENT
?max_exponent@?$numeric_limits@M@std@@2HB DD 080H	; std::numeric_limits<float>::max_exponent
CONST	ENDS
;	COMDAT ?max_digits10@?$numeric_limits@M@std@@2HB
CONST	SEGMENT
?max_digits10@?$numeric_limits@M@std@@2HB DD 08H	; std::numeric_limits<float>::max_digits10
CONST	ENDS
;	COMDAT ?digits10@?$numeric_limits@M@std@@2HB
CONST	SEGMENT
?digits10@?$numeric_limits@M@std@@2HB DD 06H		; std::numeric_limits<float>::digits10
CONST	ENDS
;	COMDAT ?digits@?$numeric_limits@M@std@@2HB
CONST	SEGMENT
?digits@?$numeric_limits@M@std@@2HB DD 018H		; std::numeric_limits<float>::digits
CONST	ENDS
;	COMDAT ?max_digits10@?$numeric_limits@_K@std@@2HB
CONST	SEGMENT
?max_digits10@?$numeric_limits@_K@std@@2HB DD 015H	; std::numeric_limits<unsigned __int64>::max_digits10
CONST	ENDS
;	COMDAT ?digits10@?$numeric_limits@_K@std@@2HB
CONST	SEGMENT
?digits10@?$numeric_limits@_K@std@@2HB DD 013H		; std::numeric_limits<unsigned __int64>::digits10
CONST	ENDS
;	COMDAT ?digits@?$numeric_limits@_K@std@@2HB
CONST	SEGMENT
?digits@?$numeric_limits@_K@std@@2HB DD 040H		; std::numeric_limits<unsigned __int64>::digits
CONST	ENDS
;	COMDAT ?is_signed@?$numeric_limits@_K@std@@2_NB
CONST	SEGMENT
?is_signed@?$numeric_limits@_K@std@@2_NB DB 00H		; std::numeric_limits<unsigned __int64>::is_signed
CONST	ENDS
;	COMDAT ?max_digits10@?$numeric_limits@_J@std@@2HB
CONST	SEGMENT
?max_digits10@?$numeric_limits@_J@std@@2HB DD 014H	; std::numeric_limits<__int64>::max_digits10
CONST	ENDS
;	COMDAT ?digits10@?$numeric_limits@_J@std@@2HB
CONST	SEGMENT
?digits10@?$numeric_limits@_J@std@@2HB DD 012H		; std::numeric_limits<__int64>::digits10
CONST	ENDS
;	COMDAT ?digits@?$numeric_limits@_J@std@@2HB
CONST	SEGMENT
?digits@?$numeric_limits@_J@std@@2HB DD 03fH		; std::numeric_limits<__int64>::digits
CONST	ENDS
;	COMDAT ?is_signed@?$numeric_limits@_J@std@@2_NB
CONST	SEGMENT
?is_signed@?$numeric_limits@_J@std@@2_NB DB 01H		; std::numeric_limits<__int64>::is_signed
CONST	ENDS
;	COMDAT ?max_digits10@?$numeric_limits@K@std@@2HB
CONST	SEGMENT
?max_digits10@?$numeric_limits@K@std@@2HB DD 0bH	; std::numeric_limits<unsigned long>::max_digits10
CONST	ENDS
;	COMDAT ?digits10@?$numeric_limits@K@std@@2HB
CONST	SEGMENT
?digits10@?$numeric_limits@K@std@@2HB DD 09H		; std::numeric_limits<unsigned long>::digits10
CONST	ENDS
;	COMDAT ?digits@?$numeric_limits@K@std@@2HB
CONST	SEGMENT
?digits@?$numeric_limits@K@std@@2HB DD 020H		; std::numeric_limits<unsigned long>::digits
CONST	ENDS
;	COMDAT ?is_signed@?$numeric_limits@K@std@@2_NB
CONST	SEGMENT
?is_signed@?$numeric_limits@K@std@@2_NB DB 00H		; std::numeric_limits<unsigned long>::is_signed
CONST	ENDS
;	COMDAT ?max_digits10@?$numeric_limits@J@std@@2HB
CONST	SEGMENT
?max_digits10@?$numeric_limits@J@std@@2HB DD 0bH	; std::numeric_limits<long>::max_digits10
CONST	ENDS
;	COMDAT ?digits10@?$numeric_limits@J@std@@2HB
CONST	SEGMENT
?digits10@?$numeric_limits@J@std@@2HB DD 09H		; std::numeric_limits<long>::digits10
CONST	ENDS
;	COMDAT ?digits@?$numeric_limits@J@std@@2HB
CONST	SEGMENT
?digits@?$numeric_limits@J@std@@2HB DD 01fH		; std::numeric_limits<long>::digits
CONST	ENDS
;	COMDAT ?is_signed@?$numeric_limits@J@std@@2_NB
CONST	SEGMENT
?is_signed@?$numeric_limits@J@std@@2_NB DB 01H		; std::numeric_limits<long>::is_signed
CONST	ENDS
;	COMDAT ?max_digits10@?$numeric_limits@I@std@@2HB
CONST	SEGMENT
?max_digits10@?$numeric_limits@I@std@@2HB DD 0bH	; std::numeric_limits<unsigned int>::max_digits10
CONST	ENDS
;	COMDAT ?digits10@?$numeric_limits@I@std@@2HB
CONST	SEGMENT
?digits10@?$numeric_limits@I@std@@2HB DD 09H		; std::numeric_limits<unsigned int>::digits10
CONST	ENDS
;	COMDAT ?digits@?$numeric_limits@I@std@@2HB
CONST	SEGMENT
?digits@?$numeric_limits@I@std@@2HB DD 020H		; std::numeric_limits<unsigned int>::digits
CONST	ENDS
;	COMDAT ?is_signed@?$numeric_limits@I@std@@2_NB
CONST	SEGMENT
?is_signed@?$numeric_limits@I@std@@2_NB DB 00H		; std::numeric_limits<unsigned int>::is_signed
CONST	ENDS
;	COMDAT ?max_digits10@?$numeric_limits@H@std@@2HB
CONST	SEGMENT
?max_digits10@?$numeric_limits@H@std@@2HB DD 0bH	; std::numeric_limits<int>::max_digits10
CONST	ENDS
;	COMDAT ?digits10@?$numeric_limits@H@std@@2HB
CONST	SEGMENT
?digits10@?$numeric_limits@H@std@@2HB DD 09H		; std::numeric_limits<int>::digits10
CONST	ENDS
;	COMDAT ?digits@?$numeric_limits@H@std@@2HB
CONST	SEGMENT
?digits@?$numeric_limits@H@std@@2HB DD 01fH		; std::numeric_limits<int>::digits
CONST	ENDS
;	COMDAT ?is_signed@?$numeric_limits@H@std@@2_NB
CONST	SEGMENT
?is_signed@?$numeric_limits@H@std@@2_NB DB 01H		; std::numeric_limits<int>::is_signed
CONST	ENDS
;	COMDAT ?max_digits10@?$numeric_limits@G@std@@2HB
CONST	SEGMENT
?max_digits10@?$numeric_limits@G@std@@2HB DD 06H	; std::numeric_limits<unsigned short>::max_digits10
CONST	ENDS
;	COMDAT ?digits10@?$numeric_limits@G@std@@2HB
CONST	SEGMENT
?digits10@?$numeric_limits@G@std@@2HB DD 04H		; std::numeric_limits<unsigned short>::digits10
CONST	ENDS
;	COMDAT ?digits@?$numeric_limits@G@std@@2HB
CONST	SEGMENT
?digits@?$numeric_limits@G@std@@2HB DD 010H		; std::numeric_limits<unsigned short>::digits
CONST	ENDS
;	COMDAT ?is_signed@?$numeric_limits@G@std@@2_NB
CONST	SEGMENT
?is_signed@?$numeric_limits@G@std@@2_NB DB 00H		; std::numeric_limits<unsigned short>::is_signed
CONST	ENDS
;	COMDAT ?max_digits10@?$numeric_limits@F@std@@2HB
CONST	SEGMENT
?max_digits10@?$numeric_limits@F@std@@2HB DD 06H	; std::numeric_limits<short>::max_digits10
CONST	ENDS
;	COMDAT ?digits10@?$numeric_limits@F@std@@2HB
CONST	SEGMENT
?digits10@?$numeric_limits@F@std@@2HB DD 04H		; std::numeric_limits<short>::digits10
CONST	ENDS
;	COMDAT ?digits@?$numeric_limits@F@std@@2HB
CONST	SEGMENT
?digits@?$numeric_limits@F@std@@2HB DD 0fH		; std::numeric_limits<short>::digits
CONST	ENDS
;	COMDAT ?is_signed@?$numeric_limits@F@std@@2_NB
CONST	SEGMENT
?is_signed@?$numeric_limits@F@std@@2_NB DB 01H		; std::numeric_limits<short>::is_signed
CONST	ENDS
;	COMDAT ?max_digits10@?$numeric_limits@E@std@@2HB
CONST	SEGMENT
?max_digits10@?$numeric_limits@E@std@@2HB DD 04H	; std::numeric_limits<unsigned char>::max_digits10
CONST	ENDS
;	COMDAT ?digits10@?$numeric_limits@E@std@@2HB
CONST	SEGMENT
?digits10@?$numeric_limits@E@std@@2HB DD 02H		; std::numeric_limits<unsigned char>::digits10
CONST	ENDS
;	COMDAT ?digits@?$numeric_limits@E@std@@2HB
CONST	SEGMENT
?digits@?$numeric_limits@E@std@@2HB DD 08H		; std::numeric_limits<unsigned char>::digits
CONST	ENDS
;	COMDAT ?is_signed@?$numeric_limits@E@std@@2_NB
CONST	SEGMENT
?is_signed@?$numeric_limits@E@std@@2_NB DB 00H		; std::numeric_limits<unsigned char>::is_signed
CONST	ENDS
;	COMDAT ?max_digits10@?$numeric_limits@C@std@@2HB
CONST	SEGMENT
?max_digits10@?$numeric_limits@C@std@@2HB DD 04H	; std::numeric_limits<signed char>::max_digits10
CONST	ENDS
;	COMDAT ?digits10@?$numeric_limits@C@std@@2HB
CONST	SEGMENT
?digits10@?$numeric_limits@C@std@@2HB DD 02H		; std::numeric_limits<signed char>::digits10
CONST	ENDS
;	COMDAT ?digits@?$numeric_limits@C@std@@2HB
CONST	SEGMENT
?digits@?$numeric_limits@C@std@@2HB DD 07H		; std::numeric_limits<signed char>::digits
CONST	ENDS
;	COMDAT ?is_signed@?$numeric_limits@C@std@@2_NB
CONST	SEGMENT
?is_signed@?$numeric_limits@C@std@@2_NB DB 01H		; std::numeric_limits<signed char>::is_signed
CONST	ENDS
;	COMDAT ?max_digits10@?$numeric_limits@_N@std@@2HB
CONST	SEGMENT
?max_digits10@?$numeric_limits@_N@std@@2HB DD 00H	; std::numeric_limits<bool>::max_digits10
CONST	ENDS
;	COMDAT ?digits10@?$numeric_limits@_N@std@@2HB
CONST	SEGMENT
?digits10@?$numeric_limits@_N@std@@2HB DD 00H		; std::numeric_limits<bool>::digits10
CONST	ENDS
;	COMDAT ?digits@?$numeric_limits@_N@std@@2HB
CONST	SEGMENT
?digits@?$numeric_limits@_N@std@@2HB DD 01H		; std::numeric_limits<bool>::digits
CONST	ENDS
;	COMDAT ?is_signed@?$numeric_limits@_N@std@@2_NB
CONST	SEGMENT
?is_signed@?$numeric_limits@_N@std@@2_NB DB 00H		; std::numeric_limits<bool>::is_signed
CONST	ENDS
;	COMDAT ?is_modulo@?$numeric_limits@_N@std@@2_NB
CONST	SEGMENT
?is_modulo@?$numeric_limits@_N@std@@2_NB DB 00H		; std::numeric_limits<bool>::is_modulo
CONST	ENDS
;	COMDAT ?max_digits10@?$numeric_limits@_W@std@@2HB
CONST	SEGMENT
?max_digits10@?$numeric_limits@_W@std@@2HB DD 06H	; std::numeric_limits<wchar_t>::max_digits10
CONST	ENDS
;	COMDAT ?digits10@?$numeric_limits@_W@std@@2HB
CONST	SEGMENT
?digits10@?$numeric_limits@_W@std@@2HB DD 04H		; std::numeric_limits<wchar_t>::digits10
CONST	ENDS
;	COMDAT ?digits@?$numeric_limits@_W@std@@2HB
CONST	SEGMENT
?digits@?$numeric_limits@_W@std@@2HB DD 010H		; std::numeric_limits<wchar_t>::digits
CONST	ENDS
;	COMDAT ?is_signed@?$numeric_limits@_W@std@@2_NB
CONST	SEGMENT
?is_signed@?$numeric_limits@_W@std@@2_NB DB 00H		; std::numeric_limits<wchar_t>::is_signed
CONST	ENDS
;	COMDAT ?max_digits10@?$numeric_limits@D@std@@2HB
CONST	SEGMENT
?max_digits10@?$numeric_limits@D@std@@2HB DD 04H	; std::numeric_limits<char>::max_digits10
CONST	ENDS
;	COMDAT ?digits10@?$numeric_limits@D@std@@2HB
CONST	SEGMENT
?digits10@?$numeric_limits@D@std@@2HB DD 02H		; std::numeric_limits<char>::digits10
CONST	ENDS
;	COMDAT ?digits@?$numeric_limits@D@std@@2HB
CONST	SEGMENT
?digits@?$numeric_limits@D@std@@2HB DD 07H		; std::numeric_limits<char>::digits
CONST	ENDS
;	COMDAT ?is_signed@?$numeric_limits@D@std@@2_NB
CONST	SEGMENT
?is_signed@?$numeric_limits@D@std@@2_NB DB 01H		; std::numeric_limits<char>::is_signed
CONST	ENDS
;	COMDAT ?radix@_Num_float_base@std@@2HB
CONST	SEGMENT
?radix@_Num_float_base@std@@2HB DD 02H			; std::_Num_float_base::radix
CONST	ENDS
;	COMDAT ?round_style@_Num_float_base@std@@2W4float_round_style@2@B
CONST	SEGMENT
?round_style@_Num_float_base@std@@2W4float_round_style@2@B DD 01H ; std::_Num_float_base::round_style
CONST	ENDS
;	COMDAT ?traps@_Num_float_base@std@@2_NB
CONST	SEGMENT
?traps@_Num_float_base@std@@2_NB DB 01H			; std::_Num_float_base::traps
CONST	ENDS
;	COMDAT ?tinyness_before@_Num_float_base@std@@2_NB
CONST	SEGMENT
?tinyness_before@_Num_float_base@std@@2_NB DB 01H	; std::_Num_float_base::tinyness_before
CONST	ENDS
;	COMDAT ?is_specialized@_Num_float_base@std@@2_NB
CONST	SEGMENT
?is_specialized@_Num_float_base@std@@2_NB DB 01H	; std::_Num_float_base::is_specialized
CONST	ENDS
;	COMDAT ?is_signed@_Num_float_base@std@@2_NB
CONST	SEGMENT
?is_signed@_Num_float_base@std@@2_NB DB 01H		; std::_Num_float_base::is_signed
CONST	ENDS
;	COMDAT ?is_modulo@_Num_float_base@std@@2_NB
CONST	SEGMENT
?is_modulo@_Num_float_base@std@@2_NB DB 00H		; std::_Num_float_base::is_modulo
CONST	ENDS
;	COMDAT ?is_integer@_Num_float_base@std@@2_NB
CONST	SEGMENT
?is_integer@_Num_float_base@std@@2_NB DB 00H		; std::_Num_float_base::is_integer
CONST	ENDS
;	COMDAT ?is_iec559@_Num_float_base@std@@2_NB
CONST	SEGMENT
?is_iec559@_Num_float_base@std@@2_NB DB 01H		; std::_Num_float_base::is_iec559
CONST	ENDS
;	COMDAT ?is_exact@_Num_float_base@std@@2_NB
CONST	SEGMENT
?is_exact@_Num_float_base@std@@2_NB DB 00H		; std::_Num_float_base::is_exact
CONST	ENDS
;	COMDAT ?is_bounded@_Num_float_base@std@@2_NB
CONST	SEGMENT
?is_bounded@_Num_float_base@std@@2_NB DB 01H		; std::_Num_float_base::is_bounded
CONST	ENDS
;	COMDAT ?has_signaling_NaN@_Num_float_base@std@@2_NB
CONST	SEGMENT
?has_signaling_NaN@_Num_float_base@std@@2_NB DB 01H	; std::_Num_float_base::has_signaling_NaN
CONST	ENDS
;	COMDAT ?has_quiet_NaN@_Num_float_base@std@@2_NB
CONST	SEGMENT
?has_quiet_NaN@_Num_float_base@std@@2_NB DB 01H		; std::_Num_float_base::has_quiet_NaN
CONST	ENDS
;	COMDAT ?has_infinity@_Num_float_base@std@@2_NB
CONST	SEGMENT
?has_infinity@_Num_float_base@std@@2_NB DB 01H		; std::_Num_float_base::has_infinity
CONST	ENDS
;	COMDAT ?has_denorm_loss@_Num_float_base@std@@2_NB
CONST	SEGMENT
?has_denorm_loss@_Num_float_base@std@@2_NB DB 01H	; std::_Num_float_base::has_denorm_loss
CONST	ENDS
;	COMDAT ?has_denorm@_Num_float_base@std@@2W4float_denorm_style@2@B
CONST	SEGMENT
?has_denorm@_Num_float_base@std@@2W4float_denorm_style@2@B DD 01H ; std::_Num_float_base::has_denorm
CONST	ENDS
;	COMDAT ?radix@_Num_int_base@std@@2HB
CONST	SEGMENT
?radix@_Num_int_base@std@@2HB DD 02H			; std::_Num_int_base::radix
CONST	ENDS
;	COMDAT ?is_specialized@_Num_int_base@std@@2_NB
CONST	SEGMENT
?is_specialized@_Num_int_base@std@@2_NB DB 01H		; std::_Num_int_base::is_specialized
CONST	ENDS
;	COMDAT ?is_modulo@_Num_int_base@std@@2_NB
CONST	SEGMENT
?is_modulo@_Num_int_base@std@@2_NB DB 01H		; std::_Num_int_base::is_modulo
CONST	ENDS
;	COMDAT ?is_integer@_Num_int_base@std@@2_NB
CONST	SEGMENT
?is_integer@_Num_int_base@std@@2_NB DB 01H		; std::_Num_int_base::is_integer
CONST	ENDS
;	COMDAT ?is_exact@_Num_int_base@std@@2_NB
CONST	SEGMENT
?is_exact@_Num_int_base@std@@2_NB DB 01H		; std::_Num_int_base::is_exact
CONST	ENDS
;	COMDAT ?is_bounded@_Num_int_base@std@@2_NB
CONST	SEGMENT
?is_bounded@_Num_int_base@std@@2_NB DB 01H		; std::_Num_int_base::is_bounded
CONST	ENDS
;	COMDAT ?radix@_Num_base@std@@2HB
CONST	SEGMENT
?radix@_Num_base@std@@2HB DD 00H			; std::_Num_base::radix
CONST	ENDS
;	COMDAT ?min_exponent10@_Num_base@std@@2HB
CONST	SEGMENT
?min_exponent10@_Num_base@std@@2HB DD 00H		; std::_Num_base::min_exponent10
CONST	ENDS
;	COMDAT ?min_exponent@_Num_base@std@@2HB
CONST	SEGMENT
?min_exponent@_Num_base@std@@2HB DD 00H			; std::_Num_base::min_exponent
CONST	ENDS
;	COMDAT ?max_exponent10@_Num_base@std@@2HB
CONST	SEGMENT
?max_exponent10@_Num_base@std@@2HB DD 00H		; std::_Num_base::max_exponent10
CONST	ENDS
;	COMDAT ?max_exponent@_Num_base@std@@2HB
CONST	SEGMENT
?max_exponent@_Num_base@std@@2HB DD 00H			; std::_Num_base::max_exponent
CONST	ENDS
;	COMDAT ?max_digits10@_Num_base@std@@2HB
CONST	SEGMENT
?max_digits10@_Num_base@std@@2HB DD 00H			; std::_Num_base::max_digits10
CONST	ENDS
;	COMDAT ?digits10@_Num_base@std@@2HB
CONST	SEGMENT
?digits10@_Num_base@std@@2HB DD 00H			; std::_Num_base::digits10
CONST	ENDS
;	COMDAT ?digits@_Num_base@std@@2HB
CONST	SEGMENT
?digits@_Num_base@std@@2HB DD 00H			; std::_Num_base::digits
CONST	ENDS
;	COMDAT ?round_style@_Num_base@std@@2W4float_round_style@2@B
CONST	SEGMENT
?round_style@_Num_base@std@@2W4float_round_style@2@B DD 00H ; std::_Num_base::round_style
CONST	ENDS
;	COMDAT ?traps@_Num_base@std@@2_NB
CONST	SEGMENT
?traps@_Num_base@std@@2_NB DB 00H			; std::_Num_base::traps
CONST	ENDS
;	COMDAT ?tinyness_before@_Num_base@std@@2_NB
CONST	SEGMENT
?tinyness_before@_Num_base@std@@2_NB DB 00H		; std::_Num_base::tinyness_before
CONST	ENDS
;	COMDAT ?is_specialized@_Num_base@std@@2_NB
CONST	SEGMENT
?is_specialized@_Num_base@std@@2_NB DB 00H		; std::_Num_base::is_specialized
CONST	ENDS
;	COMDAT ?is_signed@_Num_base@std@@2_NB
CONST	SEGMENT
?is_signed@_Num_base@std@@2_NB DB 00H			; std::_Num_base::is_signed
CONST	ENDS
;	COMDAT ?is_modulo@_Num_base@std@@2_NB
CONST	SEGMENT
?is_modulo@_Num_base@std@@2_NB DB 00H			; std::_Num_base::is_modulo
CONST	ENDS
;	COMDAT ?is_integer@_Num_base@std@@2_NB
CONST	SEGMENT
?is_integer@_Num_base@std@@2_NB DB 00H			; std::_Num_base::is_integer
CONST	ENDS
;	COMDAT ?is_iec559@_Num_base@std@@2_NB
CONST	SEGMENT
?is_iec559@_Num_base@std@@2_NB DB 00H			; std::_Num_base::is_iec559
CONST	ENDS
;	COMDAT ?is_exact@_Num_base@std@@2_NB
CONST	SEGMENT
?is_exact@_Num_base@std@@2_NB DB 00H			; std::_Num_base::is_exact
CONST	ENDS
;	COMDAT ?is_bounded@_Num_base@std@@2_NB
CONST	SEGMENT
?is_bounded@_Num_base@std@@2_NB DB 00H			; std::_Num_base::is_bounded
CONST	ENDS
;	COMDAT ?has_signaling_NaN@_Num_base@std@@2_NB
CONST	SEGMENT
?has_signaling_NaN@_Num_base@std@@2_NB DB 00H		; std::_Num_base::has_signaling_NaN
CONST	ENDS
;	COMDAT ?has_quiet_NaN@_Num_base@std@@2_NB
CONST	SEGMENT
?has_quiet_NaN@_Num_base@std@@2_NB DB 00H		; std::_Num_base::has_quiet_NaN
CONST	ENDS
;	COMDAT ?has_infinity@_Num_base@std@@2_NB
CONST	SEGMENT
?has_infinity@_Num_base@std@@2_NB DB 00H		; std::_Num_base::has_infinity
CONST	ENDS
;	COMDAT ?has_denorm_loss@_Num_base@std@@2_NB
CONST	SEGMENT
?has_denorm_loss@_Num_base@std@@2_NB DB 00H		; std::_Num_base::has_denorm_loss
CONST	ENDS
;	COMDAT ?has_denorm@_Num_base@std@@2W4float_denorm_style@2@B
CONST	SEGMENT
?has_denorm@_Num_base@std@@2W4float_denorm_style@2@B DD 00H ; std::_Num_base::has_denorm
CONST	ENDS
_DATA	SEGMENT
_PADDING DB	080H
	DB	00H
	DB	00H
	DB	00H
	DB	00H
	DB	00H
	DB	00H
	DB	00H
	DB	00H
	DB	00H
	DB	00H
	DB	00H
	DB	00H
	DB	00H
	DB	00H
	DB	00H
	DB	00H
	DB	00H
	DB	00H
	DB	00H
	DB	00H
	DB	00H
	DB	00H
	DB	00H
	DB	00H
	DB	00H
	DB	00H
	DB	00H
	DB	00H
	DB	00H
	DB	00H
	DB	00H
	DB	00H
	DB	00H
	DB	00H
	DB	00H
	DB	00H
	DB	00H
	DB	00H
	DB	00H
	DB	00H
	DB	00H
	DB	00H
	DB	00H
	DB	00H
	DB	00H
	DB	00H
	DB	00H
	DB	00H
	DB	00H
	DB	00H
	DB	00H
	DB	00H
	DB	00H
	DB	00H
	DB	00H
	DB	00H
	DB	00H
	DB	00H
	DB	00H
	DB	00H
	DB	00H
	DB	00H
	DB	00H
_source_path DD	FLAT:??_C@_0FP@CIEIGBBB@C?3?1Users?1tdrol?1Documents?1Visual?5@
_DATA	ENDS
PUBLIC	?cl_print_error_silent@@YAXHPBDZZ		; cl_print_error_silent
EXTRN	__RTC_Shutdown:PROC
EXTRN	__RTC_InitBase:PROC
;	COMDAT rtc$TMZ
; File c:\users\tdrol\documents\visual studio 2010\projects\analizator\analizator-bd-opencl\cl_encrypt.cpp
rtc$TMZ	SEGMENT
__RTC_Shutdown.rtc$TMZ DD FLAT:__RTC_Shutdown
rtc$TMZ	ENDS
;	COMDAT rtc$IMZ
rtc$IMZ	SEGMENT
__RTC_InitBase.rtc$IMZ DD FLAT:__RTC_InitBase
; Function compile flags: /Odtp /RTCsu /ZI
rtc$IMZ	ENDS
;	COMDAT ?cl_print_error_silent@@YAXHPBDZZ
_TEXT	SEGMENT
_err$ = 8						; size = 4
_msg$ = 12						; size = 4
?cl_print_error_silent@@YAXHPBDZZ PROC			; cl_print_error_silent, COMDAT

; 31   : void cl_print_error_silent(cl_int err, const char *msg, ...) {};

	push	ebp
	mov	ebp, esp
	sub	esp, 192				; 000000c0H
	push	ebx
	push	esi
	push	edi
	lea	edi, DWORD PTR [ebp-192]
	mov	ecx, 48					; 00000030H
	mov	eax, -858993460				; ccccccccH
	rep stosd
	pop	edi
	pop	esi
	pop	ebx
	mov	esp, ebp
	pop	ebp
	ret	0
?cl_print_error_silent@@YAXHPBDZZ ENDP			; cl_print_error_silent
_TEXT	ENDS
PUBLIC	??_C@_0DF@LKOFKLDO@?5?9?5Nobody?5knows?5what?5happened?5?$CIC@ ; `string'
PUBLIC	??_C@_0FK@OFFEAEOE@?9?5Failed?5to?5allocate?5or?5read?5res@ ; `string'
PUBLIC	??_C@_0EL@JIBFLOOI@?9?5Failed?5to?5allocate?5or?5read?5mem@ ; `string'
PUBLIC	??_C@_0EC@GOFGLOMA@?5?9?5local_work_size?5is?5greater?5th@ ; `string'
PUBLIC	??_C@_0EA@CCADPGGI@?5?9?5global_work_size?5is?5not?5evenl@ ; `string'
PUBLIC	??_C@_0CC@GEBFDNCA@?5?9?5work_dim?5is?5not?5a?5valid?5value@ ; `string'
PUBLIC	??_C@_0DM@FFFIJCDB@?9?5Offset?5or?5size?5out?9of?9bounds?5o@ ; `string'
PUBLIC	??_C@_0BK@BLAMBFJG@?9?5Invalid?5sampler?5object?6?$AA@ ; `string'
PUBLIC	??_C@_0BN@ICFPNBPD@?5?9?5No?5valid?5program?5avaible?6?$AA@ ; `string'
PUBLIC	??_C@_0BC@JMDFOBPB@?9?5Invalid?5buffer?6?$AA@	; `string'
PUBLIC	??_C@_0DD@ODPKDFBB@?5?9?5Kernel?5argument?5values?5have?5n@ ; `string'
PUBLIC	??_C@_0BK@GJKBPDEK@?5?9?5Invalid?5kernel?5object?6?$AA@ ; `string'
PUBLIC	??_C@_0CD@MDHOOLED@?5?9?5global_work_offset?5is?5not?5NUL@ ; `string'
PUBLIC	??_C@_0BL@HFHFLEOF@?9?5Invalid?5event?9wait?5list?6?$AA@ ; `string'
PUBLIC	??_C@_0BN@JMOBBGKG@?9?5Invalid?5context?5or?5buffer?6?$AA@ ; `string'
PUBLIC	??_C@_0BJ@MJMKIHHI@?9?5Invalid?5command?9queue?6?$AA@ ; `string'
PUBLIC	??_C@_0BK@FGIJEIM@?9?5Invalid?5argument?5value?6?$AA@ ; `string'
PUBLIC	??_C@_0BP@OJGEJCAL@?5?9?5Invalid?5argument?5data?5size?6?$AA@ ; `string'
PUBLIC	??_C@_0BK@BBDPOGAD@?9?5Invalid?5argument?5index?6?$AA@ ; `string'
PUBLIC	?cl_print_error@@YAXHPBDZZ			; cl_print_error
EXTRN	_exit:PROC
EXTRN	_printf:PROC
EXTRN	_vfprintf:PROC
EXTRN	___iob_func:PROC
EXTRN	__RTC_CheckEsp:PROC
;	COMDAT ??_C@_0DF@LKOFKLDO@?5?9?5Nobody?5knows?5what?5happened?5?$CIC@
CONST	SEGMENT
??_C@_0DF@LKOFKLDO@?5?9?5Nobody?5knows?5what?5happened?5?$CIC@ DB ' - Nob'
	DB	'ody knows what happened (CL_OUT_OF_RESOURCES)', 0aH, 00H ; `string'
CONST	ENDS
;	COMDAT ??_C@_0FK@OFFEAEOE@?9?5Failed?5to?5allocate?5or?5read?5res@
CONST	SEGMENT
??_C@_0FK@OFFEAEOE@?9?5Failed?5to?5allocate?5or?5read?5res@ DB '- Failed '
	DB	'to allocate or read resources required by the OpenCL implemen'
	DB	'tation on the host', 0aH, 00H		; `string'
CONST	ENDS
;	COMDAT ??_C@_0EL@JIBFLOOI@?9?5Failed?5to?5allocate?5or?5read?5mem@
CONST	SEGMENT
??_C@_0EL@JIBFLOOI@?9?5Failed?5to?5allocate?5or?5read?5mem@ DB '- Failed '
	DB	'to allocate or read memory for data store associated with buf'
	DB	'fer', 0aH, 00H				; `string'
CONST	ENDS
;	COMDAT ??_C@_0EC@GOFGLOMA@?5?9?5local_work_size?5is?5greater?5th@
CONST	SEGMENT
??_C@_0EC@GOFGLOMA@?5?9?5local_work_size?5is?5greater?5th@ DB ' - local_w'
	DB	'ork_size is greater than CL_DEVICE_MAX_WORK_ITEM_SIZES', 0aH, 00H ; `string'
CONST	ENDS
;	COMDAT ??_C@_0EA@CCADPGGI@?5?9?5global_work_size?5is?5not?5evenl@
CONST	SEGMENT
??_C@_0EA@CCADPGGI@?5?9?5global_work_size?5is?5not?5evenl@ DB ' - global_'
	DB	'work_size is not evenly divisable by local_work_size', 0aH, 00H ; `string'
CONST	ENDS
;	COMDAT ??_C@_0CC@GEBFDNCA@?5?9?5work_dim?5is?5not?5a?5valid?5value@
CONST	SEGMENT
??_C@_0CC@GEBFDNCA@?5?9?5work_dim?5is?5not?5a?5valid?5value@ DB ' - work_'
	DB	'dim is not a valid value', 0aH, 00H		; `string'
CONST	ENDS
;	COMDAT ??_C@_0DM@FFFIJCDB@?9?5Offset?5or?5size?5out?9of?9bounds?5o@
CONST	SEGMENT
??_C@_0DM@FFFIJCDB@?9?5Offset?5or?5size?5out?9of?9bounds?5o@ DB '- Offset'
	DB	' or size out-of-bounds or *results is a NULL value', 0aH, 00H ; `string'
CONST	ENDS
;	COMDAT ??_C@_0BK@BLAMBFJG@?9?5Invalid?5sampler?5object?6?$AA@
CONST	SEGMENT
??_C@_0BK@BLAMBFJG@?9?5Invalid?5sampler?5object?6?$AA@ DB '- Invalid samp'
	DB	'ler object', 0aH, 00H			; `string'
CONST	ENDS
;	COMDAT ??_C@_0BN@ICFPNBPD@?5?9?5No?5valid?5program?5avaible?6?$AA@
CONST	SEGMENT
??_C@_0BN@ICFPNBPD@?5?9?5No?5valid?5program?5avaible?6?$AA@ DB ' - No val'
	DB	'id program avaible', 0aH, 00H		; `string'
CONST	ENDS
;	COMDAT ??_C@_0BC@JMDFOBPB@?9?5Invalid?5buffer?6?$AA@
CONST	SEGMENT
??_C@_0BC@JMDFOBPB@?9?5Invalid?5buffer?6?$AA@ DB '- Invalid buffer', 0aH, 00H ; `string'
CONST	ENDS
;	COMDAT ??_C@_0DD@ODPKDFBB@?5?9?5Kernel?5argument?5values?5have?5n@
CONST	SEGMENT
??_C@_0DD@ODPKDFBB@?5?9?5Kernel?5argument?5values?5have?5n@ DB ' - Kernel'
	DB	' argument values have not been specified', 0aH, 00H ; `string'
CONST	ENDS
;	COMDAT ??_C@_0BK@GJKBPDEK@?5?9?5Invalid?5kernel?5object?6?$AA@
CONST	SEGMENT
??_C@_0BK@GJKBPDEK@?5?9?5Invalid?5kernel?5object?6?$AA@ DB ' - Invalid ke'
	DB	'rnel object', 0aH, 00H			; `string'
CONST	ENDS
;	COMDAT ??_C@_0CD@MDHOOLED@?5?9?5global_work_offset?5is?5not?5NUL@
CONST	SEGMENT
??_C@_0CD@MDHOOLED@?5?9?5global_work_offset?5is?5not?5NUL@ DB ' - global_'
	DB	'work_offset is not NULL', 0aH, 00H		; `string'
CONST	ENDS
;	COMDAT ??_C@_0BL@HFHFLEOF@?9?5Invalid?5event?9wait?5list?6?$AA@
CONST	SEGMENT
??_C@_0BL@HFHFLEOF@?9?5Invalid?5event?9wait?5list?6?$AA@ DB '- Invalid ev'
	DB	'ent-wait list', 0aH, 00H			; `string'
CONST	ENDS
;	COMDAT ??_C@_0BN@JMOBBGKG@?9?5Invalid?5context?5or?5buffer?6?$AA@
CONST	SEGMENT
??_C@_0BN@JMOBBGKG@?9?5Invalid?5context?5or?5buffer?6?$AA@ DB '- Invalid '
	DB	'context or buffer', 0aH, 00H		; `string'
CONST	ENDS
;	COMDAT ??_C@_0BJ@MJMKIHHI@?9?5Invalid?5command?9queue?6?$AA@
CONST	SEGMENT
??_C@_0BJ@MJMKIHHI@?9?5Invalid?5command?9queue?6?$AA@ DB '- Invalid comma'
	DB	'nd-queue', 0aH, 00H				; `string'
CONST	ENDS
;	COMDAT ??_C@_0BK@FGIJEIM@?9?5Invalid?5argument?5value?6?$AA@
CONST	SEGMENT
??_C@_0BK@FGIJEIM@?9?5Invalid?5argument?5value?6?$AA@ DB '- Invalid argum'
	DB	'ent value', 0aH, 00H			; `string'
CONST	ENDS
;	COMDAT ??_C@_0BP@OJGEJCAL@?5?9?5Invalid?5argument?5data?5size?6?$AA@
CONST	SEGMENT
??_C@_0BP@OJGEJCAL@?5?9?5Invalid?5argument?5data?5size?6?$AA@ DB ' - Inva'
	DB	'lid argument data size', 0aH, 00H		; `string'
CONST	ENDS
;	COMDAT ??_C@_0BK@BBDPOGAD@?9?5Invalid?5argument?5index?6?$AA@
CONST	SEGMENT
??_C@_0BK@BBDPOGAD@?9?5Invalid?5argument?5index?6?$AA@ DB '- Invalid argu'
	DB	'ment index', 0aH, 00H			; `string'
; Function compile flags: /Odtp /RTCsu /ZI
CONST	ENDS
;	COMDAT ?cl_print_error@@YAXHPBDZZ
_TEXT	SEGMENT
tv65 = -208						; size = 4
_argptr$ = -8						; size = 4
_err$ = 8						; size = 4
_msg$ = 12						; size = 4
?cl_print_error@@YAXHPBDZZ PROC				; cl_print_error, COMDAT

; 33   : {

	push	ebp
	mov	ebp, esp
	sub	esp, 208				; 000000d0H
	push	ebx
	push	esi
	push	edi
	lea	edi, DWORD PTR [ebp-208]
	mov	ecx, 52					; 00000034H
	mov	eax, -858993460				; ccccccccH
	rep stosd

; 34   :     va_list argptr;
; 35   : 	va_start(argptr, msg);

	lea	eax, DWORD PTR _msg$[ebp+4]
	mov	DWORD PTR _argptr$[ebp], eax

; 36   :     vfprintf(stderr, msg, argptr);

	mov	eax, DWORD PTR _argptr$[ebp]
	push	eax
	mov	ecx, DWORD PTR _msg$[ebp]
	push	ecx
	call	___iob_func
	add	eax, 64					; 00000040H
	push	eax
	call	_vfprintf
	add	esp, 12					; 0000000cH

; 37   :     va_end(argptr);

	mov	DWORD PTR _argptr$[ebp], 0

; 38   : 
; 39   : 	switch (err)

	mov	eax, DWORD PTR _err$[ebp]
	mov	DWORD PTR tv65[ebp], eax
	mov	ecx, DWORD PTR tv65[ebp]
	add	ecx, 57					; 00000039H
	mov	DWORD PTR tv65[ebp], ecx
	cmp	DWORD PTR tv65[ebp], 53			; 00000035H
	ja	$LN20@cl_print_e
	mov	edx, DWORD PTR tv65[ebp]
	movzx	eax, BYTE PTR $LN24@cl_print_e[edx]
	jmp	DWORD PTR $LN25@cl_print_e[eax*4]
$LN19@cl_print_e:

; 40   : 	{
; 41   : 		case CL_INVALID_ARG_INDEX: printf("- Invalid argument index\n"); break;

	push	OFFSET ??_C@_0BK@BBDPOGAD@?9?5Invalid?5argument?5index?6?$AA@
	call	_printf
	add	esp, 4
	jmp	$LN20@cl_print_e
$LN18@cl_print_e:

; 42   : 		case CL_INVALID_ARG_SIZE: printf(" - Invalid argument data size\n"); break;

	push	OFFSET ??_C@_0BP@OJGEJCAL@?5?9?5Invalid?5argument?5data?5size?6?$AA@
	call	_printf
	add	esp, 4
	jmp	$LN20@cl_print_e
$LN17@cl_print_e:

; 43   : 		case CL_INVALID_ARG_VALUE: printf("- Invalid argument value\n"); break;

	push	OFFSET ??_C@_0BK@FGIJEIM@?9?5Invalid?5argument?5value?6?$AA@
	call	_printf
	add	esp, 4
	jmp	$LN20@cl_print_e
$LN16@cl_print_e:

; 44   : 		case CL_INVALID_COMMAND_QUEUE: printf("- Invalid command-queue\n"); break;

	push	OFFSET ??_C@_0BJ@MJMKIHHI@?9?5Invalid?5command?9queue?6?$AA@
	call	_printf
	add	esp, 4
	jmp	$LN20@cl_print_e
$LN15@cl_print_e:

; 45   : 		case CL_INVALID_CONTEXT: printf("- Invalid context or buffer\n"); break;

	push	OFFSET ??_C@_0BN@JMOBBGKG@?9?5Invalid?5context?5or?5buffer?6?$AA@
	call	_printf
	add	esp, 4
	jmp	$LN20@cl_print_e
$LN14@cl_print_e:

; 46   : 		case CL_INVALID_EVENT_WAIT_LIST: printf("- Invalid event-wait list\n"); break;

	push	OFFSET ??_C@_0BL@HFHFLEOF@?9?5Invalid?5event?9wait?5list?6?$AA@
	call	_printf
	add	esp, 4
	jmp	$LN20@cl_print_e
$LN13@cl_print_e:

; 47   : 		case CL_INVALID_GLOBAL_OFFSET: printf(" - global_work_offset is not NULL\n"); break;

	push	OFFSET ??_C@_0CD@MDHOOLED@?5?9?5global_work_offset?5is?5not?5NUL@
	call	_printf
	add	esp, 4
	jmp	$LN20@cl_print_e
$LN12@cl_print_e:

; 48   : 		case CL_INVALID_KERNEL: printf(" - Invalid kernel object\n"); break;

	push	OFFSET ??_C@_0BK@GJKBPDEK@?5?9?5Invalid?5kernel?5object?6?$AA@
	call	_printf
	add	esp, 4
	jmp	$LN20@cl_print_e
$LN11@cl_print_e:

; 49   : 		case CL_INVALID_KERNEL_ARGS: printf(" - Kernel argument values have not been specified\n"); break;

	push	OFFSET ??_C@_0DD@ODPKDFBB@?5?9?5Kernel?5argument?5values?5have?5n@
	call	_printf
	add	esp, 4
	jmp	$LN20@cl_print_e
$LN10@cl_print_e:

; 50   : 		case CL_INVALID_MEM_OBJECT: printf("- Invalid buffer\n"); break;

	push	OFFSET ??_C@_0BC@JMDFOBPB@?9?5Invalid?5buffer?6?$AA@
	call	_printf
	add	esp, 4
	jmp	$LN20@cl_print_e
$LN9@cl_print_e:

; 51   : 		case CL_INVALID_PROGRAM_EXECUTABLE: printf(" - No valid program avaible\n"); break;

	push	OFFSET ??_C@_0BN@ICFPNBPD@?5?9?5No?5valid?5program?5avaible?6?$AA@
	call	_printf
	add	esp, 4
	jmp	SHORT $LN20@cl_print_e
$LN8@cl_print_e:

; 52   : 		case CL_INVALID_SAMPLER: printf("- Invalid sampler object\n"); break;

	push	OFFSET ??_C@_0BK@BLAMBFJG@?9?5Invalid?5sampler?5object?6?$AA@
	call	_printf
	add	esp, 4
	jmp	SHORT $LN20@cl_print_e
$LN7@cl_print_e:

; 53   : 		case CL_INVALID_VALUE: printf("- Offset or size out-of-bounds or *results is a NULL value\n"); break;

	push	OFFSET ??_C@_0DM@FFFIJCDB@?9?5Offset?5or?5size?5out?9of?9bounds?5o@
	call	_printf
	add	esp, 4
	jmp	SHORT $LN20@cl_print_e
$LN6@cl_print_e:

; 54   : 		case CL_INVALID_WORK_DIMENSION: printf(" - work_dim is not a valid value\n"); break;

	push	OFFSET ??_C@_0CC@GEBFDNCA@?5?9?5work_dim?5is?5not?5a?5valid?5value@
	call	_printf
	add	esp, 4
	jmp	SHORT $LN20@cl_print_e
$LN5@cl_print_e:

; 55   : 		case CL_INVALID_WORK_GROUP_SIZE: printf(" - global_work_size is not evenly divisable by local_work_size\n"); break;

	push	OFFSET ??_C@_0EA@CCADPGGI@?5?9?5global_work_size?5is?5not?5evenl@
	call	_printf
	add	esp, 4
	jmp	SHORT $LN20@cl_print_e
$LN4@cl_print_e:

; 56   : 		case CL_INVALID_WORK_ITEM_SIZE: printf(" - local_work_size is greater than CL_DEVICE_MAX_WORK_ITEM_SIZES\n"); break;

	push	OFFSET ??_C@_0EC@GOFGLOMA@?5?9?5local_work_size?5is?5greater?5th@
	call	_printf
	add	esp, 4
	jmp	SHORT $LN20@cl_print_e
$LN3@cl_print_e:

; 57   : 		case CL_MEM_OBJECT_ALLOCATION_FAILURE: printf("- Failed to allocate or read memory for data store associated with buffer\n"); break;

	push	OFFSET ??_C@_0EL@JIBFLOOI@?9?5Failed?5to?5allocate?5or?5read?5mem@
	call	_printf
	add	esp, 4
	jmp	SHORT $LN20@cl_print_e
$LN2@cl_print_e:

; 58   : 		case CL_OUT_OF_HOST_MEMORY: printf("- Failed to allocate or read resources required by the OpenCL implementation on the host\n"); break;

	push	OFFSET ??_C@_0FK@OFFEAEOE@?9?5Failed?5to?5allocate?5or?5read?5res@
	call	_printf
	add	esp, 4
	jmp	SHORT $LN20@cl_print_e
$LN1@cl_print_e:

; 59   : 		case CL_OUT_OF_RESOURCES: printf(" - Nobody knows what happened (CL_OUT_OF_RESOURCES)\n"); break;

	push	OFFSET ??_C@_0DF@LKOFKLDO@?5?9?5Nobody?5knows?5what?5happened?5?$CIC@
	call	_printf
	add	esp, 4
$LN20@cl_print_e:

; 60   : 	}
; 61   : 
; 62   : 	exit(EXIT_FAILURE);

	push	1
	call	_exit
$LN23@cl_print_e:

; 63   : }

	pop	edi
	pop	esi
	pop	ebx
	add	esp, 208				; 000000d0H
	cmp	ebp, esp
	call	__RTC_CheckEsp
	mov	esp, ebp
	pop	ebp
	ret	0
	npad	3
$LN25@cl_print_e:
	DD	$LN14@cl_print_e
	DD	$LN13@cl_print_e
	DD	$LN4@cl_print_e
	DD	$LN5@cl_print_e
	DD	$LN6@cl_print_e
	DD	$LN11@cl_print_e
	DD	$LN18@cl_print_e
	DD	$LN17@cl_print_e
	DD	$LN19@cl_print_e
	DD	$LN12@cl_print_e
	DD	$LN9@cl_print_e
	DD	$LN8@cl_print_e
	DD	$LN10@cl_print_e
	DD	$LN16@cl_print_e
	DD	$LN15@cl_print_e
	DD	$LN7@cl_print_e
	DD	$LN2@cl_print_e
	DD	$LN1@cl_print_e
	DD	$LN3@cl_print_e
	DD	$LN20@cl_print_e
$LN24@cl_print_e:
	DB	0
	DB	1
	DB	2
	DB	3
	DB	4
	DB	5
	DB	6
	DB	7
	DB	8
	DB	9
	DB	19					; 00000013H
	DB	19					; 00000013H
	DB	10					; 0000000aH
	DB	19					; 00000013H
	DB	19					; 00000013H
	DB	19					; 00000013H
	DB	11					; 0000000bH
	DB	19					; 00000013H
	DB	19					; 00000013H
	DB	12					; 0000000cH
	DB	19					; 00000013H
	DB	13					; 0000000dH
	DB	19					; 00000013H
	DB	14					; 0000000eH
	DB	19					; 00000013H
	DB	19					; 00000013H
	DB	19					; 00000013H
	DB	15					; 0000000fH
	DB	19					; 00000013H
	DB	19					; 00000013H
	DB	19					; 00000013H
	DB	19					; 00000013H
	DB	19					; 00000013H
	DB	19					; 00000013H
	DB	19					; 00000013H
	DB	19					; 00000013H
	DB	19					; 00000013H
	DB	19					; 00000013H
	DB	19					; 00000013H
	DB	19					; 00000013H
	DB	19					; 00000013H
	DB	19					; 00000013H
	DB	19					; 00000013H
	DB	19					; 00000013H
	DB	19					; 00000013H
	DB	19					; 00000013H
	DB	19					; 00000013H
	DB	19					; 00000013H
	DB	19					; 00000013H
	DB	19					; 00000013H
	DB	19					; 00000013H
	DB	16					; 00000010H
	DB	17					; 00000011H
	DB	18					; 00000012H
?cl_print_error@@YAXHPBDZZ ENDP				; cl_print_error
_TEXT	ENDS
PUBLIC	?read@?$basic_istream@DU?$char_traits@D@std@@@std@@QAEAAV12@PAD_J@Z ; std::basic_istream<char,std::char_traits<char> >::read
PUBLIC	?seekg@?$basic_istream@DU?$char_traits@D@std@@@std@@QAEAAV12@_JH@Z ; std::basic_istream<char,std::char_traits<char> >::seekg
PUBLIC	??B?$fpos@H@std@@QBE_JXZ			; std::fpos<int>::operator __int64
PUBLIC	?tellg@?$basic_istream@DU?$char_traits@D@std@@@std@@QAE?AV?$fpos@H@2@XZ ; std::basic_istream<char,std::char_traits<char> >::tellg
PUBLIC	??_D?$basic_fstream@DU?$char_traits@D@std@@@std@@QAEXXZ ; std::basic_fstream<char,std::char_traits<char> >::`vbase destructor'
PUBLIC	?is_open@?$basic_fstream@DU?$char_traits@D@std@@@std@@QBE_NXZ ; std::basic_fstream<char,std::char_traits<char> >::is_open
PUBLIC	?clear@?$basic_ios@DU?$char_traits@D@std@@@std@@QAEXH_N@Z ; std::basic_ios<char,std::char_traits<char> >::clear
PUBLIC	??0?$basic_fstream@DU?$char_traits@D@std@@@std@@QAE@PBDHH@Z ; std::basic_fstream<char,std::char_traits<char> >::basic_fstream<char,std::char_traits<char> >
PUBLIC	?file_get_contents@@YAPADPBDPAH@Z		; file_get_contents
EXTRN	_memset:PROC
EXTRN	??_U@YAPAXI@Z:PROC				; operator new[]
EXTRN	___security_cookie:DWORD
EXTRN	___CxxFrameHandler3:PROC
EXTRN	@__security_check_cookie@4:PROC
EXTRN	@_RTC_CheckStackVars@8:PROC
;	COMDAT xdata$x
xdata$x	SEGMENT
__unwindtable$?file_get_contents@@YAPADPBDPAH@Z DD 0ffffffffH
	DD	FLAT:__unwindfunclet$?file_get_contents@@YAPADPBDPAH@Z$0
__ehfuncinfo$?file_get_contents@@YAPADPBDPAH@Z DD 019930522H
	DD	01H
	DD	FLAT:__unwindtable$?file_get_contents@@YAPADPBDPAH@Z
	DD	2 DUP(00H)
	DD	2 DUP(00H)
	DD	00H
	DD	01H
; Function compile flags: /Odtp /RTCsu /ZI
xdata$x	ENDS
;	COMDAT ?file_get_contents@@YAPADPBDPAH@Z
_TEXT	SEGMENT
$T36561 = -496						; size = 4
$T36562 = -484						; size = 24
$T36563 = -452						; size = 4
$T36564 = -440						; size = 4
$T36565 = -428						; size = 4
_content$ = -224					; size = 4
_size$ = -212						; size = 4
_f$ = -200						; size = 184
__$EHRec$ = -12						; size = 12
_file_path$ = 8						; size = 4
_ret_size$ = 12						; size = 4
?file_get_contents@@YAPADPBDPAH@Z PROC			; file_get_contents, COMDAT

; 66   : {

	push	ebp
	mov	ebp, esp
	push	-1
	push	__ehhandler$?file_get_contents@@YAPADPBDPAH@Z
	mov	eax, DWORD PTR fs:0
	push	eax
	sub	esp, 488				; 000001e8H
	push	ebx
	push	esi
	push	edi
	lea	edi, DWORD PTR [ebp-500]
	mov	ecx, 122				; 0000007aH
	mov	eax, -858993460				; ccccccccH
	rep stosd
	mov	eax, DWORD PTR ___security_cookie
	xor	eax, ebp
	push	eax
	lea	eax, DWORD PTR __$EHRec$[ebp]
	mov	DWORD PTR fs:0, eax

; 67   : 	fstream f(file_path, ios::in | ios::ate);

	push	1
	push	64					; 00000040H
	push	5
	mov	eax, DWORD PTR _file_path$[ebp]
	push	eax
	lea	ecx, DWORD PTR _f$[ebp]
	call	??0?$basic_fstream@DU?$char_traits@D@std@@@std@@QAE@PBDHH@Z ; std::basic_fstream<char,std::char_traits<char> >::basic_fstream<char,std::char_traits<char> >
	mov	DWORD PTR __$EHRec$[ebp+8], 0

; 68   : 	f.clear();

	push	0
	push	0
	mov	eax, DWORD PTR _f$[ebp]
	mov	ecx, DWORD PTR [eax+4]
	lea	ecx, DWORD PTR _f$[ebp+ecx]
	call	?clear@?$basic_ios@DU?$char_traits@D@std@@@std@@QAEXH_N@Z ; std::basic_ios<char,std::char_traits<char> >::clear

; 69   : 
; 70   : 	if (ret_size != nullptr)

	cmp	DWORD PTR _ret_size$[ebp], 0
	je	SHORT $LN4@file_get_c

; 71   : 	{
; 72   : 		*ret_size = 0;

	mov	eax, DWORD PTR _ret_size$[ebp]
	mov	DWORD PTR [eax], 0
$LN4@file_get_c:

; 73   : 	}
; 74   : 
; 75   : 	if ( ! f.is_open())

	lea	ecx, DWORD PTR _f$[ebp]
	call	?is_open@?$basic_fstream@DU?$char_traits@D@std@@@std@@QBE_NXZ ; std::basic_fstream<char,std::char_traits<char> >::is_open
	movzx	eax, al
	test	eax, eax
	jne	SHORT $LN3@file_get_c

; 76   : 	{
; 77   : 		return nullptr;

	mov	DWORD PTR $T36561[ebp], 0
	mov	DWORD PTR __$EHRec$[ebp+8], -1
	lea	ecx, DWORD PTR _f$[ebp]
	call	??_D?$basic_fstream@DU?$char_traits@D@std@@@std@@QAEXXZ
	mov	eax, DWORD PTR $T36561[ebp]
	jmp	$LN5@file_get_c
$LN3@file_get_c:

; 78   : 	}
; 79   : 
; 80   : 	int size = (int) f.tellg();

	lea	eax, DWORD PTR $T36562[ebp]
	push	eax
	lea	ecx, DWORD PTR _f$[ebp]
	call	?tellg@?$basic_istream@DU?$char_traits@D@std@@@std@@QAE?AV?$fpos@H@2@XZ ; std::basic_istream<char,std::char_traits<char> >::tellg
	mov	ecx, eax
	call	??B?$fpos@H@std@@QBE_JXZ		; std::fpos<int>::operator __int64
	mov	DWORD PTR _size$[ebp], eax

; 81   : 	f.seekg (0, ios::beg);

	push	0
	push	0
	push	0
	lea	ecx, DWORD PTR _f$[ebp]
	call	?seekg@?$basic_istream@DU?$char_traits@D@std@@@std@@QAEAAV12@_JH@Z ; std::basic_istream<char,std::char_traits<char> >::seekg

; 82   : 
; 83   : 	if (size <= 0)

	cmp	DWORD PTR _size$[ebp], 0
	jg	SHORT $LN2@file_get_c

; 84   : 	{
; 85   : 		return nullptr;

	mov	DWORD PTR $T36563[ebp], 0
	mov	DWORD PTR __$EHRec$[ebp+8], -1
	lea	ecx, DWORD PTR _f$[ebp]
	call	??_D?$basic_fstream@DU?$char_traits@D@std@@@std@@QAEXXZ
	mov	eax, DWORD PTR $T36563[ebp]
	jmp	$LN5@file_get_c
$LN2@file_get_c:

; 86   : 	}
; 87   : 
; 88   : 	char *content = new char[size];

	mov	eax, DWORD PTR _size$[ebp]
	push	eax
	call	??_U@YAPAXI@Z				; operator new[]
	add	esp, 4
	mov	DWORD PTR $T36564[ebp], eax
	mov	ecx, DWORD PTR $T36564[ebp]
	mov	DWORD PTR _content$[ebp], ecx

; 89   : 	memset(content, 0, size);

	mov	eax, DWORD PTR _size$[ebp]
	push	eax
	push	0
	mov	ecx, DWORD PTR _content$[ebp]
	push	ecx
	call	_memset
	add	esp, 12					; 0000000cH

; 90   : 
; 91   : 	f.read(content, size);

	mov	eax, DWORD PTR _size$[ebp]
	cdq
	push	edx
	push	eax
	mov	eax, DWORD PTR _content$[ebp]
	push	eax
	lea	ecx, DWORD PTR _f$[ebp]
	call	?read@?$basic_istream@DU?$char_traits@D@std@@@std@@QAEAAV12@PAD_J@Z ; std::basic_istream<char,std::char_traits<char> >::read

; 92   : 
; 93   : 	if (ret_size != nullptr)

	cmp	DWORD PTR _ret_size$[ebp], 0
	je	SHORT $LN1@file_get_c

; 94   : 	{
; 95   : 		*ret_size = size;

	mov	eax, DWORD PTR _ret_size$[ebp]
	mov	ecx, DWORD PTR _size$[ebp]
	mov	DWORD PTR [eax], ecx
$LN1@file_get_c:

; 96   : 	}
; 97   : 
; 98   : 	return content;

	mov	eax, DWORD PTR _content$[ebp]
	mov	DWORD PTR $T36565[ebp], eax
	mov	DWORD PTR __$EHRec$[ebp+8], -1
	lea	ecx, DWORD PTR _f$[ebp]
	call	??_D?$basic_fstream@DU?$char_traits@D@std@@@std@@QAEXXZ
	mov	eax, DWORD PTR $T36565[ebp]
$LN5@file_get_c:

; 99   : }

	push	edx
	mov	ecx, ebp
	push	eax
	lea	edx, DWORD PTR $LN11@file_get_c
	call	@_RTC_CheckStackVars@8
	pop	eax
	pop	edx
	mov	ecx, DWORD PTR __$EHRec$[ebp]
	mov	DWORD PTR fs:0, ecx
	pop	ecx
	pop	edi
	pop	esi
	pop	ebx
	add	esp, 500				; 000001f4H
	cmp	ebp, esp
	call	__RTC_CheckEsp
	mov	esp, ebp
	pop	ebp
	ret	0
	npad	1
$LN11@file_get_c:
	DD	1
	DD	$LN10@file_get_c
$LN10@file_get_c:
	DD	-200					; ffffff38H
	DD	184					; 000000b8H
	DD	$LN8@file_get_c
$LN8@file_get_c:
	DB	102					; 00000066H
	DB	0
_TEXT	ENDS
;	COMDAT text$x
text$x	SEGMENT
__unwindfunclet$?file_get_contents@@YAPADPBDPAH@Z$0:
	lea	ecx, DWORD PTR _f$[ebp]
	jmp	??_D?$basic_fstream@DU?$char_traits@D@std@@@std@@QAEXXZ
__ehhandler$?file_get_contents@@YAPADPBDPAH@Z:
	mov	edx, DWORD PTR [esp+8]
	lea	eax, DWORD PTR [edx+12]
	mov	ecx, DWORD PTR [edx-504]
	xor	ecx, eax
	call	@__security_check_cookie@4
	mov	eax, OFFSET __ehfuncinfo$?file_get_contents@@YAPADPBDPAH@Z
	jmp	___CxxFrameHandler3
text$x	ENDS
?file_get_contents@@YAPADPBDPAH@Z ENDP			; file_get_contents
PUBLIC	??1?$basic_ios@DU?$char_traits@D@std@@@std@@UAE@XZ ; std::basic_ios<char,std::char_traits<char> >::~basic_ios<char,std::char_traits<char> >
PUBLIC	??1?$basic_fstream@DU?$char_traits@D@std@@@std@@UAE@XZ ; std::basic_fstream<char,std::char_traits<char> >::~basic_fstream<char,std::char_traits<char> >
; Function compile flags: /Odtp /RTCsu /ZI
;	COMDAT ??_D?$basic_fstream@DU?$char_traits@D@std@@@std@@QAEXXZ
_TEXT	SEGMENT
_this$ = -8						; size = 4
??_D?$basic_fstream@DU?$char_traits@D@std@@@std@@QAEXXZ PROC ; std::basic_fstream<char,std::char_traits<char> >::`vbase destructor', COMDAT
; _this$ = ecx
	push	ebp
	mov	ebp, esp
	sub	esp, 204				; 000000ccH
	push	ebx
	push	esi
	push	edi
	push	ecx
	lea	edi, DWORD PTR [ebp-204]
	mov	ecx, 51					; 00000033H
	mov	eax, -858993460				; ccccccccH
	rep stosd
	pop	ecx
	mov	DWORD PTR _this$[ebp], ecx
	mov	ecx, DWORD PTR _this$[ebp]
	add	ecx, 112				; 00000070H
	call	??1?$basic_fstream@DU?$char_traits@D@std@@@std@@UAE@XZ ; std::basic_fstream<char,std::char_traits<char> >::~basic_fstream<char,std::char_traits<char> >
	mov	ecx, DWORD PTR _this$[ebp]
	add	ecx, 112				; 00000070H
	call	??1?$basic_ios@DU?$char_traits@D@std@@@std@@UAE@XZ ; std::basic_ios<char,std::char_traits<char> >::~basic_ios<char,std::char_traits<char> >
	pop	edi
	pop	esi
	pop	ebx
	add	esp, 204				; 000000ccH
	cmp	ebp, esp
	call	__RTC_CheckEsp
	mov	esp, ebp
	pop	ebp
	ret	0
??_D?$basic_fstream@DU?$char_traits@D@std@@@std@@QAEXXZ ENDP ; std::basic_fstream<char,std::char_traits<char> >::`vbase destructor'
_TEXT	ENDS
PUBLIC	?close@?$basic_fstream@DU?$char_traits@D@std@@@std@@QAEXXZ ; std::basic_fstream<char,std::char_traits<char> >::close
PUBLIC	?write@?$basic_ostream@DU?$char_traits@D@std@@@std@@QAEAAV12@PBD_J@Z ; std::basic_ostream<char,std::char_traits<char> >::write
PUBLIC	?open@?$basic_fstream@DU?$char_traits@D@std@@@std@@QAEXPBDHH@Z ; std::basic_fstream<char,std::char_traits<char> >::open
PUBLIC	?file_put_contents@@YA_NPBDPAD_J@Z		; file_put_contents
EXTRN	_strlen:PROC
;	COMDAT xdata$x
xdata$x	SEGMENT
__unwindtable$?file_put_contents@@YA_NPBDPAD_J@Z DD 0ffffffffH
	DD	FLAT:__unwindfunclet$?file_put_contents@@YA_NPBDPAD_J@Z$0
__ehfuncinfo$?file_put_contents@@YA_NPBDPAD_J@Z DD 019930522H
	DD	01H
	DD	FLAT:__unwindtable$?file_put_contents@@YA_NPBDPAD_J@Z
	DD	2 DUP(00H)
	DD	2 DUP(00H)
	DD	00H
	DD	01H
; Function compile flags: /Odtp /RTCsu /ZI
xdata$x	ENDS
;	COMDAT ?file_put_contents@@YA_NPBDPAD_J@Z
_TEXT	SEGMENT
$T36586 = -413						; size = 1
$T36587 = -401						; size = 1
_f$ = -200						; size = 184
__$EHRec$ = -12						; size = 12
_file_path$ = 8						; size = 4
_data$ = 12						; size = 4
_size$ = 16						; size = 8
?file_put_contents@@YA_NPBDPAD_J@Z PROC			; file_put_contents, COMDAT

; 102  : {

	push	ebp
	mov	ebp, esp
	push	-1
	push	__ehhandler$?file_put_contents@@YA_NPBDPAD_J@Z
	mov	eax, DWORD PTR fs:0
	push	eax
	sub	esp, 408				; 00000198H
	push	ebx
	push	esi
	push	edi
	lea	edi, DWORD PTR [ebp-420]
	mov	ecx, 102				; 00000066H
	mov	eax, -858993460				; ccccccccH
	rep stosd
	mov	eax, DWORD PTR ___security_cookie
	xor	eax, ebp
	push	eax
	lea	eax, DWORD PTR __$EHRec$[ebp]
	mov	DWORD PTR fs:0, eax

; 103  : 	fstream f(file_path, ios::out | ios::trunc);

	push	1
	push	64					; 00000040H
	push	18					; 00000012H
	mov	eax, DWORD PTR _file_path$[ebp]
	push	eax
	lea	ecx, DWORD PTR _f$[ebp]
	call	??0?$basic_fstream@DU?$char_traits@D@std@@@std@@QAE@PBDHH@Z ; std::basic_fstream<char,std::char_traits<char> >::basic_fstream<char,std::char_traits<char> >
	mov	DWORD PTR __$EHRec$[ebp+8], 0

; 104  : 	f.open(file_path);

	push	64					; 00000040H
	push	3
	mov	eax, DWORD PTR _file_path$[ebp]
	push	eax
	lea	ecx, DWORD PTR _f$[ebp]
	call	?open@?$basic_fstream@DU?$char_traits@D@std@@@std@@QAEXPBDHH@Z ; std::basic_fstream<char,std::char_traits<char> >::open

; 105  : 	f.clear();

	push	0
	push	0
	mov	eax, DWORD PTR _f$[ebp]
	mov	ecx, DWORD PTR [eax+4]
	lea	ecx, DWORD PTR _f$[ebp+ecx]
	call	?clear@?$basic_ios@DU?$char_traits@D@std@@@std@@QAEXH_N@Z ; std::basic_ios<char,std::char_traits<char> >::clear

; 106  : 
; 107  : 	if ( ! f.is_open())

	lea	ecx, DWORD PTR _f$[ebp]
	call	?is_open@?$basic_fstream@DU?$char_traits@D@std@@@std@@QBE_NXZ ; std::basic_fstream<char,std::char_traits<char> >::is_open
	movzx	eax, al
	test	eax, eax
	jne	SHORT $LN2@file_put_c

; 108  : 	{
; 109  : 		return false;

	mov	BYTE PTR $T36586[ebp], 0
	mov	DWORD PTR __$EHRec$[ebp+8], -1
	lea	ecx, DWORD PTR _f$[ebp]
	call	??_D?$basic_fstream@DU?$char_traits@D@std@@@std@@QAEXXZ
	mov	al, BYTE PTR $T36586[ebp]
	jmp	SHORT $LN3@file_put_c
$LN2@file_put_c:

; 110  : 	}
; 111  : 
; 112  : 	if (size < streamsize(-1))

	cmp	DWORD PTR _size$[ebp+4], -1
	jg	SHORT $LN1@file_put_c
	jl	SHORT $LN6@file_put_c
	cmp	DWORD PTR _size$[ebp], -1
	jae	SHORT $LN1@file_put_c
$LN6@file_put_c:

; 113  : 	{
; 114  : 		size = strlen(data);

	mov	eax, DWORD PTR _data$[ebp]
	push	eax
	call	_strlen
	add	esp, 4
	xor	ecx, ecx
	mov	DWORD PTR _size$[ebp], eax
	mov	DWORD PTR _size$[ebp+4], ecx
$LN1@file_put_c:

; 115  : 	}
; 116  : 
; 117  : 	f.write(data, size);

	mov	eax, DWORD PTR _size$[ebp+4]
	push	eax
	mov	ecx, DWORD PTR _size$[ebp]
	push	ecx
	mov	edx, DWORD PTR _data$[ebp]
	push	edx
	lea	ecx, DWORD PTR _f$[ebp+16]
	call	?write@?$basic_ostream@DU?$char_traits@D@std@@@std@@QAEAAV12@PBD_J@Z ; std::basic_ostream<char,std::char_traits<char> >::write

; 118  : 
; 119  : 	f.close();

	lea	ecx, DWORD PTR _f$[ebp]
	call	?close@?$basic_fstream@DU?$char_traits@D@std@@@std@@QAEXXZ ; std::basic_fstream<char,std::char_traits<char> >::close

; 120  : 
; 121  : 	return true;

	mov	BYTE PTR $T36587[ebp], 1
	mov	DWORD PTR __$EHRec$[ebp+8], -1
	lea	ecx, DWORD PTR _f$[ebp]
	call	??_D?$basic_fstream@DU?$char_traits@D@std@@@std@@QAEXXZ
	mov	al, BYTE PTR $T36587[ebp]
$LN3@file_put_c:

; 122  : }

	push	edx
	mov	ecx, ebp
	push	eax
	lea	edx, DWORD PTR $LN10@file_put_c
	call	@_RTC_CheckStackVars@8
	pop	eax
	pop	edx
	mov	ecx, DWORD PTR __$EHRec$[ebp]
	mov	DWORD PTR fs:0, ecx
	pop	ecx
	pop	edi
	pop	esi
	pop	ebx
	add	esp, 420				; 000001a4H
	cmp	ebp, esp
	call	__RTC_CheckEsp
	mov	esp, ebp
	pop	ebp
	ret	0
	npad	1
$LN10@file_put_c:
	DD	1
	DD	$LN9@file_put_c
$LN9@file_put_c:
	DD	-200					; ffffff38H
	DD	184					; 000000b8H
	DD	$LN7@file_put_c
$LN7@file_put_c:
	DB	102					; 00000066H
	DB	0
_TEXT	ENDS
;	COMDAT text$x
text$x	SEGMENT
__unwindfunclet$?file_put_contents@@YA_NPBDPAD_J@Z$0:
	lea	ecx, DWORD PTR _f$[ebp]
	jmp	??_D?$basic_fstream@DU?$char_traits@D@std@@@std@@QAEXXZ
__ehhandler$?file_put_contents@@YA_NPBDPAD_J@Z:
	mov	edx, DWORD PTR [esp+8]
	lea	eax, DWORD PTR [edx+12]
	mov	ecx, DWORD PTR [edx-424]
	xor	ecx, eax
	call	@__security_check_cookie@4
	mov	eax, OFFSET __ehfuncinfo$?file_put_contents@@YA_NPBDPAD_J@Z
	jmp	___CxxFrameHandler3
text$x	ENDS
?file_put_contents@@YA_NPBDPAD_J@Z ENDP			; file_put_contents
PUBLIC	??_C@_0CM@DELDPDPF@Error?3?5failed?5to?5create?5program?5@ ; `string'
PUBLIC	??_C@_0P@GJLBDKA@Build?5log?3?6?$CFs?6?$AA@	; `string'
PUBLIC	??_C@_0CN@BGPKGJHL@?9cl?9mad?9enable?5?9cl?9unsafe?9math?9o@ ; `string'
PUBLIC	??_C@_0CJ@FJBOGDEN@Error?3?5failed?5to?5create?5compute?5@ ; `string'
PUBLIC	??1?$basic_string@DU?$char_traits@D@std@@V?$allocator@D@2@@std@@QAE@XZ ; std::basic_string<char,std::char_traits<char>,std::allocator<char> >::~basic_string<char,std::char_traits<char>,std::allocator<char> >
PUBLIC	?c_str@?$basic_string@DU?$char_traits@D@std@@V?$allocator@D@2@@std@@QBEPBDXZ ; std::basic_string<char,std::char_traits<char>,std::allocator<char> >::c_str
PUBLIC	?append@?$basic_string@DU?$char_traits@D@std@@V?$allocator@D@2@@std@@QAEAAV12@PBD@Z ; std::basic_string<char,std::char_traits<char>,std::allocator<char> >::append
PUBLIC	?reserve@?$basic_string@DU?$char_traits@D@std@@V?$allocator@D@2@@std@@QAEXI@Z ; std::basic_string<char,std::char_traits<char>,std::allocator<char> >::reserve
PUBLIC	??0?$basic_string@DU?$char_traits@D@std@@V?$allocator@D@2@@std@@QAE@XZ ; std::basic_string<char,std::char_traits<char>,std::allocator<char> >::basic_string<char,std::char_traits<char>,std::allocator<char> >
PUBLIC	??_C@_0BA@MPFLPHGI@?6?1?1?5time?$CI?$CJ?5?$DN?5?$CFu?$AA@ ; `string'
PUBLIC	??_C@_0CO@NINDEDDL@Error?3?5failed?5to?5load?5source?5pro@ ; `string'
PUBLIC	??Y?$basic_string@DU?$char_traits@D@std@@V?$allocator@D@2@@std@@QAEAAV01@PBD@Z ; std::basic_string<char,std::char_traits<char>,std::allocator<char> >::operator+=
PUBLIC	??_C@_07GAFKKPGM@?4cached?$AA@			; `string'
PUBLIC	??0?$basic_string@DU?$char_traits@D@std@@V?$allocator@D@2@@std@@QAE@PBD@Z ; std::basic_string<char,std::char_traits<char>,std::allocator<char> >::basic_string<char,std::char_traits<char>,std::allocator<char> >
PUBLIC	??_C@_0CJ@CDIEGNMJ@Error?3?5failed?5to?5create?5a?5comman@ ; `string'
PUBLIC	??_C@_0CL@GFFLIIBK@Error?3?5failed?5to?5create?5a?5comput@ ; `string'
PUBLIC	??_C@_0CA@JGBMOJJG@Error?3?5could?5not?5get?5device?5id?6?$AA@ ; `string'
PUBLIC	??_C@_0CO@IBFBJMIF@Warning?3?5no?5GPU?5support?0?5falling@ ; `string'
PUBLIC	??_C@_0CM@DGFADCLC@Error?3?5could?5not?5connect?5to?5comp@ ; `string'
PUBLIC	__$ArrayPad$
PUBLIC	?cl_build_program@@YA_N_N@Z			; cl_build_program
EXTRN	_clGetProgramBuildInfo@24:PROC
EXTRN	_clBuildProgram@24:PROC
EXTRN	??_V@YAXPAX@Z:PROC				; operator delete[]
EXTRN	_clCreateProgramWithSource@20:PROC
EXTRN	_sprintf_s:PROC
EXTRN	_clCreateCommandQueue@20:PROC
EXTRN	_clCreateContext@24:PROC
EXTRN	_clGetDeviceIDs@24:PROC
EXTRN	_clGetPlatformIDs@12:PROC
EXTRN	__chkstk:PROC
;	COMDAT ??_C@_0CM@DELDPDPF@Error?3?5failed?5to?5create?5program?5@
CONST	SEGMENT
??_C@_0CM@DELDPDPF@Error?3?5failed?5to?5create?5program?5@ DB 'Error: fai'
	DB	'led to create program executable', 0aH, 00H	; `string'
CONST	ENDS
;	COMDAT ??_C@_0P@GJLBDKA@Build?5log?3?6?$CFs?6?$AA@
CONST	SEGMENT
??_C@_0P@GJLBDKA@Build?5log?3?6?$CFs?6?$AA@ DB 'Build log:', 0aH, '%s', 0aH
	DB	00H						; `string'
CONST	ENDS
;	COMDAT ??_C@_0CN@BGPKGJHL@?9cl?9mad?9enable?5?9cl?9unsafe?9math?9o@
CONST	SEGMENT
??_C@_0CN@BGPKGJHL@?9cl?9mad?9enable?5?9cl?9unsafe?9math?9o@ DB '-cl-mad-'
	DB	'enable -cl-unsafe-math-optimizations', 00H	; `string'
CONST	ENDS
;	COMDAT ??_C@_0CJ@FJBOGDEN@Error?3?5failed?5to?5create?5compute?5@
CONST	SEGMENT
??_C@_0CJ@FJBOGDEN@Error?3?5failed?5to?5create?5compute?5@ DB 'Error: fai'
	DB	'led to create compute program', 0aH, 00H	; `string'
CONST	ENDS
;	COMDAT ??_C@_0BA@MPFLPHGI@?6?1?1?5time?$CI?$CJ?5?$DN?5?$CFu?$AA@
CONST	SEGMENT
??_C@_0BA@MPFLPHGI@?6?1?1?5time?$CI?$CJ?5?$DN?5?$CFu?$AA@ DB 0aH, '// tim'
	DB	'e() = %u', 00H				; `string'
CONST	ENDS
;	COMDAT ??_C@_0CO@NINDEDDL@Error?3?5failed?5to?5load?5source?5pro@
CONST	SEGMENT
??_C@_0CO@NINDEDDL@Error?3?5failed?5to?5load?5source?5pro@ DB 'Error: fai'
	DB	'led to load source program from %s', 0aH, 00H ; `string'
CONST	ENDS
;	COMDAT ??_C@_07GAFKKPGM@?4cached?$AA@
CONST	SEGMENT
??_C@_07GAFKKPGM@?4cached?$AA@ DB '.cached', 00H	; `string'
CONST	ENDS
;	COMDAT ??_C@_0CJ@CDIEGNMJ@Error?3?5failed?5to?5create?5a?5comman@
CONST	SEGMENT
??_C@_0CJ@CDIEGNMJ@Error?3?5failed?5to?5create?5a?5comman@ DB 'Error: fai'
	DB	'led to create a command queue', 0aH, 00H	; `string'
CONST	ENDS
;	COMDAT ??_C@_0CL@GFFLIIBK@Error?3?5failed?5to?5create?5a?5comput@
CONST	SEGMENT
??_C@_0CL@GFFLIIBK@Error?3?5failed?5to?5create?5a?5comput@ DB 'Error: fai'
	DB	'led to create a compute context', 0aH, 00H	; `string'
CONST	ENDS
;	COMDAT ??_C@_0CA@JGBMOJJG@Error?3?5could?5not?5get?5device?5id?6?$AA@
CONST	SEGMENT
??_C@_0CA@JGBMOJJG@Error?3?5could?5not?5get?5device?5id?6?$AA@ DB 'Error:'
	DB	' could not get device id', 0aH, 00H		; `string'
CONST	ENDS
;	COMDAT ??_C@_0CO@IBFBJMIF@Warning?3?5no?5GPU?5support?0?5falling@
CONST	SEGMENT
??_C@_0CO@IBFBJMIF@Warning?3?5no?5GPU?5support?0?5falling@ DB 'Warning: n'
	DB	'o GPU support, falling back to CPU', 0aH, 00H ; `string'
CONST	ENDS
;	COMDAT ??_C@_0CM@DGFADCLC@Error?3?5could?5not?5connect?5to?5comp@
CONST	SEGMENT
??_C@_0CM@DGFADCLC@Error?3?5could?5not?5connect?5to?5comp@ DB 'Error: cou'
	DB	'ld not connect to compute device', 0aH, 00H	; `string'
CONST	ENDS
;	COMDAT xdata$x
xdata$x	SEGMENT
__unwindtable$?cl_build_program@@YA_N_N@Z DD 0ffffffffH
	DD	FLAT:__unwindfunclet$?cl_build_program@@YA_N_N@Z$0
	DD	00H
	DD	FLAT:__unwindfunclet$?cl_build_program@@YA_N_N@Z$1
__ehfuncinfo$?cl_build_program@@YA_N_N@Z DD 019930522H
	DD	02H
	DD	FLAT:__unwindtable$?cl_build_program@@YA_N_N@Z
	DD	2 DUP(00H)
	DD	2 DUP(00H)
	DD	00H
	DD	01H
; Function compile flags: /Odtp /RTCsu /ZI
xdata$x	ENDS
;	COMDAT ?cl_build_program@@YA_N_N@Z
_TEXT	SEGMENT
$T36602 = -10748					; size = 4
$T36603 = -10733					; size = 1
$T36604 = -10721					; size = 1
$T36605 = -10709					; size = 1
_buffer_ptr$ = -10508					; size = 4
_buffer$ = -10496					; size = 10240
_len$ = -248						; size = 4
_options$ = -236					; size = 4
_source_ptr$31933 = -224				; size = 4
_source_footer$31932 = -212				; size = 32
_footer_str$31930 = -172				; size = 64
_cached_source_path$ = -100				; size = 32
_cache_program$ = -57					; size = 1
_source_str$ = -48					; size = 4
_source_size$ = -36					; size = 4
_cl_print_error$ = -24					; size = 4
__$ArrayPad$ = -16					; size = 4
__$EHRec$ = -12						; size = 12
_silent$ = 8						; size = 1
?cl_build_program@@YA_N_N@Z PROC			; cl_build_program, COMDAT

; 125  : {

	push	ebp
	mov	ebp, esp
	push	-1
	push	__ehhandler$?cl_build_program@@YA_N_N@Z
	mov	eax, DWORD PTR fs:0
	push	eax
	mov	eax, 10740				; 000029f4H
	call	__chkstk
	push	ebx
	push	esi
	push	edi
	lea	edi, DWORD PTR [ebp-10752]
	mov	ecx, 2685				; 00000a7dH
	mov	eax, -858993460				; ccccccccH
	rep stosd
	mov	eax, DWORD PTR ___security_cookie
	xor	eax, ebp
	mov	DWORD PTR __$ArrayPad$[ebp], eax
	push	eax
	lea	eax, DWORD PTR __$EHRec$[ebp]
	mov	DWORD PTR fs:0, eax

; 126  : 	auto cl_print_error = ::cl_print_error;

	mov	DWORD PTR _cl_print_error$[ebp], OFFSET ?cl_print_error@@YAXHPBDZZ ; cl_print_error

; 127  : 	if (silent)

	movzx	eax, BYTE PTR _silent$[ebp]
	test	eax, eax
	je	SHORT $LN17@cl_build_p

; 128  : 	{
; 129  : 		cl_print_error = cl_print_error_silent;

	mov	DWORD PTR _cl_print_error$[ebp], OFFSET ?cl_print_error_silent@@YAXHPBDZZ ; cl_print_error_silent
$LN17@cl_build_p:

; 130  : 	}
; 131  : 
; 132  : 	err = clGetPlatformIDs(1, &platform_id, NULL);

	push	0
	push	OFFSET _platform_id
	push	1
	call	_clGetPlatformIDs@12
	mov	DWORD PTR _err, eax

; 133  : 	if (err != CL_SUCCESS) {

	cmp	DWORD PTR _err, 0
	je	SHORT $LN16@cl_build_p

; 134  : 		cl_print_error(err, "Error: could not connect to compute device\n");

	mov	esi, esp
	push	OFFSET ??_C@_0CM@DGFADCLC@Error?3?5could?5not?5connect?5to?5comp@
	mov	eax, DWORD PTR _err
	push	eax
	call	DWORD PTR _cl_print_error$[ebp]
	add	esp, 8
	cmp	esi, esp
	call	__RTC_CheckEsp

; 135  : 		return false;

	xor	al, al
	jmp	$LN18@cl_build_p
$LN16@cl_build_p:

; 136  : 	}
; 137  : 
; 138  : 	// Get a device of the appropriate type
; 139  : 	err = clGetDeviceIDs(platform_id, CL_DEVICE_TYPE_GPU, 1, &device_id, NULL);

	push	0
	push	OFFSET _device_id
	push	1
	push	0
	push	4
	mov	eax, DWORD PTR _platform_id
	push	eax
	call	_clGetDeviceIDs@24
	mov	DWORD PTR _err, eax

; 140  : 
; 141  : 	if (err != CL_SUCCESS) {

	cmp	DWORD PTR _err, 0
	je	SHORT $LN15@cl_build_p

; 142  : 		printf("Warning: no GPU support, falling back to CPU\n");

	push	OFFSET ??_C@_0CO@IBFBJMIF@Warning?3?5no?5GPU?5support?0?5falling@
	call	_printf
	add	esp, 4

; 143  : 
; 144  : 		err = clGetDeviceIDs(platform_id, CL_DEVICE_TYPE_CPU, 1, &device_id,
; 145  : 		                     NULL);

	push	0
	push	OFFSET _device_id
	push	1
	push	0
	push	2
	mov	eax, DWORD PTR _platform_id
	push	eax
	call	_clGetDeviceIDs@24
	mov	DWORD PTR _err, eax
$LN15@cl_build_p:

; 146  : 	}
; 147  : 
; 148  : 	if ( ! device_id) {

	cmp	DWORD PTR _device_id, 0
	jne	SHORT $LN14@cl_build_p

; 149  : 		cl_print_error(err, "Error: could not get device id\n");

	mov	esi, esp
	push	OFFSET ??_C@_0CA@JGBMOJJG@Error?3?5could?5not?5get?5device?5id?6?$AA@
	mov	eax, DWORD PTR _err
	push	eax
	call	DWORD PTR _cl_print_error$[ebp]
	add	esp, 8
	cmp	esi, esp
	call	__RTC_CheckEsp

; 150  : 		return false;

	xor	al, al
	jmp	$LN18@cl_build_p
$LN14@cl_build_p:

; 151  : 	}
; 152  : 
; 153  : 	// Create a compute context
; 154  : 	context = clCreateContext(0, 1, &device_id, NULL, NULL, &err);

	push	OFFSET _err
	push	0
	push	0
	push	OFFSET _device_id
	push	1
	push	0
	call	_clCreateContext@24
	mov	DWORD PTR _context, eax

; 155  : 	if ( ! context || err != CL_SUCCESS) {

	cmp	DWORD PTR _context, 0
	je	SHORT $LN12@cl_build_p
	cmp	DWORD PTR _err, 0
	je	SHORT $LN13@cl_build_p
$LN12@cl_build_p:

; 156  : 		cl_print_error(err, "Error: failed to create a compute context\n");

	mov	esi, esp
	push	OFFSET ??_C@_0CL@GFFLIIBK@Error?3?5failed?5to?5create?5a?5comput@
	mov	eax, DWORD PTR _err
	push	eax
	call	DWORD PTR _cl_print_error$[ebp]
	add	esp, 8
	cmp	esi, esp
	call	__RTC_CheckEsp

; 157  : 		return false;

	xor	al, al
	jmp	$LN18@cl_build_p
$LN13@cl_build_p:

; 158  : 	}
; 159  : 
; 160  : 	// Create a command queue
; 161  : 	queue = clCreateCommandQueue(context, device_id, 0, &err);

	push	OFFSET _err
	push	0
	push	0
	mov	eax, DWORD PTR _device_id
	push	eax
	mov	ecx, DWORD PTR _context
	push	ecx
	call	_clCreateCommandQueue@20
	mov	DWORD PTR _queue, eax

; 162  : 	if ( ! queue || err != CL_SUCCESS) {

	cmp	DWORD PTR _queue, 0
	je	SHORT $LN10@cl_build_p
	cmp	DWORD PTR _err, 0
	je	SHORT $LN11@cl_build_p
$LN10@cl_build_p:

; 163  : 		cl_print_error(err, "Error: failed to create a command queue\n");

	mov	esi, esp
	push	OFFSET ??_C@_0CJ@CDIEGNMJ@Error?3?5failed?5to?5create?5a?5comman@
	mov	eax, DWORD PTR _err
	push	eax
	call	DWORD PTR _cl_print_error$[ebp]
	add	esp, 8
	cmp	esi, esp
	call	__RTC_CheckEsp

; 164  : 		return false;

	xor	al, al
	jmp	$LN18@cl_build_p
$LN11@cl_build_p:

; 165  : 	}
; 166  : 
; 167  : 	int source_size = 0;

	mov	DWORD PTR _source_size$[ebp], 0

; 168  : 	char *source_str = nullptr;

	mov	DWORD PTR _source_str$[ebp], 0

; 169  : 	bool cache_program = true;

	mov	BYTE PTR _cache_program$[ebp], 1

; 170  : 	string cached_source_path = source_path;

	mov	eax, DWORD PTR _source_path
	push	eax
	lea	ecx, DWORD PTR _cached_source_path$[ebp]
	call	??0?$basic_string@DU?$char_traits@D@std@@V?$allocator@D@2@@std@@QAE@PBD@Z ; std::basic_string<char,std::char_traits<char>,std::allocator<char> >::basic_string<char,std::char_traits<char>,std::allocator<char> >
	mov	DWORD PTR __$EHRec$[ebp+8], 0

; 171  : 	cached_source_path += ".cached";

	push	OFFSET ??_C@_07GAFKKPGM@?4cached?$AA@
	lea	ecx, DWORD PTR _cached_source_path$[ebp]
	call	??Y?$basic_string@DU?$char_traits@D@std@@V?$allocator@D@2@@std@@QAEAAV01@PBD@Z ; std::basic_string<char,std::char_traits<char>,std::allocator<char> >::operator+=

; 172  : 
; 173  : #ifdef ENABLE_CACHING
; 174  : 	source_str = file_get_contents(cached_source_path.c_str(), &source_size);
; 175  : 
; 176  : 	if (source_str != nullptr && source_size != 0)
; 177  : 	{
; 178  : 		program = clCreateProgramWithBinary(context, 1, &device_id, (const size_t *) &source_size, (const unsigned char **) &source_str, NULL, &err);
; 179  : 
; 180  : 		if ( ! program || err != CL_SUCCESS)
; 181  : 		{
; 182  : 			printf("Warning: failed to create compute program from binary\n");
; 183  : 			program = nullptr;
; 184  : 		}
; 185  : 		else
; 186  : 		{
; 187  : 			printf("Info: program loaded from cached binary\n");
; 188  : 			cache_program = false;
; 189  : 		}
; 190  : 
; 191  : 		delete[] source_str;
; 192  : 	}
; 193  : #endif
; 194  : 
; 195  : 	if (program == nullptr)

	cmp	DWORD PTR _program, 0
	jne	$LN9@cl_build_p

; 196  : 	{
; 197  : 		source_str = file_get_contents(source_path, &source_size);

	lea	eax, DWORD PTR _source_size$[ebp]
	push	eax
	mov	ecx, DWORD PTR _source_path
	push	ecx
	call	?file_get_contents@@YAPADPBDPAH@Z	; file_get_contents
	add	esp, 8
	mov	DWORD PTR _source_str$[ebp], eax

; 198  : 
; 199  : 		if (source_str == nullptr)

	cmp	DWORD PTR _source_str$[ebp], 0
	jne	SHORT $LN8@cl_build_p

; 200  : 		{
; 201  : 			cl_print_error(NULL, "Error: failed to load source program from %s\n", source_path);

	mov	esi, esp
	mov	eax, DWORD PTR _source_path
	push	eax
	push	OFFSET ??_C@_0CO@NINDEDDL@Error?3?5failed?5to?5load?5source?5pro@
	push	0
	call	DWORD PTR _cl_print_error$[ebp]
	add	esp, 12					; 0000000cH
	cmp	esi, esp
	call	__RTC_CheckEsp
$LN8@cl_build_p:

; 202  : 		}
; 203  : 		
; 204  : 		char footer_str[64];
; 205  : 		sprintf_s(footer_str, 64, "\n// time() = %u", time(NULL));

	push	0
	call	_time
	add	esp, 4
	push	edx
	push	eax
	push	OFFSET ??_C@_0BA@MPFLPHGI@?6?1?1?5time?$CI?$CJ?5?$DN?5?$CFu?$AA@
	push	64					; 00000040H
	lea	eax, DWORD PTR _footer_str$31930[ebp]
	push	eax
	call	_sprintf_s
	add	esp, 20					; 00000014H

; 206  : 
; 207  : 		string source_footer;

	lea	ecx, DWORD PTR _source_footer$31932[ebp]
	call	??0?$basic_string@DU?$char_traits@D@std@@V?$allocator@D@2@@std@@QAE@XZ ; std::basic_string<char,std::char_traits<char>,std::allocator<char> >::basic_string<char,std::char_traits<char>,std::allocator<char> >
	mov	BYTE PTR __$EHRec$[ebp+8], 1

; 208  : 		source_footer.reserve(source_size + 64);

	mov	eax, DWORD PTR _source_size$[ebp]
	add	eax, 64					; 00000040H
	push	eax
	lea	ecx, DWORD PTR _source_footer$31932[ebp]
	call	?reserve@?$basic_string@DU?$char_traits@D@std@@V?$allocator@D@2@@std@@QAEXI@Z ; std::basic_string<char,std::char_traits<char>,std::allocator<char> >::reserve

; 209  : 		source_footer.append(source_str).append(footer_str);

	lea	eax, DWORD PTR _footer_str$31930[ebp]
	push	eax
	mov	ecx, DWORD PTR _source_str$[ebp]
	push	ecx
	lea	ecx, DWORD PTR _source_footer$31932[ebp]
	call	?append@?$basic_string@DU?$char_traits@D@std@@V?$allocator@D@2@@std@@QAEAAV12@PBD@Z ; std::basic_string<char,std::char_traits<char>,std::allocator<char> >::append
	mov	ecx, eax
	call	?append@?$basic_string@DU?$char_traits@D@std@@V?$allocator@D@2@@std@@QAEAAV12@PBD@Z ; std::basic_string<char,std::char_traits<char>,std::allocator<char> >::append

; 210  : 
; 211  : 		const char *source_ptr = source_footer.c_str();

	lea	ecx, DWORD PTR _source_footer$31932[ebp]
	call	?c_str@?$basic_string@DU?$char_traits@D@std@@V?$allocator@D@2@@std@@QBEPBDXZ ; std::basic_string<char,std::char_traits<char>,std::allocator<char> >::c_str
	mov	DWORD PTR _source_ptr$31933[ebp], eax

; 212  : 
; 213  : 		program = clCreateProgramWithSource(context, 1, &source_ptr, NULL, &err);

	push	OFFSET _err
	push	0
	lea	eax, DWORD PTR _source_ptr$31933[ebp]
	push	eax
	push	1
	mov	ecx, DWORD PTR _context
	push	ecx
	call	_clCreateProgramWithSource@20
	mov	DWORD PTR _program, eax

; 214  : 
; 215  : 		delete[] source_str;

	mov	eax, DWORD PTR _source_str$[ebp]
	mov	DWORD PTR $T36602[ebp], eax
	mov	ecx, DWORD PTR $T36602[ebp]
	push	ecx
	call	??_V@YAXPAX@Z				; operator delete[]
	add	esp, 4

; 216  : 	}

	mov	BYTE PTR __$EHRec$[ebp+8], 0
	lea	ecx, DWORD PTR _source_footer$31932[ebp]
	call	??1?$basic_string@DU?$char_traits@D@std@@V?$allocator@D@2@@std@@QAE@XZ ; std::basic_string<char,std::char_traits<char>,std::allocator<char> >::~basic_string<char,std::char_traits<char>,std::allocator<char> >
$LN9@cl_build_p:

; 217  : 	
; 218  : 	if ( ! program || err != CL_SUCCESS)

	cmp	DWORD PTR _program, 0
	je	SHORT $LN6@cl_build_p
	cmp	DWORD PTR _err, 0
	je	SHORT $LN7@cl_build_p
$LN6@cl_build_p:

; 219  : 	{
; 220  : 		cl_print_error(err, "Error: failed to create compute program\n");

	mov	esi, esp
	push	OFFSET ??_C@_0CJ@FJBOGDEN@Error?3?5failed?5to?5create?5compute?5@
	mov	eax, DWORD PTR _err
	push	eax
	call	DWORD PTR _cl_print_error$[ebp]
	add	esp, 8
	cmp	esi, esp
	call	__RTC_CheckEsp

; 221  : 		return false;

	mov	BYTE PTR $T36603[ebp], 0
	mov	DWORD PTR __$EHRec$[ebp+8], -1
	lea	ecx, DWORD PTR _cached_source_path$[ebp]
	call	??1?$basic_string@DU?$char_traits@D@std@@V?$allocator@D@2@@std@@QAE@XZ ; std::basic_string<char,std::char_traits<char>,std::allocator<char> >::~basic_string<char,std::char_traits<char>,std::allocator<char> >
	mov	al, BYTE PTR $T36603[ebp]
	jmp	$LN18@cl_build_p
$LN7@cl_build_p:

; 222  : 	}
; 223  : 
; 224  : 	const char *options = "-cl-mad-enable -cl-unsafe-math-optimizations";

	mov	DWORD PTR _options$[ebp], OFFSET ??_C@_0CN@BGPKGJHL@?9cl?9mad?9enable?5?9cl?9unsafe?9math?9o@

; 225  : 
; 226  : 	err = clBuildProgram(program, 0, NULL, options, NULL, NULL);

	push	0
	push	0
	mov	eax, DWORD PTR _options$[ebp]
	push	eax
	push	0
	push	0
	mov	ecx, DWORD PTR _program
	push	ecx
	call	_clBuildProgram@24
	mov	DWORD PTR _err, eax

; 227  : 	size_t len;
; 228  : 	char buffer[1024 * 10]; // error message buffer, 10 KiB
; 229  : 	char *buffer_ptr = buffer;

	lea	eax, DWORD PTR _buffer$[ebp]
	mov	DWORD PTR _buffer_ptr$[ebp], eax

; 230  : 
; 231  : 	clGetProgramBuildInfo(program, device_id, CL_PROGRAM_BUILD_LOG, sizeof(buffer), buffer, &len);

	lea	eax, DWORD PTR _len$[ebp]
	push	eax
	lea	ecx, DWORD PTR _buffer$[ebp]
	push	ecx
	push	10240					; 00002800H
	push	4483					; 00001183H
	mov	edx, DWORD PTR _device_id
	push	edx
	mov	eax, DWORD PTR _program
	push	eax
	call	_clGetProgramBuildInfo@24
$LN5@cl_build_p:

; 232  : 
; 233  : 	// trim buffer
; 234  : 	while (buffer_ptr[0] == ' ' 
; 235  : 		|| buffer_ptr[0] == '\n' 
; 236  : 		|| buffer_ptr[0] == '\t' 
; 237  : 		|| buffer_ptr[0] == '\r')

	mov	eax, DWORD PTR _buffer_ptr$[ebp]
	movsx	ecx, BYTE PTR [eax]
	cmp	ecx, 32					; 00000020H
	je	SHORT $LN3@cl_build_p
	mov	eax, DWORD PTR _buffer_ptr$[ebp]
	movsx	ecx, BYTE PTR [eax]
	cmp	ecx, 10					; 0000000aH
	je	SHORT $LN3@cl_build_p
	mov	eax, DWORD PTR _buffer_ptr$[ebp]
	movsx	ecx, BYTE PTR [eax]
	cmp	ecx, 9
	je	SHORT $LN3@cl_build_p
	mov	eax, DWORD PTR _buffer_ptr$[ebp]
	movsx	ecx, BYTE PTR [eax]
	cmp	ecx, 13					; 0000000dH
	jne	SHORT $LN4@cl_build_p
$LN3@cl_build_p:

; 238  : 	{
; 239  : 		len--;

	mov	eax, DWORD PTR _len$[ebp]
	sub	eax, 1
	mov	DWORD PTR _len$[ebp], eax

; 240  : 		buffer_ptr += 1;

	mov	eax, DWORD PTR _buffer_ptr$[ebp]
	add	eax, 1
	mov	DWORD PTR _buffer_ptr$[ebp], eax

; 241  : 	}

	jmp	SHORT $LN5@cl_build_p
$LN4@cl_build_p:

; 242  : 
; 243  : 	if (len > 1)

	cmp	DWORD PTR _len$[ebp], 1
	jbe	SHORT $LN2@cl_build_p

; 244  : 	{
; 245  : 		printf("Build log:\n%s\n", buffer_ptr);

	mov	eax, DWORD PTR _buffer_ptr$[ebp]
	push	eax
	push	OFFSET ??_C@_0P@GJLBDKA@Build?5log?3?6?$CFs?6?$AA@
	call	_printf
	add	esp, 8
$LN2@cl_build_p:

; 246  : 	}
; 247  : 
; 248  : 	if (err != CL_SUCCESS)

	cmp	DWORD PTR _err, 0
	je	SHORT $LN1@cl_build_p

; 249  : 	{
; 250  : 		cl_print_error(err, "Error: failed to create program executable\n");

	mov	esi, esp
	push	OFFSET ??_C@_0CM@DELDPDPF@Error?3?5failed?5to?5create?5program?5@
	mov	eax, DWORD PTR _err
	push	eax
	call	DWORD PTR _cl_print_error$[ebp]
	add	esp, 8
	cmp	esi, esp
	call	__RTC_CheckEsp

; 251  : 		return false;

	mov	BYTE PTR $T36604[ebp], 0
	mov	DWORD PTR __$EHRec$[ebp+8], -1
	lea	ecx, DWORD PTR _cached_source_path$[ebp]
	call	??1?$basic_string@DU?$char_traits@D@std@@V?$allocator@D@2@@std@@QAE@XZ ; std::basic_string<char,std::char_traits<char>,std::allocator<char> >::~basic_string<char,std::char_traits<char>,std::allocator<char> >
	mov	al, BYTE PTR $T36604[ebp]
	jmp	SHORT $LN18@cl_build_p
$LN1@cl_build_p:

; 252  : 	}
; 253  : 
; 254  : #ifdef ENABLE_CACHING
; 255  : 	if ( ! cache_program)
; 256  : 	{
; 257  : 		return true;
; 258  : 	}
; 259  : 
; 260  : 	size_t binary_size;
; 261  : 	err = clGetProgramInfo(program, CL_PROGRAM_BINARY_SIZES, sizeof(binary_size), &binary_size, NULL);
; 262  : 	if (err != CL_SUCCESS)
; 263  : 	{
; 264  : 		printf("Warning: failed to retrive binary size\n");
; 265  : 		return true;
; 266  : 	}
; 267  : 
; 268  : 	char *binary_str = new char[binary_size];
; 269  : 	memset(binary_str, 0, binary_size);
; 270  : 	err = clGetProgramInfo(program, CL_PROGRAM_BINARIES, sizeof(size_t), &binary_str, NULL);
; 271  : 	if (err != CL_SUCCESS)
; 272  : 	{
; 273  : 		printf("Warning: failed to retrive binaries\n");
; 274  : 		return true;
; 275  : 	}
; 276  : 
; 277  : 	file_put_contents(cached_source_path.c_str(), binary_str, binary_size);
; 278  : 
; 279  :     delete[] binary_str;
; 280  : #endif
; 281  : 
; 282  : 	return true;

	mov	BYTE PTR $T36605[ebp], 1
	mov	DWORD PTR __$EHRec$[ebp+8], -1
	lea	ecx, DWORD PTR _cached_source_path$[ebp]
	call	??1?$basic_string@DU?$char_traits@D@std@@V?$allocator@D@2@@std@@QAE@XZ ; std::basic_string<char,std::char_traits<char>,std::allocator<char> >::~basic_string<char,std::char_traits<char>,std::allocator<char> >
	mov	al, BYTE PTR $T36605[ebp]
$LN18@cl_build_p:

; 283  : }

	push	edx
	mov	ecx, ebp
	push	eax
	lea	edx, DWORD PTR $LN31@cl_build_p
	call	@_RTC_CheckStackVars@8
	pop	eax
	pop	edx
	mov	ecx, DWORD PTR __$EHRec$[ebp]
	mov	DWORD PTR fs:0, ecx
	pop	ecx
	pop	edi
	pop	esi
	pop	ebx
	mov	ecx, DWORD PTR __$ArrayPad$[ebp]
	xor	ecx, ebp
	call	@__security_check_cookie@4
	add	esp, 10752				; 00002a00H
	cmp	ebp, esp
	call	__RTC_CheckEsp
	mov	esp, ebp
	pop	ebp
	ret	0
	npad	2
$LN31@cl_build_p:
	DD	7
	DD	$LN30@cl_build_p
$LN30@cl_build_p:
	DD	-36					; ffffffdcH
	DD	4
	DD	$LN22@cl_build_p
	DD	-100					; ffffff9cH
	DD	32					; 00000020H
	DD	$LN23@cl_build_p
	DD	-172					; ffffff54H
	DD	64					; 00000040H
	DD	$LN24@cl_build_p
	DD	-212					; ffffff2cH
	DD	32					; 00000020H
	DD	$LN25@cl_build_p
	DD	-224					; ffffff20H
	DD	4
	DD	$LN26@cl_build_p
	DD	-248					; ffffff08H
	DD	4
	DD	$LN27@cl_build_p
	DD	-10496					; ffffd700H
	DD	10240					; 00002800H
	DD	$LN28@cl_build_p
$LN28@cl_build_p:
	DB	98					; 00000062H
	DB	117					; 00000075H
	DB	102					; 00000066H
	DB	102					; 00000066H
	DB	101					; 00000065H
	DB	114					; 00000072H
	DB	0
$LN27@cl_build_p:
	DB	108					; 0000006cH
	DB	101					; 00000065H
	DB	110					; 0000006eH
	DB	0
$LN26@cl_build_p:
	DB	115					; 00000073H
	DB	111					; 0000006fH
	DB	117					; 00000075H
	DB	114					; 00000072H
	DB	99					; 00000063H
	DB	101					; 00000065H
	DB	95					; 0000005fH
	DB	112					; 00000070H
	DB	116					; 00000074H
	DB	114					; 00000072H
	DB	0
$LN25@cl_build_p:
	DB	115					; 00000073H
	DB	111					; 0000006fH
	DB	117					; 00000075H
	DB	114					; 00000072H
	DB	99					; 00000063H
	DB	101					; 00000065H
	DB	95					; 0000005fH
	DB	102					; 00000066H
	DB	111					; 0000006fH
	DB	111					; 0000006fH
	DB	116					; 00000074H
	DB	101					; 00000065H
	DB	114					; 00000072H
	DB	0
$LN24@cl_build_p:
	DB	102					; 00000066H
	DB	111					; 0000006fH
	DB	111					; 0000006fH
	DB	116					; 00000074H
	DB	101					; 00000065H
	DB	114					; 00000072H
	DB	95					; 0000005fH
	DB	115					; 00000073H
	DB	116					; 00000074H
	DB	114					; 00000072H
	DB	0
$LN23@cl_build_p:
	DB	99					; 00000063H
	DB	97					; 00000061H
	DB	99					; 00000063H
	DB	104					; 00000068H
	DB	101					; 00000065H
	DB	100					; 00000064H
	DB	95					; 0000005fH
	DB	115					; 00000073H
	DB	111					; 0000006fH
	DB	117					; 00000075H
	DB	114					; 00000072H
	DB	99					; 00000063H
	DB	101					; 00000065H
	DB	95					; 0000005fH
	DB	112					; 00000070H
	DB	97					; 00000061H
	DB	116					; 00000074H
	DB	104					; 00000068H
	DB	0
$LN22@cl_build_p:
	DB	115					; 00000073H
	DB	111					; 0000006fH
	DB	117					; 00000075H
	DB	114					; 00000072H
	DB	99					; 00000063H
	DB	101					; 00000065H
	DB	95					; 0000005fH
	DB	115					; 00000073H
	DB	105					; 00000069H
	DB	122					; 0000007aH
	DB	101					; 00000065H
	DB	0
_TEXT	ENDS
;	COMDAT text$x
text$x	SEGMENT
__unwindfunclet$?cl_build_program@@YA_N_N@Z$0:
	lea	ecx, DWORD PTR _cached_source_path$[ebp]
	jmp	??1?$basic_string@DU?$char_traits@D@std@@V?$allocator@D@2@@std@@QAE@XZ ; std::basic_string<char,std::char_traits<char>,std::allocator<char> >::~basic_string<char,std::char_traits<char>,std::allocator<char> >
__unwindfunclet$?cl_build_program@@YA_N_N@Z$1:
	lea	ecx, DWORD PTR _source_footer$31932[ebp]
	jmp	??1?$basic_string@DU?$char_traits@D@std@@V?$allocator@D@2@@std@@QAE@XZ ; std::basic_string<char,std::char_traits<char>,std::allocator<char> >::~basic_string<char,std::char_traits<char>,std::allocator<char> >
__ehhandler$?cl_build_program@@YA_N_N@Z:
	mov	edx, DWORD PTR [esp+8]
	lea	eax, DWORD PTR [edx+12]
	mov	ecx, DWORD PTR [edx-10756]
	xor	ecx, eax
	call	@__security_check_cookie@4
	mov	ecx, DWORD PTR [edx-4]
	xor	ecx, eax
	call	@__security_check_cookie@4
	mov	eax, OFFSET __ehfuncinfo$?cl_build_program@@YA_N_N@Z
	jmp	___CxxFrameHandler3
text$x	ENDS
?cl_build_program@@YA_N_N@Z ENDP			; cl_build_program
EXTRN	__time64:PROC
; Function compile flags: /Odtp /RTCsu /ZI
; File c:\program files (x86)\microsoft visual studio 10.0\vc\include\time.inl
;	COMDAT _time
_TEXT	SEGMENT
__Time$ = 8						; size = 4
_time	PROC						; COMDAT

; 132  : {

	push	ebp
	mov	ebp, esp
	sub	esp, 192				; 000000c0H
	push	ebx
	push	esi
	push	edi
	lea	edi, DWORD PTR [ebp-192]
	mov	ecx, 48					; 00000030H
	mov	eax, -858993460				; ccccccccH
	rep stosd

; 133  :     return _time64(_Time);

	mov	eax, DWORD PTR __Time$[ebp]
	push	eax
	call	__time64
	add	esp, 4

; 134  : }

	pop	edi
	pop	esi
	pop	ebx
	add	esp, 192				; 000000c0H
	cmp	ebp, esp
	call	__RTC_CheckEsp
	mov	esp, ebp
	pop	ebp
	ret	0
_time	ENDP
_TEXT	ENDS
PUBLIC	??_C@_0DM@PPODACDI@Error?3?5failed?5to?5bind?5kernel?5arg@ ; `string'
PUBLIC	??_C@_0DI@CHLJPCCN@Error?3?5failed?5to?5bind?5kernel?5arg@ ; `string'
PUBLIC	??_C@_0EA@GEPEPEEL@Error?3?5failed?5to?5allocate?5device@ ; `string'
PUBLIC	??_C@_0DM@EFGFDLFN@Error?3?5failed?5to?5allocate?5device@ ; `string'
PUBLIC	??_C@_0EK@CNFBLKHA@Error?3?5state?5length?5too?5small?0?5m@ ; `string'
PUBLIC	??_C@_0CN@NGOECMBE@Error?3?5failed?5to?5create?5compute?5@ ; `string'
PUBLIC	?cl_release_kernel@@YAXXZ			; cl_release_kernel
PUBLIC	?cl_init@@YA_NPADII_N@Z				; cl_init
EXTRN	_clSetKernelArg@16:PROC
EXTRN	_clCreateBuffer@24:PROC
EXTRN	_clCreateKernel@12:PROC
_BSS	SEGMENT
_roundkeys_length DD 01H DUP (?)
_state_length DD 01H DUP (?)
_state_length_padded DD 01H DUP (?)
_BSS	ENDS
;	COMDAT ??_C@_0DM@PPODACDI@Error?3?5failed?5to?5bind?5kernel?5arg@
; File c:\users\tdrol\documents\visual studio 2010\projects\analizator\analizator-bd-opencl\cl_encrypt.cpp
CONST	SEGMENT
??_C@_0DM@PPODACDI@Error?3?5failed?5to?5bind?5kernel?5arg@ DB 'Error: fai'
	DB	'led to bind kernel argument "mem_roundkeys" [#1]', 0aH, 00H ; `string'
CONST	ENDS
;	COMDAT ??_C@_0DI@CHLJPCCN@Error?3?5failed?5to?5bind?5kernel?5arg@
CONST	SEGMENT
??_C@_0DI@CHLJPCCN@Error?3?5failed?5to?5bind?5kernel?5arg@ DB 'Error: fai'
	DB	'led to bind kernel argument "mem_state" [#0]', 0aH, 00H ; `string'
CONST	ENDS
;	COMDAT ??_C@_0EA@GEPEPEEL@Error?3?5failed?5to?5allocate?5device@
CONST	SEGMENT
??_C@_0EA@GEPEPEEL@Error?3?5failed?5to?5allocate?5device@ DB 'Error: fail'
	DB	'ed to allocate device memory (roundkeys, size: %lu)', 0aH, 00H ; `string'
CONST	ENDS
;	COMDAT ??_C@_0DM@EFGFDLFN@Error?3?5failed?5to?5allocate?5device@
CONST	SEGMENT
??_C@_0DM@EFGFDLFN@Error?3?5failed?5to?5allocate?5device@ DB 'Error: fail'
	DB	'ed to allocate device memory (state, size: %lu)', 0aH, 00H ; `string'
CONST	ENDS
;	COMDAT ??_C@_0EK@CNFBLKHA@Error?3?5state?5length?5too?5small?0?5m@
CONST	SEGMENT
??_C@_0EK@CNFBLKHA@Error?3?5state?5length?5too?5small?0?5m@ DB 'Error: st'
	DB	'ate length too small, must be at least 16 bytes (128 bits) lo'
	DB	'ng', 0aH, 00H				; `string'
CONST	ENDS
;	COMDAT ??_C@_0CN@NGOECMBE@Error?3?5failed?5to?5create?5compute?5@
CONST	SEGMENT
??_C@_0CN@NGOECMBE@Error?3?5failed?5to?5create?5compute?5@ DB 'Error: fai'
	DB	'led to create compute kernel (%s)', 0aH, 00H ; `string'
; Function compile flags: /Odtp /RTCsu /ZI
CONST	ENDS
;	COMDAT ?cl_init@@YA_NPADII_N@Z
_TEXT	SEGMENT
_cl_print_error$ = -8					; size = 4
_kernel_name$ = 8					; size = 4
_state_length$ = 12					; size = 4
_roundkeys_length$ = 16					; size = 4
_silent$ = 20						; size = 1
?cl_init@@YA_NPADII_N@Z PROC				; cl_init, COMDAT

; 286  : {

	push	ebp
	mov	ebp, esp
	sub	esp, 204				; 000000ccH
	push	ebx
	push	esi
	push	edi
	lea	edi, DWORD PTR [ebp-204]
	mov	ecx, 51					; 00000033H
	mov	eax, -858993460				; ccccccccH
	rep stosd

; 287  : 	if (program == nullptr)

	cmp	DWORD PTR _program, 0
	jne	SHORT $LN11@cl_init

; 288  : 	{
; 289  : 		if ( ! cl_build_program(silent))

	movzx	eax, BYTE PTR _silent$[ebp]
	push	eax
	call	?cl_build_program@@YA_N_N@Z		; cl_build_program
	add	esp, 4
	movzx	ecx, al
	test	ecx, ecx
	jne	SHORT $LN10@cl_init

; 290  : 		{
; 291  : 			return false;

	xor	al, al
	jmp	$LN12@cl_init
$LN10@cl_init:

; 292  : 		}
; 293  : 	}
; 294  : 	else

	jmp	SHORT $LN9@cl_init
$LN11@cl_init:

; 295  : 	{
; 296  : 		cl_release_kernel();

	call	?cl_release_kernel@@YAXXZ		; cl_release_kernel
$LN9@cl_init:

; 297  : 	}
; 298  : 
; 299  : 	auto cl_print_error = ::cl_print_error;

	mov	DWORD PTR _cl_print_error$[ebp], OFFSET ?cl_print_error@@YAXHPBDZZ ; cl_print_error

; 300  : 	if (silent)

	movzx	eax, BYTE PTR _silent$[ebp]
	test	eax, eax
	je	SHORT $LN8@cl_init

; 301  : 	{
; 302  : 		cl_print_error = cl_print_error_silent;

	mov	DWORD PTR _cl_print_error$[ebp], OFFSET ?cl_print_error_silent@@YAXHPBDZZ ; cl_print_error_silent
$LN8@cl_init:

; 303  : 	}
; 304  : 
; 305  : 	// Create the compute kernel in the program
; 306  : 	kernel = clCreateKernel(program, kernel_name, &err);

	push	OFFSET _err
	mov	eax, DWORD PTR _kernel_name$[ebp]
	push	eax
	mov	ecx, DWORD PTR _program
	push	ecx
	call	_clCreateKernel@12
	mov	DWORD PTR _kernel, eax

; 307  : 	if ( ! kernel || err != CL_SUCCESS) {

	cmp	DWORD PTR _kernel, 0
	je	SHORT $LN6@cl_init
	cmp	DWORD PTR _err, 0
	je	SHORT $LN7@cl_init
$LN6@cl_init:

; 308  : 		cl_print_error(err, "Error: failed to create compute kernel (%s)\n", kernel_name);

	mov	esi, esp
	mov	eax, DWORD PTR _kernel_name$[ebp]
	push	eax
	push	OFFSET ??_C@_0CN@NGOECMBE@Error?3?5failed?5to?5create?5compute?5@
	mov	ecx, DWORD PTR _err
	push	ecx
	call	DWORD PTR _cl_print_error$[ebp]
	add	esp, 12					; 0000000cH
	cmp	esi, esp
	call	__RTC_CheckEsp

; 309  : 		return false;

	xor	al, al
	jmp	$LN12@cl_init
$LN7@cl_init:

; 310  : 	}
; 311  : 
; 312  : 	// Create buffers
; 313  : 	if (state_length < 16) // 128 bit / 8 = 16 bytes

	cmp	DWORD PTR _state_length$[ebp], 16	; 00000010H
	jae	SHORT $LN5@cl_init

; 314  : 	{
; 315  : 		cl_print_error(err, "Error: state length too small, must be at least 16 bytes (128 bits) long\n");

	mov	esi, esp
	push	OFFSET ??_C@_0EK@CNFBLKHA@Error?3?5state?5length?5too?5small?0?5m@
	mov	eax, DWORD PTR _err
	push	eax
	call	DWORD PTR _cl_print_error$[ebp]
	add	esp, 8
	cmp	esi, esp
	call	__RTC_CheckEsp

; 316  : 		return false;

	xor	al, al
	jmp	$LN12@cl_init
$LN5@cl_init:

; 317  : 	}
; 318  : 
; 319  : 	state_length_padded = ((size_t) (state_length / 16 + 256 - 1) / 256) * 256 * 16;

	mov	eax, DWORD PTR _state_length$[ebp]
	shr	eax, 4
	add	eax, 255				; 000000ffH
	shr	eax, 8
	shl	eax, 8
	shl	eax, 4
	mov	DWORD PTR _state_length_padded, eax

; 320  : 
; 321  : 	mem_state = clCreateBuffer(context, CL_MEM_READ_WRITE | CL_MEM_ALLOC_HOST_PTR, 
; 322  : 							   state_length_padded, NULL, &err);

	push	OFFSET _err
	push	0
	mov	eax, DWORD PTR _state_length_padded
	push	eax
	push	0
	push	17					; 00000011H
	mov	ecx, DWORD PTR _context
	push	ecx
	call	_clCreateBuffer@24
	mov	DWORD PTR _mem_state, eax

; 323  : 	if (err != CL_SUCCESS)

	cmp	DWORD PTR _err, 0
	je	SHORT $LN4@cl_init

; 324  : 	{
; 325  : 		cl_print_error(err,  "Error: failed to allocate device memory " \
; 326  : 					   "(state, size: %lu)\n", state_length);

	mov	esi, esp
	mov	eax, DWORD PTR _state_length$[ebp]
	push	eax
	push	OFFSET ??_C@_0DM@EFGFDLFN@Error?3?5failed?5to?5allocate?5device@
	mov	ecx, DWORD PTR _err
	push	ecx
	call	DWORD PTR _cl_print_error$[ebp]
	add	esp, 12					; 0000000cH
	cmp	esi, esp
	call	__RTC_CheckEsp

; 327  : 		return false;

	xor	al, al
	jmp	$LN12@cl_init
$LN4@cl_init:

; 328  : 	}
; 329  : 	::state_length = state_length;

	mov	eax, DWORD PTR _state_length$[ebp]
	mov	DWORD PTR _state_length, eax

; 330  : 
; 331  : 	mem_roundkeys = clCreateBuffer(context, CL_MEM_READ_ONLY, roundkeys_length,
; 332  : 								   NULL, &err);

	push	OFFSET _err
	push	0
	mov	eax, DWORD PTR _roundkeys_length$[ebp]
	push	eax
	push	0
	push	4
	mov	ecx, DWORD PTR _context
	push	ecx
	call	_clCreateBuffer@24
	mov	DWORD PTR _mem_roundkeys, eax

; 333  : 	if (err != CL_SUCCESS)

	cmp	DWORD PTR _err, 0
	je	SHORT $LN3@cl_init

; 334  : 	{
; 335  : 		cl_print_error(err, "Error: failed to allocate device memory " \
; 336  : 					   "(roundkeys, size: %lu)\n", roundkeys_length);

	mov	esi, esp
	mov	eax, DWORD PTR _roundkeys_length$[ebp]
	push	eax
	push	OFFSET ??_C@_0EA@GEPEPEEL@Error?3?5failed?5to?5allocate?5device@
	mov	ecx, DWORD PTR _err
	push	ecx
	call	DWORD PTR _cl_print_error$[ebp]
	add	esp, 12					; 0000000cH
	cmp	esi, esp
	call	__RTC_CheckEsp

; 337  : 		return false;

	xor	al, al
	jmp	$LN12@cl_init
$LN3@cl_init:

; 338  : 	}
; 339  : 	::roundkeys_length = roundkeys_length;

	mov	eax, DWORD PTR _roundkeys_length$[ebp]
	mov	DWORD PTR _roundkeys_length, eax

; 340  : 
; 341  : 	// Bind buffers
; 342  : 	err = clSetKernelArg(kernel, 0, sizeof(cl_mem), &mem_state);

	push	OFFSET _mem_state
	push	4
	push	0
	mov	eax, DWORD PTR _kernel
	push	eax
	call	_clSetKernelArg@16
	mov	DWORD PTR _err, eax

; 343  : 	if (err != CL_SUCCESS)

	cmp	DWORD PTR _err, 0
	je	SHORT $LN2@cl_init

; 344  : 	{
; 345  : 		cl_print_error(err, "Error: failed to bind kernel argument " \
; 346  : 					   "\"mem_state\" [#0]\n");

	mov	esi, esp
	push	OFFSET ??_C@_0DI@CHLJPCCN@Error?3?5failed?5to?5bind?5kernel?5arg@
	mov	eax, DWORD PTR _err
	push	eax
	call	DWORD PTR _cl_print_error$[ebp]
	add	esp, 8
	cmp	esi, esp
	call	__RTC_CheckEsp

; 347  : 		return false;

	xor	al, al
	jmp	SHORT $LN12@cl_init
$LN2@cl_init:

; 348  : 	}
; 349  : 
; 350  : 	err = clSetKernelArg(kernel, 1, sizeof(cl_mem), &mem_roundkeys);

	push	OFFSET _mem_roundkeys
	push	4
	push	1
	mov	eax, DWORD PTR _kernel
	push	eax
	call	_clSetKernelArg@16
	mov	DWORD PTR _err, eax

; 351  : 	if (err != CL_SUCCESS)

	cmp	DWORD PTR _err, 0
	je	SHORT $LN1@cl_init

; 352  : 	{
; 353  : 		cl_print_error(err, "Error: failed to bind kernel argument " \
; 354  : 					   "\"mem_roundkeys\" [#1]\n");

	mov	esi, esp
	push	OFFSET ??_C@_0DM@PPODACDI@Error?3?5failed?5to?5bind?5kernel?5arg@
	mov	eax, DWORD PTR _err
	push	eax
	call	DWORD PTR _cl_print_error$[ebp]
	add	esp, 8
	cmp	esi, esp
	call	__RTC_CheckEsp

; 355  : 		return false;

	xor	al, al
	jmp	SHORT $LN12@cl_init
$LN1@cl_init:

; 356  : 	}
; 357  : 
; 358  : 	return true;

	mov	al, 1
$LN12@cl_init:

; 359  : }

	pop	edi
	pop	esi
	pop	ebx
	add	esp, 204				; 000000ccH
	cmp	ebp, esp
	call	__RTC_CheckEsp
	mov	esp, ebp
	pop	ebp
	ret	0
?cl_init@@YA_NPADII_N@Z ENDP				; cl_init
_TEXT	ENDS
PUBLIC	??_C@_0BP@JLONFNKM@?5?5platform?5extensions?5?5?$CInone?$CJ?6?$AA@ ; `string'
PUBLIC	??_C@_0BL@LDJNFPEC@?5?5?5?5?5?5?5?5?5?5?5?5?5?5?5?5?5?5?5?5?5?5?5?$CFs?6?$AA@ ; `string'
PUBLIC	??_C@_0BL@LKCADNFO@?5?5platform?5extensions?5?5?$CFs?6?$AA@ ; `string'
PUBLIC	?strstr@@YAPADPADPBD@Z				; strstr
PUBLIC	??_C@_01CLKCMJKC@?5?$AA@			; `string'
PUBLIC	??_C@_0BL@LDDFDFOF@?5?5platform?5vendor?5?5?5?5?5?5?$CFs?6?$AA@ ; `string'
PUBLIC	??_C@_0BL@GPKPEBGN@?5?5platform?5name?5?5?5?5?5?5?5?5?$CFs?6?$AA@ ; `string'
PUBLIC	??_C@_0BL@DMCKCDBJ@?5?5platform?5version?5?5?5?5?5?$CFs?6?$AA@ ; `string'
PUBLIC	??_C@_0BL@KJLKBOKA@?5?5platform?5profile?5?5?5?5?5?$CFs?6?$AA@ ; `string'
PUBLIC	??_C@_0BB@IIGAPNEL@?6Platform?5info?3?6?$AA@	; `string'
PUBLIC	__$ArrayPad$
PUBLIC	?cl_print_platform_info@@YAXXZ			; cl_print_platform_info
EXTRN	_clGetPlatformInfo@20:PROC
;	COMDAT ??_C@_0BP@JLONFNKM@?5?5platform?5extensions?5?5?$CInone?$CJ?6?$AA@
CONST	SEGMENT
??_C@_0BP@JLONFNKM@?5?5platform?5extensions?5?5?$CInone?$CJ?6?$AA@ DB '  '
	DB	'platform extensions  (none)', 0aH, 00H	; `string'
CONST	ENDS
;	COMDAT ??_C@_0BL@LDJNFPEC@?5?5?5?5?5?5?5?5?5?5?5?5?5?5?5?5?5?5?5?5?5?5?5?$CFs?6?$AA@
CONST	SEGMENT
??_C@_0BL@LDJNFPEC@?5?5?5?5?5?5?5?5?5?5?5?5?5?5?5?5?5?5?5?5?5?5?5?$CFs?6?$AA@ DB ' '
	DB	'                      %s', 0aH, 00H		; `string'
CONST	ENDS
;	COMDAT ??_C@_0BL@LKCADNFO@?5?5platform?5extensions?5?5?$CFs?6?$AA@
CONST	SEGMENT
??_C@_0BL@LKCADNFO@?5?5platform?5extensions?5?5?$CFs?6?$AA@ DB '  platfor'
	DB	'm extensions  %s', 0aH, 00H			; `string'
CONST	ENDS
;	COMDAT ??_C@_01CLKCMJKC@?5?$AA@
CONST	SEGMENT
??_C@_01CLKCMJKC@?5?$AA@ DB ' ', 00H			; `string'
CONST	ENDS
;	COMDAT ??_C@_0BL@LDDFDFOF@?5?5platform?5vendor?5?5?5?5?5?5?$CFs?6?$AA@
CONST	SEGMENT
??_C@_0BL@LDDFDFOF@?5?5platform?5vendor?5?5?5?5?5?5?$CFs?6?$AA@ DB '  pla'
	DB	'tform vendor      %s', 0aH, 00H		; `string'
CONST	ENDS
;	COMDAT ??_C@_0BL@GPKPEBGN@?5?5platform?5name?5?5?5?5?5?5?5?5?$CFs?6?$AA@
CONST	SEGMENT
??_C@_0BL@GPKPEBGN@?5?5platform?5name?5?5?5?5?5?5?5?5?$CFs?6?$AA@ DB '  p'
	DB	'latform name        %s', 0aH, 00H		; `string'
CONST	ENDS
;	COMDAT ??_C@_0BL@DMCKCDBJ@?5?5platform?5version?5?5?5?5?5?$CFs?6?$AA@
CONST	SEGMENT
??_C@_0BL@DMCKCDBJ@?5?5platform?5version?5?5?5?5?5?$CFs?6?$AA@ DB '  plat'
	DB	'form version     %s', 0aH, 00H		; `string'
CONST	ENDS
;	COMDAT ??_C@_0BL@KJLKBOKA@?5?5platform?5profile?5?5?5?5?5?$CFs?6?$AA@
CONST	SEGMENT
??_C@_0BL@KJLKBOKA@?5?5platform?5profile?5?5?5?5?5?$CFs?6?$AA@ DB '  plat'
	DB	'form profile     %s', 0aH, 00H		; `string'
CONST	ENDS
;	COMDAT ??_C@_0BB@IIGAPNEL@?6Platform?5info?3?6?$AA@
CONST	SEGMENT
??_C@_0BB@IIGAPNEL@?6Platform?5info?3?6?$AA@ DB 0aH, 'Platform info:', 0aH
	DB	00H						; `string'
; Function compile flags: /Odtp /RTCsu /ZI
CONST	ENDS
;	COMDAT ?cl_print_platform_info@@YAXXZ
_TEXT	SEGMENT
_size$ = -10296						; size = 4
_pos$ = -10284						; size = 4
_offset$ = -10272					; size = 4
_param_value$ = -10260					; size = 10240
_param_value_size$ = -12				; size = 4
__$ArrayPad$ = -4					; size = 4
?cl_print_platform_info@@YAXXZ PROC			; cl_print_platform_info, COMDAT

; 362  : {

	push	ebp
	mov	ebp, esp
	mov	eax, 10492				; 000028fcH
	call	__chkstk
	push	ebx
	push	esi
	push	edi
	lea	edi, DWORD PTR [ebp-10492]
	mov	ecx, 2623				; 00000a3fH
	mov	eax, -858993460				; ccccccccH
	rep stosd
	mov	eax, DWORD PTR ___security_cookie
	xor	eax, ebp
	mov	DWORD PTR __$ArrayPad$[ebp], eax

; 363  : 	printf("\nPlatform info:\n");

	push	OFFSET ??_C@_0BB@IIGAPNEL@?6Platform?5info?3?6?$AA@
	call	_printf
	add	esp, 4

; 364  : 	const size_t param_value_size = 1024*10;

	mov	DWORD PTR _param_value_size$[ebp], 10240 ; 00002800H

; 365  : 	char param_value[param_value_size];
; 366  : 
; 367  : 	clGetPlatformInfo(platform_id, CL_PLATFORM_PROFILE,
; 368  :   						param_value_size, param_value, NULL);

	push	0
	lea	eax, DWORD PTR _param_value$[ebp]
	push	eax
	push	10240					; 00002800H
	push	2304					; 00000900H
	mov	ecx, DWORD PTR _platform_id
	push	ecx
	call	_clGetPlatformInfo@20

; 369  : 	printf("  platform profile     %s\n", param_value);

	lea	eax, DWORD PTR _param_value$[ebp]
	push	eax
	push	OFFSET ??_C@_0BL@KJLKBOKA@?5?5platform?5profile?5?5?5?5?5?$CFs?6?$AA@
	call	_printf
	add	esp, 8

; 370  : 
; 371  : 	clGetPlatformInfo(platform_id, CL_PLATFORM_VERSION,
; 372  :   						param_value_size, param_value, NULL);

	push	0
	lea	eax, DWORD PTR _param_value$[ebp]
	push	eax
	push	10240					; 00002800H
	push	2305					; 00000901H
	mov	ecx, DWORD PTR _platform_id
	push	ecx
	call	_clGetPlatformInfo@20

; 373  : 	printf("  platform version     %s\n", param_value);

	lea	eax, DWORD PTR _param_value$[ebp]
	push	eax
	push	OFFSET ??_C@_0BL@DMCKCDBJ@?5?5platform?5version?5?5?5?5?5?$CFs?6?$AA@
	call	_printf
	add	esp, 8

; 374  : 
; 375  : 	clGetPlatformInfo(platform_id, CL_PLATFORM_NAME,
; 376  :   						param_value_size, param_value, NULL);

	push	0
	lea	eax, DWORD PTR _param_value$[ebp]
	push	eax
	push	10240					; 00002800H
	push	2306					; 00000902H
	mov	ecx, DWORD PTR _platform_id
	push	ecx
	call	_clGetPlatformInfo@20

; 377  : 	printf("  platform name        %s\n", param_value);

	lea	eax, DWORD PTR _param_value$[ebp]
	push	eax
	push	OFFSET ??_C@_0BL@GPKPEBGN@?5?5platform?5name?5?5?5?5?5?5?5?5?$CFs?6?$AA@
	call	_printf
	add	esp, 8

; 378  : 
; 379  : 	clGetPlatformInfo(platform_id, CL_PLATFORM_VENDOR ,
; 380  :   						param_value_size, param_value, NULL);

	push	0
	lea	eax, DWORD PTR _param_value$[ebp]
	push	eax
	push	10240					; 00002800H
	push	2307					; 00000903H
	mov	ecx, DWORD PTR _platform_id
	push	ecx
	call	_clGetPlatformInfo@20

; 381  : 	printf("  platform vendor      %s\n", param_value);

	lea	eax, DWORD PTR _param_value$[ebp]
	push	eax
	push	OFFSET ??_C@_0BL@LDDFDFOF@?5?5platform?5vendor?5?5?5?5?5?5?$CFs?6?$AA@
	call	_printf
	add	esp, 8

; 382  : 
; 383  : 	int offset = 0;

	mov	DWORD PTR _offset$[ebp], 0

; 384  : 	char *pos;
; 385  : 	size_t size;
; 386  : 	clGetPlatformInfo(platform_id, CL_PLATFORM_EXTENSIONS,
; 387  :   						param_value_size, param_value, &size);

	lea	eax, DWORD PTR _size$[ebp]
	push	eax
	lea	ecx, DWORD PTR _param_value$[ebp]
	push	ecx
	push	10240					; 00002800H
	push	2308					; 00000904H
	mov	edx, DWORD PTR _platform_id
	push	edx
	call	_clGetPlatformInfo@20

; 388  : 
; 389  : 	pos = strstr(param_value + offset, " ");

	push	OFFSET ??_C@_01CLKCMJKC@?5?$AA@
	mov	eax, DWORD PTR _offset$[ebp]
	lea	ecx, DWORD PTR _param_value$[ebp+eax]
	push	ecx
	call	?strstr@@YAPADPADPBD@Z			; strstr
	add	esp, 8
	mov	DWORD PTR _pos$[ebp], eax

; 390  : 	if (pos != NULL && size > 0)

	cmp	DWORD PTR _pos$[ebp], 0
	je	$LN4@cl_print_p
	cmp	DWORD PTR _size$[ebp], 0
	jbe	$LN4@cl_print_p

; 391  : 	{
; 392  : 		*pos = '\0';

	mov	eax, DWORD PTR _pos$[ebp]
	mov	BYTE PTR [eax], 0

; 393  : 		
; 394  : 		printf("  platform extensions  %s\n", param_value);

	lea	eax, DWORD PTR _param_value$[ebp]
	push	eax
	push	OFFSET ??_C@_0BL@LKCADNFO@?5?5platform?5extensions?5?5?$CFs?6?$AA@
	call	_printf
	add	esp, 8

; 395  : 		offset = pos - param_value + 1;

	mov	eax, DWORD PTR _pos$[ebp]
	lea	ecx, DWORD PTR _param_value$[ebp]
	sub	eax, ecx
	add	eax, 1
	mov	DWORD PTR _offset$[ebp], eax
$LN3@cl_print_p:

; 396  : 
; 397  : 		while ((pos = strstr(param_value + offset, " ")) && pos < (param_value + size - 1))

	push	OFFSET ??_C@_01CLKCMJKC@?5?$AA@
	mov	eax, DWORD PTR _offset$[ebp]
	lea	ecx, DWORD PTR _param_value$[ebp+eax]
	push	ecx
	call	?strstr@@YAPADPADPBD@Z			; strstr
	add	esp, 8
	mov	DWORD PTR _pos$[ebp], eax
	cmp	DWORD PTR _pos$[ebp], 0
	je	SHORT $LN2@cl_print_p
	mov	eax, DWORD PTR _size$[ebp]
	lea	ecx, DWORD PTR _param_value$[ebp+eax-1]
	cmp	DWORD PTR _pos$[ebp], ecx
	jae	SHORT $LN2@cl_print_p

; 398  : 		{
; 399  : 			*pos = '\0';

	mov	eax, DWORD PTR _pos$[ebp]
	mov	BYTE PTR [eax], 0

; 400  : 
; 401  : 			printf("                       %s\n", param_value + offset);

	mov	eax, DWORD PTR _offset$[ebp]
	lea	ecx, DWORD PTR _param_value$[ebp+eax]
	push	ecx
	push	OFFSET ??_C@_0BL@LDJNFPEC@?5?5?5?5?5?5?5?5?5?5?5?5?5?5?5?5?5?5?5?5?5?5?5?$CFs?6?$AA@
	call	_printf
	add	esp, 8

; 402  : 
; 403  : 			offset = pos - param_value + 1;

	mov	eax, DWORD PTR _pos$[ebp]
	lea	ecx, DWORD PTR _param_value$[ebp]
	sub	eax, ecx
	add	eax, 1
	mov	DWORD PTR _offset$[ebp], eax

; 404  : 		}

	jmp	SHORT $LN3@cl_print_p
$LN2@cl_print_p:

; 405  : 	}
; 406  : 	else

	jmp	SHORT $LN5@cl_print_p
$LN4@cl_print_p:

; 407  : 	{
; 408  : 		printf("  platform extensions  (none)\n");

	push	OFFSET ??_C@_0BP@JLONFNKM@?5?5platform?5extensions?5?5?$CInone?$CJ?6?$AA@
	call	_printf
	add	esp, 4
$LN5@cl_print_p:

; 409  : 	}
; 410  : }

	push	edx
	mov	ecx, ebp
	push	eax
	lea	edx, DWORD PTR $LN10@cl_print_p
	call	@_RTC_CheckStackVars@8
	pop	eax
	pop	edx
	pop	edi
	pop	esi
	pop	ebx
	mov	ecx, DWORD PTR __$ArrayPad$[ebp]
	xor	ecx, ebp
	call	@__security_check_cookie@4
	add	esp, 10492				; 000028fcH
	cmp	ebp, esp
	call	__RTC_CheckEsp
	mov	esp, ebp
	pop	ebp
	ret	0
	npad	1
$LN10@cl_print_p:
	DD	2
	DD	$LN9@cl_print_p
$LN9@cl_print_p:
	DD	-10260					; ffffd7ecH
	DD	10240					; 00002800H
	DD	$LN7@cl_print_p
	DD	-10296					; ffffd7c8H
	DD	4
	DD	$LN8@cl_print_p
$LN8@cl_print_p:
	DB	115					; 00000073H
	DB	105					; 00000069H
	DB	122					; 0000007aH
	DB	101					; 00000065H
	DB	0
$LN7@cl_print_p:
	DB	112					; 00000070H
	DB	97					; 00000061H
	DB	114					; 00000072H
	DB	97					; 00000061H
	DB	109					; 0000006dH
	DB	95					; 0000005fH
	DB	118					; 00000076H
	DB	97					; 00000061H
	DB	108					; 0000006cH
	DB	117					; 00000075H
	DB	101					; 00000065H
	DB	0
?cl_print_platform_info@@YAXXZ ENDP			; cl_print_platform_info
_TEXT	ENDS
EXTRN	_strstr:PROC
; Function compile flags: /Odtp /RTCsu /ZI
; File c:\program files (x86)\microsoft visual studio 10.0\vc\include\string.h
;	COMDAT ?strstr@@YAPADPADPBD@Z
_TEXT	SEGMENT
__Str$ = 8						; size = 4
__SubStr$ = 12						; size = 4
?strstr@@YAPADPADPBD@Z PROC				; strstr, COMDAT

; 221  : 	{ return (char*)strstr((const char*)_Str, _SubStr); }

	push	ebp
	mov	ebp, esp
	sub	esp, 192				; 000000c0H
	push	ebx
	push	esi
	push	edi
	lea	edi, DWORD PTR [ebp-192]
	mov	ecx, 48					; 00000030H
	mov	eax, -858993460				; ccccccccH
	rep stosd
	mov	eax, DWORD PTR __SubStr$[ebp]
	push	eax
	mov	ecx, DWORD PTR __Str$[ebp]
	push	ecx
	call	_strstr
	add	esp, 8
	pop	edi
	pop	esi
	pop	ebx
	add	esp, 192				; 000000c0H
	cmp	ebp, esp
	call	__RTC_CheckEsp
	mov	esp, ebp
	pop	ebp
	ret	0
?strstr@@YAPADPADPBD@Z ENDP				; strstr
_TEXT	ENDS
PUBLIC	??_C@_0CD@NOOIMDDD@?5?5max?5clock?5frequency?5?5?5?5?5?5?$CFu?5MH@ ; `string'
PUBLIC	??_C@_0BP@NDMOHBPN@?5?5maximum?5work?9item?5sizes?5?5?$CFu?6?$AA@ ; `string'
PUBLIC	??_C@_0BP@DEPGPIEH@?5?5maximum?5work?9group?5size?5?5?$CFu?6?$AA@ ; `string'
PUBLIC	??_C@_0BP@ECPPJEF@?5?5maximum?5compute?5units?5?5?5?5?$CFu?6?$AA@ ; `string'
PUBLIC	??_C@_0BP@IGFCAEIH@?5?5address?5bits?5?5?5?5?5?5?5?5?5?5?5?5?5?$CFu?6?$AA@ ; `string'
PUBLIC	??_C@_0CE@MLIIKEEG@?5?5maximum?5avaible?5mem?5?5?5?5?5?5?$CF?42f?5@ ; `string'
PUBLIC	??_C@_0CE@CHKCHDNL@?5?5global?5mem?5cache?5size?5?5?5?5?$CF?42f?5@ ; `string'
PUBLIC	??_C@_0CE@DMBLFCEI@?5?5global?5memory?5size?5?5?5?5?5?5?5?$CF?42f?5@ ; `string'
PUBLIC	??_C@_0CE@CCJFOIDE@?5?5local?5memory?5size?5?5?5?5?5?5?5?5?$CF?42f?5@ ; `string'
PUBLIC	__real@4090000000000000
PUBLIC	??_C@_03FNDBJNEP@GiB?$AA@			; `string'
PUBLIC	??_C@_03DCIMHNCL@MiB?$AA@			; `string'
PUBLIC	??_C@_03BHOHCCPH@KiB?$AA@			; `string'
PUBLIC	??_C@_03ECGPNCBH@B?5?5?$AA@			; `string'
PUBLIC	??_C@_0BP@PFMNCOMH@?5?5driver?5version?5?5?5?5?5?5?5?5?5?5?5?$CFs?6?$AA@ ; `string'
PUBLIC	??_C@_0BP@KGKIBOBD@?5?5device?5version?5?5?5?5?5?5?5?5?5?5?5?$CFs?6?$AA@ ; `string'
PUBLIC	??_C@_0BP@GBJEKDAJ@?5?5device?5name?5?5?5?5?5?5?5?5?5?5?5?5?5?5?$CFs?6?$AA@ ; `string'
PUBLIC	??_C@_0P@LLKCIPKG@?6Device?5info?3?6?$AA@	; `string'
PUBLIC	__$ArrayPad$
PUBLIC	?cl_print_device_info@@YAXXZ			; cl_print_device_info
EXTRN	_clGetDeviceInfo@20:PROC
EXTRN	__fltused:DWORD
;	COMDAT ??_C@_0CD@NOOIMDDD@?5?5max?5clock?5frequency?5?5?5?5?5?5?$CFu?5MH@
; File c:\users\tdrol\documents\visual studio 2010\projects\analizator\analizator-bd-opencl\cl_encrypt.cpp
CONST	SEGMENT
??_C@_0CD@NOOIMDDD@?5?5max?5clock?5frequency?5?5?5?5?5?5?$CFu?5MH@ DB '  '
	DB	'max clock frequency      %u MHz', 0aH, 00H	; `string'
CONST	ENDS
;	COMDAT ??_C@_0BP@NDMOHBPN@?5?5maximum?5work?9item?5sizes?5?5?$CFu?6?$AA@
CONST	SEGMENT
??_C@_0BP@NDMOHBPN@?5?5maximum?5work?9item?5sizes?5?5?$CFu?6?$AA@ DB '  m'
	DB	'aximum work-item sizes  %u', 0aH, 00H	; `string'
CONST	ENDS
;	COMDAT ??_C@_0BP@DEPGPIEH@?5?5maximum?5work?9group?5size?5?5?$CFu?6?$AA@
CONST	SEGMENT
??_C@_0BP@DEPGPIEH@?5?5maximum?5work?9group?5size?5?5?$CFu?6?$AA@ DB '  m'
	DB	'aximum work-group size  %u', 0aH, 00H	; `string'
CONST	ENDS
;	COMDAT ??_C@_0BP@ECPPJEF@?5?5maximum?5compute?5units?5?5?5?5?$CFu?6?$AA@
CONST	SEGMENT
??_C@_0BP@ECPPJEF@?5?5maximum?5compute?5units?5?5?5?5?$CFu?6?$AA@ DB '  m'
	DB	'aximum compute units    %u', 0aH, 00H	; `string'
CONST	ENDS
;	COMDAT ??_C@_0BP@IGFCAEIH@?5?5address?5bits?5?5?5?5?5?5?5?5?5?5?5?5?5?$CFu?6?$AA@
CONST	SEGMENT
??_C@_0BP@IGFCAEIH@?5?5address?5bits?5?5?5?5?5?5?5?5?5?5?5?5?5?$CFu?6?$AA@ DB ' '
	DB	' address bits             %u', 0aH, 00H	; `string'
CONST	ENDS
;	COMDAT ??_C@_0CE@MLIIKEEG@?5?5maximum?5avaible?5mem?5?5?5?5?5?5?$CF?42f?5@
CONST	SEGMENT
??_C@_0CE@MLIIKEEG@?5?5maximum?5avaible?5mem?5?5?5?5?5?5?$CF?42f?5@ DB ' '
	DB	' maximum avaible mem      %.2f %s', 0aH, 00H ; `string'
CONST	ENDS
;	COMDAT ??_C@_0CE@CHKCHDNL@?5?5global?5mem?5cache?5size?5?5?5?5?$CF?42f?5@
CONST	SEGMENT
??_C@_0CE@CHKCHDNL@?5?5global?5mem?5cache?5size?5?5?5?5?$CF?42f?5@ DB '  '
	DB	'global mem cache size    %.2f %s', 0aH, 00H	; `string'
CONST	ENDS
;	COMDAT ??_C@_0CE@DMBLFCEI@?5?5global?5memory?5size?5?5?5?5?5?5?5?$CF?42f?5@
CONST	SEGMENT
??_C@_0CE@DMBLFCEI@?5?5global?5memory?5size?5?5?5?5?5?5?5?$CF?42f?5@ DB ' '
	DB	' global memory size       %.2f %s', 0aH, 00H ; `string'
CONST	ENDS
;	COMDAT ??_C@_0CE@CCJFOIDE@?5?5local?5memory?5size?5?5?5?5?5?5?5?5?$CF?42f?5@
CONST	SEGMENT
??_C@_0CE@CCJFOIDE@?5?5local?5memory?5size?5?5?5?5?5?5?5?5?$CF?42f?5@ DB ' '
	DB	' local memory size        %.2f %s', 0aH, 00H ; `string'
CONST	ENDS
;	COMDAT __real@4090000000000000
CONST	SEGMENT
__real@4090000000000000 DQ 04090000000000000r	; 1024
CONST	ENDS
;	COMDAT ??_C@_03FNDBJNEP@GiB?$AA@
CONST	SEGMENT
??_C@_03FNDBJNEP@GiB?$AA@ DB 'GiB', 00H			; `string'
CONST	ENDS
;	COMDAT ??_C@_03DCIMHNCL@MiB?$AA@
CONST	SEGMENT
??_C@_03DCIMHNCL@MiB?$AA@ DB 'MiB', 00H			; `string'
CONST	ENDS
;	COMDAT ??_C@_03BHOHCCPH@KiB?$AA@
CONST	SEGMENT
??_C@_03BHOHCCPH@KiB?$AA@ DB 'KiB', 00H			; `string'
CONST	ENDS
;	COMDAT ??_C@_03ECGPNCBH@B?5?5?$AA@
CONST	SEGMENT
??_C@_03ECGPNCBH@B?5?5?$AA@ DB 'B  ', 00H		; `string'
CONST	ENDS
;	COMDAT ??_C@_0BP@PFMNCOMH@?5?5driver?5version?5?5?5?5?5?5?5?5?5?5?5?$CFs?6?$AA@
CONST	SEGMENT
??_C@_0BP@PFMNCOMH@?5?5driver?5version?5?5?5?5?5?5?5?5?5?5?5?$CFs?6?$AA@ DB ' '
	DB	' driver version           %s', 0aH, 00H	; `string'
CONST	ENDS
;	COMDAT ??_C@_0BP@KGKIBOBD@?5?5device?5version?5?5?5?5?5?5?5?5?5?5?5?$CFs?6?$AA@
CONST	SEGMENT
??_C@_0BP@KGKIBOBD@?5?5device?5version?5?5?5?5?5?5?5?5?5?5?5?$CFs?6?$AA@ DB ' '
	DB	' device version           %s', 0aH, 00H	; `string'
CONST	ENDS
;	COMDAT ??_C@_0BP@GBJEKDAJ@?5?5device?5name?5?5?5?5?5?5?5?5?5?5?5?5?5?5?$CFs?6?$AA@
CONST	SEGMENT
??_C@_0BP@GBJEKDAJ@?5?5device?5name?5?5?5?5?5?5?5?5?5?5?5?5?5?5?$CFs?6?$AA@ DB ' '
	DB	' device name              %s', 0aH, 00H	; `string'
CONST	ENDS
;	COMDAT ??_C@_0P@LLKCIPKG@?6Device?5info?3?6?$AA@
CONST	SEGMENT
??_C@_0P@LLKCIPKG@?6Device?5info?3?6?$AA@ DB 0aH, 'Device info:', 0aH, 00H ; `string'
; Function compile flags: /Odtp /RTCsu /ZI
CONST	ENDS
;	COMDAT ?cl_print_device_info@@YAXXZ
_TEXT	SEGMENT
tv398 = -1504						; size = 8
tv377 = -1504						; size = 8
tv356 = -1504						; size = 8
tv335 = -1504						; size = 8
_i$32046 = -1300					; size = 4
_unit$32045 = -1288					; size = 4
_units$32044 = -1276					; size = 16
_memory$32042 = -1252					; size = 8
_i$32037 = -1236					; size = 4
_unit$32036 = -1224					; size = 4
_units$32035 = -1212					; size = 16
_memory$32033 = -1188					; size = 8
_i$32028 = -1172					; size = 4
_unit$32027 = -1160					; size = 4
_units$32026 = -1148					; size = 16
_memory$32024 = -1124					; size = 8
_i$32019 = -1108					; size = 4
_unit$32018 = -1096					; size = 4
_units$32013 = -1084					; size = 16
_memory$32011 = -1060					; size = 8
_param_string$ = -1044					; size = 1024
_param_value$ = -12					; size = 4
__$ArrayPad$ = -4					; size = 4
?cl_print_device_info@@YAXXZ PROC			; cl_print_device_info, COMDAT

; 413  : {

	push	ebp
	mov	ebp, esp
	sub	esp, 1504				; 000005e0H
	push	ebx
	push	esi
	push	edi
	lea	edi, DWORD PTR [ebp-1504]
	mov	ecx, 376				; 00000178H
	mov	eax, -858993460				; ccccccccH
	rep stosd
	mov	eax, DWORD PTR ___security_cookie
	xor	eax, ebp
	mov	DWORD PTR __$ArrayPad$[ebp], eax

; 414  : 	printf("\nDevice info:\n");

	push	OFFSET ??_C@_0P@LLKCIPKG@?6Device?5info?3?6?$AA@
	call	_printf
	add	esp, 4

; 415  : 	unsigned long int param_value;
; 416  : 	char param_string[1024];
; 417  : 
; 418  : 	clGetDeviceInfo(device_id, CL_DEVICE_NAME, sizeof(param_string) * 1024, &param_string, NULL);

	push	0
	lea	eax, DWORD PTR _param_string$[ebp]
	push	eax
	push	1048576					; 00100000H
	push	4139					; 0000102bH
	mov	ecx, DWORD PTR _device_id
	push	ecx
	call	_clGetDeviceInfo@20

; 419  : 	printf("  device name              %s\n", param_string);

	lea	eax, DWORD PTR _param_string$[ebp]
	push	eax
	push	OFFSET ??_C@_0BP@GBJEKDAJ@?5?5device?5name?5?5?5?5?5?5?5?5?5?5?5?5?5?5?$CFs?6?$AA@
	call	_printf
	add	esp, 8

; 420  : 
; 421  : 	clGetDeviceInfo(device_id, CL_DEVICE_VERSION, sizeof(param_string) * 1024, &param_string, NULL);

	push	0
	lea	eax, DWORD PTR _param_string$[ebp]
	push	eax
	push	1048576					; 00100000H
	push	4143					; 0000102fH
	mov	ecx, DWORD PTR _device_id
	push	ecx
	call	_clGetDeviceInfo@20

; 422  : 	printf("  device version           %s\n", param_string);

	lea	eax, DWORD PTR _param_string$[ebp]
	push	eax
	push	OFFSET ??_C@_0BP@KGKIBOBD@?5?5device?5version?5?5?5?5?5?5?5?5?5?5?5?$CFs?6?$AA@
	call	_printf
	add	esp, 8

; 423  : 
; 424  : 	clGetDeviceInfo(device_id, CL_DRIVER_VERSION, sizeof(param_string) * 1024, &param_string, NULL);

	push	0
	lea	eax, DWORD PTR _param_string$[ebp]
	push	eax
	push	1048576					; 00100000H
	push	4141					; 0000102dH
	mov	ecx, DWORD PTR _device_id
	push	ecx
	call	_clGetDeviceInfo@20

; 425  : 	printf("  driver version           %s\n", param_string);

	lea	eax, DWORD PTR _param_string$[ebp]
	push	eax
	push	OFFSET ??_C@_0BP@PFMNCOMH@?5?5driver?5version?5?5?5?5?5?5?5?5?5?5?5?$CFs?6?$AA@
	call	_printf
	add	esp, 8

; 426  : 
; 427  : 	param_value = clGetDeviceInfo(device_id, CL_DEVICE_LOCAL_MEM_SIZE, sizeof(param_value), &param_value, NULL);

	push	0
	lea	eax, DWORD PTR _param_value$[ebp]
	push	eax
	push	4
	push	4131					; 00001023H
	mov	ecx, DWORD PTR _device_id
	push	ecx
	call	_clGetDeviceInfo@20
	mov	DWORD PTR _param_value$[ebp], eax

; 428  : 	{
; 429  : 		double memory = (double) param_value;

	mov	eax, DWORD PTR _param_value$[ebp]
	mov	DWORD PTR tv335[ebp], eax
	mov	DWORD PTR tv335[ebp+4], 0
	fild	QWORD PTR tv335[ebp]
	fstp	QWORD PTR _memory$32011[ebp]

; 430  : 		char units[][4] = {"B  ", "KiB", "MiB", "GiB"};

	mov	eax, DWORD PTR ??_C@_03ECGPNCBH@B?5?5?$AA@
	mov	DWORD PTR _units$32013[ebp], eax
	mov	eax, DWORD PTR ??_C@_03BHOHCCPH@KiB?$AA@
	mov	DWORD PTR _units$32013[ebp+4], eax
	mov	eax, DWORD PTR ??_C@_03DCIMHNCL@MiB?$AA@
	mov	DWORD PTR _units$32013[ebp+8], eax
	mov	eax, DWORD PTR ??_C@_03FNDBJNEP@GiB?$AA@
	mov	DWORD PTR _units$32013[ebp+12], eax

; 431  : 		char *unit = units[0];

	lea	eax, DWORD PTR _units$32013[ebp]
	mov	DWORD PTR _unit$32018[ebp], eax

; 432  : 		for (int i = 1; memory >= 1024; i++)

	mov	DWORD PTR _i$32019[ebp], 1
	jmp	SHORT $LN12@cl_print_d
$LN11@cl_print_d:
	mov	eax, DWORD PTR _i$32019[ebp]
	add	eax, 1
	mov	DWORD PTR _i$32019[ebp], eax
$LN12@cl_print_d:
	fld	QWORD PTR __real@4090000000000000
	fcomp	QWORD PTR _memory$32011[ebp]
	fnstsw	ax
	test	ah, 65					; 00000041H
	jp	SHORT $LN10@cl_print_d

; 433  : 		{
; 434  : 			memory /= 1024;

	fld	QWORD PTR _memory$32011[ebp]
	fdiv	QWORD PTR __real@4090000000000000
	fstp	QWORD PTR _memory$32011[ebp]

; 435  : 			unit = units[i];

	mov	eax, DWORD PTR _i$32019[ebp]
	lea	ecx, DWORD PTR _units$32013[ebp+eax*4]
	mov	DWORD PTR _unit$32018[ebp], ecx

; 436  : 		}

	jmp	SHORT $LN11@cl_print_d
$LN10@cl_print_d:

; 437  : 		printf("  local memory size        %.2f %s\n", memory, unit);

	mov	eax, DWORD PTR _unit$32018[ebp]
	push	eax
	sub	esp, 8
	fld	QWORD PTR _memory$32011[ebp]
	fstp	QWORD PTR [esp]
	push	OFFSET ??_C@_0CE@CCJFOIDE@?5?5local?5memory?5size?5?5?5?5?5?5?5?5?$CF?42f?5@
	call	_printf
	add	esp, 16					; 00000010H

; 438  : 	}
; 439  : 
; 440  : 	clGetDeviceInfo(device_id, CL_DEVICE_GLOBAL_MEM_SIZE, sizeof(param_value), &param_value, NULL);

	push	0
	lea	eax, DWORD PTR _param_value$[ebp]
	push	eax
	push	4
	push	4127					; 0000101fH
	mov	ecx, DWORD PTR _device_id
	push	ecx
	call	_clGetDeviceInfo@20

; 441  : 	{
; 442  : 		double memory = (double) param_value;

	mov	eax, DWORD PTR _param_value$[ebp]
	mov	DWORD PTR tv356[ebp], eax
	mov	DWORD PTR tv356[ebp+4], 0
	fild	QWORD PTR tv356[ebp]
	fstp	QWORD PTR _memory$32024[ebp]

; 443  : 		char units[][4] = {"B  ", "KiB", "MiB", "GiB"};

	mov	eax, DWORD PTR ??_C@_03ECGPNCBH@B?5?5?$AA@
	mov	DWORD PTR _units$32026[ebp], eax
	mov	eax, DWORD PTR ??_C@_03BHOHCCPH@KiB?$AA@
	mov	DWORD PTR _units$32026[ebp+4], eax
	mov	eax, DWORD PTR ??_C@_03DCIMHNCL@MiB?$AA@
	mov	DWORD PTR _units$32026[ebp+8], eax
	mov	eax, DWORD PTR ??_C@_03FNDBJNEP@GiB?$AA@
	mov	DWORD PTR _units$32026[ebp+12], eax

; 444  : 		char *unit = units[0];

	lea	eax, DWORD PTR _units$32026[ebp]
	mov	DWORD PTR _unit$32027[ebp], eax

; 445  : 		for (int i = 1; memory >= 1024; i++)

	mov	DWORD PTR _i$32028[ebp], 1
	jmp	SHORT $LN9@cl_print_d
$LN8@cl_print_d:
	mov	eax, DWORD PTR _i$32028[ebp]
	add	eax, 1
	mov	DWORD PTR _i$32028[ebp], eax
$LN9@cl_print_d:
	fld	QWORD PTR __real@4090000000000000
	fcomp	QWORD PTR _memory$32024[ebp]
	fnstsw	ax
	test	ah, 65					; 00000041H
	jp	SHORT $LN7@cl_print_d

; 446  : 		{
; 447  : 			memory /= 1024;

	fld	QWORD PTR _memory$32024[ebp]
	fdiv	QWORD PTR __real@4090000000000000
	fstp	QWORD PTR _memory$32024[ebp]

; 448  : 			unit = units[i];

	mov	eax, DWORD PTR _i$32028[ebp]
	lea	ecx, DWORD PTR _units$32026[ebp+eax*4]
	mov	DWORD PTR _unit$32027[ebp], ecx

; 449  : 		}

	jmp	SHORT $LN8@cl_print_d
$LN7@cl_print_d:

; 450  : 		printf("  global memory size       %.2f %s\n", memory, unit);

	mov	eax, DWORD PTR _unit$32027[ebp]
	push	eax
	sub	esp, 8
	fld	QWORD PTR _memory$32024[ebp]
	fstp	QWORD PTR [esp]
	push	OFFSET ??_C@_0CE@DMBLFCEI@?5?5global?5memory?5size?5?5?5?5?5?5?5?$CF?42f?5@
	call	_printf
	add	esp, 16					; 00000010H

; 451  : 	}
; 452  : 
; 453  : 	clGetDeviceInfo(device_id, CL_DEVICE_GLOBAL_MEM_CACHE_SIZE, sizeof(param_value), &param_value, NULL);

	push	0
	lea	eax, DWORD PTR _param_value$[ebp]
	push	eax
	push	4
	push	4126					; 0000101eH
	mov	ecx, DWORD PTR _device_id
	push	ecx
	call	_clGetDeviceInfo@20

; 454  : 	{
; 455  : 		double memory = (double) param_value;

	mov	eax, DWORD PTR _param_value$[ebp]
	mov	DWORD PTR tv377[ebp], eax
	mov	DWORD PTR tv377[ebp+4], 0
	fild	QWORD PTR tv377[ebp]
	fstp	QWORD PTR _memory$32033[ebp]

; 456  : 		char units[][4] = {"B  ", "KiB", "MiB", "GiB"};

	mov	eax, DWORD PTR ??_C@_03ECGPNCBH@B?5?5?$AA@
	mov	DWORD PTR _units$32035[ebp], eax
	mov	eax, DWORD PTR ??_C@_03BHOHCCPH@KiB?$AA@
	mov	DWORD PTR _units$32035[ebp+4], eax
	mov	eax, DWORD PTR ??_C@_03DCIMHNCL@MiB?$AA@
	mov	DWORD PTR _units$32035[ebp+8], eax
	mov	eax, DWORD PTR ??_C@_03FNDBJNEP@GiB?$AA@
	mov	DWORD PTR _units$32035[ebp+12], eax

; 457  : 		char *unit = units[0];

	lea	eax, DWORD PTR _units$32035[ebp]
	mov	DWORD PTR _unit$32036[ebp], eax

; 458  : 		for (int i = 1; memory >= 1024; i++)

	mov	DWORD PTR _i$32037[ebp], 1
	jmp	SHORT $LN6@cl_print_d
$LN5@cl_print_d:
	mov	eax, DWORD PTR _i$32037[ebp]
	add	eax, 1
	mov	DWORD PTR _i$32037[ebp], eax
$LN6@cl_print_d:
	fld	QWORD PTR __real@4090000000000000
	fcomp	QWORD PTR _memory$32033[ebp]
	fnstsw	ax
	test	ah, 65					; 00000041H
	jp	SHORT $LN4@cl_print_d

; 459  : 		{
; 460  : 			memory /= 1024;

	fld	QWORD PTR _memory$32033[ebp]
	fdiv	QWORD PTR __real@4090000000000000
	fstp	QWORD PTR _memory$32033[ebp]

; 461  : 			unit = units[i];

	mov	eax, DWORD PTR _i$32037[ebp]
	lea	ecx, DWORD PTR _units$32035[ebp+eax*4]
	mov	DWORD PTR _unit$32036[ebp], ecx

; 462  : 		}

	jmp	SHORT $LN5@cl_print_d
$LN4@cl_print_d:

; 463  : 		printf("  global mem cache size    %.2f %s\n", memory, unit);

	mov	eax, DWORD PTR _unit$32036[ebp]
	push	eax
	sub	esp, 8
	fld	QWORD PTR _memory$32033[ebp]
	fstp	QWORD PTR [esp]
	push	OFFSET ??_C@_0CE@CHKCHDNL@?5?5global?5mem?5cache?5size?5?5?5?5?$CF?42f?5@
	call	_printf
	add	esp, 16					; 00000010H

; 464  : 	}
; 465  : 
; 466  : 	clGetDeviceInfo(device_id, CL_DEVICE_MAX_MEM_ALLOC_SIZE, sizeof(param_value), &param_value, NULL);

	push	0
	lea	eax, DWORD PTR _param_value$[ebp]
	push	eax
	push	4
	push	4112					; 00001010H
	mov	ecx, DWORD PTR _device_id
	push	ecx
	call	_clGetDeviceInfo@20

; 467  : 	{
; 468  : 		double memory = (double) param_value;

	mov	eax, DWORD PTR _param_value$[ebp]
	mov	DWORD PTR tv398[ebp], eax
	mov	DWORD PTR tv398[ebp+4], 0
	fild	QWORD PTR tv398[ebp]
	fstp	QWORD PTR _memory$32042[ebp]

; 469  : 		char units[][4] = {"B  ", "KiB", "MiB", "GiB"};

	mov	eax, DWORD PTR ??_C@_03ECGPNCBH@B?5?5?$AA@
	mov	DWORD PTR _units$32044[ebp], eax
	mov	eax, DWORD PTR ??_C@_03BHOHCCPH@KiB?$AA@
	mov	DWORD PTR _units$32044[ebp+4], eax
	mov	eax, DWORD PTR ??_C@_03DCIMHNCL@MiB?$AA@
	mov	DWORD PTR _units$32044[ebp+8], eax
	mov	eax, DWORD PTR ??_C@_03FNDBJNEP@GiB?$AA@
	mov	DWORD PTR _units$32044[ebp+12], eax

; 470  : 		char *unit = units[0];

	lea	eax, DWORD PTR _units$32044[ebp]
	mov	DWORD PTR _unit$32045[ebp], eax

; 471  : 		for (int i = 1; memory >= 1024; i++)

	mov	DWORD PTR _i$32046[ebp], 1
	jmp	SHORT $LN3@cl_print_d
$LN2@cl_print_d:
	mov	eax, DWORD PTR _i$32046[ebp]
	add	eax, 1
	mov	DWORD PTR _i$32046[ebp], eax
$LN3@cl_print_d:
	fld	QWORD PTR __real@4090000000000000
	fcomp	QWORD PTR _memory$32042[ebp]
	fnstsw	ax
	test	ah, 65					; 00000041H
	jp	SHORT $LN1@cl_print_d

; 472  : 		{
; 473  : 			memory /= 1024;

	fld	QWORD PTR _memory$32042[ebp]
	fdiv	QWORD PTR __real@4090000000000000
	fstp	QWORD PTR _memory$32042[ebp]

; 474  : 			unit = units[i];

	mov	eax, DWORD PTR _i$32046[ebp]
	lea	ecx, DWORD PTR _units$32044[ebp+eax*4]
	mov	DWORD PTR _unit$32045[ebp], ecx

; 475  : 		}

	jmp	SHORT $LN2@cl_print_d
$LN1@cl_print_d:

; 476  : 		printf("  maximum avaible mem      %.2f %s\n", memory, unit);

	mov	eax, DWORD PTR _unit$32045[ebp]
	push	eax
	sub	esp, 8
	fld	QWORD PTR _memory$32042[ebp]
	fstp	QWORD PTR [esp]
	push	OFFSET ??_C@_0CE@MLIIKEEG@?5?5maximum?5avaible?5mem?5?5?5?5?5?5?$CF?42f?5@
	call	_printf
	add	esp, 16					; 00000010H

; 477  : 	}
; 478  : 
; 479  : 	clGetDeviceInfo(device_id, CL_DEVICE_ADDRESS_BITS, sizeof(param_value), &param_value, NULL);

	push	0
	lea	eax, DWORD PTR _param_value$[ebp]
	push	eax
	push	4
	push	4109					; 0000100dH
	mov	ecx, DWORD PTR _device_id
	push	ecx
	call	_clGetDeviceInfo@20

; 480  : 	printf("  address bits             %u\n", param_value);

	mov	eax, DWORD PTR _param_value$[ebp]
	push	eax
	push	OFFSET ??_C@_0BP@IGFCAEIH@?5?5address?5bits?5?5?5?5?5?5?5?5?5?5?5?5?5?$CFu?6?$AA@
	call	_printf
	add	esp, 8

; 481  : 
; 482  : 	clGetDeviceInfo(device_id, CL_DEVICE_MAX_COMPUTE_UNITS, sizeof(param_value), &param_value, NULL);

	push	0
	lea	eax, DWORD PTR _param_value$[ebp]
	push	eax
	push	4
	push	4098					; 00001002H
	mov	ecx, DWORD PTR _device_id
	push	ecx
	call	_clGetDeviceInfo@20

; 483  : 	printf("  maximum compute units    %u\n", param_value);

	mov	eax, DWORD PTR _param_value$[ebp]
	push	eax
	push	OFFSET ??_C@_0BP@ECPPJEF@?5?5maximum?5compute?5units?5?5?5?5?$CFu?6?$AA@
	call	_printf
	add	esp, 8

; 484  : 
; 485  : 	clGetDeviceInfo(device_id, CL_DEVICE_MAX_WORK_GROUP_SIZE, sizeof(param_value), &param_value, NULL);

	push	0
	lea	eax, DWORD PTR _param_value$[ebp]
	push	eax
	push	4
	push	4100					; 00001004H
	mov	ecx, DWORD PTR _device_id
	push	ecx
	call	_clGetDeviceInfo@20

; 486  : 	printf("  maximum work-group size  %u\n", param_value);

	mov	eax, DWORD PTR _param_value$[ebp]
	push	eax
	push	OFFSET ??_C@_0BP@DEPGPIEH@?5?5maximum?5work?9group?5size?5?5?$CFu?6?$AA@
	call	_printf
	add	esp, 8

; 487  : 
; 488  : 	clGetDeviceInfo(device_id, CL_DEVICE_MAX_WORK_ITEM_SIZES, sizeof(param_value), &param_value, NULL);

	push	0
	lea	eax, DWORD PTR _param_value$[ebp]
	push	eax
	push	4
	push	4101					; 00001005H
	mov	ecx, DWORD PTR _device_id
	push	ecx
	call	_clGetDeviceInfo@20

; 489  : 	printf("  maximum work-item sizes  %u\n", param_value);

	mov	eax, DWORD PTR _param_value$[ebp]
	push	eax
	push	OFFSET ??_C@_0BP@NDMOHBPN@?5?5maximum?5work?9item?5sizes?5?5?$CFu?6?$AA@
	call	_printf
	add	esp, 8

; 490  : 
; 491  : 	clGetDeviceInfo(device_id, CL_DEVICE_MAX_CLOCK_FREQUENCY, sizeof(param_value), &param_value, NULL);

	push	0
	lea	eax, DWORD PTR _param_value$[ebp]
	push	eax
	push	4
	push	4108					; 0000100cH
	mov	ecx, DWORD PTR _device_id
	push	ecx
	call	_clGetDeviceInfo@20

; 492  : 	printf("  max clock frequency      %u MHz\n", param_value);

	mov	eax, DWORD PTR _param_value$[ebp]
	push	eax
	push	OFFSET ??_C@_0CD@NOOIMDDD@?5?5max?5clock?5frequency?5?5?5?5?5?5?$CFu?5MH@
	call	_printf
	add	esp, 8

; 493  : }

	push	edx
	mov	ecx, ebp
	push	eax
	lea	edx, DWORD PTR $LN22@cl_print_d
	call	@_RTC_CheckStackVars@8
	pop	eax
	pop	edx
	pop	edi
	pop	esi
	pop	ebx
	mov	ecx, DWORD PTR __$ArrayPad$[ebp]
	xor	ecx, ebp
	call	@__security_check_cookie@4
	add	esp, 1504				; 000005e0H
	cmp	ebp, esp
	call	__RTC_CheckEsp
	mov	esp, ebp
	pop	ebp
	ret	0
	npad	2
$LN22@cl_print_d:
	DD	6
	DD	$LN21@cl_print_d
$LN21@cl_print_d:
	DD	-12					; fffffff4H
	DD	4
	DD	$LN15@cl_print_d
	DD	-1044					; fffffbecH
	DD	1024					; 00000400H
	DD	$LN16@cl_print_d
	DD	-1084					; fffffbc4H
	DD	16					; 00000010H
	DD	$LN17@cl_print_d
	DD	-1148					; fffffb84H
	DD	16					; 00000010H
	DD	$LN18@cl_print_d
	DD	-1212					; fffffb44H
	DD	16					; 00000010H
	DD	$LN19@cl_print_d
	DD	-1276					; fffffb04H
	DD	16					; 00000010H
	DD	$LN20@cl_print_d
$LN20@cl_print_d:
	DB	117					; 00000075H
	DB	110					; 0000006eH
	DB	105					; 00000069H
	DB	116					; 00000074H
	DB	115					; 00000073H
	DB	0
$LN19@cl_print_d:
	DB	117					; 00000075H
	DB	110					; 0000006eH
	DB	105					; 00000069H
	DB	116					; 00000074H
	DB	115					; 00000073H
	DB	0
$LN18@cl_print_d:
	DB	117					; 00000075H
	DB	110					; 0000006eH
	DB	105					; 00000069H
	DB	116					; 00000074H
	DB	115					; 00000073H
	DB	0
$LN17@cl_print_d:
	DB	117					; 00000075H
	DB	110					; 0000006eH
	DB	105					; 00000069H
	DB	116					; 00000074H
	DB	115					; 00000073H
	DB	0
$LN16@cl_print_d:
	DB	112					; 00000070H
	DB	97					; 00000061H
	DB	114					; 00000072H
	DB	97					; 00000061H
	DB	109					; 0000006dH
	DB	95					; 0000005fH
	DB	115					; 00000073H
	DB	116					; 00000074H
	DB	114					; 00000072H
	DB	105					; 00000069H
	DB	110					; 0000006eH
	DB	103					; 00000067H
	DB	0
$LN15@cl_print_d:
	DB	112					; 00000070H
	DB	97					; 00000061H
	DB	114					; 00000072H
	DB	97					; 00000061H
	DB	109					; 0000006dH
	DB	95					; 0000005fH
	DB	118					; 00000076H
	DB	97					; 00000061H
	DB	108					; 0000006cH
	DB	117					; 00000075H
	DB	101					; 00000065H
	DB	0
?cl_print_device_info@@YAXXZ ENDP			; cl_print_device_info
_TEXT	ENDS
PUBLIC	??_C@_0CD@GFCIJBIF@Error?3?5failed?5to?5read?5from?5buffe@ ; `string'
PUBLIC	??_C@_0CB@EMODPKOD@Error?3?5failed?5to?5execute?5kernel?6@ ; `string'
PUBLIC	??_C@_0CM@BFFINMJB@Error?3?5failed?5write?5data?5to?5buff@ ; `string'
PUBLIC	??_C@_0DA@DJKOFONH@Error?3?5failed?5write?5data?5to?5buff@ ; `string'
PUBLIC	?cl_update@@YAXPAEPAI@Z				; cl_update
EXTRN	_clFinish@4:PROC
EXTRN	_clEnqueueReadBuffer@36:PROC
EXTRN	_clEnqueueNDRangeKernel@36:PROC
EXTRN	_clEnqueueWriteBuffer@36:PROC
;	COMDAT ??_C@_0CD@GFCIJBIF@Error?3?5failed?5to?5read?5from?5buffe@
CONST	SEGMENT
??_C@_0CD@GFCIJBIF@Error?3?5failed?5to?5read?5from?5buffe@ DB 'Error: fai'
	DB	'led to read from buffer', 0aH, 00H		; `string'
CONST	ENDS
;	COMDAT ??_C@_0CB@EMODPKOD@Error?3?5failed?5to?5execute?5kernel?6@
CONST	SEGMENT
??_C@_0CB@EMODPKOD@Error?3?5failed?5to?5execute?5kernel?6@ DB 'Error: fai'
	DB	'led to execute kernel', 0aH, 00H		; `string'
CONST	ENDS
;	COMDAT ??_C@_0CM@BFFINMJB@Error?3?5failed?5write?5data?5to?5buff@
CONST	SEGMENT
??_C@_0CM@BFFINMJB@Error?3?5failed?5write?5data?5to?5buff@ DB 'Error: fai'
	DB	'led write data to buffer (state)', 0aH, 00H	; `string'
CONST	ENDS
;	COMDAT ??_C@_0DA@DJKOFONH@Error?3?5failed?5write?5data?5to?5buff@
CONST	SEGMENT
??_C@_0DA@DJKOFONH@Error?3?5failed?5write?5data?5to?5buff@ DB 'Error: fai'
	DB	'led write data to buffer (roundkeys)', 0aH, 00H ; `string'
; Function compile flags: /Odtp /RTCsu /ZI
CONST	ENDS
;	COMDAT ?cl_update@@YAXPAEPAI@Z
_TEXT	SEGMENT
_global$ = -20						; size = 4
_local$ = -8						; size = 4
_text$ = 8						; size = 4
_roundkeys$ = 12					; size = 4
?cl_update@@YAXPAEPAI@Z PROC				; cl_update, COMDAT

; 496  : {

	push	ebp
	mov	ebp, esp
	sub	esp, 216				; 000000d8H
	push	ebx
	push	esi
	push	edi
	lea	edi, DWORD PTR [ebp-216]
	mov	ecx, 54					; 00000036H
	mov	eax, -858993460				; ccccccccH
	rep stosd

; 497  : 	size_t local = 256;

	mov	DWORD PTR _local$[ebp], 256		; 00000100H

; 498  : 	size_t global = state_length_padded / 16;

	mov	eax, DWORD PTR _state_length_padded
	shr	eax, 4
	mov	DWORD PTR _global$[ebp], eax

; 499  : 
; 500  : 	err = clEnqueueWriteBuffer(queue, mem_roundkeys, CL_FALSE, 0, roundkeys_length, 
; 501  : 							   roundkeys, 0, NULL, NULL);

	push	0
	push	0
	push	0
	mov	eax, DWORD PTR _roundkeys$[ebp]
	push	eax
	mov	ecx, DWORD PTR _roundkeys_length
	push	ecx
	push	0
	push	0
	mov	edx, DWORD PTR _mem_roundkeys
	push	edx
	mov	eax, DWORD PTR _queue
	push	eax
	call	_clEnqueueWriteBuffer@36
	mov	DWORD PTR _err, eax

; 502  : 	if (err != CL_SUCCESS) {

	cmp	DWORD PTR _err, 0
	je	SHORT $LN4@cl_update

; 503  : 		cl_print_error(err, "Error: failed write data to buffer (roundkeys)\n");

	push	OFFSET ??_C@_0DA@DJKOFONH@Error?3?5failed?5write?5data?5to?5buff@
	mov	eax, DWORD PTR _err
	push	eax
	call	?cl_print_error@@YAXHPBDZZ		; cl_print_error
	add	esp, 8
$LN4@cl_update:

; 504  : 	}
; 505  : 
; 506  : 	err = clEnqueueWriteBuffer(queue, mem_state, CL_FALSE, 0, state_length, text, 
; 507  : 							   0, NULL, NULL);

	push	0
	push	0
	push	0
	mov	eax, DWORD PTR _text$[ebp]
	push	eax
	mov	ecx, DWORD PTR _state_length
	push	ecx
	push	0
	push	0
	mov	edx, DWORD PTR _mem_state
	push	edx
	mov	eax, DWORD PTR _queue
	push	eax
	call	_clEnqueueWriteBuffer@36
	mov	DWORD PTR _err, eax

; 508  : 	if (err != CL_SUCCESS) {

	cmp	DWORD PTR _err, 0
	je	SHORT $LN3@cl_update

; 509  : 		cl_print_error(err, "Error: failed write data to buffer (state)\n");

	push	OFFSET ??_C@_0CM@BFFINMJB@Error?3?5failed?5write?5data?5to?5buff@
	mov	eax, DWORD PTR _err
	push	eax
	call	?cl_print_error@@YAXHPBDZZ		; cl_print_error
	add	esp, 8
$LN3@cl_update:

; 510  : 	}
; 511  : 
; 512  : 	err = clEnqueueNDRangeKernel(queue, kernel, 1, NULL, &global, &local, 0, NULL, NULL);

	push	0
	push	0
	push	0
	lea	eax, DWORD PTR _local$[ebp]
	push	eax
	lea	ecx, DWORD PTR _global$[ebp]
	push	ecx
	push	0
	push	1
	mov	edx, DWORD PTR _kernel
	push	edx
	mov	eax, DWORD PTR _queue
	push	eax
	call	_clEnqueueNDRangeKernel@36
	mov	DWORD PTR _err, eax

; 513  : 	if (err != CL_SUCCESS) {

	cmp	DWORD PTR _err, 0
	je	SHORT $LN2@cl_update

; 514  : 		cl_print_error(err, "Error: failed to execute kernel\n");

	push	OFFSET ??_C@_0CB@EMODPKOD@Error?3?5failed?5to?5execute?5kernel?6@
	mov	eax, DWORD PTR _err
	push	eax
	call	?cl_print_error@@YAXHPBDZZ		; cl_print_error
	add	esp, 8
$LN2@cl_update:

; 515  : 	}
; 516  : 
; 517  : 	err = clEnqueueReadBuffer(queue, mem_state, CL_TRUE, 0, state_length, text,
; 518  : 							  0, NULL, NULL);

	push	0
	push	0
	push	0
	mov	eax, DWORD PTR _text$[ebp]
	push	eax
	mov	ecx, DWORD PTR _state_length
	push	ecx
	push	0
	push	1
	mov	edx, DWORD PTR _mem_state
	push	edx
	mov	eax, DWORD PTR _queue
	push	eax
	call	_clEnqueueReadBuffer@36
	mov	DWORD PTR _err, eax

; 519  : 	if (err != CL_SUCCESS) {

	cmp	DWORD PTR _err, 0
	je	SHORT $LN1@cl_update

; 520  : 		cl_print_error(err, "Error: failed to read from buffer\n");

	push	OFFSET ??_C@_0CD@GFCIJBIF@Error?3?5failed?5to?5read?5from?5buffe@
	mov	eax, DWORD PTR _err
	push	eax
	call	?cl_print_error@@YAXHPBDZZ		; cl_print_error
	add	esp, 8
$LN1@cl_update:

; 521  : 	}
; 522  : 
; 523  : 	clFinish(queue);

	mov	eax, DWORD PTR _queue
	push	eax
	call	_clFinish@4

; 524  : }

	push	edx
	mov	ecx, ebp
	push	eax
	lea	edx, DWORD PTR $LN10@cl_update
	call	@_RTC_CheckStackVars@8
	pop	eax
	pop	edx
	pop	edi
	pop	esi
	pop	ebx
	add	esp, 216				; 000000d8H
	cmp	ebp, esp
	call	__RTC_CheckEsp
	mov	esp, ebp
	pop	ebp
	ret	0
	npad	3
$LN10@cl_update:
	DD	2
	DD	$LN9@cl_update
$LN9@cl_update:
	DD	-8					; fffffff8H
	DD	4
	DD	$LN7@cl_update
	DD	-20					; ffffffecH
	DD	4
	DD	$LN8@cl_update
$LN8@cl_update:
	DB	103					; 00000067H
	DB	108					; 0000006cH
	DB	111					; 0000006fH
	DB	98					; 00000062H
	DB	97					; 00000061H
	DB	108					; 0000006cH
	DB	0
$LN7@cl_update:
	DB	108					; 0000006cH
	DB	111					; 0000006fH
	DB	99					; 00000063H
	DB	97					; 00000061H
	DB	108					; 0000006cH
	DB	0
?cl_update@@YAXPAEPAI@Z ENDP				; cl_update
_TEXT	ENDS
EXTRN	_clReleaseKernel@4:PROC
EXTRN	_clReleaseMemObject@4:PROC
; Function compile flags: /Odtp /RTCsu /ZI
;	COMDAT ?cl_release_kernel@@YAXXZ
_TEXT	SEGMENT
?cl_release_kernel@@YAXXZ PROC				; cl_release_kernel, COMDAT

; 527  : {

	push	ebp
	mov	ebp, esp
	sub	esp, 192				; 000000c0H
	push	ebx
	push	esi
	push	edi
	lea	edi, DWORD PTR [ebp-192]
	mov	ecx, 48					; 00000030H
	mov	eax, -858993460				; ccccccccH
	rep stosd

; 528  : 	if (mem_state != nullptr)

	cmp	DWORD PTR _mem_state, 0
	je	SHORT $LN9@cl_release
$LN8@cl_release:

; 529  : 	{
; 530  : 		while (clReleaseMemObject(mem_state));

	mov	eax, DWORD PTR _mem_state
	push	eax
	call	_clReleaseMemObject@4
	test	eax, eax
	je	SHORT $LN7@cl_release
	jmp	SHORT $LN8@cl_release
$LN7@cl_release:

; 531  : 		mem_state = nullptr;

	mov	DWORD PTR _mem_state, 0
$LN9@cl_release:

; 532  : 	}
; 533  : 	
; 534  : 	if (mem_roundkeys != nullptr)

	cmp	DWORD PTR _mem_roundkeys, 0
	je	SHORT $LN6@cl_release
$LN5@cl_release:

; 535  : 	{
; 536  : 		while (clReleaseMemObject(mem_roundkeys));

	mov	eax, DWORD PTR _mem_roundkeys
	push	eax
	call	_clReleaseMemObject@4
	test	eax, eax
	je	SHORT $LN4@cl_release
	jmp	SHORT $LN5@cl_release
$LN4@cl_release:

; 537  : 		mem_roundkeys = nullptr;

	mov	DWORD PTR _mem_roundkeys, 0
$LN6@cl_release:

; 538  : 	}
; 539  : 
; 540  : 	if (kernel != nullptr)

	cmp	DWORD PTR _kernel, 0
	je	SHORT $LN10@cl_release
$LN2@cl_release:

; 541  : 	{
; 542  : 		while (clReleaseKernel(kernel));

	mov	eax, DWORD PTR _kernel
	push	eax
	call	_clReleaseKernel@4
	test	eax, eax
	je	SHORT $LN1@cl_release
	jmp	SHORT $LN2@cl_release
$LN1@cl_release:

; 543  : 		kernel = nullptr;

	mov	DWORD PTR _kernel, 0
$LN10@cl_release:

; 544  : 	}
; 545  : }

	pop	edi
	pop	esi
	pop	ebx
	add	esp, 192				; 000000c0H
	cmp	ebp, esp
	call	__RTC_CheckEsp
	mov	esp, ebp
	pop	ebp
	ret	0
?cl_release_kernel@@YAXXZ ENDP				; cl_release_kernel
_TEXT	ENDS
PUBLIC	?cl_release_all@@YAXXZ				; cl_release_all
EXTRN	_clReleaseContext@4:PROC
EXTRN	_clReleaseCommandQueue@4:PROC
EXTRN	_clReleaseProgram@4:PROC
; Function compile flags: /Odtp /RTCsu /ZI
;	COMDAT ?cl_release_all@@YAXXZ
_TEXT	SEGMENT
?cl_release_all@@YAXXZ PROC				; cl_release_all, COMDAT

; 548  : {

	push	ebp
	mov	ebp, esp
	sub	esp, 192				; 000000c0H
	push	ebx
	push	esi
	push	edi
	lea	edi, DWORD PTR [ebp-192]
	mov	ecx, 48					; 00000030H
	mov	eax, -858993460				; ccccccccH
	rep stosd

; 549  : 	cl_release_kernel();

	call	?cl_release_kernel@@YAXXZ		; cl_release_kernel

; 550  : 
; 551  : 	if (program != nullptr)

	cmp	DWORD PTR _program, 0
	je	SHORT $LN9@cl_release@2
$LN8@cl_release@2:

; 552  : 	{
; 553  : 		while (clReleaseProgram(program));

	mov	eax, DWORD PTR _program
	push	eax
	call	_clReleaseProgram@4
	test	eax, eax
	je	SHORT $LN7@cl_release@2
	jmp	SHORT $LN8@cl_release@2
$LN7@cl_release@2:

; 554  : 		program = nullptr;

	mov	DWORD PTR _program, 0
$LN9@cl_release@2:

; 555  : 	}
; 556  : 
; 557  : 	if (queue != nullptr)

	cmp	DWORD PTR _queue, 0
	je	SHORT $LN6@cl_release@2
$LN5@cl_release@2:

; 558  : 	{
; 559  : 		while (clReleaseCommandQueue(queue));

	mov	eax, DWORD PTR _queue
	push	eax
	call	_clReleaseCommandQueue@4
	test	eax, eax
	je	SHORT $LN4@cl_release@2
	jmp	SHORT $LN5@cl_release@2
$LN4@cl_release@2:

; 560  : 		queue = nullptr;

	mov	DWORD PTR _queue, 0
$LN6@cl_release@2:

; 561  : 	}
; 562  : 
; 563  : 	if (context != nullptr)

	cmp	DWORD PTR _context, 0
	je	SHORT $LN10@cl_release@2
$LN2@cl_release@2:

; 564  : 	{
; 565  : 		while (clReleaseContext(context));

	mov	eax, DWORD PTR _context
	push	eax
	call	_clReleaseContext@4
	test	eax, eax
	je	SHORT $LN1@cl_release@2
	jmp	SHORT $LN2@cl_release@2
$LN1@cl_release@2:

; 566  : 		context = nullptr;

	mov	DWORD PTR _context, 0
$LN10@cl_release@2:

; 567  : 	}
; 568  : }

	pop	edi
	pop	esi
	pop	ebx
	add	esp, 192				; 000000c0H
	cmp	ebp, esp
	call	__RTC_CheckEsp
	mov	esp, ebp
	pop	ebp
	ret	0
?cl_release_all@@YAXXZ ENDP				; cl_release_all
_TEXT	ENDS
PUBLIC	??1?$_String_val@DV?$allocator@D@std@@@std@@QAE@XZ ; std::_String_val<char,std::allocator<char> >::~_String_val<char,std::allocator<char> >
PUBLIC	?_Tidy@?$basic_string@DU?$char_traits@D@std@@V?$allocator@D@2@@std@@QAEX_NI@Z ; std::basic_string<char,std::char_traits<char>,std::allocator<char> >::_Tidy
PUBLIC	??0?$_String_val@DV?$allocator@D@std@@@std@@QAE@V?$allocator@D@1@@Z ; std::_String_val<char,std::allocator<char> >::_String_val<char,std::allocator<char> >
PUBLIC	??0?$allocator@D@std@@QAE@XZ			; std::allocator<char>::allocator<char>
;	COMDAT xdata$x
; File c:\program files (x86)\microsoft visual studio 10.0\vc\include\xstring
xdata$x	SEGMENT
__unwindtable$??0?$basic_string@DU?$char_traits@D@std@@V?$allocator@D@2@@std@@QAE@XZ DD 0ffffffffH
	DD	FLAT:__unwindfunclet$??0?$basic_string@DU?$char_traits@D@std@@V?$allocator@D@2@@std@@QAE@XZ$0
__ehfuncinfo$??0?$basic_string@DU?$char_traits@D@std@@V?$allocator@D@2@@std@@QAE@XZ DD 019930522H
	DD	01H
	DD	FLAT:__unwindtable$??0?$basic_string@DU?$char_traits@D@std@@V?$allocator@D@2@@std@@QAE@XZ
	DD	2 DUP(00H)
	DD	2 DUP(00H)
	DD	00H
	DD	01H
; Function compile flags: /Odtp /RTCsu /ZI
xdata$x	ENDS
;	COMDAT ??0?$basic_string@DU?$char_traits@D@std@@V?$allocator@D@2@@std@@QAE@XZ
_TEXT	SEGMENT
$T36663 = -224						; size = 4
_this$ = -20						; size = 4
__$EHRec$ = -12						; size = 12
??0?$basic_string@DU?$char_traits@D@std@@V?$allocator@D@2@@std@@QAE@XZ PROC ; std::basic_string<char,std::char_traits<char>,std::allocator<char> >::basic_string<char,std::char_traits<char>,std::allocator<char> >, COMDAT
; _this$ = ecx

; 550  : 		{	// construct empty string

	push	ebp
	mov	ebp, esp
	push	-1
	push	__ehhandler$??0?$basic_string@DU?$char_traits@D@std@@V?$allocator@D@2@@std@@QAE@XZ
	mov	eax, DWORD PTR fs:0
	push	eax
	sub	esp, 216				; 000000d8H
	push	ebx
	push	esi
	push	edi
	push	ecx
	lea	edi, DWORD PTR [ebp-228]
	mov	ecx, 54					; 00000036H
	mov	eax, -858993460				; ccccccccH
	rep stosd
	pop	ecx
	mov	eax, DWORD PTR ___security_cookie
	xor	eax, ebp
	push	eax
	lea	eax, DWORD PTR __$EHRec$[ebp]
	mov	DWORD PTR fs:0, eax
	mov	DWORD PTR _this$[ebp], ecx
	push	ecx
	mov	ecx, esp
	mov	DWORD PTR $T36663[ebp], esp
	call	??0?$allocator@D@std@@QAE@XZ		; std::allocator<char>::allocator<char>
	mov	ecx, DWORD PTR _this$[ebp]
	call	??0?$_String_val@DV?$allocator@D@std@@@std@@QAE@V?$allocator@D@1@@Z ; std::_String_val<char,std::allocator<char> >::_String_val<char,std::allocator<char> >
	mov	DWORD PTR __$EHRec$[ebp+8], 0

; 551  : 		_Tidy();

	push	0
	push	0
	mov	ecx, DWORD PTR _this$[ebp]
	call	?_Tidy@?$basic_string@DU?$char_traits@D@std@@V?$allocator@D@2@@std@@QAEX_NI@Z ; std::basic_string<char,std::char_traits<char>,std::allocator<char> >::_Tidy

; 552  : 		}

	mov	DWORD PTR __$EHRec$[ebp+8], -1
	mov	eax, DWORD PTR _this$[ebp]
	mov	ecx, DWORD PTR __$EHRec$[ebp]
	mov	DWORD PTR fs:0, ecx
	pop	ecx
	pop	edi
	pop	esi
	pop	ebx
	add	esp, 228				; 000000e4H
	cmp	ebp, esp
	call	__RTC_CheckEsp
	mov	esp, ebp
	pop	ebp
	ret	0
_TEXT	ENDS
;	COMDAT text$x
text$x	SEGMENT
__unwindfunclet$??0?$basic_string@DU?$char_traits@D@std@@V?$allocator@D@2@@std@@QAE@XZ$0:
	mov	ecx, DWORD PTR _this$[ebp]
	jmp	??1?$_String_val@DV?$allocator@D@std@@@std@@QAE@XZ ; std::_String_val<char,std::allocator<char> >::~_String_val<char,std::allocator<char> >
__ehhandler$??0?$basic_string@DU?$char_traits@D@std@@V?$allocator@D@2@@std@@QAE@XZ:
	mov	edx, DWORD PTR [esp+8]
	lea	eax, DWORD PTR [edx+12]
	mov	ecx, DWORD PTR [edx-232]
	xor	ecx, eax
	call	@__security_check_cookie@4
	mov	eax, OFFSET __ehfuncinfo$??0?$basic_string@DU?$char_traits@D@std@@V?$allocator@D@2@@std@@QAE@XZ
	jmp	___CxxFrameHandler3
text$x	ENDS
??0?$basic_string@DU?$char_traits@D@std@@V?$allocator@D@2@@std@@QAE@XZ ENDP ; std::basic_string<char,std::char_traits<char>,std::allocator<char> >::basic_string<char,std::char_traits<char>,std::allocator<char> >
PUBLIC	?assign@?$basic_string@DU?$char_traits@D@std@@V?$allocator@D@2@@std@@QAEAAV12@PBD@Z ; std::basic_string<char,std::char_traits<char>,std::allocator<char> >::assign
;	COMDAT xdata$x
xdata$x	SEGMENT
__unwindtable$??0?$basic_string@DU?$char_traits@D@std@@V?$allocator@D@2@@std@@QAE@PBD@Z DD 0ffffffffH
	DD	FLAT:__unwindfunclet$??0?$basic_string@DU?$char_traits@D@std@@V?$allocator@D@2@@std@@QAE@PBD@Z$0
__ehfuncinfo$??0?$basic_string@DU?$char_traits@D@std@@V?$allocator@D@2@@std@@QAE@PBD@Z DD 019930522H
	DD	01H
	DD	FLAT:__unwindtable$??0?$basic_string@DU?$char_traits@D@std@@V?$allocator@D@2@@std@@QAE@PBD@Z
	DD	2 DUP(00H)
	DD	2 DUP(00H)
	DD	00H
	DD	01H
; Function compile flags: /Odtp /RTCsu /ZI
xdata$x	ENDS
;	COMDAT ??0?$basic_string@DU?$char_traits@D@std@@V?$allocator@D@2@@std@@QAE@PBD@Z
_TEXT	SEGMENT
$T36673 = -224						; size = 4
_this$ = -20						; size = 4
__$EHRec$ = -12						; size = 12
__Ptr$ = 8						; size = 4
??0?$basic_string@DU?$char_traits@D@std@@V?$allocator@D@2@@std@@QAE@PBD@Z PROC ; std::basic_string<char,std::char_traits<char>,std::allocator<char> >::basic_string<char,std::char_traits<char>,std::allocator<char> >, COMDAT
; _this$ = ecx

; 592  : 		{	// construct from [_Ptr, <null>)

	push	ebp
	mov	ebp, esp
	push	-1
	push	__ehhandler$??0?$basic_string@DU?$char_traits@D@std@@V?$allocator@D@2@@std@@QAE@PBD@Z
	mov	eax, DWORD PTR fs:0
	push	eax
	sub	esp, 216				; 000000d8H
	push	ebx
	push	esi
	push	edi
	push	ecx
	lea	edi, DWORD PTR [ebp-228]
	mov	ecx, 54					; 00000036H
	mov	eax, -858993460				; ccccccccH
	rep stosd
	pop	ecx
	mov	eax, DWORD PTR ___security_cookie
	xor	eax, ebp
	push	eax
	lea	eax, DWORD PTR __$EHRec$[ebp]
	mov	DWORD PTR fs:0, eax
	mov	DWORD PTR _this$[ebp], ecx
	push	ecx
	mov	ecx, esp
	mov	DWORD PTR $T36673[ebp], esp
	call	??0?$allocator@D@std@@QAE@XZ		; std::allocator<char>::allocator<char>
	mov	ecx, DWORD PTR _this$[ebp]
	call	??0?$_String_val@DV?$allocator@D@std@@@std@@QAE@V?$allocator@D@1@@Z ; std::_String_val<char,std::allocator<char> >::_String_val<char,std::allocator<char> >
	mov	DWORD PTR __$EHRec$[ebp+8], 0

; 593  : 		_Tidy();

	push	0
	push	0
	mov	ecx, DWORD PTR _this$[ebp]
	call	?_Tidy@?$basic_string@DU?$char_traits@D@std@@V?$allocator@D@2@@std@@QAEX_NI@Z ; std::basic_string<char,std::char_traits<char>,std::allocator<char> >::_Tidy

; 594  : 		assign(_Ptr);

	mov	eax, DWORD PTR __Ptr$[ebp]
	push	eax
	mov	ecx, DWORD PTR _this$[ebp]
	call	?assign@?$basic_string@DU?$char_traits@D@std@@V?$allocator@D@2@@std@@QAEAAV12@PBD@Z ; std::basic_string<char,std::char_traits<char>,std::allocator<char> >::assign

; 595  : 		}

	mov	DWORD PTR __$EHRec$[ebp+8], -1
	mov	eax, DWORD PTR _this$[ebp]
	mov	ecx, DWORD PTR __$EHRec$[ebp]
	mov	DWORD PTR fs:0, ecx
	pop	ecx
	pop	edi
	pop	esi
	pop	ebx
	add	esp, 228				; 000000e4H
	cmp	ebp, esp
	call	__RTC_CheckEsp
	mov	esp, ebp
	pop	ebp
	ret	4
_TEXT	ENDS
;	COMDAT text$x
text$x	SEGMENT
__unwindfunclet$??0?$basic_string@DU?$char_traits@D@std@@V?$allocator@D@2@@std@@QAE@PBD@Z$0:
	mov	ecx, DWORD PTR _this$[ebp]
	jmp	??1?$_String_val@DV?$allocator@D@std@@@std@@QAE@XZ ; std::_String_val<char,std::allocator<char> >::~_String_val<char,std::allocator<char> >
__ehhandler$??0?$basic_string@DU?$char_traits@D@std@@V?$allocator@D@2@@std@@QAE@PBD@Z:
	mov	edx, DWORD PTR [esp+8]
	lea	eax, DWORD PTR [edx+12]
	mov	ecx, DWORD PTR [edx-232]
	xor	ecx, eax
	call	@__security_check_cookie@4
	mov	eax, OFFSET __ehfuncinfo$??0?$basic_string@DU?$char_traits@D@std@@V?$allocator@D@2@@std@@QAE@PBD@Z
	jmp	___CxxFrameHandler3
text$x	ENDS
??0?$basic_string@DU?$char_traits@D@std@@V?$allocator@D@2@@std@@QAE@PBD@Z ENDP ; std::basic_string<char,std::char_traits<char>,std::allocator<char> >::basic_string<char,std::char_traits<char>,std::allocator<char> >
;	COMDAT xdata$x
xdata$x	SEGMENT
__unwindtable$??1?$basic_string@DU?$char_traits@D@std@@V?$allocator@D@2@@std@@QAE@XZ DD 0ffffffffH
	DD	FLAT:__unwindfunclet$??1?$basic_string@DU?$char_traits@D@std@@V?$allocator@D@2@@std@@QAE@XZ$0
__ehfuncinfo$??1?$basic_string@DU?$char_traits@D@std@@V?$allocator@D@2@@std@@QAE@XZ DD 019930522H
	DD	01H
	DD	FLAT:__unwindtable$??1?$basic_string@DU?$char_traits@D@std@@V?$allocator@D@2@@std@@QAE@XZ
	DD	2 DUP(00H)
	DD	2 DUP(00H)
	DD	00H
	DD	01H
; Function compile flags: /Odtp /RTCsu /ZI
xdata$x	ENDS
;	COMDAT ??1?$basic_string@DU?$char_traits@D@std@@V?$allocator@D@2@@std@@QAE@XZ
_TEXT	SEGMENT
_this$ = -20						; size = 4
__$EHRec$ = -12						; size = 12
??1?$basic_string@DU?$char_traits@D@std@@V?$allocator@D@2@@std@@QAE@XZ PROC ; std::basic_string<char,std::char_traits<char>,std::allocator<char> >::~basic_string<char,std::char_traits<char>,std::allocator<char> >, COMDAT
; _this$ = ecx

; 753  : 		{	// destroy the string

	push	ebp
	mov	ebp, esp
	push	-1
	push	__ehhandler$??1?$basic_string@DU?$char_traits@D@std@@V?$allocator@D@2@@std@@QAE@XZ
	mov	eax, DWORD PTR fs:0
	push	eax
	sub	esp, 204				; 000000ccH
	push	ebx
	push	esi
	push	edi
	push	ecx
	lea	edi, DWORD PTR [ebp-216]
	mov	ecx, 51					; 00000033H
	mov	eax, -858993460				; ccccccccH
	rep stosd
	pop	ecx
	mov	eax, DWORD PTR ___security_cookie
	xor	eax, ebp
	push	eax
	lea	eax, DWORD PTR __$EHRec$[ebp]
	mov	DWORD PTR fs:0, eax
	mov	DWORD PTR _this$[ebp], ecx
	mov	DWORD PTR __$EHRec$[ebp+8], 0

; 754  : 		_Tidy(true);

	push	0
	push	1
	mov	ecx, DWORD PTR _this$[ebp]
	call	?_Tidy@?$basic_string@DU?$char_traits@D@std@@V?$allocator@D@2@@std@@QAEX_NI@Z ; std::basic_string<char,std::char_traits<char>,std::allocator<char> >::_Tidy

; 755  : 		}

	mov	DWORD PTR __$EHRec$[ebp+8], -1
	mov	ecx, DWORD PTR _this$[ebp]
	call	??1?$_String_val@DV?$allocator@D@std@@@std@@QAE@XZ ; std::_String_val<char,std::allocator<char> >::~_String_val<char,std::allocator<char> >
	mov	ecx, DWORD PTR __$EHRec$[ebp]
	mov	DWORD PTR fs:0, ecx
	pop	ecx
	pop	edi
	pop	esi
	pop	ebx
	add	esp, 216				; 000000d8H
	cmp	ebp, esp
	call	__RTC_CheckEsp
	mov	esp, ebp
	pop	ebp
	ret	0
_TEXT	ENDS
;	COMDAT text$x
text$x	SEGMENT
__unwindfunclet$??1?$basic_string@DU?$char_traits@D@std@@V?$allocator@D@2@@std@@QAE@XZ$0:
	mov	ecx, DWORD PTR _this$[ebp]
	jmp	??1?$_String_val@DV?$allocator@D@std@@@std@@QAE@XZ ; std::_String_val<char,std::allocator<char> >::~_String_val<char,std::allocator<char> >
__ehhandler$??1?$basic_string@DU?$char_traits@D@std@@V?$allocator@D@2@@std@@QAE@XZ:
	mov	edx, DWORD PTR [esp+8]
	lea	eax, DWORD PTR [edx+12]
	mov	ecx, DWORD PTR [edx-220]
	xor	ecx, eax
	call	@__security_check_cookie@4
	mov	eax, OFFSET __ehfuncinfo$??1?$basic_string@DU?$char_traits@D@std@@V?$allocator@D@2@@std@@QAE@XZ
	jmp	___CxxFrameHandler3
text$x	ENDS
??1?$basic_string@DU?$char_traits@D@std@@V?$allocator@D@2@@std@@QAE@XZ ENDP ; std::basic_string<char,std::char_traits<char>,std::allocator<char> >::~basic_string<char,std::char_traits<char>,std::allocator<char> >
; Function compile flags: /Odtp /RTCsu /ZI
;	COMDAT ??Y?$basic_string@DU?$char_traits@D@std@@V?$allocator@D@2@@std@@QAEAAV01@PBD@Z
_TEXT	SEGMENT
_this$ = -8						; size = 4
__Ptr$ = 8						; size = 4
??Y?$basic_string@DU?$char_traits@D@std@@V?$allocator@D@2@@std@@QAEAAV01@PBD@Z PROC ; std::basic_string<char,std::char_traits<char>,std::allocator<char> >::operator+=, COMDAT
; _this$ = ecx

; 783  : 		{	// append [_Ptr, <null>)

	push	ebp
	mov	ebp, esp
	sub	esp, 204				; 000000ccH
	push	ebx
	push	esi
	push	edi
	push	ecx
	lea	edi, DWORD PTR [ebp-204]
	mov	ecx, 51					; 00000033H
	mov	eax, -858993460				; ccccccccH
	rep stosd
	pop	ecx
	mov	DWORD PTR _this$[ebp], ecx

; 784  : 		return (append(_Ptr));

	mov	eax, DWORD PTR __Ptr$[ebp]
	push	eax
	mov	ecx, DWORD PTR _this$[ebp]
	call	?append@?$basic_string@DU?$char_traits@D@std@@V?$allocator@D@2@@std@@QAEAAV12@PBD@Z ; std::basic_string<char,std::char_traits<char>,std::allocator<char> >::append

; 785  : 		}

	pop	edi
	pop	esi
	pop	ebx
	add	esp, 204				; 000000ccH
	cmp	ebp, esp
	call	__RTC_CheckEsp
	mov	esp, ebp
	pop	ebp
	ret	4
??Y?$basic_string@DU?$char_traits@D@std@@V?$allocator@D@2@@std@@QAEAAV01@PBD@Z ENDP ; std::basic_string<char,std::char_traits<char>,std::allocator<char> >::operator+=
_TEXT	ENDS
PUBLIC	?append@?$basic_string@DU?$char_traits@D@std@@V?$allocator@D@2@@std@@QAEAAV12@PBDI@Z ; std::basic_string<char,std::char_traits<char>,std::allocator<char> >::append
PUBLIC	?length@?$char_traits@D@std@@SAIPBD@Z		; std::char_traits<char>::length
PUBLIC	??$_Debug_pointer@D@std@@YAXPBDPB_WI@Z		; std::_Debug_pointer<char>
PUBLIC	??_C@_1IO@GEGAMENF@?$AAc?$AA?3?$AA?2?$AAp?$AAr?$AAo?$AAg?$AAr?$AAa?$AAm?$AA?5?$AAf?$AAi?$AAl?$AAe?$AAs?$AA?5?$AA?$CI?$AAx?$AA8?$AA6?$AA?$CJ?$AA?2?$AAm?$AAi?$AAc?$AAr?$AAo?$AAs?$AAo?$AAf?$AAt@ ; `string'
;	COMDAT ??_C@_1IO@GEGAMENF@?$AAc?$AA?3?$AA?2?$AAp?$AAr?$AAo?$AAg?$AAr?$AAa?$AAm?$AA?5?$AAf?$AAi?$AAl?$AAe?$AAs?$AA?5?$AA?$CI?$AAx?$AA8?$AA6?$AA?$CJ?$AA?2?$AAm?$AAi?$AAc?$AAr?$AAo?$AAs?$AAo?$AAf?$AAt@
CONST	SEGMENT
??_C@_1IO@GEGAMENF@?$AAc?$AA?3?$AA?2?$AAp?$AAr?$AAo?$AAg?$AAr?$AAa?$AAm?$AA?5?$AAf?$AAi?$AAl?$AAe?$AAs?$AA?5?$AA?$CI?$AAx?$AA8?$AA6?$AA?$CJ?$AA?2?$AAm?$AAi?$AAc?$AAr?$AAo?$AAs?$AAo?$AAf?$AAt@ DB 'c'
	DB	00H, ':', 00H, '\', 00H, 'p', 00H, 'r', 00H, 'o', 00H, 'g', 00H
	DB	'r', 00H, 'a', 00H, 'm', 00H, ' ', 00H, 'f', 00H, 'i', 00H, 'l'
	DB	00H, 'e', 00H, 's', 00H, ' ', 00H, '(', 00H, 'x', 00H, '8', 00H
	DB	'6', 00H, ')', 00H, '\', 00H, 'm', 00H, 'i', 00H, 'c', 00H, 'r'
	DB	00H, 'o', 00H, 's', 00H, 'o', 00H, 'f', 00H, 't', 00H, ' ', 00H
	DB	'v', 00H, 'i', 00H, 's', 00H, 'u', 00H, 'a', 00H, 'l', 00H, ' '
	DB	00H, 's', 00H, 't', 00H, 'u', 00H, 'd', 00H, 'i', 00H, 'o', 00H
	DB	' ', 00H, '1', 00H, '0', 00H, '.', 00H, '0', 00H, '\', 00H, 'v'
	DB	00H, 'c', 00H, '\', 00H, 'i', 00H, 'n', 00H, 'c', 00H, 'l', 00H
	DB	'u', 00H, 'd', 00H, 'e', 00H, '\', 00H, 'x', 00H, 's', 00H, 't'
	DB	00H, 'r', 00H, 'i', 00H, 'n', 00H, 'g', 00H, 00H, 00H ; `string'
; Function compile flags: /Odtp /RTCsu /ZI
CONST	ENDS
;	COMDAT ?append@?$basic_string@DU?$char_traits@D@std@@V?$allocator@D@2@@std@@QAEAAV12@PBD@Z
_TEXT	SEGMENT
_this$ = -8						; size = 4
__Ptr$ = 8						; size = 4
?append@?$basic_string@DU?$char_traits@D@std@@V?$allocator@D@2@@std@@QAEAAV12@PBD@Z PROC ; std::basic_string<char,std::char_traits<char>,std::allocator<char> >::append, COMDAT
; _this$ = ecx

; 839  : 		{	// append [_Ptr, <null>)

	push	ebp
	mov	ebp, esp
	sub	esp, 204				; 000000ccH
	push	ebx
	push	esi
	push	edi
	push	ecx
	lea	edi, DWORD PTR [ebp-204]
	mov	ecx, 51					; 00000033H
	mov	eax, -858993460				; ccccccccH
	rep stosd
	pop	ecx
	mov	DWORD PTR _this$[ebp], ecx

; 840  : 		_DEBUG_POINTER(_Ptr);

	push	840					; 00000348H
	push	OFFSET ??_C@_1IO@GEGAMENF@?$AAc?$AA?3?$AA?2?$AAp?$AAr?$AAo?$AAg?$AAr?$AAa?$AAm?$AA?5?$AAf?$AAi?$AAl?$AAe?$AAs?$AA?5?$AA?$CI?$AAx?$AA8?$AA6?$AA?$CJ?$AA?2?$AAm?$AAi?$AAc?$AAr?$AAo?$AAs?$AAo?$AAf?$AAt@
	mov	eax, DWORD PTR __Ptr$[ebp]
	push	eax
	call	??$_Debug_pointer@D@std@@YAXPBDPB_WI@Z	; std::_Debug_pointer<char>
	add	esp, 12					; 0000000cH

; 841  : 		return (append(_Ptr, _Traits::length(_Ptr)));

	mov	eax, DWORD PTR __Ptr$[ebp]
	push	eax
	call	?length@?$char_traits@D@std@@SAIPBD@Z	; std::char_traits<char>::length
	add	esp, 4
	push	eax
	mov	ecx, DWORD PTR __Ptr$[ebp]
	push	ecx
	mov	ecx, DWORD PTR _this$[ebp]
	call	?append@?$basic_string@DU?$char_traits@D@std@@V?$allocator@D@2@@std@@QAEAAV12@PBDI@Z ; std::basic_string<char,std::char_traits<char>,std::allocator<char> >::append

; 842  : 		}

	pop	edi
	pop	esi
	pop	ebx
	add	esp, 204				; 000000ccH
	cmp	ebp, esp
	call	__RTC_CheckEsp
	mov	esp, ebp
	pop	ebp
	ret	4
?append@?$basic_string@DU?$char_traits@D@std@@V?$allocator@D@2@@std@@QAEAAV12@PBD@Z ENDP ; std::basic_string<char,std::char_traits<char>,std::allocator<char> >::append
; Function compile flags: /Odtp /RTCsu /ZI
; File c:\program files (x86)\microsoft visual studio 10.0\vc\include\iosfwd
_TEXT	ENDS
;	COMDAT ?length@?$char_traits@D@std@@SAIPBD@Z
_TEXT	SEGMENT
__First$ = 8						; size = 4
?length@?$char_traits@D@std@@SAIPBD@Z PROC		; std::char_traits<char>::length, COMDAT

; 490  : 		{	// find length of null-terminated string

	push	ebp
	mov	ebp, esp
	sub	esp, 192				; 000000c0H
	push	ebx
	push	esi
	push	edi
	lea	edi, DWORD PTR [ebp-192]
	mov	ecx, 48					; 00000030H
	mov	eax, -858993460				; ccccccccH
	rep stosd

; 491  : 		return (_CSTD strlen(_First));

	mov	eax, DWORD PTR __First$[ebp]
	push	eax
	call	_strlen
	add	esp, 4

; 492  : 		}

	pop	edi
	pop	esi
	pop	ebx
	add	esp, 192				; 000000c0H
	cmp	ebp, esp
	call	__RTC_CheckEsp
	mov	esp, ebp
	pop	ebp
	ret	0
?length@?$char_traits@D@std@@SAIPBD@Z ENDP		; std::char_traits<char>::length
_TEXT	ENDS
PUBLIC	?_Myptr@?$basic_string@DU?$char_traits@D@std@@V?$allocator@D@2@@std@@QBEPBDXZ ; std::basic_string<char,std::char_traits<char>,std::allocator<char> >::_Myptr
; Function compile flags: /Odtp /RTCsu /ZI
; File c:\program files (x86)\microsoft visual studio 10.0\vc\include\xstring
;	COMDAT ?c_str@?$basic_string@DU?$char_traits@D@std@@V?$allocator@D@2@@std@@QBEPBDXZ
_TEXT	SEGMENT
_this$ = -8						; size = 4
?c_str@?$basic_string@DU?$char_traits@D@std@@V?$allocator@D@2@@std@@QBEPBDXZ PROC ; std::basic_string<char,std::char_traits<char>,std::allocator<char> >::c_str, COMDAT
; _this$ = ecx

; 1496 : 		{	// return pointer to null-terminated nonmutable array

	push	ebp
	mov	ebp, esp
	sub	esp, 204				; 000000ccH
	push	ebx
	push	esi
	push	edi
	push	ecx
	lea	edi, DWORD PTR [ebp-204]
	mov	ecx, 51					; 00000033H
	mov	eax, -858993460				; ccccccccH
	rep stosd
	pop	ecx
	mov	DWORD PTR _this$[ebp], ecx

; 1497 : 		return (_Myptr());

	mov	ecx, DWORD PTR _this$[ebp]
	call	?_Myptr@?$basic_string@DU?$char_traits@D@std@@V?$allocator@D@2@@std@@QBEPBDXZ ; std::basic_string<char,std::char_traits<char>,std::allocator<char> >::_Myptr

; 1498 : 		}

	pop	edi
	pop	esi
	pop	ebx
	add	esp, 204				; 000000ccH
	cmp	ebp, esp
	call	__RTC_CheckEsp
	mov	esp, ebp
	pop	ebp
	ret	0
?c_str@?$basic_string@DU?$char_traits@D@std@@V?$allocator@D@2@@std@@QBEPBDXZ ENDP ; std::basic_string<char,std::char_traits<char>,std::allocator<char> >::c_str
_TEXT	ENDS
PUBLIC	?_Eos@?$basic_string@DU?$char_traits@D@std@@V?$allocator@D@2@@std@@QAEXI@Z ; std::basic_string<char,std::char_traits<char>,std::allocator<char> >::_Eos
PUBLIC	?_Grow@?$basic_string@DU?$char_traits@D@std@@V?$allocator@D@2@@std@@QAE_NI_N@Z ; std::basic_string<char,std::char_traits<char>,std::allocator<char> >::_Grow
; Function compile flags: /Odtp /RTCsu /ZI
;	COMDAT ?reserve@?$basic_string@DU?$char_traits@D@std@@V?$allocator@D@2@@std@@QAEXI@Z
_TEXT	SEGMENT
__Size$32334 = -20					; size = 4
_this$ = -8						; size = 4
__Newcap$ = 8						; size = 4
?reserve@?$basic_string@DU?$char_traits@D@std@@V?$allocator@D@2@@std@@QAEXI@Z PROC ; std::basic_string<char,std::char_traits<char>,std::allocator<char> >::reserve, COMDAT
; _this$ = ecx

; 1540 : 		{	// determine new minimum length of allocated storage

	push	ebp
	mov	ebp, esp
	sub	esp, 216				; 000000d8H
	push	ebx
	push	esi
	push	edi
	push	ecx
	lea	edi, DWORD PTR [ebp-216]
	mov	ecx, 54					; 00000036H
	mov	eax, -858993460				; ccccccccH
	rep stosd
	pop	ecx
	mov	DWORD PTR _this$[ebp], ecx

; 1541 : 		if (this->_Mysize <= _Newcap && this->_Myres != _Newcap)

	mov	eax, DWORD PTR _this$[ebp]
	mov	ecx, DWORD PTR [eax+20]
	cmp	ecx, DWORD PTR __Newcap$[ebp]
	ja	SHORT $LN3@reserve
	mov	eax, DWORD PTR _this$[ebp]
	mov	ecx, DWORD PTR [eax+24]
	cmp	ecx, DWORD PTR __Newcap$[ebp]
	je	SHORT $LN3@reserve

; 1542 : 			{	// change reservation
; 1543 : 			size_type _Size = this->_Mysize;

	mov	eax, DWORD PTR _this$[ebp]
	mov	ecx, DWORD PTR [eax+20]
	mov	DWORD PTR __Size$32334[ebp], ecx

; 1544 : 			if (_Grow(_Newcap, true))

	push	1
	mov	eax, DWORD PTR __Newcap$[ebp]
	push	eax
	mov	ecx, DWORD PTR _this$[ebp]
	call	?_Grow@?$basic_string@DU?$char_traits@D@std@@V?$allocator@D@2@@std@@QAE_NI_N@Z ; std::basic_string<char,std::char_traits<char>,std::allocator<char> >::_Grow
	movzx	ecx, al
	test	ecx, ecx
	je	SHORT $LN3@reserve

; 1545 : 				_Eos(_Size);

	mov	eax, DWORD PTR __Size$32334[ebp]
	push	eax
	mov	ecx, DWORD PTR _this$[ebp]
	call	?_Eos@?$basic_string@DU?$char_traits@D@std@@V?$allocator@D@2@@std@@QAEXI@Z ; std::basic_string<char,std::char_traits<char>,std::allocator<char> >::_Eos
$LN3@reserve:

; 1546 : 			}
; 1547 : 		}

	pop	edi
	pop	esi
	pop	ebx
	add	esp, 216				; 000000d8H
	cmp	ebp, esp
	call	__RTC_CheckEsp
	mov	esp, ebp
	pop	ebp
	ret	4
?reserve@?$basic_string@DU?$char_traits@D@std@@V?$allocator@D@2@@std@@QAEXI@Z ENDP ; std::basic_string<char,std::char_traits<char>,std::allocator<char> >::reserve
_TEXT	ENDS
PUBLIC	??1sentry@?$basic_ostream@DU?$char_traits@D@std@@@std@@QAE@XZ ; std::basic_ostream<char,std::char_traits<char> >::sentry::~sentry
PUBLIC	?setstate@?$basic_ios@DU?$char_traits@D@std@@@std@@QAEXH_N@Z ; std::basic_ios<char,std::char_traits<char> >::setstate
PUBLIC	?sputn@?$basic_streambuf@DU?$char_traits@D@std@@@std@@QAE_JPBD_J@Z ; std::basic_streambuf<char,std::char_traits<char> >::sputn
PUBLIC	?rdbuf@?$basic_ios@DU?$char_traits@D@std@@@std@@QBEPAV?$basic_streambuf@DU?$char_traits@D@std@@@2@XZ ; std::basic_ios<char,std::char_traits<char> >::rdbuf
PUBLIC	??Bsentry@?$basic_ostream@DU?$char_traits@D@std@@@std@@QBEPQ_Bool_struct@2@HXZ ; std::basic_ostream<char,std::char_traits<char> >::sentry::operator int std::_Bool_struct::*
PUBLIC	??0sentry@?$basic_ostream@DU?$char_traits@D@std@@@std@@QAE@AAV12@@Z ; std::basic_ostream<char,std::char_traits<char> >::sentry::sentry
PUBLIC	??_C@_1IO@LGPKEFMA@?$AAc?$AA?3?$AA?2?$AAp?$AAr?$AAo?$AAg?$AAr?$AAa?$AAm?$AA?5?$AAf?$AAi?$AAl?$AAe?$AAs?$AA?5?$AA?$CI?$AAx?$AA8?$AA6?$AA?$CJ?$AA?2?$AAm?$AAi?$AAc?$AAr?$AAo?$AAs?$AAo?$AAf?$AAt@ ; `string'
;	COMDAT ??_C@_1IO@LGPKEFMA@?$AAc?$AA?3?$AA?2?$AAp?$AAr?$AAo?$AAg?$AAr?$AAa?$AAm?$AA?5?$AAf?$AAi?$AAl?$AAe?$AAs?$AA?5?$AA?$CI?$AAx?$AA8?$AA6?$AA?$CJ?$AA?2?$AAm?$AAi?$AAc?$AAr?$AAo?$AAs?$AAo?$AAf?$AAt@
; File c:\program files (x86)\microsoft visual studio 10.0\vc\include\ostream
CONST	SEGMENT
??_C@_1IO@LGPKEFMA@?$AAc?$AA?3?$AA?2?$AAp?$AAr?$AAo?$AAg?$AAr?$AAa?$AAm?$AA?5?$AAf?$AAi?$AAl?$AAe?$AAs?$AA?5?$AA?$CI?$AAx?$AA8?$AA6?$AA?$CJ?$AA?2?$AAm?$AAi?$AAc?$AAr?$AAo?$AAs?$AAo?$AAf?$AAt@ DB 'c'
	DB	00H, ':', 00H, '\', 00H, 'p', 00H, 'r', 00H, 'o', 00H, 'g', 00H
	DB	'r', 00H, 'a', 00H, 'm', 00H, ' ', 00H, 'f', 00H, 'i', 00H, 'l'
	DB	00H, 'e', 00H, 's', 00H, ' ', 00H, '(', 00H, 'x', 00H, '8', 00H
	DB	'6', 00H, ')', 00H, '\', 00H, 'm', 00H, 'i', 00H, 'c', 00H, 'r'
	DB	00H, 'o', 00H, 's', 00H, 'o', 00H, 'f', 00H, 't', 00H, ' ', 00H
	DB	'v', 00H, 'i', 00H, 's', 00H, 'u', 00H, 'a', 00H, 'l', 00H, ' '
	DB	00H, 's', 00H, 't', 00H, 'u', 00H, 'd', 00H, 'i', 00H, 'o', 00H
	DB	' ', 00H, '1', 00H, '0', 00H, '.', 00H, '0', 00H, '\', 00H, 'v'
	DB	00H, 'c', 00H, '\', 00H, 'i', 00H, 'n', 00H, 'c', 00H, 'l', 00H
	DB	'u', 00H, 'd', 00H, 'e', 00H, '\', 00H, 'o', 00H, 's', 00H, 't'
	DB	00H, 'r', 00H, 'e', 00H, 'a', 00H, 'm', 00H, 00H, 00H ; `string'
CONST	ENDS
;	COMDAT xdata$x
xdata$x	SEGMENT
__catchsym$?write@?$basic_ostream@DU?$char_traits@D@std@@@std@@QAEAAV12@PBD_J@Z$3 DD 040H
	DD	00H
	DD	00H
	DD	FLAT:__catch$?write@?$basic_ostream@DU?$char_traits@D@std@@@std@@QAEAAV12@PBD_J@Z$0
__tryblocktable$?write@?$basic_ostream@DU?$char_traits@D@std@@@std@@QAEAAV12@PBD_J@Z DD 01H
	DD	01H
	DD	02H
	DD	01H
	DD	FLAT:__catchsym$?write@?$basic_ostream@DU?$char_traits@D@std@@@std@@QAEAAV12@PBD_J@Z$3
__unwindtable$?write@?$basic_ostream@DU?$char_traits@D@std@@@std@@QAEAAV12@PBD_J@Z DD 0ffffffffH
	DD	FLAT:__unwindfunclet$?write@?$basic_ostream@DU?$char_traits@D@std@@@std@@QAEAAV12@PBD_J@Z$2
	DD	00H
	DD	00H
	DD	00H
	DD	00H
__ehfuncinfo$?write@?$basic_ostream@DU?$char_traits@D@std@@@std@@QAEAAV12@PBD_J@Z DD 019930522H
	DD	03H
	DD	FLAT:__unwindtable$?write@?$basic_ostream@DU?$char_traits@D@std@@@std@@QAEAAV12@PBD_J@Z
	DD	01H
	DD	FLAT:__tryblocktable$?write@?$basic_ostream@DU?$char_traits@D@std@@@std@@QAEAAV12@PBD_J@Z
	DD	2 DUP(00H)
	DD	00H
	DD	01H
; Function compile flags: /Odtp /RTCsu /ZI
xdata$x	ENDS
;	COMDAT ?write@?$basic_ostream@DU?$char_traits@D@std@@@std@@QAEAAV12@PBD_J@Z
_TEXT	SEGMENT
tv152 = -272						; size = 8
tv69 = -264						; size = 4
$T36702 = -256						; size = 4
__Ok$ = -52						; size = 8
__State$ = -36						; size = 4
_this$ = -24						; size = 4
__$EHRec$ = -16						; size = 16
__Str$ = 8						; size = 4
__Count$ = 12						; size = 8
?write@?$basic_ostream@DU?$char_traits@D@std@@@std@@QAEAAV12@PBD_J@Z PROC ; std::basic_ostream<char,std::char_traits<char> >::write, COMDAT
; _this$ = ecx

; 546  : 		{	// insert _Count characters from array _Str

	push	ebp
	mov	ebp, esp
	push	-1
	push	__ehhandler$?write@?$basic_ostream@DU?$char_traits@D@std@@@std@@QAEAAV12@PBD_J@Z
	mov	eax, DWORD PTR fs:0
	push	eax
	push	ecx
	sub	esp, 256				; 00000100H
	push	ebx
	push	esi
	push	edi
	push	ecx
	lea	edi, DWORD PTR [ebp-272]
	mov	ecx, 64					; 00000040H
	mov	eax, -858993460				; ccccccccH
	rep stosd
	pop	ecx
	mov	eax, DWORD PTR ___security_cookie
	xor	eax, ebp
	push	eax
	lea	eax, DWORD PTR __$EHRec$[ebp+4]
	mov	DWORD PTR fs:0, eax
	mov	DWORD PTR __$EHRec$[ebp], esp
	mov	DWORD PTR _this$[ebp], ecx

; 547  :  #if _ITERATOR_DEBUG_LEVEL == 2
; 548  : 		if (0 < _Count)

	cmp	DWORD PTR __Count$[ebp+4], 0
	jl	SHORT $LN5@write
	jg	SHORT $LN14@write
	cmp	DWORD PTR __Count$[ebp], 0
	jbe	SHORT $LN5@write
$LN14@write:

; 549  : 			_DEBUG_POINTER(_Str);

	push	549					; 00000225H
	push	OFFSET ??_C@_1IO@LGPKEFMA@?$AAc?$AA?3?$AA?2?$AAp?$AAr?$AAo?$AAg?$AAr?$AAa?$AAm?$AA?5?$AAf?$AAi?$AAl?$AAe?$AAs?$AA?5?$AA?$CI?$AAx?$AA8?$AA6?$AA?$CJ?$AA?2?$AAm?$AAi?$AAc?$AAr?$AAo?$AAs?$AAo?$AAf?$AAt@
	mov	eax, DWORD PTR __Str$[ebp]
	push	eax
	call	??$_Debug_pointer@D@std@@YAXPBDPB_WI@Z	; std::_Debug_pointer<char>
	add	esp, 12					; 0000000cH
$LN5@write:

; 550  :  #endif /* _ITERATOR_DEBUG_LEVEL == 2 */
; 551  : 
; 552  : 		ios_base::iostate _State = ios_base::goodbit;

	mov	DWORD PTR __State$[ebp], 0

; 553  : 		const sentry _Ok(*this);

	mov	eax, DWORD PTR _this$[ebp]
	push	eax
	lea	ecx, DWORD PTR __Ok$[ebp]
	call	??0sentry@?$basic_ostream@DU?$char_traits@D@std@@@std@@QAE@AAV12@@Z ; std::basic_ostream<char,std::char_traits<char> >::sentry::sentry
	mov	DWORD PTR __$EHRec$[ebp+12], 0

; 554  : 
; 555  : 		if (!_Ok)

	lea	ecx, DWORD PTR __Ok$[ebp]
	call	??Bsentry@?$basic_ostream@DU?$char_traits@D@std@@@std@@QBEPQ_Bool_struct@2@HXZ ; std::basic_ostream<char,std::char_traits<char> >::sentry::operator int std::_Bool_struct::*
	cmp	eax, -1
	jne	SHORT $LN4@write

; 556  : 			_State |= ios_base::badbit;

	mov	eax, DWORD PTR __State$[ebp]
	or	eax, 4
	mov	DWORD PTR __State$[ebp], eax

; 557  : 		else

	jmp	$LN3@write
$LN4@write:

; 558  : 			{	// state okay, insert characters
; 559  : 			_TRY_IO_BEGIN

	mov	BYTE PTR __$EHRec$[ebp+12], 1

; 560  : 			if (_Myios::rdbuf()->sputn(_Str, _Count) != _Count)

	mov	eax, DWORD PTR _this$[ebp]
	mov	ecx, DWORD PTR [eax]
	mov	edx, DWORD PTR _this$[ebp]
	add	edx, DWORD PTR [ecx+4]
	mov	ecx, edx
	call	?rdbuf@?$basic_ios@DU?$char_traits@D@std@@@std@@QBEPAV?$basic_streambuf@DU?$char_traits@D@std@@@2@XZ ; std::basic_ios<char,std::char_traits<char> >::rdbuf
	mov	DWORD PTR tv69[ebp], eax
	mov	eax, DWORD PTR __Count$[ebp+4]
	push	eax
	mov	ecx, DWORD PTR __Count$[ebp]
	push	ecx
	mov	edx, DWORD PTR __Str$[ebp]
	push	edx
	mov	ecx, DWORD PTR tv69[ebp]
	call	?sputn@?$basic_streambuf@DU?$char_traits@D@std@@@std@@QAE_JPBD_J@Z ; std::basic_streambuf<char,std::char_traits<char> >::sputn
	mov	DWORD PTR tv152[ebp], eax
	mov	DWORD PTR tv152[ebp+4], edx
	mov	eax, DWORD PTR tv152[ebp]
	cmp	eax, DWORD PTR __Count$[ebp]
	jne	SHORT $LN15@write
	mov	ecx, DWORD PTR tv152[ebp+4]
	cmp	ecx, DWORD PTR __Count$[ebp+4]
	je	SHORT $LN1@write
$LN15@write:

; 561  : 				_State |= ios_base::badbit;

	mov	eax, DWORD PTR __State$[ebp]
	or	eax, 4
	mov	DWORD PTR __State$[ebp], eax
$LN1@write:
	jmp	SHORT $LN8@write
__catch$?write@?$basic_ostream@DU?$char_traits@D@std@@@std@@QAEAAV12@PBD_J@Z$0:

; 562  : 			_CATCH_IO_END

	push	1
	push	4
	mov	eax, DWORD PTR _this$[ebp]
	mov	ecx, DWORD PTR [eax]
	mov	edx, DWORD PTR _this$[ebp]
	add	edx, DWORD PTR [ecx+4]
	mov	ecx, edx
	call	?setstate@?$basic_ios@DU?$char_traits@D@std@@@std@@QAEXH_N@Z ; std::basic_ios<char,std::char_traits<char> >::setstate
	mov	DWORD PTR __$EHRec$[ebp+12], 0
	mov	eax, $LN3@write
	ret	0
$LN8@write:
	mov	DWORD PTR __$EHRec$[ebp+12], 0
$LN3@write:

; 563  : 			}
; 564  : 
; 565  : 		_Myios::setstate(_State);

	push	0
	mov	eax, DWORD PTR __State$[ebp]
	push	eax
	mov	ecx, DWORD PTR _this$[ebp]
	mov	edx, DWORD PTR [ecx]
	mov	ecx, DWORD PTR _this$[ebp]
	add	ecx, DWORD PTR [edx+4]
	call	?setstate@?$basic_ios@DU?$char_traits@D@std@@@std@@QAEXH_N@Z ; std::basic_ios<char,std::char_traits<char> >::setstate

; 566  : 		return (*this);

	mov	eax, DWORD PTR _this$[ebp]
	mov	DWORD PTR $T36702[ebp], eax
	mov	DWORD PTR __$EHRec$[ebp+12], -1
	lea	ecx, DWORD PTR __Ok$[ebp]
	call	??1sentry@?$basic_ostream@DU?$char_traits@D@std@@@std@@QAE@XZ ; std::basic_ostream<char,std::char_traits<char> >::sentry::~sentry
	mov	eax, DWORD PTR $T36702[ebp]

; 567  : 		}

	push	edx
	mov	ecx, ebp
	push	eax
	lea	edx, DWORD PTR $LN19@write
	call	@_RTC_CheckStackVars@8
	pop	eax
	pop	edx
	mov	ecx, DWORD PTR __$EHRec$[ebp+4]
	mov	DWORD PTR fs:0, ecx
	pop	ecx
	pop	edi
	pop	esi
	pop	ebx
	add	esp, 272				; 00000110H
	cmp	ebp, esp
	call	__RTC_CheckEsp
	mov	esp, ebp
	pop	ebp
	ret	12					; 0000000cH
	npad	1
$LN19@write:
	DD	1
	DD	$LN18@write
$LN18@write:
	DD	-52					; ffffffccH
	DD	8
	DD	$LN16@write
$LN16@write:
	DB	95					; 0000005fH
	DB	79					; 0000004fH
	DB	107					; 0000006bH
	DB	0
_TEXT	ENDS
;	COMDAT text$x
text$x	SEGMENT
__unwindfunclet$?write@?$basic_ostream@DU?$char_traits@D@std@@@std@@QAEAAV12@PBD_J@Z$2:
	lea	ecx, DWORD PTR __Ok$[ebp]
	jmp	??1sentry@?$basic_ostream@DU?$char_traits@D@std@@@std@@QAE@XZ ; std::basic_ostream<char,std::char_traits<char> >::sentry::~sentry
__ehhandler$?write@?$basic_ostream@DU?$char_traits@D@std@@@std@@QAEAAV12@PBD_J@Z:
	mov	edx, DWORD PTR [esp+8]
	lea	eax, DWORD PTR [edx+12]
	mov	ecx, DWORD PTR [edx-276]
	xor	ecx, eax
	call	@__security_check_cookie@4
	mov	eax, OFFSET __ehfuncinfo$?write@?$basic_ostream@DU?$char_traits@D@std@@@std@@QAEAAV12@PBD_J@Z
	jmp	___CxxFrameHandler3
text$x	ENDS
?write@?$basic_ostream@DU?$char_traits@D@std@@@std@@QAEAAV12@PBD_J@Z ENDP ; std::basic_ostream<char,std::char_traits<char> >::write
PUBLIC	??1ios_base@std@@UAE@XZ				; std::ios_base::~ios_base
PUBLIC	??_7?$basic_ios@DU?$char_traits@D@std@@@std@@6B@ ; std::basic_ios<char,std::char_traits<char> >::`vftable'
PUBLIC	??_R4?$basic_ios@DU?$char_traits@D@std@@@std@@6B@ ; std::basic_ios<char,std::char_traits<char> >::`RTTI Complete Object Locator'
PUBLIC	??_R0?AV?$basic_ios@DU?$char_traits@D@std@@@std@@@8 ; std::basic_ios<char,std::char_traits<char> > `RTTI Type Descriptor'
PUBLIC	??_R3?$basic_ios@DU?$char_traits@D@std@@@std@@8	; std::basic_ios<char,std::char_traits<char> >::`RTTI Class Hierarchy Descriptor'
PUBLIC	??_R2?$basic_ios@DU?$char_traits@D@std@@@std@@8	; std::basic_ios<char,std::char_traits<char> >::`RTTI Base Class Array'
PUBLIC	??_R1A@?0A@EA@?$basic_ios@DU?$char_traits@D@std@@@std@@8 ; std::basic_ios<char,std::char_traits<char> >::`RTTI Base Class Descriptor at (0,-1,0,64)'
PUBLIC	??_R1A@?0A@EA@ios_base@std@@8			; std::ios_base::`RTTI Base Class Descriptor at (0,-1,0,64)'
PUBLIC	??_R0?AVios_base@std@@@8			; std::ios_base `RTTI Type Descriptor'
PUBLIC	??_R3ios_base@std@@8				; std::ios_base::`RTTI Class Hierarchy Descriptor'
PUBLIC	??_R2ios_base@std@@8				; std::ios_base::`RTTI Base Class Array'
PUBLIC	??_R17?0A@EA@?$_Iosb@H@std@@8			; std::_Iosb<int>::`RTTI Base Class Descriptor at (8,-1,0,64)'
PUBLIC	??_R0?AV?$_Iosb@H@std@@@8			; std::_Iosb<int> `RTTI Type Descriptor'
PUBLIC	??_R3?$_Iosb@H@std@@8				; std::_Iosb<int>::`RTTI Class Hierarchy Descriptor'
PUBLIC	??_R2?$_Iosb@H@std@@8				; std::_Iosb<int>::`RTTI Base Class Array'
PUBLIC	??_R1A@?0A@EA@?$_Iosb@H@std@@8			; std::_Iosb<int>::`RTTI Base Class Descriptor at (0,-1,0,64)'
EXTRN	??_7type_info@@6B@:QWORD			; type_info::`vftable'
EXTRN	??_E?$basic_ios@DU?$char_traits@D@std@@@std@@UAEPAXI@Z:PROC ; std::basic_ios<char,std::char_traits<char> >::`vector deleting destructor'
;	COMDAT ??_R1A@?0A@EA@?$_Iosb@H@std@@8
; File c:\program files (x86)\microsoft visual studio 10.0\vc\include\ios
rdata$r	SEGMENT
??_R1A@?0A@EA@?$_Iosb@H@std@@8 DD FLAT:??_R0?AV?$_Iosb@H@std@@@8 ; std::_Iosb<int>::`RTTI Base Class Descriptor at (0,-1,0,64)'
	DD	00H
	DD	00H
	DD	0ffffffffH
	DD	00H
	DD	040H
	DD	FLAT:??_R3?$_Iosb@H@std@@8
rdata$r	ENDS
;	COMDAT ??_R2?$_Iosb@H@std@@8
rdata$r	SEGMENT
??_R2?$_Iosb@H@std@@8 DD FLAT:??_R1A@?0A@EA@?$_Iosb@H@std@@8 ; std::_Iosb<int>::`RTTI Base Class Array'
rdata$r	ENDS
;	COMDAT ??_R3?$_Iosb@H@std@@8
rdata$r	SEGMENT
??_R3?$_Iosb@H@std@@8 DD 00H				; std::_Iosb<int>::`RTTI Class Hierarchy Descriptor'
	DD	00H
	DD	01H
	DD	FLAT:??_R2?$_Iosb@H@std@@8
rdata$r	ENDS
;	COMDAT ??_R0?AV?$_Iosb@H@std@@@8
_DATA	SEGMENT
??_R0?AV?$_Iosb@H@std@@@8 DD FLAT:??_7type_info@@6B@	; std::_Iosb<int> `RTTI Type Descriptor'
	DD	00H
	DB	'.?AV?$_Iosb@H@std@@', 00H
_DATA	ENDS
;	COMDAT ??_R17?0A@EA@?$_Iosb@H@std@@8
rdata$r	SEGMENT
??_R17?0A@EA@?$_Iosb@H@std@@8 DD FLAT:??_R0?AV?$_Iosb@H@std@@@8 ; std::_Iosb<int>::`RTTI Base Class Descriptor at (8,-1,0,64)'
	DD	00H
	DD	08H
	DD	0ffffffffH
	DD	00H
	DD	040H
	DD	FLAT:??_R3?$_Iosb@H@std@@8
rdata$r	ENDS
;	COMDAT ??_R2ios_base@std@@8
rdata$r	SEGMENT
??_R2ios_base@std@@8 DD FLAT:??_R1A@?0A@EA@ios_base@std@@8 ; std::ios_base::`RTTI Base Class Array'
	DD	FLAT:??_R17?0A@EA@?$_Iosb@H@std@@8
rdata$r	ENDS
;	COMDAT ??_R3ios_base@std@@8
rdata$r	SEGMENT
??_R3ios_base@std@@8 DD 00H				; std::ios_base::`RTTI Class Hierarchy Descriptor'
	DD	00H
	DD	02H
	DD	FLAT:??_R2ios_base@std@@8
rdata$r	ENDS
;	COMDAT ??_R0?AVios_base@std@@@8
_DATA	SEGMENT
??_R0?AVios_base@std@@@8 DD FLAT:??_7type_info@@6B@	; std::ios_base `RTTI Type Descriptor'
	DD	00H
	DB	'.?AVios_base@std@@', 00H
_DATA	ENDS
;	COMDAT ??_R1A@?0A@EA@ios_base@std@@8
rdata$r	SEGMENT
??_R1A@?0A@EA@ios_base@std@@8 DD FLAT:??_R0?AVios_base@std@@@8 ; std::ios_base::`RTTI Base Class Descriptor at (0,-1,0,64)'
	DD	01H
	DD	00H
	DD	0ffffffffH
	DD	00H
	DD	040H
	DD	FLAT:??_R3ios_base@std@@8
rdata$r	ENDS
;	COMDAT ??_R1A@?0A@EA@?$basic_ios@DU?$char_traits@D@std@@@std@@8
rdata$r	SEGMENT
??_R1A@?0A@EA@?$basic_ios@DU?$char_traits@D@std@@@std@@8 DD FLAT:??_R0?AV?$basic_ios@DU?$char_traits@D@std@@@std@@@8 ; std::basic_ios<char,std::char_traits<char> >::`RTTI Base Class Descriptor at (0,-1,0,64)'
	DD	02H
	DD	00H
	DD	0ffffffffH
	DD	00H
	DD	040H
	DD	FLAT:??_R3?$basic_ios@DU?$char_traits@D@std@@@std@@8
rdata$r	ENDS
;	COMDAT ??_R2?$basic_ios@DU?$char_traits@D@std@@@std@@8
rdata$r	SEGMENT
??_R2?$basic_ios@DU?$char_traits@D@std@@@std@@8 DD FLAT:??_R1A@?0A@EA@?$basic_ios@DU?$char_traits@D@std@@@std@@8 ; std::basic_ios<char,std::char_traits<char> >::`RTTI Base Class Array'
	DD	FLAT:??_R1A@?0A@EA@ios_base@std@@8
	DD	FLAT:??_R17?0A@EA@?$_Iosb@H@std@@8
rdata$r	ENDS
;	COMDAT ??_R3?$basic_ios@DU?$char_traits@D@std@@@std@@8
rdata$r	SEGMENT
??_R3?$basic_ios@DU?$char_traits@D@std@@@std@@8 DD 00H	; std::basic_ios<char,std::char_traits<char> >::`RTTI Class Hierarchy Descriptor'
	DD	00H
	DD	03H
	DD	FLAT:??_R2?$basic_ios@DU?$char_traits@D@std@@@std@@8
rdata$r	ENDS
;	COMDAT ??_R0?AV?$basic_ios@DU?$char_traits@D@std@@@std@@@8
_DATA	SEGMENT
??_R0?AV?$basic_ios@DU?$char_traits@D@std@@@std@@@8 DD FLAT:??_7type_info@@6B@ ; std::basic_ios<char,std::char_traits<char> > `RTTI Type Descriptor'
	DD	00H
	DB	'.?AV?$basic_ios@DU?$char_traits@D@std@@@std@@', 00H
_DATA	ENDS
;	COMDAT ??_R4?$basic_ios@DU?$char_traits@D@std@@@std@@6B@
rdata$r	SEGMENT
??_R4?$basic_ios@DU?$char_traits@D@std@@@std@@6B@ DD 00H ; std::basic_ios<char,std::char_traits<char> >::`RTTI Complete Object Locator'
	DD	00H
	DD	00H
	DD	FLAT:??_R0?AV?$basic_ios@DU?$char_traits@D@std@@@std@@@8
	DD	FLAT:??_R3?$basic_ios@DU?$char_traits@D@std@@@std@@8
rdata$r	ENDS
;	COMDAT ??_7?$basic_ios@DU?$char_traits@D@std@@@std@@6B@
CONST	SEGMENT
??_7?$basic_ios@DU?$char_traits@D@std@@@std@@6B@ DD FLAT:??_R4?$basic_ios@DU?$char_traits@D@std@@@std@@6B@ ; std::basic_ios<char,std::char_traits<char> >::`vftable'
	DD	FLAT:??_E?$basic_ios@DU?$char_traits@D@std@@@std@@UAEPAXI@Z
; Function compile flags: /Odtp /RTCsu /ZI
CONST	ENDS
;	COMDAT ??1?$basic_ios@DU?$char_traits@D@std@@@std@@UAE@XZ
_TEXT	SEGMENT
_this$ = -8						; size = 4
??1?$basic_ios@DU?$char_traits@D@std@@@std@@UAE@XZ PROC	; std::basic_ios<char,std::char_traits<char> >::~basic_ios<char,std::char_traits<char> >, COMDAT
; _this$ = ecx

; 37   : 		{	// destroy the object

	push	ebp
	mov	ebp, esp
	sub	esp, 204				; 000000ccH
	push	ebx
	push	esi
	push	edi
	push	ecx
	lea	edi, DWORD PTR [ebp-204]
	mov	ecx, 51					; 00000033H
	mov	eax, -858993460				; ccccccccH
	rep stosd
	pop	ecx
	mov	DWORD PTR _this$[ebp], ecx
	mov	eax, DWORD PTR _this$[ebp]
	mov	DWORD PTR [eax], OFFSET ??_7?$basic_ios@DU?$char_traits@D@std@@@std@@6B@

; 38   : 		}

	mov	ecx, DWORD PTR _this$[ebp]
	call	??1ios_base@std@@UAE@XZ			; std::ios_base::~ios_base
	pop	edi
	pop	esi
	pop	ebx
	add	esp, 204				; 000000ccH
	cmp	ebp, esp
	call	__RTC_CheckEsp
	mov	esp, ebp
	pop	ebp
	ret	0
??1?$basic_ios@DU?$char_traits@D@std@@@std@@UAE@XZ ENDP	; std::basic_ios<char,std::char_traits<char> >::~basic_ios<char,std::char_traits<char> >
_TEXT	ENDS
PUBLIC	??_7ios_base@std@@6B@				; std::ios_base::`vftable'
PUBLIC	??_R4ios_base@std@@6B@				; std::ios_base::`RTTI Complete Object Locator'
EXTRN	?_Ios_base_dtor@ios_base@std@@CAXPAV12@@Z:PROC	; std::ios_base::_Ios_base_dtor
EXTRN	??_Eios_base@std@@UAEPAXI@Z:PROC		; std::ios_base::`vector deleting destructor'
;	COMDAT ??_R4ios_base@std@@6B@
; File c:\program files (x86)\microsoft visual studio 10.0\vc\include\xiosbase
rdata$r	SEGMENT
??_R4ios_base@std@@6B@ DD 00H				; std::ios_base::`RTTI Complete Object Locator'
	DD	00H
	DD	00H
	DD	FLAT:??_R0?AVios_base@std@@@8
	DD	FLAT:??_R3ios_base@std@@8
rdata$r	ENDS
;	COMDAT ??_7ios_base@std@@6B@
CONST	SEGMENT
??_7ios_base@std@@6B@ DD FLAT:??_R4ios_base@std@@6B@	; std::ios_base::`vftable'
	DD	FLAT:??_Eios_base@std@@UAEPAXI@Z
; Function compile flags: /Odtp /RTCsu /ZI
CONST	ENDS
;	COMDAT ??1ios_base@std@@UAE@XZ
_TEXT	SEGMENT
_this$ = -8						; size = 4
??1ios_base@std@@UAE@XZ PROC				; std::ios_base::~ios_base, COMDAT
; _this$ = ecx

; 540  : 		{	// destroy the object

	push	ebp
	mov	ebp, esp
	sub	esp, 204				; 000000ccH
	push	ebx
	push	esi
	push	edi
	push	ecx
	lea	edi, DWORD PTR [ebp-204]
	mov	ecx, 51					; 00000033H
	mov	eax, -858993460				; ccccccccH
	rep stosd
	pop	ecx
	mov	DWORD PTR _this$[ebp], ecx
	mov	eax, DWORD PTR _this$[ebp]
	mov	DWORD PTR [eax], OFFSET ??_7ios_base@std@@6B@

; 541  : 		_Ios_base_dtor(this);

	mov	eax, DWORD PTR _this$[ebp]
	push	eax
	call	?_Ios_base_dtor@ios_base@std@@CAXPAV12@@Z ; std::ios_base::_Ios_base_dtor
	add	esp, 4

; 542  : 		}

	pop	edi
	pop	esi
	pop	ebx
	add	esp, 204				; 000000ccH
	cmp	ebp, esp
	call	__RTC_CheckEsp
	mov	esp, ebp
	pop	ebp
	ret	0
??1ios_base@std@@UAE@XZ ENDP				; std::ios_base::~ios_base
_TEXT	ENDS
EXTRN	??3@YAXPAX@Z:PROC				; operator delete
; Function compile flags: /Odtp /RTCsu /ZI
;	COMDAT ??_Gios_base@std@@UAEPAXI@Z
_TEXT	SEGMENT
_this$ = -8						; size = 4
___flags$ = 8						; size = 4
??_Gios_base@std@@UAEPAXI@Z PROC			; std::ios_base::`scalar deleting destructor', COMDAT
; _this$ = ecx
	push	ebp
	mov	ebp, esp
	sub	esp, 204				; 000000ccH
	push	ebx
	push	esi
	push	edi
	push	ecx
	lea	edi, DWORD PTR [ebp-204]
	mov	ecx, 51					; 00000033H
	mov	eax, -858993460				; ccccccccH
	rep stosd
	pop	ecx
	mov	DWORD PTR _this$[ebp], ecx
	mov	ecx, DWORD PTR _this$[ebp]
	call	??1ios_base@std@@UAE@XZ			; std::ios_base::~ios_base
	mov	eax, DWORD PTR ___flags$[ebp]
	and	eax, 1
	je	SHORT $LN1@scalar
	mov	eax, DWORD PTR _this$[ebp]
	push	eax
	call	??3@YAXPAX@Z				; operator delete
	add	esp, 4
$LN1@scalar:
	mov	eax, DWORD PTR _this$[ebp]
	pop	edi
	pop	esi
	pop	ebx
	add	esp, 204				; 000000ccH
	cmp	ebp, esp
	call	__RTC_CheckEsp
	mov	esp, ebp
	pop	ebp
	ret	4
??_Gios_base@std@@UAEPAXI@Z ENDP			; std::ios_base::`scalar deleting destructor'
_TEXT	ENDS
PUBLIC	?clear@ios_base@std@@QAEXH_N@Z			; std::ios_base::clear
; Function compile flags: /Odtp /RTCsu /ZI
; File c:\program files (x86)\microsoft visual studio 10.0\vc\include\ios
;	COMDAT ?clear@?$basic_ios@DU?$char_traits@D@std@@@std@@QAEXH_N@Z
_TEXT	SEGMENT
tv73 = -208						; size = 4
_this$ = -8						; size = 4
__State$ = 8						; size = 4
__Reraise$ = 12						; size = 1
?clear@?$basic_ios@DU?$char_traits@D@std@@@std@@QAEXH_N@Z PROC ; std::basic_ios<char,std::char_traits<char> >::clear, COMDAT
; _this$ = ecx

; 42   : 		{	// set state, possibly reraise exception

	push	ebp
	mov	ebp, esp
	sub	esp, 208				; 000000d0H
	push	ebx
	push	esi
	push	edi
	push	ecx
	lea	edi, DWORD PTR [ebp-208]
	mov	ecx, 52					; 00000034H
	mov	eax, -858993460				; ccccccccH
	rep stosd
	pop	ecx
	mov	DWORD PTR _this$[ebp], ecx

; 43   : 		ios_base::clear((iostate)(_Mystrbuf == 0
; 44   : 			? (int)_State | (int)badbit : (int)_State), _Reraise);

	mov	eax, DWORD PTR _this$[ebp]
	cmp	DWORD PTR [eax+56], 0
	jne	SHORT $LN3@clear
	mov	ecx, DWORD PTR __State$[ebp]
	or	ecx, 4
	mov	DWORD PTR tv73[ebp], ecx
	jmp	SHORT $LN4@clear
$LN3@clear:
	mov	edx, DWORD PTR __State$[ebp]
	mov	DWORD PTR tv73[ebp], edx
$LN4@clear:
	movzx	eax, BYTE PTR __Reraise$[ebp]
	push	eax
	mov	ecx, DWORD PTR tv73[ebp]
	push	ecx
	mov	ecx, DWORD PTR _this$[ebp]
	call	?clear@ios_base@std@@QAEXH_N@Z		; std::ios_base::clear

; 45   : 		}

	pop	edi
	pop	esi
	pop	ebx
	add	esp, 208				; 000000d0H
	cmp	ebp, esp
	call	__RTC_CheckEsp
	mov	esp, ebp
	pop	ebp
	ret	8
?clear@?$basic_ios@DU?$char_traits@D@std@@@std@@QAEXH_N@Z ENDP ; std::basic_ios<char,std::char_traits<char> >::clear
_TEXT	ENDS
PUBLIC	??_C@_0BF@OOHOMBOF@ios_base?3?3eofbit?5set?$AA@	; `string'
PUBLIC	??_C@_0BG@FMKFHCIL@ios_base?3?3failbit?5set?$AA@ ; `string'
PUBLIC	__TI4?AVfailure@ios_base@std@@
PUBLIC	??0failure@ios_base@std@@QAE@PBDABVerror_code@2@@Z ; std::ios_base::failure::failure
PUBLIC	??_C@_0BF@PHHKMMFD@ios_base?3?3badbit?5set?$AA@	; `string'
PUBLIC	?make_error_code@std@@YA?AVerror_code@1@W4io_errc@31@@Z ; std::make_error_code
PUBLIC	??1failure@ios_base@std@@UAE@XZ			; std::ios_base::failure::~failure
PUBLIC	__CTA4?AVfailure@ios_base@std@@
PUBLIC	__CT??_R0?AVfailure@ios_base@std@@@8??0failure@ios_base@std@@QAE@ABV012@@Z20
PUBLIC	??_R0?AVfailure@ios_base@std@@@8		; std::ios_base::failure `RTTI Type Descriptor'
PUBLIC	??0failure@ios_base@std@@QAE@ABV012@@Z		; std::ios_base::failure::failure
PUBLIC	__CT??_R0?AVsystem_error@std@@@8??0system_error@std@@QAE@ABV01@@Z20
PUBLIC	??_R0?AVsystem_error@std@@@8			; std::system_error `RTTI Type Descriptor'
PUBLIC	??0system_error@std@@QAE@ABV01@@Z		; std::system_error::system_error
PUBLIC	__CT??_R0?AVruntime_error@std@@@8??0runtime_error@std@@QAE@ABV01@@Z12
PUBLIC	??_R0?AVruntime_error@std@@@8			; std::runtime_error `RTTI Type Descriptor'
PUBLIC	??0runtime_error@std@@QAE@ABV01@@Z		; std::runtime_error::runtime_error
PUBLIC	__CT??_R0?AVexception@std@@@8??0exception@std@@QAE@ABV01@@Z12
PUBLIC	??_R0?AVexception@std@@@8			; std::exception `RTTI Type Descriptor'
EXTRN	__CxxThrowException@8:PROC
EXTRN	??0exception@std@@QAE@ABV01@@Z:PROC		; std::exception::exception
;	COMDAT ??_R0?AVexception@std@@@8
; File c:\program files (x86)\microsoft visual studio 10.0\vc\include\xiosbase
_DATA	SEGMENT
??_R0?AVexception@std@@@8 DD FLAT:??_7type_info@@6B@	; std::exception `RTTI Type Descriptor'
	DD	00H
	DB	'.?AVexception@std@@', 00H
_DATA	ENDS
;	COMDAT __CT??_R0?AVexception@std@@@8??0exception@std@@QAE@ABV01@@Z12
xdata$x	SEGMENT
__CT??_R0?AVexception@std@@@8??0exception@std@@QAE@ABV01@@Z12 DD 00H
	DD	FLAT:??_R0?AVexception@std@@@8
	DD	00H
	DD	0ffffffffH
	ORG $+4
	DD	0cH
	DD	FLAT:??0exception@std@@QAE@ABV01@@Z
xdata$x	ENDS
;	COMDAT ??_R0?AVruntime_error@std@@@8
_DATA	SEGMENT
??_R0?AVruntime_error@std@@@8 DD FLAT:??_7type_info@@6B@ ; std::runtime_error `RTTI Type Descriptor'
	DD	00H
	DB	'.?AVruntime_error@std@@', 00H
_DATA	ENDS
;	COMDAT __CT??_R0?AVruntime_error@std@@@8??0runtime_error@std@@QAE@ABV01@@Z12
xdata$x	SEGMENT
__CT??_R0?AVruntime_error@std@@@8??0runtime_error@std@@QAE@ABV01@@Z12 DD 00H
	DD	FLAT:??_R0?AVruntime_error@std@@@8
	DD	00H
	DD	0ffffffffH
	ORG $+4
	DD	0cH
	DD	FLAT:??0runtime_error@std@@QAE@ABV01@@Z
xdata$x	ENDS
;	COMDAT ??_R0?AVsystem_error@std@@@8
_DATA	SEGMENT
??_R0?AVsystem_error@std@@@8 DD FLAT:??_7type_info@@6B@	; std::system_error `RTTI Type Descriptor'
	DD	00H
	DB	'.?AVsystem_error@std@@', 00H
_DATA	ENDS
;	COMDAT __CT??_R0?AVsystem_error@std@@@8??0system_error@std@@QAE@ABV01@@Z20
xdata$x	SEGMENT
__CT??_R0?AVsystem_error@std@@@8??0system_error@std@@QAE@ABV01@@Z20 DD 00H
	DD	FLAT:??_R0?AVsystem_error@std@@@8
	DD	00H
	DD	0ffffffffH
	ORG $+4
	DD	014H
	DD	FLAT:??0system_error@std@@QAE@ABV01@@Z
xdata$x	ENDS
;	COMDAT ??_R0?AVfailure@ios_base@std@@@8
_DATA	SEGMENT
??_R0?AVfailure@ios_base@std@@@8 DD FLAT:??_7type_info@@6B@ ; std::ios_base::failure `RTTI Type Descriptor'
	DD	00H
	DB	'.?AVfailure@ios_base@std@@', 00H
_DATA	ENDS
;	COMDAT __CT??_R0?AVfailure@ios_base@std@@@8??0failure@ios_base@std@@QAE@ABV012@@Z20
xdata$x	SEGMENT
__CT??_R0?AVfailure@ios_base@std@@@8??0failure@ios_base@std@@QAE@ABV012@@Z20 DD 00H
	DD	FLAT:??_R0?AVfailure@ios_base@std@@@8
	DD	00H
	DD	0ffffffffH
	ORG $+4
	DD	014H
	DD	FLAT:??0failure@ios_base@std@@QAE@ABV012@@Z
xdata$x	ENDS
;	COMDAT __CTA4?AVfailure@ios_base@std@@
xdata$x	SEGMENT
__CTA4?AVfailure@ios_base@std@@ DD 04H
	DD	FLAT:__CT??_R0?AVfailure@ios_base@std@@@8??0failure@ios_base@std@@QAE@ABV012@@Z20
	DD	FLAT:__CT??_R0?AVsystem_error@std@@@8??0system_error@std@@QAE@ABV01@@Z20
	DD	FLAT:__CT??_R0?AVruntime_error@std@@@8??0runtime_error@std@@QAE@ABV01@@Z12
	DD	FLAT:__CT??_R0?AVexception@std@@@8??0exception@std@@QAE@ABV01@@Z12
xdata$x	ENDS
;	COMDAT ??_C@_0BF@OOHOMBOF@ios_base?3?3eofbit?5set?$AA@
CONST	SEGMENT
??_C@_0BF@OOHOMBOF@ios_base?3?3eofbit?5set?$AA@ DB 'ios_base::eofbit set', 00H ; `string'
CONST	ENDS
;	COMDAT ??_C@_0BG@FMKFHCIL@ios_base?3?3failbit?5set?$AA@
CONST	SEGMENT
??_C@_0BG@FMKFHCIL@ios_base?3?3failbit?5set?$AA@ DB 'ios_base::failbit se'
	DB	't', 00H					; `string'
CONST	ENDS
;	COMDAT __TI4?AVfailure@ios_base@std@@
xdata$x	SEGMENT
__TI4?AVfailure@ios_base@std@@ DD 00H
	DD	FLAT:??1failure@ios_base@std@@UAE@XZ
	DD	00H
	DD	FLAT:__CTA4?AVfailure@ios_base@std@@
xdata$x	ENDS
;	COMDAT ??_C@_0BF@PHHKMMFD@ios_base?3?3badbit?5set?$AA@
CONST	SEGMENT
??_C@_0BF@PHHKMMFD@ios_base?3?3badbit?5set?$AA@ DB 'ios_base::badbit set', 00H ; `string'
; Function compile flags: /Odtp /RTCsu /ZI
CONST	ENDS
;	COMDAT ?clear@ios_base@std@@QAEXH_N@Z
_TEXT	SEGMENT
$T36736 = -332						; size = 20
$T36737 = -304						; size = 8
$T36738 = -288						; size = 20
$T36739 = -260						; size = 8
$T36740 = -244						; size = 20
$T36741 = -216						; size = 8
_this$ = -8						; size = 4
__State$ = 8						; size = 4
__Reraise$ = 12						; size = 1
?clear@ios_base@std@@QAEXH_N@Z PROC			; std::ios_base::clear, COMDAT
; _this$ = ecx

; 310  : 		{	// set state, possibly reraise exception

	push	ebp
	mov	ebp, esp
	sub	esp, 336				; 00000150H
	push	ebx
	push	esi
	push	edi
	push	ecx
	lea	edi, DWORD PTR [ebp-336]
	mov	ecx, 84					; 00000054H
	mov	eax, -858993460				; ccccccccH
	rep stosd
	pop	ecx
	mov	DWORD PTR _this$[ebp], ecx

; 311  : 		_Mystate = (iostate)(_State & _Statmask);

	mov	eax, DWORD PTR __State$[ebp]
	and	eax, 23					; 00000017H
	mov	ecx, DWORD PTR _this$[ebp]
	mov	DWORD PTR [ecx+12], eax

; 312  : 		if ((_Mystate & _Except) == 0)

	mov	eax, DWORD PTR _this$[ebp]
	mov	ecx, DWORD PTR _this$[ebp]
	mov	edx, DWORD PTR [eax+12]
	and	edx, DWORD PTR [ecx+16]
	jne	SHORT $LN8@clear@2
	jmp	$LN10@clear@2
$LN8@clear@2:

; 313  : 			;
; 314  : 		else if (_Reraise)

	movzx	eax, BYTE PTR __Reraise$[ebp]
	test	eax, eax
	je	SHORT $LN6@clear@2

; 315  : 			_RERAISE;

	push	0
	push	0
	call	__CxxThrowException@8
	jmp	$LN10@clear@2
$LN6@clear@2:

; 316  : 		else if (_Mystate & _Except & badbit)

	mov	eax, DWORD PTR _this$[ebp]
	mov	ecx, DWORD PTR _this$[ebp]
	mov	edx, DWORD PTR [eax+12]
	and	edx, DWORD PTR [ecx+16]
	and	edx, 4
	je	SHORT $LN4@clear@2

; 317  : 			_THROW_NCEE(failure, "ios_base::badbit set");

	push	1
	lea	eax, DWORD PTR $T36737[ebp]
	push	eax
	call	?make_error_code@std@@YA?AVerror_code@1@W4io_errc@31@@Z ; std::make_error_code
	add	esp, 8
	push	eax
	push	OFFSET ??_C@_0BF@PHHKMMFD@ios_base?3?3badbit?5set?$AA@
	lea	ecx, DWORD PTR $T36736[ebp]
	call	??0failure@ios_base@std@@QAE@PBDABVerror_code@2@@Z ; std::ios_base::failure::failure
	push	OFFSET __TI4?AVfailure@ios_base@std@@
	lea	ecx, DWORD PTR $T36736[ebp]
	push	ecx
	call	__CxxThrowException@8
	jmp	SHORT $LN10@clear@2
$LN4@clear@2:

; 318  : 		else if (_Mystate & _Except & failbit)

	mov	eax, DWORD PTR _this$[ebp]
	mov	ecx, DWORD PTR _this$[ebp]
	mov	edx, DWORD PTR [eax+12]
	and	edx, DWORD PTR [ecx+16]
	and	edx, 2
	je	SHORT $LN2@clear@2

; 319  : 			_THROW_NCEE(failure, "ios_base::failbit set");

	push	1
	lea	eax, DWORD PTR $T36739[ebp]
	push	eax
	call	?make_error_code@std@@YA?AVerror_code@1@W4io_errc@31@@Z ; std::make_error_code
	add	esp, 8
	push	eax
	push	OFFSET ??_C@_0BG@FMKFHCIL@ios_base?3?3failbit?5set?$AA@
	lea	ecx, DWORD PTR $T36738[ebp]
	call	??0failure@ios_base@std@@QAE@PBDABVerror_code@2@@Z ; std::ios_base::failure::failure
	push	OFFSET __TI4?AVfailure@ios_base@std@@
	lea	ecx, DWORD PTR $T36738[ebp]
	push	ecx
	call	__CxxThrowException@8

; 320  : 		else

	jmp	SHORT $LN10@clear@2
$LN2@clear@2:

; 321  : 			_THROW_NCEE(failure, "ios_base::eofbit set");

	push	1
	lea	eax, DWORD PTR $T36741[ebp]
	push	eax
	call	?make_error_code@std@@YA?AVerror_code@1@W4io_errc@31@@Z ; std::make_error_code
	add	esp, 8
	push	eax
	push	OFFSET ??_C@_0BF@OOHOMBOF@ios_base?3?3eofbit?5set?$AA@
	lea	ecx, DWORD PTR $T36740[ebp]
	call	??0failure@ios_base@std@@QAE@PBDABVerror_code@2@@Z ; std::ios_base::failure::failure
	push	OFFSET __TI4?AVfailure@ios_base@std@@
	lea	ecx, DWORD PTR $T36740[ebp]
	push	ecx
	call	__CxxThrowException@8
$LN10@clear@2:

; 322  : 		}

	pop	edi
	pop	esi
	pop	ebx
	add	esp, 336				; 00000150H
	cmp	ebp, esp
	call	__RTC_CheckEsp
	mov	esp, ebp
	pop	ebp
	ret	8
?clear@ios_base@std@@QAEXH_N@Z ENDP			; std::ios_base::clear
_TEXT	ENDS
PUBLIC	??_7runtime_error@std@@6B@			; std::runtime_error::`vftable'
PUBLIC	??_R4runtime_error@std@@6B@			; std::runtime_error::`RTTI Complete Object Locator'
PUBLIC	??_R3runtime_error@std@@8			; std::runtime_error::`RTTI Class Hierarchy Descriptor'
PUBLIC	??_R2runtime_error@std@@8			; std::runtime_error::`RTTI Base Class Array'
PUBLIC	??_R1A@?0A@EA@runtime_error@std@@8		; std::runtime_error::`RTTI Base Class Descriptor at (0,-1,0,64)'
PUBLIC	??_R1A@?0A@EA@exception@std@@8			; std::exception::`RTTI Base Class Descriptor at (0,-1,0,64)'
PUBLIC	??_R3exception@std@@8				; std::exception::`RTTI Class Hierarchy Descriptor'
PUBLIC	??_R2exception@std@@8				; std::exception::`RTTI Base Class Array'
EXTRN	??_Eruntime_error@std@@UAEPAXI@Z:PROC		; std::runtime_error::`vector deleting destructor'
EXTRN	?what@exception@std@@UBEPBDXZ:PROC		; std::exception::what
;	COMDAT ??_R2exception@std@@8
rdata$r	SEGMENT
??_R2exception@std@@8 DD FLAT:??_R1A@?0A@EA@exception@std@@8 ; std::exception::`RTTI Base Class Array'
rdata$r	ENDS
;	COMDAT ??_R3exception@std@@8
rdata$r	SEGMENT
??_R3exception@std@@8 DD 00H				; std::exception::`RTTI Class Hierarchy Descriptor'
	DD	00H
	DD	01H
	DD	FLAT:??_R2exception@std@@8
rdata$r	ENDS
;	COMDAT ??_R1A@?0A@EA@exception@std@@8
rdata$r	SEGMENT
??_R1A@?0A@EA@exception@std@@8 DD FLAT:??_R0?AVexception@std@@@8 ; std::exception::`RTTI Base Class Descriptor at (0,-1,0,64)'
	DD	00H
	DD	00H
	DD	0ffffffffH
	DD	00H
	DD	040H
	DD	FLAT:??_R3exception@std@@8
rdata$r	ENDS
;	COMDAT ??_R1A@?0A@EA@runtime_error@std@@8
rdata$r	SEGMENT
??_R1A@?0A@EA@runtime_error@std@@8 DD FLAT:??_R0?AVruntime_error@std@@@8 ; std::runtime_error::`RTTI Base Class Descriptor at (0,-1,0,64)'
	DD	01H
	DD	00H
	DD	0ffffffffH
	DD	00H
	DD	040H
	DD	FLAT:??_R3runtime_error@std@@8
rdata$r	ENDS
;	COMDAT ??_R2runtime_error@std@@8
rdata$r	SEGMENT
??_R2runtime_error@std@@8 DD FLAT:??_R1A@?0A@EA@runtime_error@std@@8 ; std::runtime_error::`RTTI Base Class Array'
	DD	FLAT:??_R1A@?0A@EA@exception@std@@8
rdata$r	ENDS
;	COMDAT ??_R3runtime_error@std@@8
rdata$r	SEGMENT
??_R3runtime_error@std@@8 DD 00H			; std::runtime_error::`RTTI Class Hierarchy Descriptor'
	DD	00H
	DD	02H
	DD	FLAT:??_R2runtime_error@std@@8
rdata$r	ENDS
;	COMDAT ??_R4runtime_error@std@@6B@
rdata$r	SEGMENT
??_R4runtime_error@std@@6B@ DD 00H			; std::runtime_error::`RTTI Complete Object Locator'
	DD	00H
	DD	00H
	DD	FLAT:??_R0?AVruntime_error@std@@@8
	DD	FLAT:??_R3runtime_error@std@@8
rdata$r	ENDS
;	COMDAT ??_7runtime_error@std@@6B@
CONST	SEGMENT
??_7runtime_error@std@@6B@ DD FLAT:??_R4runtime_error@std@@6B@ ; std::runtime_error::`vftable'
	DD	FLAT:??_Eruntime_error@std@@UAEPAXI@Z
	DD	FLAT:?what@exception@std@@UBEPBDXZ
; Function compile flags: /Odtp /RTCsu /ZI
CONST	ENDS
;	COMDAT ??0runtime_error@std@@QAE@ABV01@@Z
_TEXT	SEGMENT
_this$ = -8						; size = 4
___that$ = 8						; size = 4
??0runtime_error@std@@QAE@ABV01@@Z PROC			; std::runtime_error::runtime_error, COMDAT
; _this$ = ecx
	push	ebp
	mov	ebp, esp
	sub	esp, 204				; 000000ccH
	push	ebx
	push	esi
	push	edi
	push	ecx
	lea	edi, DWORD PTR [ebp-204]
	mov	ecx, 51					; 00000033H
	mov	eax, -858993460				; ccccccccH
	rep stosd
	pop	ecx
	mov	DWORD PTR _this$[ebp], ecx
	mov	eax, DWORD PTR ___that$[ebp]
	push	eax
	mov	ecx, DWORD PTR _this$[ebp]
	call	??0exception@std@@QAE@ABV01@@Z		; std::exception::exception
	mov	eax, DWORD PTR _this$[ebp]
	mov	DWORD PTR [eax], OFFSET ??_7runtime_error@std@@6B@
	mov	eax, DWORD PTR _this$[ebp]
	pop	edi
	pop	esi
	pop	ebx
	add	esp, 204				; 000000ccH
	cmp	ebp, esp
	call	__RTC_CheckEsp
	mov	esp, ebp
	pop	ebp
	ret	4
??0runtime_error@std@@QAE@ABV01@@Z ENDP			; std::runtime_error::runtime_error
_TEXT	ENDS
PUBLIC	??1runtime_error@std@@UAE@XZ			; std::runtime_error::~runtime_error
; Function compile flags: /Odtp /RTCsu /ZI
;	COMDAT ??_Gruntime_error@std@@UAEPAXI@Z
_TEXT	SEGMENT
_this$ = -8						; size = 4
___flags$ = 8						; size = 4
??_Gruntime_error@std@@UAEPAXI@Z PROC			; std::runtime_error::`scalar deleting destructor', COMDAT
; _this$ = ecx
	push	ebp
	mov	ebp, esp
	sub	esp, 204				; 000000ccH
	push	ebx
	push	esi
	push	edi
	push	ecx
	lea	edi, DWORD PTR [ebp-204]
	mov	ecx, 51					; 00000033H
	mov	eax, -858993460				; ccccccccH
	rep stosd
	pop	ecx
	mov	DWORD PTR _this$[ebp], ecx
	mov	ecx, DWORD PTR _this$[ebp]
	call	??1runtime_error@std@@UAE@XZ
	mov	eax, DWORD PTR ___flags$[ebp]
	and	eax, 1
	je	SHORT $LN1@scalar@2
	mov	eax, DWORD PTR _this$[ebp]
	push	eax
	call	??3@YAXPAX@Z				; operator delete
	add	esp, 4
$LN1@scalar@2:
	mov	eax, DWORD PTR _this$[ebp]
	pop	edi
	pop	esi
	pop	ebx
	add	esp, 204				; 000000ccH
	cmp	ebp, esp
	call	__RTC_CheckEsp
	mov	esp, ebp
	pop	ebp
	ret	4
??_Gruntime_error@std@@UAEPAXI@Z ENDP			; std::runtime_error::`scalar deleting destructor'
_TEXT	ENDS
EXTRN	??1exception@std@@UAE@XZ:PROC			; std::exception::~exception
; Function compile flags: /Odtp /RTCsu /ZI
;	COMDAT ??1runtime_error@std@@UAE@XZ
_TEXT	SEGMENT
_this$ = -8						; size = 4
??1runtime_error@std@@UAE@XZ PROC			; std::runtime_error::~runtime_error, COMDAT
; _this$ = ecx
	push	ebp
	mov	ebp, esp
	sub	esp, 204				; 000000ccH
	push	ebx
	push	esi
	push	edi
	push	ecx
	lea	edi, DWORD PTR [ebp-204]
	mov	ecx, 51					; 00000033H
	mov	eax, -858993460				; ccccccccH
	rep stosd
	pop	ecx
	mov	DWORD PTR _this$[ebp], ecx
	mov	ecx, DWORD PTR _this$[ebp]
	call	??1exception@std@@UAE@XZ		; std::exception::~exception
	pop	edi
	pop	esi
	pop	ebx
	add	esp, 204				; 000000ccH
	cmp	ebp, esp
	call	__RTC_CheckEsp
	mov	esp, ebp
	pop	ebp
	ret	0
??1runtime_error@std@@UAE@XZ ENDP			; std::runtime_error::~runtime_error
_TEXT	ENDS
PUBLIC	??0error_code@std@@QAE@HABVerror_category@1@@Z	; std::error_code::error_code
EXTRN	?iostream_category@std@@YAABVerror_category@1@XZ:PROC ; std::iostream_category
; Function compile flags: /Odtp /RTCsu /ZI
; File c:\program files (x86)\microsoft visual studio 10.0\vc\include\system_error
;	COMDAT ?make_error_code@std@@YA?AVerror_code@1@W4io_errc@31@@Z
_TEXT	SEGMENT
___$ReturnUdt$ = 8					; size = 4
__Errno$ = 12						; size = 4
?make_error_code@std@@YA?AVerror_code@1@W4io_errc@31@@Z PROC ; std::make_error_code, COMDAT

; 446  : 	{	// make an error_code

	push	ebp
	mov	ebp, esp
	sub	esp, 192				; 000000c0H
	push	ebx
	push	esi
	push	edi
	lea	edi, DWORD PTR [ebp-192]
	mov	ecx, 48					; 00000030H
	mov	eax, -858993460				; ccccccccH
	rep stosd

; 447  : 	return (error_code(_Errno, iostream_category()));

	call	?iostream_category@std@@YAABVerror_category@1@XZ ; std::iostream_category
	push	eax
	mov	eax, DWORD PTR __Errno$[ebp]
	push	eax
	mov	ecx, DWORD PTR ___$ReturnUdt$[ebp]
	call	??0error_code@std@@QAE@HABVerror_category@1@@Z ; std::error_code::error_code
	mov	eax, DWORD PTR ___$ReturnUdt$[ebp]

; 448  : 	}

	pop	edi
	pop	esi
	pop	ebx
	add	esp, 192				; 000000c0H
	cmp	ebp, esp
	call	__RTC_CheckEsp
	mov	esp, ebp
	pop	ebp
	ret	0
?make_error_code@std@@YA?AVerror_code@1@W4io_errc@31@@Z ENDP ; std::make_error_code
; Function compile flags: /Odtp /RTCsu /ZI
_TEXT	ENDS
;	COMDAT ??0error_code@std@@QAE@HABVerror_category@1@@Z
_TEXT	SEGMENT
_this$ = -8						; size = 4
__Val$ = 8						; size = 4
__Cat$ = 12						; size = 4
??0error_code@std@@QAE@HABVerror_category@1@@Z PROC	; std::error_code::error_code, COMDAT
; _this$ = ecx

; 204  : 		{	// construct from error code and category

	push	ebp
	mov	ebp, esp
	sub	esp, 204				; 000000ccH
	push	ebx
	push	esi
	push	edi
	push	ecx
	lea	edi, DWORD PTR [ebp-204]
	mov	ecx, 51					; 00000033H
	mov	eax, -858993460				; ccccccccH
	rep stosd
	pop	ecx
	mov	DWORD PTR _this$[ebp], ecx
	mov	eax, DWORD PTR _this$[ebp]
	mov	ecx, DWORD PTR __Val$[ebp]
	mov	DWORD PTR [eax], ecx
	mov	eax, DWORD PTR _this$[ebp]
	mov	ecx, DWORD PTR __Cat$[ebp]
	mov	DWORD PTR [eax+4], ecx

; 205  : 		}

	mov	eax, DWORD PTR _this$[ebp]
	pop	edi
	pop	esi
	pop	ebx
	mov	esp, ebp
	pop	ebp
	ret	8
??0error_code@std@@QAE@HABVerror_category@1@@Z ENDP	; std::error_code::error_code
_TEXT	ENDS
PUBLIC	??_7failure@ios_base@std@@6B@			; std::ios_base::failure::`vftable'
PUBLIC	??0system_error@std@@QAE@Verror_code@1@PBD@Z	; std::system_error::system_error
PUBLIC	??_R4failure@ios_base@std@@6B@			; std::ios_base::failure::`RTTI Complete Object Locator'
PUBLIC	??_R3failure@ios_base@std@@8			; std::ios_base::failure::`RTTI Class Hierarchy Descriptor'
PUBLIC	??_R2failure@ios_base@std@@8			; std::ios_base::failure::`RTTI Base Class Array'
PUBLIC	??_R1A@?0A@EA@failure@ios_base@std@@8		; std::ios_base::failure::`RTTI Base Class Descriptor at (0,-1,0,64)'
PUBLIC	??_R1A@?0A@EA@system_error@std@@8		; std::system_error::`RTTI Base Class Descriptor at (0,-1,0,64)'
PUBLIC	??_R3system_error@std@@8			; std::system_error::`RTTI Class Hierarchy Descriptor'
PUBLIC	??_R2system_error@std@@8			; std::system_error::`RTTI Base Class Array'
EXTRN	??_Efailure@ios_base@std@@UAEPAXI@Z:PROC	; std::ios_base::failure::`vector deleting destructor'
;	COMDAT ??_R2system_error@std@@8
; File c:\program files (x86)\microsoft visual studio 10.0\vc\include\xiosbase
rdata$r	SEGMENT
??_R2system_error@std@@8 DD FLAT:??_R1A@?0A@EA@system_error@std@@8 ; std::system_error::`RTTI Base Class Array'
	DD	FLAT:??_R1A@?0A@EA@runtime_error@std@@8
	DD	FLAT:??_R1A@?0A@EA@exception@std@@8
rdata$r	ENDS
;	COMDAT ??_R3system_error@std@@8
rdata$r	SEGMENT
??_R3system_error@std@@8 DD 00H				; std::system_error::`RTTI Class Hierarchy Descriptor'
	DD	00H
	DD	03H
	DD	FLAT:??_R2system_error@std@@8
rdata$r	ENDS
;	COMDAT ??_R1A@?0A@EA@system_error@std@@8
rdata$r	SEGMENT
??_R1A@?0A@EA@system_error@std@@8 DD FLAT:??_R0?AVsystem_error@std@@@8 ; std::system_error::`RTTI Base Class Descriptor at (0,-1,0,64)'
	DD	02H
	DD	00H
	DD	0ffffffffH
	DD	00H
	DD	040H
	DD	FLAT:??_R3system_error@std@@8
rdata$r	ENDS
;	COMDAT ??_R1A@?0A@EA@failure@ios_base@std@@8
rdata$r	SEGMENT
??_R1A@?0A@EA@failure@ios_base@std@@8 DD FLAT:??_R0?AVfailure@ios_base@std@@@8 ; std::ios_base::failure::`RTTI Base Class Descriptor at (0,-1,0,64)'
	DD	03H
	DD	00H
	DD	0ffffffffH
	DD	00H
	DD	040H
	DD	FLAT:??_R3failure@ios_base@std@@8
rdata$r	ENDS
;	COMDAT ??_R2failure@ios_base@std@@8
rdata$r	SEGMENT
??_R2failure@ios_base@std@@8 DD FLAT:??_R1A@?0A@EA@failure@ios_base@std@@8 ; std::ios_base::failure::`RTTI Base Class Array'
	DD	FLAT:??_R1A@?0A@EA@system_error@std@@8
	DD	FLAT:??_R1A@?0A@EA@runtime_error@std@@8
	DD	FLAT:??_R1A@?0A@EA@exception@std@@8
rdata$r	ENDS
;	COMDAT ??_R3failure@ios_base@std@@8
rdata$r	SEGMENT
??_R3failure@ios_base@std@@8 DD 00H			; std::ios_base::failure::`RTTI Class Hierarchy Descriptor'
	DD	00H
	DD	04H
	DD	FLAT:??_R2failure@ios_base@std@@8
rdata$r	ENDS
;	COMDAT ??_R4failure@ios_base@std@@6B@
rdata$r	SEGMENT
??_R4failure@ios_base@std@@6B@ DD 00H			; std::ios_base::failure::`RTTI Complete Object Locator'
	DD	00H
	DD	00H
	DD	FLAT:??_R0?AVfailure@ios_base@std@@@8
	DD	FLAT:??_R3failure@ios_base@std@@8
rdata$r	ENDS
;	COMDAT ??_7failure@ios_base@std@@6B@
CONST	SEGMENT
??_7failure@ios_base@std@@6B@ DD FLAT:??_R4failure@ios_base@std@@6B@ ; std::ios_base::failure::`vftable'
	DD	FLAT:??_Efailure@ios_base@std@@UAEPAXI@Z
	DD	FLAT:?what@exception@std@@UBEPBDXZ
; Function compile flags: /Odtp /RTCsu /ZI
CONST	ENDS
;	COMDAT ??0failure@ios_base@std@@QAE@PBDABVerror_code@2@@Z
_TEXT	SEGMENT
_this$ = -8						; size = 4
__Message$ = 8						; size = 4
__Errcode$ = 12						; size = 4
??0failure@ios_base@std@@QAE@PBDABVerror_code@2@@Z PROC	; std::ios_base::failure::failure, COMDAT
; _this$ = ecx

; 237  : 			{	// construct with message

	push	ebp
	mov	ebp, esp
	sub	esp, 204				; 000000ccH
	push	ebx
	push	esi
	push	edi
	push	ecx
	lea	edi, DWORD PTR [ebp-204]
	mov	ecx, 51					; 00000033H
	mov	eax, -858993460				; ccccccccH
	rep stosd
	pop	ecx
	mov	DWORD PTR _this$[ebp], ecx
	mov	eax, DWORD PTR __Message$[ebp]
	push	eax
	mov	ecx, DWORD PTR __Errcode$[ebp]
	mov	edx, DWORD PTR [ecx+4]
	push	edx
	mov	eax, DWORD PTR [ecx]
	push	eax
	mov	ecx, DWORD PTR _this$[ebp]
	call	??0system_error@std@@QAE@Verror_code@1@PBD@Z ; std::system_error::system_error
	mov	eax, DWORD PTR _this$[ebp]
	mov	DWORD PTR [eax], OFFSET ??_7failure@ios_base@std@@6B@

; 238  : 			}

	mov	eax, DWORD PTR _this$[ebp]
	pop	edi
	pop	esi
	pop	ebx
	add	esp, 204				; 000000ccH
	cmp	ebp, esp
	call	__RTC_CheckEsp
	mov	esp, ebp
	pop	ebp
	ret	8
??0failure@ios_base@std@@QAE@PBDABVerror_code@2@@Z ENDP	; std::ios_base::failure::failure
_TEXT	ENDS
PUBLIC	?_Makestr@system_error@std@@AAEXXZ		; std::system_error::_Makestr
PUBLIC	??_7system_error@std@@6B@			; std::system_error::`vftable'
PUBLIC	??0runtime_error@std@@QAE@PBD@Z			; std::runtime_error::runtime_error
PUBLIC	??_R4system_error@std@@6B@			; std::system_error::`RTTI Complete Object Locator'
EXTRN	??_Esystem_error@std@@UAEPAXI@Z:PROC		; std::system_error::`vector deleting destructor'
;	COMDAT ??_R4system_error@std@@6B@
; File c:\program files (x86)\microsoft visual studio 10.0\vc\include\system_error
rdata$r	SEGMENT
??_R4system_error@std@@6B@ DD 00H			; std::system_error::`RTTI Complete Object Locator'
	DD	00H
	DD	00H
	DD	FLAT:??_R0?AVsystem_error@std@@@8
	DD	FLAT:??_R3system_error@std@@8
rdata$r	ENDS
;	COMDAT ??_7system_error@std@@6B@
CONST	SEGMENT
??_7system_error@std@@6B@ DD FLAT:??_R4system_error@std@@6B@ ; std::system_error::`vftable'
	DD	FLAT:??_Esystem_error@std@@UAEPAXI@Z
	DD	FLAT:?what@exception@std@@UBEPBDXZ
CONST	ENDS
;	COMDAT xdata$x
xdata$x	SEGMENT
__unwindtable$??0system_error@std@@QAE@Verror_code@1@PBD@Z DD 0ffffffffH
	DD	FLAT:__unwindfunclet$??0system_error@std@@QAE@Verror_code@1@PBD@Z$0
__ehfuncinfo$??0system_error@std@@QAE@Verror_code@1@PBD@Z DD 019930522H
	DD	01H
	DD	FLAT:__unwindtable$??0system_error@std@@QAE@Verror_code@1@PBD@Z
	DD	2 DUP(00H)
	DD	2 DUP(00H)
	DD	00H
	DD	01H
; Function compile flags: /Odtp /RTCsu /ZI
xdata$x	ENDS
;	COMDAT ??0system_error@std@@QAE@Verror_code@1@PBD@Z
_TEXT	SEGMENT
_this$ = -20						; size = 4
__$EHRec$ = -12						; size = 12
__Errcode$ = 8						; size = 8
__Message$ = 16						; size = 4
??0system_error@std@@QAE@Verror_code@1@PBD@Z PROC	; std::system_error::system_error, COMDAT
; _this$ = ecx

; 516  : 		{	// construct from error code and message string

	push	ebp
	mov	ebp, esp
	push	-1
	push	__ehhandler$??0system_error@std@@QAE@Verror_code@1@PBD@Z
	mov	eax, DWORD PTR fs:0
	push	eax
	sub	esp, 204				; 000000ccH
	push	ebx
	push	esi
	push	edi
	push	ecx
	lea	edi, DWORD PTR [ebp-216]
	mov	ecx, 51					; 00000033H
	mov	eax, -858993460				; ccccccccH
	rep stosd
	pop	ecx
	mov	eax, DWORD PTR ___security_cookie
	xor	eax, ebp
	push	eax
	lea	eax, DWORD PTR __$EHRec$[ebp]
	mov	DWORD PTR fs:0, eax
	mov	DWORD PTR _this$[ebp], ecx
	mov	eax, DWORD PTR __Message$[ebp]
	push	eax
	mov	ecx, DWORD PTR _this$[ebp]
	call	??0runtime_error@std@@QAE@PBD@Z		; std::runtime_error::runtime_error
	mov	DWORD PTR __$EHRec$[ebp+8], 0
	mov	eax, DWORD PTR _this$[ebp]
	mov	DWORD PTR [eax], OFFSET ??_7system_error@std@@6B@
	mov	eax, DWORD PTR _this$[ebp]
	mov	ecx, DWORD PTR __Errcode$[ebp]
	mov	DWORD PTR [eax+12], ecx
	mov	edx, DWORD PTR __Errcode$[ebp+4]
	mov	DWORD PTR [eax+16], edx

; 517  : 		_Makestr();

	mov	ecx, DWORD PTR _this$[ebp]
	call	?_Makestr@system_error@std@@AAEXXZ	; std::system_error::_Makestr

; 518  : 		}

	mov	DWORD PTR __$EHRec$[ebp+8], -1
	mov	eax, DWORD PTR _this$[ebp]
	mov	ecx, DWORD PTR __$EHRec$[ebp]
	mov	DWORD PTR fs:0, ecx
	pop	ecx
	pop	edi
	pop	esi
	pop	ebx
	add	esp, 216				; 000000d8H
	cmp	ebp, esp
	call	__RTC_CheckEsp
	mov	esp, ebp
	pop	ebp
	ret	12					; 0000000cH
_TEXT	ENDS
;	COMDAT text$x
text$x	SEGMENT
__unwindfunclet$??0system_error@std@@QAE@Verror_code@1@PBD@Z$0:
	mov	ecx, DWORD PTR _this$[ebp]
	jmp	??1runtime_error@std@@UAE@XZ
__ehhandler$??0system_error@std@@QAE@Verror_code@1@PBD@Z:
	mov	edx, DWORD PTR [esp+8]
	lea	eax, DWORD PTR [edx+12]
	mov	ecx, DWORD PTR [edx-220]
	xor	ecx, eax
	call	@__security_check_cookie@4
	mov	eax, OFFSET __ehfuncinfo$??0system_error@std@@QAE@Verror_code@1@PBD@Z
	jmp	___CxxFrameHandler3
text$x	ENDS
??0system_error@std@@QAE@Verror_code@1@PBD@Z ENDP	; std::system_error::system_error
EXTRN	??0exception@std@@QAE@ABQBD@Z:PROC		; std::exception::exception
; Function compile flags: /Odtp /RTCsu /ZI
; File c:\program files (x86)\microsoft visual studio 10.0\vc\include\stdexcept
;	COMDAT ??0runtime_error@std@@QAE@PBD@Z
_TEXT	SEGMENT
_this$ = -8						; size = 4
__Message$ = 8						; size = 4
??0runtime_error@std@@QAE@PBD@Z PROC			; std::runtime_error::runtime_error, COMDAT
; _this$ = ecx

; 170  : 		{	// construct from message string

	push	ebp
	mov	ebp, esp
	sub	esp, 204				; 000000ccH
	push	ebx
	push	esi
	push	edi
	push	ecx
	lea	edi, DWORD PTR [ebp-204]
	mov	ecx, 51					; 00000033H
	mov	eax, -858993460				; ccccccccH
	rep stosd
	pop	ecx
	mov	DWORD PTR _this$[ebp], ecx
	lea	eax, DWORD PTR __Message$[ebp]
	push	eax
	mov	ecx, DWORD PTR _this$[ebp]
	call	??0exception@std@@QAE@ABQBD@Z		; std::exception::exception
	mov	eax, DWORD PTR _this$[ebp]
	mov	DWORD PTR [eax], OFFSET ??_7runtime_error@std@@6B@

; 171  : 		}

	mov	eax, DWORD PTR _this$[ebp]
	pop	edi
	pop	esi
	pop	ebx
	add	esp, 204				; 000000ccH
	cmp	ebp, esp
	call	__RTC_CheckEsp
	mov	esp, ebp
	pop	ebp
	ret	4
??0runtime_error@std@@QAE@PBD@Z ENDP			; std::runtime_error::runtime_error
; Function compile flags: /Odtp /RTCsu /ZI
; File c:\program files (x86)\microsoft visual studio 10.0\vc\include\system_error
_TEXT	ENDS
;	COMDAT ?_Makestr@system_error@std@@AAEXXZ
_TEXT	SEGMENT
_this$ = -8						; size = 4
?_Makestr@system_error@std@@AAEXXZ PROC			; std::system_error::_Makestr, COMDAT
; _this$ = ecx

; 562  : 		{	// compose error message

	push	ebp
	mov	ebp, esp
	sub	esp, 204				; 000000ccH
	push	ebx
	push	esi
	push	edi
	push	ecx
	lea	edi, DWORD PTR [ebp-204]
	mov	ecx, 51					; 00000033H
	mov	eax, -858993460				; ccccccccH
	rep stosd
	pop	ecx
	mov	DWORD PTR _this$[ebp], ecx

; 563  : //		_Mymes = this->runtime_error::what();
; 564  : //		if (!_Mymes.empty())
; 565  : //			_Mymes.append(": ");
; 566  : //		_Mymes.append(_Mycode.message());
; 567  : 		}

	pop	edi
	pop	esi
	pop	ebx
	mov	esp, ebp
	pop	ebp
	ret	0
?_Makestr@system_error@std@@AAEXXZ ENDP			; std::system_error::_Makestr
_TEXT	ENDS
PUBLIC	??1system_error@std@@UAE@XZ			; std::system_error::~system_error
; Function compile flags: /Odtp /RTCsu /ZI
;	COMDAT ??_Gsystem_error@std@@UAEPAXI@Z
_TEXT	SEGMENT
_this$ = -8						; size = 4
___flags$ = 8						; size = 4
??_Gsystem_error@std@@UAEPAXI@Z PROC			; std::system_error::`scalar deleting destructor', COMDAT
; _this$ = ecx
	push	ebp
	mov	ebp, esp
	sub	esp, 204				; 000000ccH
	push	ebx
	push	esi
	push	edi
	push	ecx
	lea	edi, DWORD PTR [ebp-204]
	mov	ecx, 51					; 00000033H
	mov	eax, -858993460				; ccccccccH
	rep stosd
	pop	ecx
	mov	DWORD PTR _this$[ebp], ecx
	mov	ecx, DWORD PTR _this$[ebp]
	call	??1system_error@std@@UAE@XZ
	mov	eax, DWORD PTR ___flags$[ebp]
	and	eax, 1
	je	SHORT $LN1@scalar@3
	mov	eax, DWORD PTR _this$[ebp]
	push	eax
	call	??3@YAXPAX@Z				; operator delete
	add	esp, 4
$LN1@scalar@3:
	mov	eax, DWORD PTR _this$[ebp]
	pop	edi
	pop	esi
	pop	ebx
	add	esp, 204				; 000000ccH
	cmp	ebp, esp
	call	__RTC_CheckEsp
	mov	esp, ebp
	pop	ebp
	ret	4
??_Gsystem_error@std@@UAEPAXI@Z ENDP			; std::system_error::`scalar deleting destructor'
; Function compile flags: /Odtp /RTCsu /ZI
_TEXT	ENDS
;	COMDAT ??1system_error@std@@UAE@XZ
_TEXT	SEGMENT
_this$ = -8						; size = 4
??1system_error@std@@UAE@XZ PROC			; std::system_error::~system_error, COMDAT
; _this$ = ecx
	push	ebp
	mov	ebp, esp
	sub	esp, 204				; 000000ccH
	push	ebx
	push	esi
	push	edi
	push	ecx
	lea	edi, DWORD PTR [ebp-204]
	mov	ecx, 51					; 00000033H
	mov	eax, -858993460				; ccccccccH
	rep stosd
	pop	ecx
	mov	DWORD PTR _this$[ebp], ecx
	mov	ecx, DWORD PTR _this$[ebp]
	call	??1runtime_error@std@@UAE@XZ
	pop	edi
	pop	esi
	pop	ebx
	add	esp, 204				; 000000ccH
	cmp	ebp, esp
	call	__RTC_CheckEsp
	mov	esp, ebp
	pop	ebp
	ret	0
??1system_error@std@@UAE@XZ ENDP			; std::system_error::~system_error
; Function compile flags: /Odtp /RTCsu /ZI
_TEXT	ENDS
;	COMDAT ??_Gfailure@ios_base@std@@UAEPAXI@Z
_TEXT	SEGMENT
_this$ = -8						; size = 4
___flags$ = 8						; size = 4
??_Gfailure@ios_base@std@@UAEPAXI@Z PROC		; std::ios_base::failure::`scalar deleting destructor', COMDAT
; _this$ = ecx
	push	ebp
	mov	ebp, esp
	sub	esp, 204				; 000000ccH
	push	ebx
	push	esi
	push	edi
	push	ecx
	lea	edi, DWORD PTR [ebp-204]
	mov	ecx, 51					; 00000033H
	mov	eax, -858993460				; ccccccccH
	rep stosd
	pop	ecx
	mov	DWORD PTR _this$[ebp], ecx
	mov	ecx, DWORD PTR _this$[ebp]
	call	??1failure@ios_base@std@@UAE@XZ
	mov	eax, DWORD PTR ___flags$[ebp]
	and	eax, 1
	je	SHORT $LN1@scalar@4
	mov	eax, DWORD PTR _this$[ebp]
	push	eax
	call	??3@YAXPAX@Z				; operator delete
	add	esp, 4
$LN1@scalar@4:
	mov	eax, DWORD PTR _this$[ebp]
	pop	edi
	pop	esi
	pop	ebx
	add	esp, 204				; 000000ccH
	cmp	ebp, esp
	call	__RTC_CheckEsp
	mov	esp, ebp
	pop	ebp
	ret	4
??_Gfailure@ios_base@std@@UAEPAXI@Z ENDP		; std::ios_base::failure::`scalar deleting destructor'
; Function compile flags: /Odtp /RTCsu /ZI
_TEXT	ENDS
;	COMDAT ??1failure@ios_base@std@@UAE@XZ
_TEXT	SEGMENT
_this$ = -8						; size = 4
??1failure@ios_base@std@@UAE@XZ PROC			; std::ios_base::failure::~failure, COMDAT
; _this$ = ecx
	push	ebp
	mov	ebp, esp
	sub	esp, 204				; 000000ccH
	push	ebx
	push	esi
	push	edi
	push	ecx
	lea	edi, DWORD PTR [ebp-204]
	mov	ecx, 51					; 00000033H
	mov	eax, -858993460				; ccccccccH
	rep stosd
	pop	ecx
	mov	DWORD PTR _this$[ebp], ecx
	mov	ecx, DWORD PTR _this$[ebp]
	call	??1system_error@std@@UAE@XZ
	pop	edi
	pop	esi
	pop	ebx
	add	esp, 204				; 000000ccH
	cmp	ebp, esp
	call	__RTC_CheckEsp
	mov	esp, ebp
	pop	ebp
	ret	0
??1failure@ios_base@std@@UAE@XZ ENDP			; std::ios_base::failure::~failure
; Function compile flags: /Odtp /RTCsu /ZI
_TEXT	ENDS
;	COMDAT ??0failure@ios_base@std@@QAE@ABV012@@Z
_TEXT	SEGMENT
_this$ = -8						; size = 4
___that$ = 8						; size = 4
??0failure@ios_base@std@@QAE@ABV012@@Z PROC		; std::ios_base::failure::failure, COMDAT
; _this$ = ecx
	push	ebp
	mov	ebp, esp
	sub	esp, 204				; 000000ccH
	push	ebx
	push	esi
	push	edi
	push	ecx
	lea	edi, DWORD PTR [ebp-204]
	mov	ecx, 51					; 00000033H
	mov	eax, -858993460				; ccccccccH
	rep stosd
	pop	ecx
	mov	DWORD PTR _this$[ebp], ecx
	mov	eax, DWORD PTR ___that$[ebp]
	push	eax
	mov	ecx, DWORD PTR _this$[ebp]
	call	??0system_error@std@@QAE@ABV01@@Z
	mov	eax, DWORD PTR _this$[ebp]
	mov	DWORD PTR [eax], OFFSET ??_7failure@ios_base@std@@6B@
	mov	eax, DWORD PTR _this$[ebp]
	pop	edi
	pop	esi
	pop	ebx
	add	esp, 204				; 000000ccH
	cmp	ebp, esp
	call	__RTC_CheckEsp
	mov	esp, ebp
	pop	ebp
	ret	4
??0failure@ios_base@std@@QAE@ABV012@@Z ENDP		; std::ios_base::failure::failure
; Function compile flags: /Odtp /RTCsu /ZI
_TEXT	ENDS
;	COMDAT ??0system_error@std@@QAE@ABV01@@Z
_TEXT	SEGMENT
_this$ = -8						; size = 4
___that$ = 8						; size = 4
??0system_error@std@@QAE@ABV01@@Z PROC			; std::system_error::system_error, COMDAT
; _this$ = ecx
	push	ebp
	mov	ebp, esp
	sub	esp, 204				; 000000ccH
	push	ebx
	push	esi
	push	edi
	push	ecx
	lea	edi, DWORD PTR [ebp-204]
	mov	ecx, 51					; 00000033H
	mov	eax, -858993460				; ccccccccH
	rep stosd
	pop	ecx
	mov	DWORD PTR _this$[ebp], ecx
	mov	eax, DWORD PTR ___that$[ebp]
	push	eax
	mov	ecx, DWORD PTR _this$[ebp]
	call	??0runtime_error@std@@QAE@ABV01@@Z
	mov	eax, DWORD PTR _this$[ebp]
	mov	DWORD PTR [eax], OFFSET ??_7system_error@std@@6B@
	mov	eax, DWORD PTR ___that$[ebp]
	mov	ecx, DWORD PTR [eax+12]
	mov	edx, DWORD PTR [eax+16]
	mov	eax, DWORD PTR _this$[ebp]
	mov	DWORD PTR [eax+12], ecx
	mov	DWORD PTR [eax+16], edx
	mov	eax, DWORD PTR _this$[ebp]
	pop	edi
	pop	esi
	pop	ebx
	add	esp, 204				; 000000ccH
	cmp	ebp, esp
	call	__RTC_CheckEsp
	mov	esp, ebp
	pop	ebp
	ret	4
??0system_error@std@@QAE@ABV01@@Z ENDP			; std::system_error::system_error
_TEXT	ENDS
PUBLIC	?rdstate@ios_base@std@@QBEHXZ			; std::ios_base::rdstate
; Function compile flags: /Odtp /RTCsu /ZI
; File c:\program files (x86)\microsoft visual studio 10.0\vc\include\ios
;	COMDAT ?setstate@?$basic_ios@DU?$char_traits@D@std@@@std@@QAEXH_N@Z
_TEXT	SEGMENT
_this$ = -8						; size = 4
__State$ = 8						; size = 4
__Reraise$ = 12						; size = 1
?setstate@?$basic_ios@DU?$char_traits@D@std@@@std@@QAEXH_N@Z PROC ; std::basic_ios<char,std::char_traits<char> >::setstate, COMDAT
; _this$ = ecx

; 54   : 		{	// merge _State into state, possible reraise exception

	push	ebp
	mov	ebp, esp
	sub	esp, 204				; 000000ccH
	push	ebx
	push	esi
	push	edi
	push	ecx
	lea	edi, DWORD PTR [ebp-204]
	mov	ecx, 51					; 00000033H
	mov	eax, -858993460				; ccccccccH
	rep stosd
	pop	ecx
	mov	DWORD PTR _this$[ebp], ecx

; 55   : 		if (_State != goodbit)

	cmp	DWORD PTR __State$[ebp], 0
	je	SHORT $LN2@setstate

; 56   : 			clear((iostate)((int)rdstate() | (int)_State), _Reraise);

	movzx	eax, BYTE PTR __Reraise$[ebp]
	push	eax
	mov	ecx, DWORD PTR _this$[ebp]
	call	?rdstate@ios_base@std@@QBEHXZ		; std::ios_base::rdstate
	or	eax, DWORD PTR __State$[ebp]
	push	eax
	mov	ecx, DWORD PTR _this$[ebp]
	call	?clear@?$basic_ios@DU?$char_traits@D@std@@@std@@QAEXH_N@Z ; std::basic_ios<char,std::char_traits<char> >::clear
$LN2@setstate:

; 57   : 		}

	pop	edi
	pop	esi
	pop	ebx
	add	esp, 204				; 000000ccH
	cmp	ebp, esp
	call	__RTC_CheckEsp
	mov	esp, ebp
	pop	ebp
	ret	8
?setstate@?$basic_ios@DU?$char_traits@D@std@@@std@@QAEXH_N@Z ENDP ; std::basic_ios<char,std::char_traits<char> >::setstate
; Function compile flags: /Odtp /RTCsu /ZI
; File c:\program files (x86)\microsoft visual studio 10.0\vc\include\xiosbase
_TEXT	ENDS
;	COMDAT ?rdstate@ios_base@std@@QBEHXZ
_TEXT	SEGMENT
_this$ = -8						; size = 4
?rdstate@ios_base@std@@QBEHXZ PROC			; std::ios_base::rdstate, COMDAT
; _this$ = ecx

; 335  : 		{	// return stream state

	push	ebp
	mov	ebp, esp
	sub	esp, 204				; 000000ccH
	push	ebx
	push	esi
	push	edi
	push	ecx
	lea	edi, DWORD PTR [ebp-204]
	mov	ecx, 51					; 00000033H
	mov	eax, -858993460				; ccccccccH
	rep stosd
	pop	ecx
	mov	DWORD PTR _this$[ebp], ecx

; 336  : 		return (_Mystate);

	mov	eax, DWORD PTR _this$[ebp]
	mov	eax, DWORD PTR [eax+12]

; 337  : 		}

	pop	edi
	pop	esi
	pop	ebx
	mov	esp, ebp
	pop	ebp
	ret	0
?rdstate@ios_base@std@@QBEHXZ ENDP			; std::ios_base::rdstate
; Function compile flags: /Odtp /RTCsu /ZI
; File c:\program files (x86)\microsoft visual studio 10.0\vc\include\ios
_TEXT	ENDS
;	COMDAT ?rdbuf@?$basic_ios@DU?$char_traits@D@std@@@std@@QBEPAV?$basic_streambuf@DU?$char_traits@D@std@@@2@XZ
_TEXT	SEGMENT
_this$ = -8						; size = 4
?rdbuf@?$basic_ios@DU?$char_traits@D@std@@@std@@QBEPAV?$basic_streambuf@DU?$char_traits@D@std@@@2@XZ PROC ; std::basic_ios<char,std::char_traits<char> >::rdbuf, COMDAT
; _this$ = ecx

; 85   : 		{	// return stream buffer pointer

	push	ebp
	mov	ebp, esp
	sub	esp, 204				; 000000ccH
	push	ebx
	push	esi
	push	edi
	push	ecx
	lea	edi, DWORD PTR [ebp-204]
	mov	ecx, 51					; 00000033H
	mov	eax, -858993460				; ccccccccH
	rep stosd
	pop	ecx
	mov	DWORD PTR _this$[ebp], ecx

; 86   : 		return (_Mystrbuf);

	mov	eax, DWORD PTR _this$[ebp]
	mov	eax, DWORD PTR [eax+56]

; 87   : 		}

	pop	edi
	pop	esi
	pop	ebx
	mov	esp, ebp
	pop	ebp
	ret	0
?rdbuf@?$basic_ios@DU?$char_traits@D@std@@@std@@QBEPAV?$basic_streambuf@DU?$char_traits@D@std@@@2@XZ ENDP ; std::basic_ios<char,std::char_traits<char> >::rdbuf
_TEXT	ENDS
PUBLIC	??1sentry@?$basic_istream@DU?$char_traits@D@std@@@std@@QAE@XZ ; std::basic_istream<char,std::char_traits<char> >::sentry::~sentry
PUBLIC	?sgetn@?$basic_streambuf@DU?$char_traits@D@std@@@std@@QAE_JPAD_J@Z ; std::basic_streambuf<char,std::char_traits<char> >::sgetn
PUBLIC	??Bsentry@?$basic_istream@DU?$char_traits@D@std@@@std@@QBEPQ_Bool_struct@2@HXZ ; std::basic_istream<char,std::char_traits<char> >::sentry::operator int std::_Bool_struct::*
PUBLIC	??0sentry@?$basic_istream@DU?$char_traits@D@std@@@std@@QAE@AAV12@_N@Z ; std::basic_istream<char,std::char_traits<char> >::sentry::sentry
PUBLIC	??$_Debug_pointer@D@std@@YAXPADPB_WI@Z		; std::_Debug_pointer<char>
PUBLIC	??_C@_1IO@OFGLCMCE@?$AAc?$AA?3?$AA?2?$AAp?$AAr?$AAo?$AAg?$AAr?$AAa?$AAm?$AA?5?$AAf?$AAi?$AAl?$AAe?$AAs?$AA?5?$AA?$CI?$AAx?$AA8?$AA6?$AA?$CJ?$AA?2?$AAm?$AAi?$AAc?$AAr?$AAo?$AAs?$AAo?$AAf?$AAt@ ; `string'
;	COMDAT ??_C@_1IO@OFGLCMCE@?$AAc?$AA?3?$AA?2?$AAp?$AAr?$AAo?$AAg?$AAr?$AAa?$AAm?$AA?5?$AAf?$AAi?$AAl?$AAe?$AAs?$AA?5?$AA?$CI?$AAx?$AA8?$AA6?$AA?$CJ?$AA?2?$AAm?$AAi?$AAc?$AAr?$AAo?$AAs?$AAo?$AAf?$AAt@
; File c:\program files (x86)\microsoft visual studio 10.0\vc\include\istream
CONST	SEGMENT
??_C@_1IO@OFGLCMCE@?$AAc?$AA?3?$AA?2?$AAp?$AAr?$AAo?$AAg?$AAr?$AAa?$AAm?$AA?5?$AAf?$AAi?$AAl?$AAe?$AAs?$AA?5?$AA?$CI?$AAx?$AA8?$AA6?$AA?$CJ?$AA?2?$AAm?$AAi?$AAc?$AAr?$AAo?$AAs?$AAo?$AAf?$AAt@ DB 'c'
	DB	00H, ':', 00H, '\', 00H, 'p', 00H, 'r', 00H, 'o', 00H, 'g', 00H
	DB	'r', 00H, 'a', 00H, 'm', 00H, ' ', 00H, 'f', 00H, 'i', 00H, 'l'
	DB	00H, 'e', 00H, 's', 00H, ' ', 00H, '(', 00H, 'x', 00H, '8', 00H
	DB	'6', 00H, ')', 00H, '\', 00H, 'm', 00H, 'i', 00H, 'c', 00H, 'r'
	DB	00H, 'o', 00H, 's', 00H, 'o', 00H, 'f', 00H, 't', 00H, ' ', 00H
	DB	'v', 00H, 'i', 00H, 's', 00H, 'u', 00H, 'a', 00H, 'l', 00H, ' '
	DB	00H, 's', 00H, 't', 00H, 'u', 00H, 'd', 00H, 'i', 00H, 'o', 00H
	DB	' ', 00H, '1', 00H, '0', 00H, '.', 00H, '0', 00H, '\', 00H, 'v'
	DB	00H, 'c', 00H, '\', 00H, 'i', 00H, 'n', 00H, 'c', 00H, 'l', 00H
	DB	'u', 00H, 'd', 00H, 'e', 00H, '\', 00H, 'i', 00H, 's', 00H, 't'
	DB	00H, 'r', 00H, 'e', 00H, 'a', 00H, 'm', 00H, 00H, 00H ; `string'
CONST	ENDS
;	COMDAT xdata$x
xdata$x	SEGMENT
__catchsym$?read@?$basic_istream@DU?$char_traits@D@std@@@std@@QAEAAV12@PAD_J@Z$3 DD 040H
	DD	00H
	DD	00H
	DD	FLAT:__catch$?read@?$basic_istream@DU?$char_traits@D@std@@@std@@QAEAAV12@PAD_J@Z$0
__tryblocktable$?read@?$basic_istream@DU?$char_traits@D@std@@@std@@QAEAAV12@PAD_J@Z DD 01H
	DD	01H
	DD	02H
	DD	01H
	DD	FLAT:__catchsym$?read@?$basic_istream@DU?$char_traits@D@std@@@std@@QAEAAV12@PAD_J@Z$3
__unwindtable$?read@?$basic_istream@DU?$char_traits@D@std@@@std@@QAEAAV12@PAD_J@Z DD 0ffffffffH
	DD	FLAT:__unwindfunclet$?read@?$basic_istream@DU?$char_traits@D@std@@@std@@QAEAAV12@PAD_J@Z$2
	DD	00H
	DD	00H
	DD	00H
	DD	00H
__ehfuncinfo$?read@?$basic_istream@DU?$char_traits@D@std@@@std@@QAEAAV12@PAD_J@Z DD 019930522H
	DD	03H
	DD	FLAT:__unwindtable$?read@?$basic_istream@DU?$char_traits@D@std@@@std@@QAEAAV12@PAD_J@Z
	DD	01H
	DD	FLAT:__tryblocktable$?read@?$basic_istream@DU?$char_traits@D@std@@@std@@QAEAAV12@PAD_J@Z
	DD	2 DUP(00H)
	DD	00H
	DD	01H
; Function compile flags: /Odtp /RTCsu /ZI
xdata$x	ENDS
;	COMDAT ?read@?$basic_istream@DU?$char_traits@D@std@@@std@@QAEAAV12@PAD_J@Z
_TEXT	SEGMENT
tv155 = -288						; size = 8
tv69 = -280						; size = 4
$T36795 = -272						; size = 4
__Num$32550 = -68					; size = 8
__Ok$ = -52						; size = 8
__State$ = -36						; size = 4
_this$ = -24						; size = 4
__$EHRec$ = -16						; size = 16
__Str$ = 8						; size = 4
__Count$ = 12						; size = 8
?read@?$basic_istream@DU?$char_traits@D@std@@@std@@QAEAAV12@PAD_J@Z PROC ; std::basic_istream<char,std::char_traits<char> >::read, COMDAT
; _this$ = ecx

; 707  : 		{	// read up to _Count characters into buffer

	push	ebp
	mov	ebp, esp
	push	-1
	push	__ehhandler$?read@?$basic_istream@DU?$char_traits@D@std@@@std@@QAEAAV12@PAD_J@Z
	mov	eax, DWORD PTR fs:0
	push	eax
	push	ecx
	sub	esp, 272				; 00000110H
	push	ebx
	push	esi
	push	edi
	push	ecx
	lea	edi, DWORD PTR [ebp-288]
	mov	ecx, 68					; 00000044H
	mov	eax, -858993460				; ccccccccH
	rep stosd
	pop	ecx
	mov	eax, DWORD PTR ___security_cookie
	xor	eax, ebp
	push	eax
	lea	eax, DWORD PTR __$EHRec$[ebp+4]
	mov	DWORD PTR fs:0, eax
	mov	DWORD PTR __$EHRec$[ebp], esp
	mov	DWORD PTR _this$[ebp], ecx

; 708  : 		_DEBUG_POINTER(_Str);

	push	708					; 000002c4H
	push	OFFSET ??_C@_1IO@OFGLCMCE@?$AAc?$AA?3?$AA?2?$AAp?$AAr?$AAo?$AAg?$AAr?$AAa?$AAm?$AA?5?$AAf?$AAi?$AAl?$AAe?$AAs?$AA?5?$AA?$CI?$AAx?$AA8?$AA6?$AA?$CJ?$AA?2?$AAm?$AAi?$AAc?$AAr?$AAo?$AAs?$AAo?$AAf?$AAt@
	mov	eax, DWORD PTR __Str$[ebp]
	push	eax
	call	??$_Debug_pointer@D@std@@YAXPADPB_WI@Z	; std::_Debug_pointer<char>
	add	esp, 12					; 0000000cH

; 709  : 		ios_base::iostate _State = ios_base::goodbit;

	mov	DWORD PTR __State$[ebp], 0

; 710  : 		_Chcount = 0;

	mov	eax, DWORD PTR _this$[ebp]
	mov	DWORD PTR [eax+8], 0
	mov	DWORD PTR [eax+12], 0

; 711  : 		const sentry _Ok(*this, true);

	push	1
	mov	eax, DWORD PTR _this$[ebp]
	push	eax
	lea	ecx, DWORD PTR __Ok$[ebp]
	call	??0sentry@?$basic_istream@DU?$char_traits@D@std@@@std@@QAE@AAV12@_N@Z ; std::basic_istream<char,std::char_traits<char> >::sentry::sentry
	mov	DWORD PTR __$EHRec$[ebp+12], 0

; 712  : 
; 713  : 		if (_Ok)

	lea	ecx, DWORD PTR __Ok$[ebp]
	call	??Bsentry@?$basic_istream@DU?$char_traits@D@std@@@std@@QBEPQ_Bool_struct@2@HXZ ; std::basic_istream<char,std::char_traits<char> >::sentry::operator int std::_Bool_struct::*
	cmp	eax, -1
	je	$LN3@read

; 714  : 			{	// state okay, use facet to extract
; 715  : 			_TRY_IO_BEGIN

	mov	BYTE PTR __$EHRec$[ebp+12], 1

; 716  : 			const streamsize _Num = _Myios::rdbuf()->sgetn(_Str, _Count);

	mov	eax, DWORD PTR _this$[ebp]
	mov	ecx, DWORD PTR [eax]
	mov	edx, DWORD PTR _this$[ebp]
	add	edx, DWORD PTR [ecx+4]
	mov	ecx, edx
	call	?rdbuf@?$basic_ios@DU?$char_traits@D@std@@@std@@QBEPAV?$basic_streambuf@DU?$char_traits@D@std@@@2@XZ ; std::basic_ios<char,std::char_traits<char> >::rdbuf
	mov	DWORD PTR tv69[ebp], eax
	mov	eax, DWORD PTR __Count$[ebp+4]
	push	eax
	mov	ecx, DWORD PTR __Count$[ebp]
	push	ecx
	mov	edx, DWORD PTR __Str$[ebp]
	push	edx
	mov	ecx, DWORD PTR tv69[ebp]
	call	?sgetn@?$basic_streambuf@DU?$char_traits@D@std@@@std@@QAE_JPAD_J@Z ; std::basic_streambuf<char,std::char_traits<char> >::sgetn
	mov	DWORD PTR tv155[ebp], eax
	mov	DWORD PTR tv155[ebp+4], edx
	mov	eax, DWORD PTR tv155[ebp]
	mov	DWORD PTR __Num$32550[ebp], eax
	mov	ecx, DWORD PTR tv155[ebp+4]
	mov	DWORD PTR __Num$32550[ebp+4], ecx

; 717  : 			_Chcount += _Num;

	mov	eax, DWORD PTR _this$[ebp]
	mov	ecx, DWORD PTR [eax+8]
	add	ecx, DWORD PTR __Num$32550[ebp]
	mov	edx, DWORD PTR [eax+12]
	adc	edx, DWORD PTR __Num$32550[ebp+4]
	mov	eax, DWORD PTR _this$[ebp]
	mov	DWORD PTR [eax+8], ecx
	mov	DWORD PTR [eax+12], edx

; 718  : 			if (_Num != _Count)

	mov	eax, DWORD PTR __Num$32550[ebp]
	cmp	eax, DWORD PTR __Count$[ebp]
	jne	SHORT $LN12@read
	mov	ecx, DWORD PTR __Num$32550[ebp+4]
	cmp	ecx, DWORD PTR __Count$[ebp+4]
	je	SHORT $LN1@read
$LN12@read:

; 719  : 				_State |= ios_base::eofbit | ios_base::failbit;	// short read

	mov	eax, DWORD PTR __State$[ebp]
	or	eax, 3
	mov	DWORD PTR __State$[ebp], eax
$LN1@read:
	jmp	SHORT $LN6@read
__catch$?read@?$basic_istream@DU?$char_traits@D@std@@@std@@QAEAAV12@PAD_J@Z$0:

; 720  : 			_CATCH_IO_END

	push	1
	push	4
	mov	eax, DWORD PTR _this$[ebp]
	mov	ecx, DWORD PTR [eax]
	mov	edx, DWORD PTR _this$[ebp]
	add	edx, DWORD PTR [ecx+4]
	mov	ecx, edx
	call	?setstate@?$basic_ios@DU?$char_traits@D@std@@@std@@QAEXH_N@Z ; std::basic_ios<char,std::char_traits<char> >::setstate
	mov	DWORD PTR __$EHRec$[ebp+12], 0
	mov	eax, $LN3@read
	ret	0
$LN6@read:
	mov	DWORD PTR __$EHRec$[ebp+12], 0
$LN3@read:

; 721  : 			}
; 722  : 
; 723  : 		_Myios::setstate(_State);

	push	0
	mov	eax, DWORD PTR __State$[ebp]
	push	eax
	mov	ecx, DWORD PTR _this$[ebp]
	mov	edx, DWORD PTR [ecx]
	mov	ecx, DWORD PTR _this$[ebp]
	add	ecx, DWORD PTR [edx+4]
	call	?setstate@?$basic_ios@DU?$char_traits@D@std@@@std@@QAEXH_N@Z ; std::basic_ios<char,std::char_traits<char> >::setstate

; 724  : 		return (*this);

	mov	eax, DWORD PTR _this$[ebp]
	mov	DWORD PTR $T36795[ebp], eax
	mov	DWORD PTR __$EHRec$[ebp+12], -1
	lea	ecx, DWORD PTR __Ok$[ebp]
	call	??1sentry@?$basic_istream@DU?$char_traits@D@std@@@std@@QAE@XZ
	mov	eax, DWORD PTR $T36795[ebp]

; 725  : 		}

	push	edx
	mov	ecx, ebp
	push	eax
	lea	edx, DWORD PTR $LN16@read
	call	@_RTC_CheckStackVars@8
	pop	eax
	pop	edx
	mov	ecx, DWORD PTR __$EHRec$[ebp+4]
	mov	DWORD PTR fs:0, ecx
	pop	ecx
	pop	edi
	pop	esi
	pop	ebx
	add	esp, 288				; 00000120H
	cmp	ebp, esp
	call	__RTC_CheckEsp
	mov	esp, ebp
	pop	ebp
	ret	12					; 0000000cH
	npad	2
$LN16@read:
	DD	1
	DD	$LN15@read
$LN15@read:
	DD	-52					; ffffffccH
	DD	8
	DD	$LN13@read
$LN13@read:
	DB	95					; 0000005fH
	DB	79					; 0000004fH
	DB	107					; 0000006bH
	DB	0
_TEXT	ENDS
;	COMDAT text$x
text$x	SEGMENT
__unwindfunclet$?read@?$basic_istream@DU?$char_traits@D@std@@@std@@QAEAAV12@PAD_J@Z$2:
	lea	ecx, DWORD PTR __Ok$[ebp]
	jmp	??1sentry@?$basic_istream@DU?$char_traits@D@std@@@std@@QAE@XZ
__ehhandler$?read@?$basic_istream@DU?$char_traits@D@std@@@std@@QAEAAV12@PAD_J@Z:
	mov	edx, DWORD PTR [esp+8]
	lea	eax, DWORD PTR [edx+12]
	mov	ecx, DWORD PTR [edx-292]
	xor	ecx, eax
	call	@__security_check_cookie@4
	mov	eax, OFFSET __ehfuncinfo$?read@?$basic_istream@DU?$char_traits@D@std@@@std@@QAEAAV12@PAD_J@Z
	jmp	___CxxFrameHandler3
text$x	ENDS
?read@?$basic_istream@DU?$char_traits@D@std@@@std@@QAEAAV12@PAD_J@Z ENDP ; std::basic_istream<char,std::char_traits<char> >::read
PUBLIC	??1_Sentry_base@?$basic_istream@DU?$char_traits@D@std@@@std@@QAE@XZ ; std::basic_istream<char,std::char_traits<char> >::_Sentry_base::~_Sentry_base
; Function compile flags: /Odtp /RTCsu /ZI
;	COMDAT ??1sentry@?$basic_istream@DU?$char_traits@D@std@@@std@@QAE@XZ
_TEXT	SEGMENT
_this$ = -8						; size = 4
??1sentry@?$basic_istream@DU?$char_traits@D@std@@@std@@QAE@XZ PROC ; std::basic_istream<char,std::char_traits<char> >::sentry::~sentry, COMDAT
; _this$ = ecx
	push	ebp
	mov	ebp, esp
	sub	esp, 204				; 000000ccH
	push	ebx
	push	esi
	push	edi
	push	ecx
	lea	edi, DWORD PTR [ebp-204]
	mov	ecx, 51					; 00000033H
	mov	eax, -858993460				; ccccccccH
	rep stosd
	pop	ecx
	mov	DWORD PTR _this$[ebp], ecx
	mov	ecx, DWORD PTR _this$[ebp]
	call	??1_Sentry_base@?$basic_istream@DU?$char_traits@D@std@@@std@@QAE@XZ ; std::basic_istream<char,std::char_traits<char> >::_Sentry_base::~_Sentry_base
	pop	edi
	pop	esi
	pop	ebx
	add	esp, 204				; 000000ccH
	cmp	ebp, esp
	call	__RTC_CheckEsp
	mov	esp, ebp
	pop	ebp
	ret	0
??1sentry@?$basic_istream@DU?$char_traits@D@std@@@std@@QAE@XZ ENDP ; std::basic_istream<char,std::char_traits<char> >::sentry::~sentry
_TEXT	ENDS
PUBLIC	?pubseekoff@?$basic_streambuf@DU?$char_traits@D@std@@@std@@QAE?AV?$fpos@H@2@_JHH@Z ; std::basic_streambuf<char,std::char_traits<char> >::pubseekoff
PUBLIC	?fail@ios_base@std@@QBE_NXZ			; std::ios_base::fail
EXTRN	?_BADOFF@std@@3_JB:QWORD			; std::_BADOFF
; Function compile flags: /Odtp /RTCsu /ZI
;	COMDAT ?seekg@?$basic_istream@DU?$char_traits@D@std@@@std@@QAEAAV12@_JH@Z
_TEXT	SEGMENT
tv165 = -244						; size = 8
$T36819 = -232						; size = 24
_this$ = -8						; size = 4
__Off$ = 8						; size = 8
__Way$ = 16						; size = 4
?seekg@?$basic_istream@DU?$char_traits@D@std@@@std@@QAEAAV12@_JH@Z PROC ; std::basic_istream<char,std::char_traits<char> >::seekg, COMDAT
; _this$ = ecx

; 841  : 		{	// change input stream position by _Off, according to _Way

	push	ebp
	mov	ebp, esp
	sub	esp, 244				; 000000f4H
	push	ebx
	push	esi
	push	edi
	push	ecx
	lea	edi, DWORD PTR [ebp-244]
	mov	ecx, 61					; 0000003dH
	mov	eax, -858993460				; ccccccccH
	rep stosd
	pop	ecx
	mov	DWORD PTR _this$[ebp], ecx

; 842  : 		if (!ios_base::fail()
; 843  : 			&& (off_type)_Myios::rdbuf()->pubseekoff(_Off, _Way,
; 844  : 				ios_base::in) == _BADOFF)

	mov	eax, DWORD PTR _this$[ebp]
	mov	ecx, DWORD PTR [eax]
	mov	edx, DWORD PTR _this$[ebp]
	add	edx, DWORD PTR [ecx+4]
	mov	ecx, edx
	call	?fail@ios_base@std@@QBE_NXZ		; std::ios_base::fail
	movzx	eax, al
	test	eax, eax
	jne	SHORT $LN1@seekg
	push	1
	mov	eax, DWORD PTR __Way$[ebp]
	push	eax
	mov	ecx, DWORD PTR __Off$[ebp+4]
	push	ecx
	mov	edx, DWORD PTR __Off$[ebp]
	push	edx
	lea	eax, DWORD PTR $T36819[ebp]
	push	eax
	mov	ecx, DWORD PTR _this$[ebp]
	mov	edx, DWORD PTR [ecx]
	mov	ecx, DWORD PTR _this$[ebp]
	add	ecx, DWORD PTR [edx+4]
	call	?rdbuf@?$basic_ios@DU?$char_traits@D@std@@@std@@QBEPAV?$basic_streambuf@DU?$char_traits@D@std@@@2@XZ ; std::basic_ios<char,std::char_traits<char> >::rdbuf
	mov	ecx, eax
	call	?pubseekoff@?$basic_streambuf@DU?$char_traits@D@std@@@std@@QAE?AV?$fpos@H@2@_JHH@Z ; std::basic_streambuf<char,std::char_traits<char> >::pubseekoff
	mov	ecx, eax
	call	??B?$fpos@H@std@@QBE_JXZ		; std::fpos<int>::operator __int64
	mov	DWORD PTR tv165[ebp], eax
	mov	DWORD PTR tv165[ebp+4], edx
	mov	eax, DWORD PTR tv165[ebp]
	cmp	eax, DWORD PTR ?_BADOFF@std@@3_JB
	jne	SHORT $LN1@seekg
	mov	ecx, DWORD PTR tv165[ebp+4]
	cmp	ecx, DWORD PTR ?_BADOFF@std@@3_JB+4
	jne	SHORT $LN1@seekg

; 845  : 			_Myios::setstate(ios_base::failbit);

	push	0
	push	2
	mov	eax, DWORD PTR _this$[ebp]
	mov	ecx, DWORD PTR [eax]
	mov	edx, DWORD PTR _this$[ebp]
	add	edx, DWORD PTR [ecx+4]
	mov	ecx, edx
	call	?setstate@?$basic_ios@DU?$char_traits@D@std@@@std@@QAEXH_N@Z ; std::basic_ios<char,std::char_traits<char> >::setstate
$LN1@seekg:

; 846  : 		return (*this);

	mov	eax, DWORD PTR _this$[ebp]

; 847  : 		}

	pop	edi
	pop	esi
	pop	ebx
	add	esp, 244				; 000000f4H
	cmp	ebp, esp
	call	__RTC_CheckEsp
	mov	esp, ebp
	pop	ebp
	ret	12					; 0000000cH
?seekg@?$basic_istream@DU?$char_traits@D@std@@@std@@QAEAAV12@_JH@Z ENDP ; std::basic_istream<char,std::char_traits<char> >::seekg
; Function compile flags: /Odtp /RTCsu /ZI
; File c:\program files (x86)\microsoft visual studio 10.0\vc\include\xiosbase
_TEXT	ENDS
;	COMDAT ?fail@ios_base@std@@QBE_NXZ
_TEXT	SEGMENT
_this$ = -8						; size = 4
?fail@ios_base@std@@QBE_NXZ PROC			; std::ios_base::fail, COMDAT
; _this$ = ecx

; 367  : 		{	// test if badbit or failbit is set in stream state

	push	ebp
	mov	ebp, esp
	sub	esp, 204				; 000000ccH
	push	ebx
	push	esi
	push	edi
	push	ecx
	lea	edi, DWORD PTR [ebp-204]
	mov	ecx, 51					; 00000033H
	mov	eax, -858993460				; ccccccccH
	rep stosd
	pop	ecx
	mov	DWORD PTR _this$[ebp], ecx

; 368  : 		return (((int)rdstate()
; 369  : 			& ((int)badbit | (int)failbit)) != 0);

	mov	ecx, DWORD PTR _this$[ebp]
	call	?rdstate@ios_base@std@@QBEHXZ		; std::ios_base::rdstate
	and	eax, 6
	neg	eax
	sbb	eax, eax
	neg	eax

; 370  : 		}

	pop	edi
	pop	esi
	pop	ebx
	add	esp, 204				; 000000ccH
	cmp	ebp, esp
	call	__RTC_CheckEsp
	mov	esp, ebp
	pop	ebp
	ret	0
?fail@ios_base@std@@QBE_NXZ ENDP			; std::ios_base::fail
_TEXT	ENDS
PUBLIC	??0?$fpos@H@std@@QAE@_J@Z			; std::fpos<int>::fpos<int>
; Function compile flags: /Odtp /RTCsu /ZI
; File c:\program files (x86)\microsoft visual studio 10.0\vc\include\istream
;	COMDAT ?tellg@?$basic_istream@DU?$char_traits@D@std@@@std@@QAE?AV?$fpos@H@2@XZ
_TEXT	SEGMENT
_this$ = -8						; size = 4
___$ReturnUdt$ = 8					; size = 4
?tellg@?$basic_istream@DU?$char_traits@D@std@@@std@@QAE?AV?$fpos@H@2@XZ PROC ; std::basic_istream<char,std::char_traits<char> >::tellg, COMDAT
; _this$ = ecx

; 850  : 		{	// return input stream position

	push	ebp
	mov	ebp, esp
	sub	esp, 204				; 000000ccH
	push	ebx
	push	esi
	push	edi
	push	ecx
	lea	edi, DWORD PTR [ebp-204]
	mov	ecx, 51					; 00000033H
	mov	eax, -858993460				; ccccccccH
	rep stosd
	pop	ecx
	mov	DWORD PTR _this$[ebp], ecx

; 851  : 		if (!ios_base::fail())

	mov	eax, DWORD PTR _this$[ebp]
	mov	ecx, DWORD PTR [eax]
	mov	edx, DWORD PTR _this$[ebp]
	add	edx, DWORD PTR [ecx+4]
	mov	ecx, edx
	call	?fail@ios_base@std@@QBE_NXZ		; std::ios_base::fail
	movzx	eax, al
	test	eax, eax
	jne	SHORT $LN2@tellg

; 852  : 			return (_Myios::rdbuf()->pubseekoff(0,
; 853  : 				ios_base::cur, ios_base::in));

	push	1
	push	1
	push	0
	push	0
	mov	eax, DWORD PTR ___$ReturnUdt$[ebp]
	push	eax
	mov	ecx, DWORD PTR _this$[ebp]
	mov	edx, DWORD PTR [ecx]
	mov	ecx, DWORD PTR _this$[ebp]
	add	ecx, DWORD PTR [edx+4]
	call	?rdbuf@?$basic_ios@DU?$char_traits@D@std@@@std@@QBEPAV?$basic_streambuf@DU?$char_traits@D@std@@@2@XZ ; std::basic_ios<char,std::char_traits<char> >::rdbuf
	mov	ecx, eax
	call	?pubseekoff@?$basic_streambuf@DU?$char_traits@D@std@@@std@@QAE?AV?$fpos@H@2@_JHH@Z ; std::basic_streambuf<char,std::char_traits<char> >::pubseekoff
	mov	eax, DWORD PTR ___$ReturnUdt$[ebp]
	jmp	SHORT $LN3@tellg

; 854  : 		else

	jmp	SHORT $LN3@tellg
$LN2@tellg:

; 855  : 			return (pos_type(_BADOFF));

	mov	eax, DWORD PTR ?_BADOFF@std@@3_JB+4
	push	eax
	mov	ecx, DWORD PTR ?_BADOFF@std@@3_JB
	push	ecx
	mov	ecx, DWORD PTR ___$ReturnUdt$[ebp]
	call	??0?$fpos@H@std@@QAE@_J@Z		; std::fpos<int>::fpos<int>
	mov	eax, DWORD PTR ___$ReturnUdt$[ebp]
$LN3@tellg:

; 856  : 		}

	pop	edi
	pop	esi
	pop	ebx
	add	esp, 204				; 000000ccH
	cmp	ebp, esp
	call	__RTC_CheckEsp
	mov	esp, ebp
	pop	ebp
	ret	4
?tellg@?$basic_istream@DU?$char_traits@D@std@@@std@@QAE?AV?$fpos@H@2@XZ ENDP ; std::basic_istream<char,std::char_traits<char> >::tellg
_TEXT	ENDS
PUBLIC	?_Ipfx@?$basic_istream@DU?$char_traits@D@std@@@std@@QAE_N_N@Z ; std::basic_istream<char,std::char_traits<char> >::_Ipfx
PUBLIC	??0_Sentry_base@?$basic_istream@DU?$char_traits@D@std@@@std@@QAE@AAV12@@Z ; std::basic_istream<char,std::char_traits<char> >::_Sentry_base::_Sentry_base
;	COMDAT xdata$x
xdata$x	SEGMENT
__unwindtable$??0sentry@?$basic_istream@DU?$char_traits@D@std@@@std@@QAE@AAV12@_N@Z DD 0ffffffffH
	DD	FLAT:__unwindfunclet$??0sentry@?$basic_istream@DU?$char_traits@D@std@@@std@@QAE@AAV12@_N@Z$0
__ehfuncinfo$??0sentry@?$basic_istream@DU?$char_traits@D@std@@@std@@QAE@AAV12@_N@Z DD 019930522H
	DD	01H
	DD	FLAT:__unwindtable$??0sentry@?$basic_istream@DU?$char_traits@D@std@@@std@@QAE@AAV12@_N@Z
	DD	2 DUP(00H)
	DD	2 DUP(00H)
	DD	00H
	DD	01H
; Function compile flags: /Odtp /RTCsu /ZI
xdata$x	ENDS
;	COMDAT ??0sentry@?$basic_istream@DU?$char_traits@D@std@@@std@@QAE@AAV12@_N@Z
_TEXT	SEGMENT
_this$ = -20						; size = 4
__$EHRec$ = -12						; size = 12
__Istr$ = 8						; size = 4
__Noskip$ = 12						; size = 1
??0sentry@?$basic_istream@DU?$char_traits@D@std@@@std@@QAE@AAV12@_N@Z PROC ; std::basic_istream<char,std::char_traits<char> >::sentry::sentry, COMDAT
; _this$ = ecx

; 99   : 			{	// construct locking and calling _Ipfx

	push	ebp
	mov	ebp, esp
	push	-1
	push	__ehhandler$??0sentry@?$basic_istream@DU?$char_traits@D@std@@@std@@QAE@AAV12@_N@Z
	mov	eax, DWORD PTR fs:0
	push	eax
	sub	esp, 204				; 000000ccH
	push	ebx
	push	esi
	push	edi
	push	ecx
	lea	edi, DWORD PTR [ebp-216]
	mov	ecx, 51					; 00000033H
	mov	eax, -858993460				; ccccccccH
	rep stosd
	pop	ecx
	mov	eax, DWORD PTR ___security_cookie
	xor	eax, ebp
	push	eax
	lea	eax, DWORD PTR __$EHRec$[ebp]
	mov	DWORD PTR fs:0, eax
	mov	DWORD PTR _this$[ebp], ecx
	mov	eax, DWORD PTR __Istr$[ebp]
	push	eax
	mov	ecx, DWORD PTR _this$[ebp]
	call	??0_Sentry_base@?$basic_istream@DU?$char_traits@D@std@@@std@@QAE@AAV12@@Z ; std::basic_istream<char,std::char_traits<char> >::_Sentry_base::_Sentry_base
	mov	DWORD PTR __$EHRec$[ebp+8], 0

; 100  : 			_Ok = this->_Myistr._Ipfx(_Noskip);

	movzx	eax, BYTE PTR __Noskip$[ebp]
	push	eax
	mov	ecx, DWORD PTR _this$[ebp]
	mov	ecx, DWORD PTR [ecx]
	call	?_Ipfx@?$basic_istream@DU?$char_traits@D@std@@@std@@QAE_N_N@Z ; std::basic_istream<char,std::char_traits<char> >::_Ipfx
	mov	edx, DWORD PTR _this$[ebp]
	mov	BYTE PTR [edx+4], al

; 101  : 			}

	mov	DWORD PTR __$EHRec$[ebp+8], -1
	mov	eax, DWORD PTR _this$[ebp]
	mov	ecx, DWORD PTR __$EHRec$[ebp]
	mov	DWORD PTR fs:0, ecx
	pop	ecx
	pop	edi
	pop	esi
	pop	ebx
	add	esp, 216				; 000000d8H
	cmp	ebp, esp
	call	__RTC_CheckEsp
	mov	esp, ebp
	pop	ebp
	ret	8
_TEXT	ENDS
;	COMDAT text$x
text$x	SEGMENT
__unwindfunclet$??0sentry@?$basic_istream@DU?$char_traits@D@std@@@std@@QAE@AAV12@_N@Z$0:
	mov	ecx, DWORD PTR _this$[ebp]
	jmp	??1_Sentry_base@?$basic_istream@DU?$char_traits@D@std@@@std@@QAE@XZ ; std::basic_istream<char,std::char_traits<char> >::_Sentry_base::~_Sentry_base
__ehhandler$??0sentry@?$basic_istream@DU?$char_traits@D@std@@@std@@QAE@AAV12@_N@Z:
	mov	edx, DWORD PTR [esp+8]
	lea	eax, DWORD PTR [edx+12]
	mov	ecx, DWORD PTR [edx-220]
	xor	ecx, eax
	call	@__security_check_cookie@4
	mov	eax, OFFSET __ehfuncinfo$??0sentry@?$basic_istream@DU?$char_traits@D@std@@@std@@QAE@AAV12@_N@Z
	jmp	___CxxFrameHandler3
text$x	ENDS
??0sentry@?$basic_istream@DU?$char_traits@D@std@@@std@@QAE@AAV12@_N@Z ENDP ; std::basic_istream<char,std::char_traits<char> >::sentry::sentry
; Function compile flags: /Odtp /RTCsu /ZI
;	COMDAT ??Bsentry@?$basic_istream@DU?$char_traits@D@std@@@std@@QBEPQ_Bool_struct@2@HXZ
_TEXT	SEGMENT
_this$ = -8						; size = 4
??Bsentry@?$basic_istream@DU?$char_traits@D@std@@@std@@QBEPQ_Bool_struct@2@HXZ PROC ; std::basic_istream<char,std::char_traits<char> >::sentry::operator int std::_Bool_struct::*, COMDAT
; _this$ = ecx

; 104  : 			{	// test if _Ipfx succeeded

	push	ebp
	mov	ebp, esp
	sub	esp, 204				; 000000ccH
	push	ebx
	push	esi
	push	edi
	push	ecx
	lea	edi, DWORD PTR [ebp-204]
	mov	ecx, 51					; 00000033H
	mov	eax, -858993460				; ccccccccH
	rep stosd
	pop	ecx
	mov	DWORD PTR _this$[ebp], ecx

; 105  : 			return (_Ok ? _CONVERTIBLE_TO_TRUE : 0);

	mov	eax, DWORD PTR _this$[ebp]
	movzx	eax, BYTE PTR [eax+4]
	neg	eax
	sbb	eax, eax
	neg	eax
	sub	eax, 1

; 106  : 			}

	pop	edi
	pop	esi
	pop	ebx
	mov	esp, ebp
	pop	ebp
	ret	0
??Bsentry@?$basic_istream@DU?$char_traits@D@std@@@std@@QBEPQ_Bool_struct@2@HXZ ENDP ; std::basic_istream<char,std::char_traits<char> >::sentry::operator int std::_Bool_struct::*
; Function compile flags: /Odtp /RTCsu /ZI
_TEXT	ENDS
;	COMDAT ??1_Sentry_base@?$basic_istream@DU?$char_traits@D@std@@@std@@QAE@XZ
_TEXT	SEGMENT
tv90 = -208						; size = 4
_this$ = -8						; size = 4
??1_Sentry_base@?$basic_istream@DU?$char_traits@D@std@@@std@@QAE@XZ PROC ; std::basic_istream<char,std::char_traits<char> >::_Sentry_base::~_Sentry_base, COMDAT
; _this$ = ecx

; 82   : 			{	// destroy after unlocking

	push	ebp
	mov	ebp, esp
	sub	esp, 208				; 000000d0H
	push	ebx
	push	esi
