; Listing generated by Microsoft (R) Optimizing Compiler Version 16.00.30319.01 

	TITLE	C:\Users\tdrol\documents\visual studio 2010\Projects\analizator\analizator-bd-opencl\key_schedule.cpp
	.686P
	.XMM
	include listing.inc
	.model	flat

INCLUDELIB LIBCMTD
INCLUDELIB OLDNAMES

_DATA	SEGMENT
_sbox	DB	063H
	DB	07cH
	DB	077H
	DB	07bH
	DB	0f2H
	DB	06bH
	DB	06fH
	DB	0c5H
	DB	030H
	DB	01H
	DB	067H
	DB	02bH
	DB	0feH
	DB	0d7H
	DB	0abH
	DB	076H
	DB	0caH
	DB	082H
	DB	0c9H
	DB	07dH
	DB	0faH
	DB	059H
	DB	047H
	DB	0f0H
	DB	0adH
	DB	0d4H
	DB	0a2H
	DB	0afH
	DB	09cH
	DB	0a4H
	DB	072H
	DB	0c0H
	DB	0b7H
	DB	0fdH
	DB	093H
	DB	026H
	DB	036H
	DB	03fH
	DB	0f7H
	DB	0ccH
	DB	034H
	DB	0a5H
	DB	0e5H
	DB	0f1H
	DB	071H
	DB	0d8H
	DB	031H
	DB	015H
	DB	04H
	DB	0c7H
	DB	023H
	DB	0c3H
	DB	018H
	DB	096H
	DB	05H
	DB	09aH
	DB	07H
	DB	012H
	DB	080H
	DB	0e2H
	DB	0ebH
	DB	027H
	DB	0b2H
	DB	075H
	DB	09H
	DB	083H
	DB	02cH
	DB	01aH
	DB	01bH
	DB	06eH
	DB	05aH
	DB	0a0H
	DB	052H
	DB	03bH
	DB	0d6H
	DB	0b3H
	DB	029H
	DB	0e3H
	DB	02fH
	DB	084H
	DB	053H
	DB	0d1H
	DB	00H
	DB	0edH
	DB	020H
	DB	0fcH
	DB	0b1H
	DB	05bH
	DB	06aH
	DB	0cbH
	DB	0beH
	DB	039H
	DB	04aH
	DB	04cH
	DB	058H
	DB	0cfH
	DB	0d0H
	DB	0efH
	DB	0aaH
	DB	0fbH
	DB	043H
	DB	04dH
	DB	033H
	DB	085H
	DB	045H
	DB	0f9H
	DB	02H
	DB	07fH
	DB	050H
	DB	03cH
	DB	09fH
	DB	0a8H
	DB	051H
	DB	0a3H
	DB	040H
	DB	08fH
	DB	092H
	DB	09dH
	DB	038H
	DB	0f5H
	DB	0bcH
	DB	0b6H
	DB	0daH
	DB	021H
	DB	010H
	DB	0ffH
	DB	0f3H
	DB	0d2H
	DB	0cdH
	DB	0cH
	DB	013H
	DB	0ecH
	DB	05fH
	DB	097H
	DB	044H
	DB	017H
	DB	0c4H
	DB	0a7H
	DB	07eH
	DB	03dH
	DB	064H
	DB	05dH
	DB	019H
	DB	073H
	DB	060H
	DB	081H
	DB	04fH
	DB	0dcH
	DB	022H
	DB	02aH
	DB	090H
	DB	088H
	DB	046H
	DB	0eeH
	DB	0b8H
	DB	014H
	DB	0deH
	DB	05eH
	DB	0bH
	DB	0dbH
	DB	0e0H
	DB	032H
	DB	03aH
	DB	0aH
	DB	049H
	DB	06H
	DB	024H
	DB	05cH
	DB	0c2H
	DB	0d3H
	DB	0acH
	DB	062H
	DB	091H
	DB	095H
	DB	0e4H
	DB	079H
	DB	0e7H
	DB	0c8H
	DB	037H
	DB	06dH
	DB	08dH
	DB	0d5H
	DB	04eH
	DB	0a9H
	DB	06cH
	DB	056H
	DB	0f4H
	DB	0eaH
	DB	065H
	DB	07aH
	DB	0aeH
	DB	08H
	DB	0baH
	DB	078H
	DB	025H
	DB	02eH
	DB	01cH
	DB	0a6H
	DB	0b4H
	DB	0c6H
	DB	0e8H
	DB	0ddH
	DB	074H
	DB	01fH
	DB	04bH
	DB	0bdH
	DB	08bH
	DB	08aH
	DB	070H
	DB	03eH
	DB	0b5H
	DB	066H
	DB	048H
	DB	03H
	DB	0f6H
	DB	0eH
	DB	061H
	DB	035H
	DB	057H
	DB	0b9H
	DB	086H
	DB	0c1H
	DB	01dH
	DB	09eH
	DB	0e1H
	DB	0f8H
	DB	098H
	DB	011H
	DB	069H
	DB	0d9H
	DB	08eH
	DB	094H
	DB	09bH
	DB	01eH
	DB	087H
	DB	0e9H
	DB	0ceH
	DB	055H
	DB	028H
	DB	0dfH
	DB	08cH
	DB	0a1H
	DB	089H
	DB	0dH
	DB	0bfH
	DB	0e6H
	DB	042H
	DB	068H
	DB	041H
	DB	099H
	DB	02dH
	DB	0fH
	DB	0b0H
	DB	054H
	DB	0bbH
	DB	016H
_rcon	DB	08dH
	DB	01H
	DB	02H
	DB	04H
	DB	08H
	DB	010H
	DB	020H
	DB	040H
	DB	080H
	DB	01bH
	DB	036H
	DB	06cH
	DB	0d8H
	DB	0abH
	DB	04dH
	DB	09aH
	DB	02fH
	DB	05eH
	DB	0bcH
	DB	063H
	DB	0c6H
	DB	097H
	DB	035H
	DB	06aH
	DB	0d4H
	DB	0b3H
	DB	07dH
	DB	0faH
	DB	0efH
	DB	0c5H
	DB	091H
	DB	039H
	DB	072H
	DB	0e4H
	DB	0d3H
	DB	0bdH
	DB	061H
	DB	0c2H
	DB	09fH
	DB	025H
	DB	04aH
	DB	094H
	DB	033H
	DB	066H
	DB	0ccH
	DB	083H
	DB	01dH
	DB	03aH
	DB	074H
	DB	0e8H
	DB	0cbH
	DB	08dH
	DB	01H
	DB	02H
	DB	04H
	DB	08H
	DB	010H
	DB	020H
	DB	040H
	DB	080H
	DB	01bH
	DB	036H
	DB	06cH
	DB	0d8H
	DB	0abH
	DB	04dH
	DB	09aH
	DB	02fH
	DB	05eH
	DB	0bcH
	DB	063H
	DB	0c6H
	DB	097H
	DB	035H
	DB	06aH
	DB	0d4H
	DB	0b3H
	DB	07dH
	DB	0faH
	DB	0efH
	DB	0c5H
	DB	091H
	DB	039H
	DB	072H
	DB	0e4H
	DB	0d3H
	DB	0bdH
	DB	061H
	DB	0c2H
	DB	09fH
	DB	025H
	DB	04aH
	DB	094H
	DB	033H
	DB	066H
	DB	0ccH
	DB	083H
	DB	01dH
	DB	03aH
	DB	074H
	DB	0e8H
	DB	0cbH
	DB	08dH
	DB	01H
	DB	02H
	DB	04H
	DB	08H
	DB	010H
	DB	020H
	DB	040H
	DB	080H
	DB	01bH
	DB	036H
	DB	06cH
	DB	0d8H
	DB	0abH
	DB	04dH
	DB	09aH
	DB	02fH
	DB	05eH
	DB	0bcH
	DB	063H
	DB	0c6H
	DB	097H
	DB	035H
	DB	06aH
	DB	0d4H
	DB	0b3H
	DB	07dH
	DB	0faH
	DB	0efH
	DB	0c5H
	DB	091H
	DB	039H
	DB	072H
	DB	0e4H
	DB	0d3H
	DB	0bdH
	DB	061H
	DB	0c2H
	DB	09fH
	DB	025H
	DB	04aH
	DB	094H
	DB	033H
	DB	066H
	DB	0ccH
	DB	083H
	DB	01dH
	DB	03aH
	DB	074H
	DB	0e8H
	DB	0cbH
	DB	08dH
	DB	01H
	DB	02H
	DB	04H
	DB	08H
	DB	010H
	DB	020H
	DB	040H
	DB	080H
	DB	01bH
	DB	036H
	DB	06cH
	DB	0d8H
	DB	0abH
	DB	04dH
	DB	09aH
	DB	02fH
	DB	05eH
	DB	0bcH
	DB	063H
	DB	0c6H
	DB	097H
	DB	035H
	DB	06aH
	DB	0d4H
	DB	0b3H
	DB	07dH
	DB	0faH
	DB	0efH
	DB	0c5H
	DB	091H
	DB	039H
	DB	072H
	DB	0e4H
	DB	0d3H
	DB	0bdH
	DB	061H
	DB	0c2H
	DB	09fH
	DB	025H
	DB	04aH
	DB	094H
	DB	033H
	DB	066H
	DB	0ccH
	DB	083H
	DB	01dH
	DB	03aH
	DB	074H
	DB	0e8H
	DB	0cbH
	DB	08dH
	DB	01H
	DB	02H
	DB	04H
	DB	08H
	DB	010H
	DB	020H
	DB	040H
	DB	080H
	DB	01bH
	DB	036H
	DB	06cH
	DB	0d8H
	DB	0abH
	DB	04dH
	DB	09aH
	DB	02fH
	DB	05eH
	DB	0bcH
	DB	063H
	DB	0c6H
	DB	097H
	DB	035H
	DB	06aH
	DB	0d4H
	DB	0b3H
	DB	07dH
	DB	0faH
	DB	0efH
	DB	0c5H
	DB	091H
	DB	039H
	DB	072H
	DB	0e4H
	DB	0d3H
	DB	0bdH
	DB	061H
	DB	0c2H
	DB	09fH
	DB	025H
	DB	04aH
	DB	094H
	DB	033H
	DB	066H
	DB	0ccH
	DB	083H
	DB	01dH
	DB	03aH
	DB	074H
	DB	0e8H
	DB	0cbH
	DB	08dH
_DATA	ENDS
PUBLIC	?key_schedule_core@@YAXPAEI@Z			; key_schedule_core
PUBLIC	?key_schedule@@YAXPAEI@Z			; key_schedule
EXTRN	__RTC_CheckEsp:PROC
EXTRN	@_RTC_CheckStackVars@8:PROC
EXTRN	__RTC_Shutdown:PROC
EXTRN	__RTC_InitBase:PROC
;	COMDAT rtc$TMZ
; File c:\users\tdrol\documents\visual studio 2010\projects\analizator\analizator-bd-opencl\key_schedule.cpp
rtc$TMZ	SEGMENT
__RTC_Shutdown.rtc$TMZ DD FLAT:__RTC_Shutdown
rtc$TMZ	ENDS
;	COMDAT rtc$IMZ
rtc$IMZ	SEGMENT
__RTC_InitBase.rtc$IMZ DD FLAT:__RTC_InitBase
; Function compile flags: /Odtp /RTCsu /ZI
rtc$IMZ	ENDS
;	COMDAT ?key_schedule@@YAXPAEI@Z
_TEXT	SEGMENT
_t$5391 = -56						; size = 4
_n$ = -44						; size = 4
_k$ = -32						; size = 4
_i$ = -20						; size = 4
_b$ = -8						; size = 4
_key$ = 8						; size = 4
_key_length$ = 12					; size = 4
?key_schedule@@YAXPAEI@Z PROC				; key_schedule, COMDAT

; 45   : {

	push	ebp
	mov	ebp, esp
	sub	esp, 252				; 000000fcH
	push	ebx
	push	esi
	push	edi
	lea	edi, DWORD PTR [ebp-252]
	mov	ecx, 63					; 0000003fH
	mov	eax, -858993460				; ccccccccH
	rep stosd

; 46   : 	unsigned int b, i, k, n;
; 47   : 
; 48   : 	n = KEYLENGTH(key_length);

	mov	eax, DWORD PTR _key_length$[ebp]
	shr	eax, 3
	mov	DWORD PTR _n$[ebp], eax

; 49   : 	b = RKLENGTH(key_length);

	mov	eax, DWORD PTR _key_length$[ebp]
	shr	eax, 3
	lea	ecx, DWORD PTR [eax*4+112]
	mov	DWORD PTR _b$[ebp], ecx

; 50   : 
; 51   : 	i = 1;

	mov	DWORD PTR _i$[ebp], 1

; 52   : 	k = n;

	mov	eax, DWORD PTR _n$[ebp]
	mov	DWORD PTR _k$[ebp], eax
$LN4@key_schedu:

; 53   : 
; 54   : 	while (k < b)

	mov	eax, DWORD PTR _k$[ebp]
	cmp	eax, DWORD PTR _b$[ebp]
	jae	$LN5@key_schedu

; 55   : 	{
; 56   : 		uint_u t = {
; 57   : 			key[k-4],

	mov	eax, DWORD PTR _key$[ebp]
	add	eax, DWORD PTR _k$[ebp]
	mov	cl, BYTE PTR [eax-4]
	mov	BYTE PTR _t$5391[ebp], cl

; 58   : 			key[k-3],

	mov	eax, DWORD PTR _key$[ebp]
	add	eax, DWORD PTR _k$[ebp]
	mov	cl, BYTE PTR [eax-3]
	mov	BYTE PTR _t$5391[ebp+1], cl

; 59   : 			key[k-2],

	mov	eax, DWORD PTR _key$[ebp]
	add	eax, DWORD PTR _k$[ebp]
	mov	cl, BYTE PTR [eax-2]
	mov	BYTE PTR _t$5391[ebp+2], cl

; 60   : 			key[k-1]
; 61   : 		};

	mov	eax, DWORD PTR _key$[ebp]
	add	eax, DWORD PTR _k$[ebp]
	mov	cl, BYTE PTR [eax-1]
	mov	BYTE PTR _t$5391[ebp+3], cl

; 62   : 
; 63   : 		if (k % n == 0)

	mov	eax, DWORD PTR _k$[ebp]
	xor	edx, edx
	div	DWORD PTR _n$[ebp]
	test	edx, edx
	jne	SHORT $LN2@key_schedu

; 64   : 		{
; 65   : 			key_schedule_core(t.c, i);

	mov	eax, DWORD PTR _i$[ebp]
	push	eax
	lea	ecx, DWORD PTR _t$5391[ebp]
	push	ecx
	call	?key_schedule_core@@YAXPAEI@Z		; key_schedule_core
	add	esp, 8

; 66   : 			i++;

	mov	eax, DWORD PTR _i$[ebp]
	add	eax, 1
	mov	DWORD PTR _i$[ebp], eax
$LN2@key_schedu:

; 67   : 		}
; 68   : 
; 69   : 		// (n == 32 && k % n == 16) 
; 70   : 		if (n == 32 && (k & 31) == 16)

	cmp	DWORD PTR _n$[ebp], 32			; 00000020H
	jne	SHORT $LN1@key_schedu
	mov	eax, DWORD PTR _k$[ebp]
	and	eax, 31					; 0000001fH
	cmp	eax, 16					; 00000010H
	jne	SHORT $LN1@key_schedu

; 71   : 		{
; 72   : 			t.c[0] = sbox[t.c[0]];

	movzx	eax, BYTE PTR _t$5391[ebp]
	mov	cl, BYTE PTR _sbox[eax]
	mov	BYTE PTR _t$5391[ebp], cl

; 73   : 			t.c[1] = sbox[t.c[1]];

	movzx	eax, BYTE PTR _t$5391[ebp+1]
	mov	cl, BYTE PTR _sbox[eax]
	mov	BYTE PTR _t$5391[ebp+1], cl

; 74   : 			t.c[2] = sbox[t.c[2]];

	movzx	eax, BYTE PTR _t$5391[ebp+2]
	mov	cl, BYTE PTR _sbox[eax]
	mov	BYTE PTR _t$5391[ebp+2], cl

; 75   : 			t.c[3] = sbox[t.c[3]];

	movzx	eax, BYTE PTR _t$5391[ebp+3]
	mov	cl, BYTE PTR _sbox[eax]
	mov	BYTE PTR _t$5391[ebp+3], cl
$LN1@key_schedu:

; 76   : 		}
; 77   : 
; 78   : 		((uint_u *) &key[k])->i = ((uint_u *) &key[k-n])->i ^ t.i;

	mov	eax, DWORD PTR _k$[ebp]
	sub	eax, DWORD PTR _n$[ebp]
	mov	ecx, DWORD PTR _key$[ebp]
	mov	edx, DWORD PTR [ecx+eax]
	xor	edx, DWORD PTR _t$5391[ebp]
	mov	eax, DWORD PTR _key$[ebp]
	add	eax, DWORD PTR _k$[ebp]
	mov	DWORD PTR [eax], edx

; 79   : /*
; 80   : 		key[k+0] = key[k+0-n] ^ t.c[0];
; 81   : 		key[k+1] = key[k+1-n] ^ t.c[1];
; 82   : 		key[k+2] = key[k+2-n] ^ t.c[2];
; 83   : 		key[k+3] = key[k+3-n] ^ t.c[3];
; 84   : */
; 85   : 		k += 4;

	mov	eax, DWORD PTR _k$[ebp]
	add	eax, 4
	mov	DWORD PTR _k$[ebp], eax

; 86   : 	}

	jmp	$LN4@key_schedu
$LN5@key_schedu:

; 87   : }

	push	edx
	mov	ecx, ebp
	push	eax
	lea	edx, DWORD PTR $LN9@key_schedu
	call	@_RTC_CheckStackVars@8
	pop	eax
	pop	edx
	pop	edi
	pop	esi
	pop	ebx
	add	esp, 252				; 000000fcH
	cmp	ebp, esp
	call	__RTC_CheckEsp
	mov	esp, ebp
	pop	ebp
	ret	0
$LN9@key_schedu:
	DD	1
	DD	$LN8@key_schedu
$LN8@key_schedu:
	DD	-56					; ffffffc8H
	DD	4
	DD	$LN7@key_schedu
$LN7@key_schedu:
	DB	116					; 00000074H
	DB	0
?key_schedule@@YAXPAEI@Z ENDP				; key_schedule
; Function compile flags: /Odtp /RTCsu /ZI
_TEXT	ENDS
;	COMDAT ?key_schedule_core@@YAXPAEI@Z
_TEXT	SEGMENT
_temp$ = -5						; size = 1
_block$ = 8						; size = 4
_i$ = 12						; size = 4
?key_schedule_core@@YAXPAEI@Z PROC			; key_schedule_core, COMDAT

; 90   : {

	push	ebp
	mov	ebp, esp
	sub	esp, 204				; 000000ccH
	push	ebx
	push	esi
	push	edi
	lea	edi, DWORD PTR [ebp-204]
	mov	ecx, 51					; 00000033H
	mov	eax, -858993460				; ccccccccH
	rep stosd

; 91   : 	uint8_t temp = block[0];

	mov	eax, DWORD PTR _block$[ebp]
	mov	cl, BYTE PTR [eax]
	mov	BYTE PTR _temp$[ebp], cl

; 92   : 	
; 93   : 	block[0] = sbox[block[1]] ^ rcon[i];

	mov	eax, DWORD PTR _block$[ebp]
	movzx	ecx, BYTE PTR [eax+1]
	movzx	edx, BYTE PTR _sbox[ecx]
	mov	eax, DWORD PTR _i$[ebp]
	movzx	ecx, BYTE PTR _rcon[eax]
	xor	edx, ecx
	mov	eax, DWORD PTR _block$[ebp]
	mov	BYTE PTR [eax], dl

; 94   : 	block[1] = sbox[block[2]];

	mov	eax, DWORD PTR _block$[ebp]
	movzx	ecx, BYTE PTR [eax+2]
	mov	edx, DWORD PTR _block$[ebp]
	mov	al, BYTE PTR _sbox[ecx]
	mov	BYTE PTR [edx+1], al

; 95   : 	block[2] = sbox[block[3]];

	mov	eax, DWORD PTR _block$[ebp]
	movzx	ecx, BYTE PTR [eax+3]
	mov	edx, DWORD PTR _block$[ebp]
	mov	al, BYTE PTR _sbox[ecx]
	mov	BYTE PTR [edx+2], al

; 96   : 	block[3] = sbox[temp];

	movzx	eax, BYTE PTR _temp$[ebp]
	mov	ecx, DWORD PTR _block$[ebp]
	mov	dl, BYTE PTR _sbox[eax]
	mov	BYTE PTR [ecx+3], dl

; 97   : }

	pop	edi
	pop	esi
	pop	ebx
	mov	esp, ebp
	pop	ebp
	ret	0
?key_schedule_core@@YAXPAEI@Z ENDP			; key_schedule_core
_TEXT	ENDS
END
