; Listing generated by Microsoft (R) Optimizing Compiler Version 16.00.30319.01 

	TITLE	C:\Users\tdrol\documents\visual studio 2010\Projects\analizator\analizator-bd-opencl\cl_encrypt_test.cpp
	.686P
	.XMM
	include listing.inc
	.model	flat

INCLUDELIB LIBCMT
INCLUDELIB OLDNAMES

CONST	SEGMENT
_Te0	DD	0c66363a5H
	DD	0f87c7c84H
	DD	0ee777799H
	DD	0f67b7b8dH
	DD	0fff2f20dH
	DD	0d66b6bbdH
	DD	0de6f6fb1H
	DD	091c5c554H
	DD	060303050H
	DD	02010103H
	DD	0ce6767a9H
	DD	0562b2b7dH
	DD	0e7fefe19H
	DD	0b5d7d762H
	DD	04dababe6H
	DD	0ec76769aH
	DD	08fcaca45H
	DD	01f82829dH
	DD	089c9c940H
	DD	0fa7d7d87H
	DD	0effafa15H
	DD	0b25959ebH
	DD	08e4747c9H
	DD	0fbf0f00bH
	DD	041adadecH
	DD	0b3d4d467H
	DD	05fa2a2fdH
	DD	045afafeaH
	DD	0239c9cbfH
	DD	053a4a4f7H
	DD	0e4727296H
	DD	09bc0c05bH
	DD	075b7b7c2H
	DD	0e1fdfd1cH
	DD	03d9393aeH
	DD	04c26266aH
	DD	06c36365aH
	DD	07e3f3f41H
	DD	0f5f7f702H
	DD	083cccc4fH
	DD	06834345cH
	DD	051a5a5f4H
	DD	0d1e5e534H
	DD	0f9f1f108H
	DD	0e2717193H
	DD	0abd8d873H
	DD	062313153H
	DD	02a15153fH
	DD	0804040cH
	DD	095c7c752H
	DD	046232365H
	DD	09dc3c35eH
	DD	030181828H
	DD	0379696a1H
	DD	0a05050fH
	DD	02f9a9ab5H
	DD	0e070709H
	DD	024121236H
	DD	01b80809bH
	DD	0dfe2e23dH
	DD	0cdebeb26H
	DD	04e272769H
	DD	07fb2b2cdH
	DD	0ea75759fH
	DD	01209091bH
	DD	01d83839eH
	DD	0582c2c74H
	DD	0341a1a2eH
	DD	0361b1b2dH
	DD	0dc6e6eb2H
	DD	0b45a5aeeH
	DD	05ba0a0fbH
	DD	0a45252f6H
	DD	0763b3b4dH
	DD	0b7d6d661H
	DD	07db3b3ceH
	DD	05229297bH
	DD	0dde3e33eH
	DD	05e2f2f71H
	DD	013848497H
	DD	0a65353f5H
	DD	0b9d1d168H
	DD	00H
	DD	0c1eded2cH
	DD	040202060H
	DD	0e3fcfc1fH
	DD	079b1b1c8H
	DD	0b65b5bedH
	DD	0d46a6abeH
	DD	08dcbcb46H
	DD	067bebed9H
	DD	07239394bH
	DD	0944a4adeH
	DD	0984c4cd4H
	DD	0b05858e8H
	DD	085cfcf4aH
	DD	0bbd0d06bH
	DD	0c5efef2aH
	DD	04faaaae5H
	DD	0edfbfb16H
	DD	0864343c5H
	DD	09a4d4dd7H
	DD	066333355H
	DD	011858594H
	DD	08a4545cfH
	DD	0e9f9f910H
	DD	04020206H
	DD	0fe7f7f81H
	DD	0a05050f0H
	DD	0783c3c44H
	DD	0259f9fbaH
	DD	04ba8a8e3H
	DD	0a25151f3H
	DD	05da3a3feH
	DD	0804040c0H
	DD	058f8f8aH
	DD	03f9292adH
	DD	0219d9dbcH
	DD	070383848H
	DD	0f1f5f504H
	DD	063bcbcdfH
	DD	077b6b6c1H
	DD	0afdada75H
	DD	042212163H
	DD	020101030H
	DD	0e5ffff1aH
	DD	0fdf3f30eH
	DD	0bfd2d26dH
	DD	081cdcd4cH
	DD	0180c0c14H
	DD	026131335H
	DD	0c3ecec2fH
	DD	0be5f5fe1H
	DD	0359797a2H
	DD	0884444ccH
	DD	02e171739H
	DD	093c4c457H
	DD	055a7a7f2H
	DD	0fc7e7e82H
	DD	07a3d3d47H
	DD	0c86464acH
	DD	0ba5d5de7H
	DD	03219192bH
	DD	0e6737395H
	DD	0c06060a0H
	DD	019818198H
	DD	09e4f4fd1H
	DD	0a3dcdc7fH
	DD	044222266H
	DD	0542a2a7eH
	DD	03b9090abH
	DD	0b888883H
	DD	08c4646caH
	DD	0c7eeee29H
	DD	06bb8b8d3H
	DD	02814143cH
	DD	0a7dede79H
	DD	0bc5e5ee2H
	DD	0160b0b1dH
	DD	0addbdb76H
	DD	0dbe0e03bH
	DD	064323256H
	DD	0743a3a4eH
	DD	0140a0a1eH
	DD	0924949dbH
	DD	0c06060aH
	DD	04824246cH
	DD	0b85c5ce4H
	DD	09fc2c25dH
	DD	0bdd3d36eH
	DD	043acacefH
	DD	0c46262a6H
	DD	0399191a8H
	DD	0319595a4H
	DD	0d3e4e437H
	DD	0f279798bH
	DD	0d5e7e732H
	DD	08bc8c843H
	DD	06e373759H
	DD	0da6d6db7H
	DD	018d8d8cH
	DD	0b1d5d564H
	DD	09c4e4ed2H
	DD	049a9a9e0H
	DD	0d86c6cb4H
	DD	0ac5656faH
	DD	0f3f4f407H
	DD	0cfeaea25H
	DD	0ca6565afH
	DD	0f47a7a8eH
	DD	047aeaee9H
	DD	010080818H
	DD	06fbabad5H
	DD	0f0787888H
	DD	04a25256fH
	DD	05c2e2e72H
	DD	0381c1c24H
	DD	057a6a6f1H
	DD	073b4b4c7H
	DD	097c6c651H
	DD	0cbe8e823H
	DD	0a1dddd7cH
	DD	0e874749cH
	DD	03e1f1f21H
	DD	0964b4bddH
	DD	061bdbddcH
	DD	0d8b8b86H
	DD	0f8a8a85H
	DD	0e0707090H
	DD	07c3e3e42H
	DD	071b5b5c4H
	DD	0cc6666aaH
	DD	0904848d8H
	DD	06030305H
	DD	0f7f6f601H
	DD	01c0e0e12H
	DD	0c26161a3H
	DD	06a35355fH
	DD	0ae5757f9H
	DD	069b9b9d0H
	DD	017868691H
	DD	099c1c158H
	DD	03a1d1d27H
	DD	0279e9eb9H
	DD	0d9e1e138H
	DD	0ebf8f813H
	DD	02b9898b3H
	DD	022111133H
	DD	0d26969bbH
	DD	0a9d9d970H
	DD	078e8e89H
	DD	0339494a7H
	DD	02d9b9bb6H
	DD	03c1e1e22H
	DD	015878792H
	DD	0c9e9e920H
	DD	087cece49H
	DD	0aa5555ffH
	DD	050282878H
	DD	0a5dfdf7aH
	DD	038c8c8fH
	DD	059a1a1f8H
	DD	09898980H
	DD	01a0d0d17H
	DD	065bfbfdaH
	DD	0d7e6e631H
	DD	0844242c6H
	DD	0d06868b8H
	DD	0824141c3H
	DD	0299999b0H
	DD	05a2d2d77H
	DD	01e0f0f11H
	DD	07bb0b0cbH
	DD	0a85454fcH
	DD	06dbbbbd6H
	DD	02c16163aH
_Te1	DD	0a5c66363H
	DD	084f87c7cH
	DD	099ee7777H
	DD	08df67b7bH
	DD	0dfff2f2H
	DD	0bdd66b6bH
	DD	0b1de6f6fH
	DD	05491c5c5H
	DD	050603030H
	DD	03020101H
	DD	0a9ce6767H
	DD	07d562b2bH
	DD	019e7fefeH
	DD	062b5d7d7H
	DD	0e64dababH
	DD	09aec7676H
	DD	0458fcacaH
	DD	09d1f8282H
	DD	04089c9c9H
	DD	087fa7d7dH
	DD	015effafaH
	DD	0ebb25959H
	DD	0c98e4747H
	DD	0bfbf0f0H
	DD	0ec41adadH
	DD	067b3d4d4H
	DD	0fd5fa2a2H
	DD	0ea45afafH
	DD	0bf239c9cH
	DD	0f753a4a4H
	DD	096e47272H
	DD	05b9bc0c0H
	DD	0c275b7b7H
	DD	01ce1fdfdH
	DD	0ae3d9393H
	DD	06a4c2626H
	DD	05a6c3636H
	DD	0417e3f3fH
	DD	02f5f7f7H
	DD	04f83ccccH
	DD	05c683434H
	DD	0f451a5a5H
	DD	034d1e5e5H
	DD	08f9f1f1H
	DD	093e27171H
	DD	073abd8d8H
	DD	053623131H
	DD	03f2a1515H
	DD	0c080404H
	DD	05295c7c7H
	DD	065462323H
	DD	05e9dc3c3H
	DD	028301818H
	DD	0a1379696H
	DD	0f0a0505H
	DD	0b52f9a9aH
	DD	090e0707H
	DD	036241212H
	DD	09b1b8080H
	DD	03ddfe2e2H
	DD	026cdebebH
	DD	0694e2727H
	DD	0cd7fb2b2H
	DD	09fea7575H
	DD	01b120909H
	DD	09e1d8383H
	DD	074582c2cH
	DD	02e341a1aH
	DD	02d361b1bH
	DD	0b2dc6e6eH
	DD	0eeb45a5aH
	DD	0fb5ba0a0H
	DD	0f6a45252H
	DD	04d763b3bH
	DD	061b7d6d6H
	DD	0ce7db3b3H
	DD	07b522929H
	DD	03edde3e3H
	DD	0715e2f2fH
	DD	097138484H
	DD	0f5a65353H
	DD	068b9d1d1H
	DD	00H
	DD	02cc1ededH
	DD	060402020H
	DD	01fe3fcfcH
	DD	0c879b1b1H
	DD	0edb65b5bH
	DD	0bed46a6aH
	DD	0468dcbcbH
	DD	0d967bebeH
	DD	04b723939H
	DD	0de944a4aH
	DD	0d4984c4cH
	DD	0e8b05858H
	DD	04a85cfcfH
	DD	06bbbd0d0H
	DD	02ac5efefH
	DD	0e54faaaaH
	DD	016edfbfbH
	DD	0c5864343H
	DD	0d79a4d4dH
	DD	055663333H
	DD	094118585H
	DD	0cf8a4545H
	DD	010e9f9f9H
	DD	06040202H
	DD	081fe7f7fH
	DD	0f0a05050H
	DD	044783c3cH
	DD	0ba259f9fH
	DD	0e34ba8a8H
	DD	0f3a25151H
	DD	0fe5da3a3H
	DD	0c0804040H
	DD	08a058f8fH
	DD	0ad3f9292H
	DD	0bc219d9dH
	DD	048703838H
	DD	04f1f5f5H
	DD	0df63bcbcH
	DD	0c177b6b6H
	DD	075afdadaH
	DD	063422121H
	DD	030201010H
	DD	01ae5ffffH
	DD	0efdf3f3H
	DD	06dbfd2d2H
	DD	04c81cdcdH
	DD	014180c0cH
	DD	035261313H
	DD	02fc3ececH
	DD	0e1be5f5fH
	DD	0a2359797H
	DD	0cc884444H
	DD	0392e1717H
	DD	05793c4c4H
	DD	0f255a7a7H
	DD	082fc7e7eH
	DD	0477a3d3dH
	DD	0acc86464H
	DD	0e7ba5d5dH
	DD	02b321919H
	DD	095e67373H
	DD	0a0c06060H
	DD	098198181H
	DD	0d19e4f4fH
	DD	07fa3dcdcH
	DD	066442222H
	DD	07e542a2aH
	DD	0ab3b9090H
	DD	0830b8888H
	DD	0ca8c4646H
	DD	029c7eeeeH
	DD	0d36bb8b8H
	DD	03c281414H
	DD	079a7dedeH
	DD	0e2bc5e5eH
	DD	01d160b0bH
	DD	076addbdbH
	DD	03bdbe0e0H
	DD	056643232H
	DD	04e743a3aH
	DD	01e140a0aH
	DD	0db924949H
	DD	0a0c0606H
	DD	06c482424H
	DD	0e4b85c5cH
	DD	05d9fc2c2H
	DD	06ebdd3d3H
	DD	0ef43acacH
	DD	0a6c46262H
	DD	0a8399191H
	DD	0a4319595H
	DD	037d3e4e4H
	DD	08bf27979H
	DD	032d5e7e7H
	DD	0438bc8c8H
	DD	0596e3737H
	DD	0b7da6d6dH
	DD	08c018d8dH
	DD	064b1d5d5H
	DD	0d29c4e4eH
	DD	0e049a9a9H
	DD	0b4d86c6cH
	DD	0faac5656H
	DD	07f3f4f4H
	DD	025cfeaeaH
	DD	0afca6565H
	DD	08ef47a7aH
	DD	0e947aeaeH
	DD	018100808H
	DD	0d56fbabaH
	DD	088f07878H
	DD	06f4a2525H
	DD	0725c2e2eH
	DD	024381c1cH
	DD	0f157a6a6H
	DD	0c773b4b4H
	DD	05197c6c6H
	DD	023cbe8e8H
	DD	07ca1ddddH
	DD	09ce87474H
	DD	0213e1f1fH
	DD	0dd964b4bH
	DD	0dc61bdbdH
	DD	0860d8b8bH
	DD	0850f8a8aH
	DD	090e07070H
	DD	0427c3e3eH
	DD	0c471b5b5H
	DD	0aacc6666H
	DD	0d8904848H
	DD	05060303H
	DD	01f7f6f6H
	DD	0121c0e0eH
	DD	0a3c26161H
	DD	05f6a3535H
	DD	0f9ae5757H
	DD	0d069b9b9H
	DD	091178686H
	DD	05899c1c1H
	DD	0273a1d1dH
	DD	0b9279e9eH
	DD	038d9e1e1H
	DD	013ebf8f8H
	DD	0b32b9898H
	DD	033221111H
	DD	0bbd26969H
	DD	070a9d9d9H
	DD	089078e8eH
	DD	0a7339494H
	DD	0b62d9b9bH
	DD	0223c1e1eH
	DD	092158787H
	DD	020c9e9e9H
	DD	04987ceceH
	DD	0ffaa5555H
	DD	078502828H
	DD	07aa5dfdfH
	DD	08f038c8cH
	DD	0f859a1a1H
	DD	080098989H
	DD	0171a0d0dH
	DD	0da65bfbfH
	DD	031d7e6e6H
	DD	0c6844242H
	DD	0b8d06868H
	DD	0c3824141H
	DD	0b0299999H
	DD	0775a2d2dH
	DD	0111e0f0fH
	DD	0cb7bb0b0H
	DD	0fca85454H
	DD	0d66dbbbbH
	DD	03a2c1616H
_Te2	DD	063a5c663H
	DD	07c84f87cH
	DD	07799ee77H
	DD	07b8df67bH
	DD	0f20dfff2H
	DD	06bbdd66bH
	DD	06fb1de6fH
	DD	0c55491c5H
	DD	030506030H
	DD	01030201H
	DD	067a9ce67H
	DD	02b7d562bH
	DD	0fe19e7feH
	DD	0d762b5d7H
	DD	0abe64dabH
	DD	0769aec76H
	DD	0ca458fcaH
	DD	0829d1f82H
	DD	0c94089c9H
	DD	07d87fa7dH
	DD	0fa15effaH
	DD	059ebb259H
	DD	047c98e47H
	DD	0f00bfbf0H
	DD	0adec41adH
	DD	0d467b3d4H
	DD	0a2fd5fa2H
	DD	0afea45afH
	DD	09cbf239cH
	DD	0a4f753a4H
	DD	07296e472H
	DD	0c05b9bc0H
	DD	0b7c275b7H
	DD	0fd1ce1fdH
	DD	093ae3d93H
	DD	0266a4c26H
	DD	0365a6c36H
	DD	03f417e3fH
	DD	0f702f5f7H
	DD	0cc4f83ccH
	DD	0345c6834H
	DD	0a5f451a5H
	DD	0e534d1e5H
	DD	0f108f9f1H
	DD	07193e271H
	DD	0d873abd8H
	DD	031536231H
	DD	0153f2a15H
	DD	040c0804H
	DD	0c75295c7H
	DD	023654623H
	DD	0c35e9dc3H
	DD	018283018H
	DD	096a13796H
	DD	050f0a05H
	DD	09ab52f9aH
	DD	07090e07H
	DD	012362412H
	DD	0809b1b80H
	DD	0e23ddfe2H
	DD	0eb26cdebH
	DD	027694e27H
	DD	0b2cd7fb2H
	DD	0759fea75H
	DD	091b1209H
	DD	0839e1d83H
	DD	02c74582cH
	DD	01a2e341aH
	DD	01b2d361bH
	DD	06eb2dc6eH
	DD	05aeeb45aH
	DD	0a0fb5ba0H
	DD	052f6a452H
	DD	03b4d763bH
	DD	0d661b7d6H
	DD	0b3ce7db3H
	DD	0297b5229H
	DD	0e33edde3H
	DD	02f715e2fH
	DD	084971384H
	DD	053f5a653H
	DD	0d168b9d1H
	DD	00H
	DD	0ed2cc1edH
	DD	020604020H
	DD	0fc1fe3fcH
	DD	0b1c879b1H
	DD	05bedb65bH
	DD	06abed46aH
	DD	0cb468dcbH
	DD	0bed967beH
	DD	0394b7239H
	DD	04ade944aH
	DD	04cd4984cH
	DD	058e8b058H
	DD	0cf4a85cfH
	DD	0d06bbbd0H
	DD	0ef2ac5efH
	DD	0aae54faaH
	DD	0fb16edfbH
	DD	043c58643H
	DD	04dd79a4dH
	DD	033556633H
	DD	085941185H
	DD	045cf8a45H
	DD	0f910e9f9H
	DD	02060402H
	DD	07f81fe7fH
	DD	050f0a050H
	DD	03c44783cH
	DD	09fba259fH
	DD	0a8e34ba8H
	DD	051f3a251H
	DD	0a3fe5da3H
	DD	040c08040H
	DD	08f8a058fH
	DD	092ad3f92H
	DD	09dbc219dH
	DD	038487038H
	DD	0f504f1f5H
	DD	0bcdf63bcH
	DD	0b6c177b6H
	DD	0da75afdaH
	DD	021634221H
	DD	010302010H
	DD	0ff1ae5ffH
	DD	0f30efdf3H
	DD	0d26dbfd2H
	DD	0cd4c81cdH
	DD	0c14180cH
	DD	013352613H
	DD	0ec2fc3ecH
	DD	05fe1be5fH
	DD	097a23597H
	DD	044cc8844H
	DD	017392e17H
	DD	0c45793c4H
	DD	0a7f255a7H
	DD	07e82fc7eH
	DD	03d477a3dH
	DD	064acc864H
	DD	05de7ba5dH
	DD	0192b3219H
	DD	07395e673H
	DD	060a0c060H
	DD	081981981H
	DD	04fd19e4fH
	DD	0dc7fa3dcH
	DD	022664422H
	DD	02a7e542aH
	DD	090ab3b90H
	DD	088830b88H
	DD	046ca8c46H
	DD	0ee29c7eeH
	DD	0b8d36bb8H
	DD	0143c2814H
	DD	0de79a7deH
	DD	05ee2bc5eH
	DD	0b1d160bH
	DD	0db76addbH
	DD	0e03bdbe0H
	DD	032566432H
	DD	03a4e743aH
	DD	0a1e140aH
	DD	049db9249H
	DD	060a0c06H
	DD	0246c4824H
	DD	05ce4b85cH
	DD	0c25d9fc2H
	DD	0d36ebdd3H
	DD	0acef43acH
	DD	062a6c462H
	DD	091a83991H
	DD	095a43195H
	DD	0e437d3e4H
	DD	0798bf279H
	DD	0e732d5e7H
	DD	0c8438bc8H
	DD	037596e37H
	DD	06db7da6dH
	DD	08d8c018dH
	DD	0d564b1d5H
	DD	04ed29c4eH
	DD	0a9e049a9H
	DD	06cb4d86cH
	DD	056faac56H
	DD	0f407f3f4H
	DD	0ea25cfeaH
	DD	065afca65H
	DD	07a8ef47aH
	DD	0aee947aeH
	DD	08181008H
	DD	0bad56fbaH
	DD	07888f078H
	DD	0256f4a25H
	DD	02e725c2eH
	DD	01c24381cH
	DD	0a6f157a6H
	DD	0b4c773b4H
	DD	0c65197c6H
	DD	0e823cbe8H
	DD	0dd7ca1ddH
	DD	0749ce874H
	DD	01f213e1fH
	DD	04bdd964bH
	DD	0bddc61bdH
	DD	08b860d8bH
	DD	08a850f8aH
	DD	07090e070H
	DD	03e427c3eH
	DD	0b5c471b5H
	DD	066aacc66H
	DD	048d89048H
	DD	03050603H
	DD	0f601f7f6H
	DD	0e121c0eH
	DD	061a3c261H
	DD	0355f6a35H
	DD	057f9ae57H
	DD	0b9d069b9H
	DD	086911786H
	DD	0c15899c1H
	DD	01d273a1dH
	DD	09eb9279eH
	DD	0e138d9e1H
	DD	0f813ebf8H
	DD	098b32b98H
	DD	011332211H
	DD	069bbd269H
	DD	0d970a9d9H
	DD	08e89078eH
	DD	094a73394H
	DD	09bb62d9bH
	DD	01e223c1eH
	DD	087921587H
	DD	0e920c9e9H
	DD	0ce4987ceH
	DD	055ffaa55H
	DD	028785028H
	DD	0df7aa5dfH
	DD	08c8f038cH
	DD	0a1f859a1H
	DD	089800989H
	DD	0d171a0dH
	DD	0bfda65bfH
	DD	0e631d7e6H
	DD	042c68442H
	DD	068b8d068H
	DD	041c38241H
	DD	099b02999H
	DD	02d775a2dH
	DD	0f111e0fH
	DD	0b0cb7bb0H
	DD	054fca854H
	DD	0bbd66dbbH
	DD	0163a2c16H
_Te3	DD	06363a5c6H
	DD	07c7c84f8H
	DD	0777799eeH
	DD	07b7b8df6H
	DD	0f2f20dffH
	DD	06b6bbdd6H
	DD	06f6fb1deH
	DD	0c5c55491H
	DD	030305060H
	DD	01010302H
	DD	06767a9ceH
	DD	02b2b7d56H
	DD	0fefe19e7H
	DD	0d7d762b5H
	DD	0ababe64dH
	DD	076769aecH
	DD	0caca458fH
	DD	082829d1fH
	DD	0c9c94089H
	DD	07d7d87faH
	DD	0fafa15efH
	DD	05959ebb2H
	DD	04747c98eH
	DD	0f0f00bfbH
	DD	0adadec41H
	DD	0d4d467b3H
	DD	0a2a2fd5fH
	DD	0afafea45H
	DD	09c9cbf23H
	DD	0a4a4f753H
	DD	0727296e4H
	DD	0c0c05b9bH
	DD	0b7b7c275H
	DD	0fdfd1ce1H
	DD	09393ae3dH
	DD	026266a4cH
	DD	036365a6cH
	DD	03f3f417eH
	DD	0f7f702f5H
	DD	0cccc4f83H
	DD	034345c68H
	DD	0a5a5f451H
	DD	0e5e534d1H
	DD	0f1f108f9H
	DD	0717193e2H
	DD	0d8d873abH
	DD	031315362H
	DD	015153f2aH
	DD	04040c08H
	DD	0c7c75295H
	DD	023236546H
	DD	0c3c35e9dH
	DD	018182830H
	DD	09696a137H
	DD	05050f0aH
	DD	09a9ab52fH
	DD	0707090eH
	DD	012123624H
	DD	080809b1bH
	DD	0e2e23ddfH
	DD	0ebeb26cdH
	DD	02727694eH
	DD	0b2b2cd7fH
	DD	075759feaH
	DD	09091b12H
	DD	083839e1dH
	DD	02c2c7458H
	DD	01a1a2e34H
	DD	01b1b2d36H
	DD	06e6eb2dcH
	DD	05a5aeeb4H
	DD	0a0a0fb5bH
	DD	05252f6a4H
	DD	03b3b4d76H
	DD	0d6d661b7H
	DD	0b3b3ce7dH
	DD	029297b52H
	DD	0e3e33eddH
	DD	02f2f715eH
	DD	084849713H
	DD	05353f5a6H
	DD	0d1d168b9H
	DD	00H
	DD	0eded2cc1H
	DD	020206040H
	DD	0fcfc1fe3H
	DD	0b1b1c879H
	DD	05b5bedb6H
	DD	06a6abed4H
	DD	0cbcb468dH
	DD	0bebed967H
	DD	039394b72H
	DD	04a4ade94H
	DD	04c4cd498H
	DD	05858e8b0H
	DD	0cfcf4a85H
	DD	0d0d06bbbH
	DD	0efef2ac5H
	DD	0aaaae54fH
	DD	0fbfb16edH
	DD	04343c586H
	DD	04d4dd79aH
	DD	033335566H
	DD	085859411H
	DD	04545cf8aH
	DD	0f9f910e9H
	DD	02020604H
	DD	07f7f81feH
	DD	05050f0a0H
	DD	03c3c4478H
	DD	09f9fba25H
	DD	0a8a8e34bH
	DD	05151f3a2H
	DD	0a3a3fe5dH
	DD	04040c080H
	DD	08f8f8a05H
	DD	09292ad3fH
	DD	09d9dbc21H
	DD	038384870H
	DD	0f5f504f1H
	DD	0bcbcdf63H
	DD	0b6b6c177H
	DD	0dada75afH
	DD	021216342H
	DD	010103020H
	DD	0ffff1ae5H
	DD	0f3f30efdH
	DD	0d2d26dbfH
	DD	0cdcd4c81H
	DD	0c0c1418H
	DD	013133526H
	DD	0ecec2fc3H
	DD	05f5fe1beH
	DD	09797a235H
	DD	04444cc88H
	DD	01717392eH
	DD	0c4c45793H
	DD	0a7a7f255H
	DD	07e7e82fcH
	DD	03d3d477aH
	DD	06464acc8H
	DD	05d5de7baH
	DD	019192b32H
	DD	0737395e6H
	DD	06060a0c0H
	DD	081819819H
	DD	04f4fd19eH
	DD	0dcdc7fa3H
	DD	022226644H
	DD	02a2a7e54H
	DD	09090ab3bH
	DD	08888830bH
	DD	04646ca8cH
	DD	0eeee29c7H
	DD	0b8b8d36bH
	DD	014143c28H
	DD	0dede79a7H
	DD	05e5ee2bcH
	DD	0b0b1d16H
	DD	0dbdb76adH
	DD	0e0e03bdbH
	DD	032325664H
	DD	03a3a4e74H
	DD	0a0a1e14H
	DD	04949db92H
	DD	06060a0cH
	DD	024246c48H
	DD	05c5ce4b8H
	DD	0c2c25d9fH
	DD	0d3d36ebdH
	DD	0acacef43H
	DD	06262a6c4H
	DD	09191a839H
	DD	09595a431H
	DD	0e4e437d3H
	DD	079798bf2H
	DD	0e7e732d5H
	DD	0c8c8438bH
	DD	03737596eH
	DD	06d6db7daH
	DD	08d8d8c01H
	DD	0d5d564b1H
	DD	04e4ed29cH
	DD	0a9a9e049H
	DD	06c6cb4d8H
	DD	05656faacH
	DD	0f4f407f3H
	DD	0eaea25cfH
	DD	06565afcaH
	DD	07a7a8ef4H
	DD	0aeaee947H
	DD	08081810H
	DD	0babad56fH
	DD	0787888f0H
	DD	025256f4aH
	DD	02e2e725cH
	DD	01c1c2438H
	DD	0a6a6f157H
	DD	0b4b4c773H
	DD	0c6c65197H
	DD	0e8e823cbH
	DD	0dddd7ca1H
	DD	074749ce8H
	DD	01f1f213eH
	DD	04b4bdd96H
	DD	0bdbddc61H
	DD	08b8b860dH
	DD	08a8a850fH
	DD	0707090e0H
	DD	03e3e427cH
	DD	0b5b5c471H
	DD	06666aaccH
	DD	04848d890H
	DD	03030506H
	DD	0f6f601f7H
	DD	0e0e121cH
	DD	06161a3c2H
	DD	035355f6aH
	DD	05757f9aeH
	DD	0b9b9d069H
	DD	086869117H
	DD	0c1c15899H
	DD	01d1d273aH
	DD	09e9eb927H
	DD	0e1e138d9H
	DD	0f8f813ebH
	DD	09898b32bH
	DD	011113322H
	DD	06969bbd2H
	DD	0d9d970a9H
	DD	08e8e8907H
	DD	09494a733H
	DD	09b9bb62dH
	DD	01e1e223cH
	DD	087879215H
	DD	0e9e920c9H
	DD	0cece4987H
	DD	05555ffaaH
	DD	028287850H
	DD	0dfdf7aa5H
	DD	08c8c8f03H
	DD	0a1a1f859H
	DD	089898009H
	DD	0d0d171aH
	DD	0bfbfda65H
	DD	0e6e631d7H
	DD	04242c684H
	DD	06868b8d0H
	DD	04141c382H
	DD	09999b029H
	DD	02d2d775aH
	DD	0f0f111eH
	DD	0b0b0cb7bH
	DD	05454fca8H
	DD	0bbbbd66dH
	DD	016163a2cH
_Te4	DD	063636363H
	DD	07c7c7c7cH
	DD	077777777H
	DD	07b7b7b7bH
	DD	0f2f2f2f2H
	DD	06b6b6b6bH
	DD	06f6f6f6fH
	DD	0c5c5c5c5H
	DD	030303030H
	DD	01010101H
	DD	067676767H
	DD	02b2b2b2bH
	DD	0fefefefeH
	DD	0d7d7d7d7H
	DD	0ababababH
	DD	076767676H
	DD	0cacacacaH
	DD	082828282H
	DD	0c9c9c9c9H
	DD	07d7d7d7dH
	DD	0fafafafaH
	DD	059595959H
	DD	047474747H
	DD	0f0f0f0f0H
	DD	0adadadadH
	DD	0d4d4d4d4H
	DD	0a2a2a2a2H
	DD	0afafafafH
	DD	09c9c9c9cH
	DD	0a4a4a4a4H
	DD	072727272H
	DD	0c0c0c0c0H
	DD	0b7b7b7b7H
	DD	0fdfdfdfdH
	DD	093939393H
	DD	026262626H
	DD	036363636H
	DD	03f3f3f3fH
	DD	0f7f7f7f7H
	DD	0ccccccccH
	DD	034343434H
	DD	0a5a5a5a5H
	DD	0e5e5e5e5H
	DD	0f1f1f1f1H
	DD	071717171H
	DD	0d8d8d8d8H
	DD	031313131H
	DD	015151515H
	DD	04040404H
	DD	0c7c7c7c7H
	DD	023232323H
	DD	0c3c3c3c3H
	DD	018181818H
	DD	096969696H
	DD	05050505H
	DD	09a9a9a9aH
	DD	07070707H
	DD	012121212H
	DD	080808080H
	DD	0e2e2e2e2H
	DD	0ebebebebH
	DD	027272727H
	DD	0b2b2b2b2H
	DD	075757575H
	DD	09090909H
	DD	083838383H
	DD	02c2c2c2cH
	DD	01a1a1a1aH
	DD	01b1b1b1bH
	DD	06e6e6e6eH
	DD	05a5a5a5aH
	DD	0a0a0a0a0H
	DD	052525252H
	DD	03b3b3b3bH
	DD	0d6d6d6d6H
	DD	0b3b3b3b3H
	DD	029292929H
	DD	0e3e3e3e3H
	DD	02f2f2f2fH
	DD	084848484H
	DD	053535353H
	DD	0d1d1d1d1H
	DD	00H
	DD	0ededededH
	DD	020202020H
	DD	0fcfcfcfcH
	DD	0b1b1b1b1H
	DD	05b5b5b5bH
	DD	06a6a6a6aH
	DD	0cbcbcbcbH
	DD	0bebebebeH
	DD	039393939H
	DD	04a4a4a4aH
	DD	04c4c4c4cH
	DD	058585858H
	DD	0cfcfcfcfH
	DD	0d0d0d0d0H
	DD	0efefefefH
	DD	0aaaaaaaaH
	DD	0fbfbfbfbH
	DD	043434343H
	DD	04d4d4d4dH
	DD	033333333H
	DD	085858585H
	DD	045454545H
	DD	0f9f9f9f9H
	DD	02020202H
	DD	07f7f7f7fH
	DD	050505050H
	DD	03c3c3c3cH
	DD	09f9f9f9fH
	DD	0a8a8a8a8H
	DD	051515151H
	DD	0a3a3a3a3H
	DD	040404040H
	DD	08f8f8f8fH
	DD	092929292H
	DD	09d9d9d9dH
	DD	038383838H
	DD	0f5f5f5f5H
	DD	0bcbcbcbcH
	DD	0b6b6b6b6H
	DD	0dadadadaH
	DD	021212121H
	DD	010101010H
	DD	0ffffffffH
	DD	0f3f3f3f3H
	DD	0d2d2d2d2H
	DD	0cdcdcdcdH
	DD	0c0c0c0cH
	DD	013131313H
	DD	0ececececH
	DD	05f5f5f5fH
	DD	097979797H
	DD	044444444H
	DD	017171717H
	DD	0c4c4c4c4H
	DD	0a7a7a7a7H
	DD	07e7e7e7eH
	DD	03d3d3d3dH
	DD	064646464H
	DD	05d5d5d5dH
	DD	019191919H
	DD	073737373H
	DD	060606060H
	DD	081818181H
	DD	04f4f4f4fH
	DD	0dcdcdcdcH
	DD	022222222H
	DD	02a2a2a2aH
	DD	090909090H
	DD	088888888H
	DD	046464646H
	DD	0eeeeeeeeH
	DD	0b8b8b8b8H
	DD	014141414H
	DD	0dedededeH
	DD	05e5e5e5eH
	DD	0b0b0b0bH
	DD	0dbdbdbdbH
	DD	0e0e0e0e0H
	DD	032323232H
	DD	03a3a3a3aH
	DD	0a0a0a0aH
	DD	049494949H
	DD	06060606H
	DD	024242424H
	DD	05c5c5c5cH
	DD	0c2c2c2c2H
	DD	0d3d3d3d3H
	DD	0acacacacH
	DD	062626262H
	DD	091919191H
	DD	095959595H
	DD	0e4e4e4e4H
	DD	079797979H
	DD	0e7e7e7e7H
	DD	0c8c8c8c8H
	DD	037373737H
	DD	06d6d6d6dH
	DD	08d8d8d8dH
	DD	0d5d5d5d5H
	DD	04e4e4e4eH
	DD	0a9a9a9a9H
	DD	06c6c6c6cH
	DD	056565656H
	DD	0f4f4f4f4H
	DD	0eaeaeaeaH
	DD	065656565H
	DD	07a7a7a7aH
	DD	0aeaeaeaeH
	DD	08080808H
	DD	0babababaH
	DD	078787878H
	DD	025252525H
	DD	02e2e2e2eH
	DD	01c1c1c1cH
	DD	0a6a6a6a6H
	DD	0b4b4b4b4H
	DD	0c6c6c6c6H
	DD	0e8e8e8e8H
	DD	0ddddddddH
	DD	074747474H
	DD	01f1f1f1fH
	DD	04b4b4b4bH
	DD	0bdbdbdbdH
	DD	08b8b8b8bH
	DD	08a8a8a8aH
	DD	070707070H
	DD	03e3e3e3eH
	DD	0b5b5b5b5H
	DD	066666666H
	DD	048484848H
	DD	03030303H
	DD	0f6f6f6f6H
	DD	0e0e0e0eH
	DD	061616161H
	DD	035353535H
	DD	057575757H
	DD	0b9b9b9b9H
	DD	086868686H
	DD	0c1c1c1c1H
	DD	01d1d1d1dH
	DD	09e9e9e9eH
	DD	0e1e1e1e1H
	DD	0f8f8f8f8H
	DD	098989898H
	DD	011111111H
	DD	069696969H
	DD	0d9d9d9d9H
	DD	08e8e8e8eH
	DD	094949494H
	DD	09b9b9b9bH
	DD	01e1e1e1eH
	DD	087878787H
	DD	0e9e9e9e9H
	DD	0cecececeH
	DD	055555555H
	DD	028282828H
	DD	0dfdfdfdfH
	DD	08c8c8c8cH
	DD	0a1a1a1a1H
	DD	089898989H
	DD	0d0d0d0dH
	DD	0bfbfbfbfH
	DD	0e6e6e6e6H
	DD	042424242H
	DD	068686868H
	DD	041414141H
	DD	099999999H
	DD	02d2d2d2dH
	DD	0f0f0f0fH
	DD	0b0b0b0b0H
	DD	054545454H
	DD	0bbbbbbbbH
	DD	016161616H
CONST	ENDS
_DATA	SEGMENT
_test_data DD	010H
	DB	00H
	DB	00H
	DB	00H
	DB	00H
	DB	00H
	DB	00H
	DB	00H
	DB	00H
	DB	00H
	DB	00H
	DB	00H
	DB	00H
	DB	00H
	DB	00H
	DB	00H
	DB	00H
	ORG $+16
	DB	00H
	DB	00H
	DB	00H
	DB	00H
	DB	00H
	DB	00H
	DB	00H
	DB	00H
	DB	00H
	DB	00H
	DB	00H
	DB	00H
	DB	00H
	DB	00H
	DB	00H
	DB	00H
	DB	00H
	DB	00H
	DB	00H
	DB	00H
	DB	00H
	DB	00H
	DB	00H
	DB	00H
	DB	00H
	DB	00H
	DB	00H
	DB	00H
	DB	00H
	DB	00H
	DB	00H
	DB	00H
	DB	00H
	DB	00H
	DB	00H
	DB	00H
	DB	00H
	DB	00H
	DB	00H
	DB	00H
	DB	00H
	DB	00H
	DB	00H
	DB	00H
	DB	00H
	DB	00H
	DB	00H
	DB	00H
	DB	00H
	DB	00H
	DB	00H
	DB	00H
	DB	00H
	DB	00H
	DB	00H
	DB	00H
	DB	00H
	DB	00H
	DB	00H
	DB	00H
	DB	00H
	DB	00H
	DB	00H
	DB	00H
	DB	00H
	DB	00H
	DB	00H
	DB	00H
	DB	00H
	DB	00H
	DB	00H
	DB	00H
	DB	00H
	DB	00H
	DB	00H
	DB	00H
	DB	00H
	DB	00H
	DB	00H
	DB	00H
	DB	00H
	DB	00H
	DB	00H
	DB	00H
	DB	00H
	DB	00H
	DB	00H
	DB	00H
	DB	00H
	DB	00H
	DB	00H
	DB	00H
	DB	00H
	DB	00H
	DB	00H
	DB	00H
	DB	00H
	DB	00H
	DB	00H
	DB	00H
	DB	00H
	DB	00H
	DB	00H
	DB	00H
	DB	00H
	DB	00H
	DB	00H
	DB	00H
	DB	00H
	DB	00H
	DB	00H
	DB	00H
	DB	00H
	DB	00H
	DB	00H
	DB	00H
	DB	00H
	DB	00H
	DB	00H
	DB	00H
	DB	00H
	DB	00H
	DB	00H
	DB	00H
	DB	00H
	DB	00H
	DB	00H
	DB	00H
	DB	066H
	DB	0e9H
	DB	04bH
	DB	0d4H
	DB	0efH
	DB	08aH
	DB	02cH
	DB	03bH
	DB	088H
	DB	04cH
	DB	0faH
	DB	059H
	DB	0caH
	DB	034H
	DB	02bH
	DB	02eH
	DB	066H
	DB	0e9H
	DB	04bH
	DB	0d4H
	DB	0efH
	DB	08aH
	DB	02cH
	DB	03bH
	DB	088H
	DB	04cH
	DB	0faH
	DB	059H
	DB	0caH
	DB	034H
	DB	02bH
	DB	02eH
	DB	066H
	DB	0e9H
	DB	04bH
	DB	0d4H
	DB	0efH
	DB	08aH
	DB	02cH
	DB	03bH
	DB	088H
	DB	04cH
	DB	0faH
	DB	059H
	DB	0caH
	DB	034H
	DB	02bH
	DB	02eH
	DB	066H
	DB	0e9H
	DB	04bH
	DB	0d4H
	DB	0efH
	DB	08aH
	DB	02cH
	DB	03bH
	DB	088H
	DB	04cH
	DB	0faH
	DB	059H
	DB	0caH
	DB	034H
	DB	02bH
	DB	02eH
	DB	066H
	DB	0e9H
	DB	04bH
	DB	0d4H
	DB	0efH
	DB	08aH
	DB	02cH
	DB	03bH
	DB	088H
	DB	04cH
	DB	0faH
	DB	059H
	DB	0caH
	DB	034H
	DB	02bH
	DB	02eH
	DB	066H
	DB	0e9H
	DB	04bH
	DB	0d4H
	DB	0efH
	DB	08aH
	DB	02cH
	DB	03bH
	DB	088H
	DB	04cH
	DB	0faH
	DB	059H
	DB	0caH
	DB	034H
	DB	02bH
	DB	02eH
	DB	066H
	DB	0e9H
	DB	04bH
	DB	0d4H
	DB	0efH
	DB	08aH
	DB	02cH
	DB	03bH
	DB	088H
	DB	04cH
	DB	0faH
	DB	059H
	DB	0caH
	DB	034H
	DB	02bH
	DB	02eH
	DB	066H
	DB	0e9H
	DB	04bH
	DB	0d4H
	DB	0efH
	DB	08aH
	DB	02cH
	DB	03bH
	DB	088H
	DB	04cH
	DB	0faH
	DB	059H
	DB	0caH
	DB	034H
	DB	02bH
	DB	02eH
	DD	010H
	DB	0ffH
	DB	0ffH
	DB	0ffH
	DB	0ffH
	DB	0ffH
	DB	0ffH
	DB	0ffH
	DB	0ffH
	DB	0ffH
	DB	0ffH
	DB	0ffH
	DB	0ffH
	DB	0ffH
	DB	0ffH
	DB	0ffH
	DB	0ffH
	ORG $+16
	DB	00H
	DB	00H
	DB	00H
	DB	00H
	DB	00H
	DB	00H
	DB	00H
	DB	00H
	DB	00H
	DB	00H
	DB	00H
	DB	00H
	DB	00H
	DB	00H
	DB	00H
	DB	00H
	DB	00H
	DB	00H
	DB	00H
	DB	00H
	DB	00H
	DB	00H
	DB	00H
	DB	00H
	DB	00H
	DB	00H
	DB	00H
	DB	00H
	DB	00H
	DB	00H
	DB	00H
	DB	00H
	DB	00H
	DB	00H
	DB	00H
	DB	00H
	DB	00H
	DB	00H
	DB	00H
	DB	00H
	DB	00H
	DB	00H
	DB	00H
	DB	00H
	DB	00H
	DB	00H
	DB	00H
	DB	00H
	DB	00H
	DB	00H
	DB	00H
	DB	00H
	DB	00H
	DB	00H
	DB	00H
	DB	00H
	DB	00H
	DB	00H
	DB	00H
	DB	00H
	DB	00H
	DB	00H
	DB	00H
	DB	00H
	DB	00H
	DB	00H
	DB	00H
	DB	00H
	DB	00H
	DB	00H
	DB	00H
	DB	00H
	DB	00H
	DB	00H
	DB	00H
	DB	00H
	DB	00H
	DB	00H
	DB	00H
	DB	00H
	DB	00H
	DB	00H
	DB	00H
	DB	00H
	DB	00H
	DB	00H
	DB	00H
	DB	00H
	DB	00H
	DB	00H
	DB	00H
	DB	00H
	DB	00H
	DB	00H
	DB	00H
	DB	00H
	DB	00H
	DB	00H
	DB	00H
	DB	00H
	DB	00H
	DB	00H
	DB	00H
	DB	00H
	DB	00H
	DB	00H
	DB	00H
	DB	00H
	DB	00H
	DB	00H
	DB	00H
	DB	00H
	DB	00H
	DB	00H
	DB	00H
	DB	00H
	DB	00H
	DB	00H
	DB	00H
	DB	00H
	DB	00H
	DB	00H
	DB	00H
	DB	00H
	DB	00H
	DB	00H
	DB	00H
	DB	00H
	DB	0a1H
	DB	0f6H
	DB	025H
	DB	08cH
	DB	087H
	DB	07dH
	DB	05fH
	DB	0cdH
	DB	089H
	DB	064H
	DB	048H
	DB	045H
	DB	038H
	DB	0bfH
	DB	0c9H
	DB	02cH
	DB	0a1H
	DB	0f6H
	DB	025H
	DB	08cH
	DB	087H
	DB	07dH
	DB	05fH
	DB	0cdH
	DB	089H
	DB	064H
	DB	048H
	DB	045H
	DB	038H
	DB	0bfH
	DB	0c9H
	DB	02cH
	DB	0a1H
	DB	0f6H
	DB	025H
	DB	08cH
	DB	087H
	DB	07dH
	DB	05fH
	DB	0cdH
	DB	089H
	DB	064H
	DB	048H
	DB	045H
	DB	038H
	DB	0bfH
	DB	0c9H
	DB	02cH
	DB	0a1H
	DB	0f6H
	DB	025H
	DB	08cH
	DB	087H
	DB	07dH
	DB	05fH
	DB	0cdH
	DB	089H
	DB	064H
	DB	048H
	DB	045H
	DB	038H
	DB	0bfH
	DB	0c9H
	DB	02cH
	DB	0a1H
	DB	0f6H
	DB	025H
	DB	08cH
	DB	087H
	DB	07dH
	DB	05fH
	DB	0cdH
	DB	089H
	DB	064H
	DB	048H
	DB	045H
	DB	038H
	DB	0bfH
	DB	0c9H
	DB	02cH
	DB	0a1H
	DB	0f6H
	DB	025H
	DB	08cH
	DB	087H
	DB	07dH
	DB	05fH
	DB	0cdH
	DB	089H
	DB	064H
	DB	048H
	DB	045H
	DB	038H
	DB	0bfH
	DB	0c9H
	DB	02cH
	DB	0a1H
	DB	0f6H
	DB	025H
	DB	08cH
	DB	087H
	DB	07dH
	DB	05fH
	DB	0cdH
	DB	089H
	DB	064H
	DB	048H
	DB	045H
	DB	038H
	DB	0bfH
	DB	0c9H
	DB	02cH
	DB	0a1H
	DB	0f6H
	DB	025H
	DB	08cH
	DB	087H
	DB	07dH
	DB	05fH
	DB	0cdH
	DB	089H
	DB	064H
	DB	048H
	DB	045H
	DB	038H
	DB	0bfH
	DB	0c9H
	DB	02cH
	DD	010H
	DB	00H
	DB	01H
	DB	02H
	DB	03H
	DB	04H
	DB	05H
	DB	06H
	DB	07H
	DB	08H
	DB	09H
	DB	0aH
	DB	0bH
	DB	0cH
	DB	0dH
	DB	0eH
	DB	0fH
	ORG $+16
	DB	00H
	DB	00H
	DB	00H
	DB	00H
	DB	00H
	DB	00H
	DB	00H
	DB	00H
	DB	00H
	DB	00H
	DB	00H
	DB	00H
	DB	00H
	DB	00H
	DB	00H
	DB	00H
	DB	00H
	DB	00H
	DB	00H
	DB	00H
	DB	00H
	DB	00H
	DB	00H
	DB	00H
	DB	00H
	DB	00H
	DB	00H
	DB	00H
	DB	00H
	DB	00H
	DB	00H
	DB	00H
	DB	00H
	DB	00H
	DB	00H
	DB	00H
	DB	00H
	DB	00H
	DB	00H
	DB	00H
	DB	00H
	DB	00H
	DB	00H
	DB	00H
	DB	00H
	DB	00H
	DB	00H
	DB	00H
	DB	00H
	DB	00H
	DB	00H
	DB	00H
	DB	00H
	DB	00H
	DB	00H
	DB	00H
	DB	00H
	DB	00H
	DB	00H
	DB	00H
	DB	00H
	DB	00H
	DB	00H
	DB	00H
	DB	00H
	DB	00H
	DB	00H
	DB	00H
	DB	00H
	DB	00H
	DB	00H
	DB	00H
	DB	00H
	DB	00H
	DB	00H
	DB	00H
	DB	00H
	DB	00H
	DB	00H
	DB	00H
	DB	00H
	DB	00H
	DB	00H
	DB	00H
	DB	00H
	DB	00H
	DB	00H
	DB	00H
	DB	00H
	DB	00H
	DB	00H
	DB	00H
	DB	00H
	DB	00H
	DB	00H
	DB	00H
	DB	00H
	DB	00H
	DB	00H
	DB	00H
	DB	00H
	DB	00H
	DB	00H
	DB	00H
	DB	00H
	DB	00H
	DB	00H
	DB	00H
	DB	00H
	DB	00H
	DB	00H
	DB	00H
	DB	00H
	DB	00H
	DB	00H
	DB	00H
	DB	00H
	DB	00H
	DB	00H
	DB	00H
	DB	00H
	DB	00H
	DB	00H
	DB	00H
	DB	00H
	DB	00H
	DB	00H
	DB	00H
	DB	0c6H
	DB	0a1H
	DB	03bH
	DB	037H
	DB	087H
	DB	08fH
	DB	05bH
	DB	082H
	DB	06fH
	DB	04fH
	DB	081H
	DB	062H
	DB	0a1H
	DB	0c8H
	DB	0d8H
	DB	079H
	DB	0c6H
	DB	0a1H
	DB	03bH
	DB	037H
	DB	087H
	DB	08fH
	DB	05bH
	DB	082H
	DB	06fH
	DB	04fH
	DB	081H
	DB	062H
	DB	0a1H
	DB	0c8H
	DB	0d8H
	DB	079H
	DB	0c6H
	DB	0a1H
	DB	03bH
	DB	037H
	DB	087H
	DB	08fH
	DB	05bH
	DB	082H
	DB	06fH
	DB	04fH
	DB	081H
	DB	062H
	DB	0a1H
	DB	0c8H
	DB	0d8H
	DB	079H
	DB	0c6H
	DB	0a1H
	DB	03bH
	DB	037H
	DB	087H
	DB	08fH
	DB	05bH
	DB	082H
	DB	06fH
	DB	04fH
	DB	081H
	DB	062H
	DB	0a1H
	DB	0c8H
	DB	0d8H
	DB	079H
	DB	0c6H
	DB	0a1H
	DB	03bH
	DB	037H
	DB	087H
	DB	08fH
	DB	05bH
	DB	082H
	DB	06fH
	DB	04fH
	DB	081H
	DB	062H
	DB	0a1H
	DB	0c8H
	DB	0d8H
	DB	079H
	DB	0c6H
	DB	0a1H
	DB	03bH
	DB	037H
	DB	087H
	DB	08fH
	DB	05bH
	DB	082H
	DB	06fH
	DB	04fH
	DB	081H
	DB	062H
	DB	0a1H
	DB	0c8H
	DB	0d8H
	DB	079H
	DB	0c6H
	DB	0a1H
	DB	03bH
	DB	037H
	DB	087H
	DB	08fH
	DB	05bH
	DB	082H
	DB	06fH
	DB	04fH
	DB	081H
	DB	062H
	DB	0a1H
	DB	0c8H
	DB	0d8H
	DB	079H
	DB	0c6H
	DB	0a1H
	DB	03bH
	DB	037H
	DB	087H
	DB	08fH
	DB	05bH
	DB	082H
	DB	06fH
	DB	04fH
	DB	081H
	DB	062H
	DB	0a1H
	DB	0c8H
	DB	0d8H
	DB	079H
	DD	010H
	DB	00H
	DB	00H
	DB	00H
	DB	00H
	DB	00H
	DB	00H
	DB	00H
	DB	00H
	DB	00H
	DB	00H
	DB	00H
	DB	00H
	DB	00H
	DB	00H
	DB	00H
	DB	00H
	ORG $+16
	DB	00H
	DB	01H
	DB	02H
	DB	03H
	DB	04H
	DB	05H
	DB	06H
	DB	07H
	DB	08H
	DB	09H
	DB	0aH
	DB	0bH
	DB	0cH
	DB	0dH
	DB	0eH
	DB	0fH
	DB	010H
	DB	011H
	DB	012H
	DB	013H
	DB	014H
	DB	015H
	DB	016H
	DB	017H
	DB	018H
	DB	019H
	DB	01aH
	DB	01bH
	DB	01cH
	DB	01dH
	DB	01eH
	DB	01fH
	DB	020H
	DB	021H
	DB	022H
	DB	023H
	DB	024H
	DB	025H
	DB	026H
	DB	027H
	DB	028H
	DB	029H
	DB	02aH
	DB	02bH
	DB	02cH
	DB	02dH
	DB	02eH
	DB	02fH
	DB	030H
	DB	031H
	DB	032H
	DB	033H
	DB	034H
	DB	035H
	DB	036H
	DB	037H
	DB	038H
	DB	039H
	DB	03aH
	DB	03bH
	DB	03cH
	DB	03dH
	DB	03eH
	DB	03fH
	DB	040H
	DB	041H
	DB	042H
	DB	043H
	DB	044H
	DB	045H
	DB	046H
	DB	047H
	DB	048H
	DB	049H
	DB	04aH
	DB	04bH
	DB	04cH
	DB	04dH
	DB	04eH
	DB	04fH
	DB	050H
	DB	051H
	DB	052H
	DB	053H
	DB	054H
	DB	055H
	DB	056H
	DB	057H
	DB	058H
	DB	059H
	DB	05aH
	DB	05bH
	DB	05cH
	DB	05dH
	DB	05eH
	DB	05fH
	DB	060H
	DB	061H
	DB	062H
	DB	063H
	DB	064H
	DB	065H
	DB	066H
	DB	067H
	DB	068H
	DB	069H
	DB	06aH
	DB	06bH
	DB	06cH
	DB	06dH
	DB	06eH
	DB	06fH
	DB	070H
	DB	071H
	DB	072H
	DB	073H
	DB	074H
	DB	075H
	DB	076H
	DB	077H
	DB	078H
	DB	079H
	DB	07aH
	DB	07bH
	DB	07cH
	DB	07dH
	DB	07eH
	DB	07fH
	DB	07aH
	DB	0caH
	DB	0fH
	DB	0d9H
	DB	0bcH
	DB	0d6H
	DB	0ecH
	DB	07cH
	DB	09fH
	DB	097H
	DB	046H
	DB	066H
	DB	016H
	DB	0e6H
	DB	0a2H
	DB	082H
	DB	035H
	DB	08dH
	DB	05bH
	DB	059H
	DB	0adH
	DB	0b6H
	DB	05dH
	DB	04H
	DB	010H
	DB	076H
	DB	076H
	DB	058H
	DB	06fH
	DB	047H
	DB	034H
	DB	046H
	DB	07aH
	DB	0e4H
	DB	0a1H
	DB	0a5H
	DB	047H
	DB	063H
	DB	0eaH
	DB	0bcH
	DB	0c7H
	DB	03cH
	DB	042H
	DB	0aeH
	DB	0caH
	DB	094H
	DB	0edH
	DB	081H
	DB	0e7H
	DB	020H
	DB	04fH
	DB	0c0H
	DB	0cfH
	DB	07eH
	DB	0f9H
	DB	0b1H
	DB	03aH
	DB	044H
	DB	0d5H
	DB	049H
	DB	0aaH
	DB	0acH
	DB	025H
	DB	0bfH
	DB	021H
	DB	0d8H
	DB	014H
	DB	0c9H
	DB	0d8H
	DB	0e9H
	DB	0c2H
	DB	0c0H
	DB	027H
	DB	0fdH
	DB	0b8H
	DB	016H
	DB	097H
	DB	0e9H
	DB	06cH
	DB	03aH
	DB	020H
	DB	02cH
	DB	011H
	DB	069H
	DB	02eH
	DB	065H
	DB	0c9H
	DB	09bH
	DB	0cbH
	DB	07bH
	DB	0a9H
	DB	0bH
	DB	01bH
	DB	061H
	DB	052H
	DB	04aH
	DB	06bH
	DB	0f1H
	DB	079H
	DB	0c5H
	DB	040H
	DB	06H
	DB	0c2H
	DB	0b2H
	DB	0d4H
	DB	024H
	DB	0c8H
	DB	04aH
	DB	0fbH
	DB	0c8H
	DB	056H
	DB	0bbH
	DB	0ddH
	DB	07bH
	DB	0d3H
	DB	0c3H
	DB	0bH
	DB	09dH
	DB	03H
	DB	0adH
	DB	043H
	DB	0c2H
	DB	01eH
	DB	06fH
	DB	029H
	DB	04H
	DB	02H
	DB	0baH
	DD	010H
	DB	0ffH
	DB	0ffH
	DB	0ffH
	DB	0ffH
	DB	0ffH
	DB	0ffH
	DB	0ffH
	DB	0ffH
	DB	0ffH
	DB	0ffH
	DB	0ffH
	DB	0ffH
	DB	0ffH
	DB	0ffH
	DB	0ffH
	DB	0ffH
	ORG $+16
	DB	00H
	DB	01H
	DB	02H
	DB	03H
	DB	04H
	DB	05H
	DB	06H
	DB	07H
	DB	08H
	DB	09H
	DB	0aH
	DB	0bH
	DB	0cH
	DB	0dH
	DB	0eH
	DB	0fH
	DB	010H
	DB	011H
	DB	012H
	DB	013H
	DB	014H
	DB	015H
	DB	016H
	DB	017H
	DB	018H
	DB	019H
	DB	01aH
	DB	01bH
	DB	01cH
	DB	01dH
	DB	01eH
	DB	01fH
	DB	020H
	DB	021H
	DB	022H
	DB	023H
	DB	024H
	DB	025H
	DB	026H
	DB	027H
	DB	028H
	DB	029H
	DB	02aH
	DB	02bH
	DB	02cH
	DB	02dH
	DB	02eH
	DB	02fH
	DB	030H
	DB	031H
	DB	032H
	DB	033H
	DB	034H
	DB	035H
	DB	036H
	DB	037H
	DB	038H
	DB	039H
	DB	03aH
	DB	03bH
	DB	03cH
	DB	03dH
	DB	03eH
	DB	03fH
	DB	040H
	DB	041H
	DB	042H
	DB	043H
	DB	044H
	DB	045H
	DB	046H
	DB	047H
	DB	048H
	DB	049H
	DB	04aH
	DB	04bH
	DB	04cH
	DB	04dH
	DB	04eH
	DB	04fH
	DB	050H
	DB	051H
	DB	052H
	DB	053H
	DB	054H
	DB	055H
	DB	056H
	DB	057H
	DB	058H
	DB	059H
	DB	05aH
	DB	05bH
	DB	05cH
	DB	05dH
	DB	05eH
	DB	05fH
	DB	060H
	DB	061H
	DB	062H
	DB	063H
	DB	064H
	DB	065H
	DB	066H
	DB	067H
	DB	068H
	DB	069H
	DB	06aH
	DB	06bH
	DB	06cH
	DB	06dH
	DB	06eH
	DB	06fH
	DB	070H
	DB	071H
	DB	072H
	DB	073H
	DB	074H
	DB	075H
	DB	076H
	DB	077H
	DB	078H
	DB	079H
	DB	07aH
	DB	07bH
	DB	07cH
	DB	07dH
	DB	07eH
	DB	07fH
	DB	066H
	DB	0e6H
	DB	044H
	DB	0bfH
	DB	0e7H
	DB	06cH
	DB	063H
	DB	075H
	DB	0f2H
	DB	07bH
	DB	03aH
	DB	088H
	DB	0fdH
	DB	0dcH
	DB	013H
	DB	0cbH
	DB	0cfH
	DB	03eH
	DB	0cH
	DB	015H
	DB	0afH
	DB	014H
	DB	09dH
	DB	0e6H
	DB	065H
	DB	098H
	DB	05fH
	DB	099H
	DB	015H
	DB	02bH
	DB	016H
	DB	0dH
	DB	0b9H
	DB	00H
	DB	0b4H
	DB	04H
	DB	0a8H
	DB	06fH
	DB	0b9H
	DB	06fH
	DB	0a3H
	DB	084H
	DB	0a4H
	DB	07bH
	DB	0faH
	DB	092H
	DB	045H
	DB	0afH
	DB	0aeH
	DB	06H
	DB	047H
	DB	068H
	DB	0a8H
	DB	03bH
	DB	044H
	DB	0dH
	DB	041H
	DB	0cH
	DB	0a8H
	DB	090H
	DB	077H
	DB	07H
	DB	041H
	DB	0f4H
	DB	0e5H
	DB	039H
	DB	075H
	DB	0dfH
	DB	07H
	DB	0baH
	DB	05eH
	DB	024H
	DB	051H
	DB	096H
	DB	014H
	DB	076H
	DB	0c0H
	DB	0f9H
	DB	06eH
	DB	0b3H
	DB	0c7H
	DB	05cH
	DB	02fH
	DB	0d4H
	DB	0f4H
	DB	094H
	DB	090H
	DB	08aH
	DB	039H
	DB	0dfH
	DB	0d1H
	DB	06cH
	DB	0afH
	DB	0fbH
	DB	05aH
	DB	0efH
	DB	0eeH
	DB	0fcH
	DB	043H
	DB	069H
	DB	06dH
	DB	0dfH
	DB	0d4H
	DB	08H
	DB	0daH
	DB	01H
	DB	013H
	DB	0fdH
	DB	054H
	DB	0fcH
	DB	065H
	DB	038H
	DB	061H
	DB	03aH
	DB	0ecH
	DB	099H
	DB	0ddH
	DB	0b0H
	DB	0c1H
	DB	076H
	DB	0a7H
	DB	015H
	DB	015H
	DB	0c4H
	DB	0d4H
	DB	032H
	DB	011H
	DB	0eaH
	DD	010H
	DB	00H
	DB	01H
	DB	02H
	DB	03H
	DB	04H
	DB	05H
	DB	06H
	DB	07H
	DB	08H
	DB	09H
	DB	0aH
	DB	0bH
	DB	0cH
	DB	0dH
	DB	0eH
	DB	0fH
	ORG $+16
	DB	00H
	DB	01H
	DB	02H
	DB	03H
	DB	04H
	DB	05H
	DB	06H
	DB	07H
	DB	08H
	DB	09H
	DB	0aH
	DB	0bH
	DB	0cH
	DB	0dH
	DB	0eH
	DB	0fH
	DB	010H
	DB	011H
	DB	012H
	DB	013H
	DB	014H
	DB	015H
	DB	016H
	DB	017H
	DB	018H
	DB	019H
	DB	01aH
	DB	01bH
	DB	01cH
	DB	01dH
	DB	01eH
	DB	01fH
	DB	020H
	DB	021H
	DB	022H
	DB	023H
	DB	024H
	DB	025H
	DB	026H
	DB	027H
	DB	028H
	DB	029H
	DB	02aH
	DB	02bH
	DB	02cH
	DB	02dH
	DB	02eH
	DB	02fH
	DB	030H
	DB	031H
	DB	032H
	DB	033H
	DB	034H
	DB	035H
	DB	036H
	DB	037H
	DB	038H
	DB	039H
	DB	03aH
	DB	03bH
	DB	03cH
	DB	03dH
	DB	03eH
	DB	03fH
	DB	040H
	DB	041H
	DB	042H
	DB	043H
	DB	044H
	DB	045H
	DB	046H
	DB	047H
	DB	048H
	DB	049H
	DB	04aH
	DB	04bH
	DB	04cH
	DB	04dH
	DB	04eH
	DB	04fH
	DB	050H
	DB	051H
	DB	052H
	DB	053H
	DB	054H
	DB	055H
	DB	056H
	DB	057H
	DB	058H
	DB	059H
	DB	05aH
	DB	05bH
	DB	05cH
	DB	05dH
	DB	05eH
	DB	05fH
	DB	060H
	DB	061H
	DB	062H
	DB	063H
	DB	064H
	DB	065H
	DB	066H
	DB	067H
	DB	068H
	DB	069H
	DB	06aH
	DB	06bH
	DB	06cH
	DB	06dH
	DB	06eH
	DB	06fH
	DB	070H
	DB	071H
	DB	072H
	DB	073H
	DB	074H
	DB	075H
	DB	076H
	DB	077H
	DB	078H
	DB	079H
	DB	07aH
	DB	07bH
	DB	07cH
	DB	07dH
	DB	07eH
	DB	07fH
	DB	0aH
	DB	094H
	DB	0bH
	DB	0b5H
	DB	041H
	DB	06eH
	DB	0f0H
	DB	045H
	DB	0f1H
	DB	0c3H
	DB	094H
	DB	058H
	DB	0c6H
	DB	053H
	DB	0eaH
	DB	05aH
	DB	07H
	DB	0feH
	DB	0efH
	DB	074H
	DB	0e1H
	DB	0d5H
	DB	03H
	DB	06eH
	DB	090H
	DB	0eH
	DB	0eeH
	DB	011H
	DB	08eH
	DB	094H
	DB	092H
	DB	093H
	DB	05bH
	DB	0e8H
	DB	07eH
	DB	02eH
	DB	05bH
	DB	044H
	DB	07cH
	DB	094H
	DB	04bH
	DB	021H
	DB	0c9H
	DB	0afH
	DB	077H
	DB	056H
	DB	0c0H
	DB	0d8H
	DB	03H
	DB	0f2H
	DB	0c3H
	DB	0bdH
	DB	0caH
	DB	082H
	DB	06bH
	DB	0f0H
	DB	082H
	DB	0d7H
	DB	0cfH
	DB	0b0H
	DB	035H
	DB	0cdH
	DB	0b8H
	DB	0c1H
	DB	0d5H
	DB	033H
	DB	0e5H
	DB	09bH
	DB	045H
	DB	0a1H
	DB	053H
	DB	0edH
	DB	07eH
	DB	05eH
	DB	09cH
	DB	05dH
	DB	0fcH
	DB	0fdH
	DB	04aH
	DB	0aaH
	DB	03eH
	DB	0f0H
	DB	0b1H
	DB	0a5H
	DB	0e3H
	DB	05H
	DB	09dH
	DB	0abH
	DB	021H
	DB	0fcH
	DB	0e2H
	DB	03aH
	DB	07bH
	DB	061H
	DB	0c4H
	DB	0caH
	DB	0adH
	DB	0deH
	DB	068H
	DB	0f7H
	DB	0adH
	DB	049H
	DB	072H
	DB	068H
	DB	0d3H
	DB	01aH
	DB	0dH
	DB	0ddH
	DB	05cH
	DB	074H
	DB	0b0H
	DB	08fH
	DB	03dH
	DB	02dH
	DB	090H
	DB	0dcH
	DB	0efH
	DB	049H
	DB	0d3H
	DB	028H
	DB	022H
	DB	029H
	DB	08bH
	DB	087H
	DB	08fH
	DB	081H
	DB	055H
	DB	081H
	DD	018H
	DB	00H
	DB	00H
	DB	00H
	DB	00H
	DB	00H
	DB	00H
	DB	00H
	DB	00H
	DB	00H
	DB	00H
	DB	00H
	DB	00H
	DB	00H
	DB	00H
	DB	00H
	DB	00H
	DB	00H
	DB	00H
	DB	00H
	DB	00H
	DB	00H
	DB	00H
	DB	00H
	DB	00H
	ORG $+8
	DB	00H
	DB	00H
	DB	00H
	DB	00H
	DB	00H
	DB	00H
	DB	00H
	DB	00H
	DB	00H
	DB	00H
	DB	00H
	DB	00H
	DB	00H
	DB	00H
	DB	00H
	DB	00H
	DB	00H
	DB	00H
	DB	00H
	DB	00H
	DB	00H
	DB	00H
	DB	00H
	DB	00H
	DB	00H
	DB	00H
	DB	00H
	DB	00H
	DB	00H
	DB	00H
	DB	00H
	DB	00H
	DB	00H
	DB	00H
	DB	00H
	DB	00H
	DB	00H
	DB	00H
	DB	00H
	DB	00H
	DB	00H
	DB	00H
	DB	00H
	DB	00H
	DB	00H
	DB	00H
	DB	00H
	DB	00H
	DB	00H
	DB	00H
	DB	00H
	DB	00H
	DB	00H
	DB	00H
	DB	00H
	DB	00H
	DB	00H
	DB	00H
	DB	00H
	DB	00H
	DB	00H
	DB	00H
	DB	00H
	DB	00H
	DB	00H
	DB	00H
	DB	00H
	DB	00H
	DB	00H
	DB	00H
	DB	00H
	DB	00H
	DB	00H
	DB	00H
	DB	00H
	DB	00H
	DB	00H
	DB	00H
	DB	00H
	DB	00H
	DB	00H
	DB	00H
	DB	00H
	DB	00H
	DB	00H
	DB	00H
	DB	00H
	DB	00H
	DB	00H
	DB	00H
	DB	00H
	DB	00H
	DB	00H
	DB	00H
	DB	00H
	DB	00H
	DB	00H
	DB	00H
	DB	00H
	DB	00H
	DB	00H
	DB	00H
	DB	00H
	DB	00H
	DB	00H
	DB	00H
	DB	00H
	DB	00H
	DB	00H
	DB	00H
	DB	00H
	DB	00H
	DB	00H
	DB	00H
	DB	00H
	DB	00H
	DB	00H
	DB	00H
	DB	00H
	DB	00H
	DB	00H
	DB	00H
	DB	00H
	DB	00H
	DB	00H
	DB	00H
	DB	00H
	DB	00H
	DB	0aaH
	DB	0e0H
	DB	069H
	DB	092H
	DB	0acH
	DB	0bfH
	DB	052H
	DB	0a3H
	DB	0e8H
	DB	0f4H
	DB	0a9H
	DB	06eH
	DB	0c9H
	DB	030H
	DB	0bH
	DB	0d7H
	DB	0aaH
	DB	0e0H
	DB	069H
	DB	092H
	DB	0acH
	DB	0bfH
	DB	052H
	DB	0a3H
	DB	0e8H
	DB	0f4H
	DB	0a9H
	DB	06eH
	DB	0c9H
	DB	030H
	DB	0bH
	DB	0d7H
	DB	0aaH
	DB	0e0H
	DB	069H
	DB	092H
	DB	0acH
	DB	0bfH
	DB	052H
	DB	0a3H
	DB	0e8H
	DB	0f4H
	DB	0a9H
	DB	06eH
	DB	0c9H
	DB	030H
	DB	0bH
	DB	0d7H
	DB	0aaH
	DB	0e0H
	DB	069H
	DB	092H
	DB	0acH
	DB	0bfH
	DB	052H
	DB	0a3H
	DB	0e8H
	DB	0f4H
	DB	0a9H
	DB	06eH
	DB	0c9H
	DB	030H
	DB	0bH
	DB	0d7H
	DB	0aaH
	DB	0e0H
	DB	069H
	DB	092H
	DB	0acH
	DB	0bfH
	DB	052H
	DB	0a3H
	DB	0e8H
	DB	0f4H
	DB	0a9H
	DB	06eH
	DB	0c9H
	DB	030H
	DB	0bH
	DB	0d7H
	DB	0aaH
	DB	0e0H
	DB	069H
	DB	092H
	DB	0acH
	DB	0bfH
	DB	052H
	DB	0a3H
	DB	0e8H
	DB	0f4H
	DB	0a9H
	DB	06eH
	DB	0c9H
	DB	030H
	DB	0bH
	DB	0d7H
	DB	0aaH
	DB	0e0H
	DB	069H
	DB	092H
	DB	0acH
	DB	0bfH
	DB	052H
	DB	0a3H
	DB	0e8H
	DB	0f4H
	DB	0a9H
	DB	06eH
	DB	0c9H
	DB	030H
	DB	0bH
	DB	0d7H
	DB	0aaH
	DB	0e0H
	DB	069H
	DB	092H
	DB	0acH
	DB	0bfH
	DB	052H
	DB	0a3H
	DB	0e8H
	DB	0f4H
	DB	0a9H
	DB	06eH
	DB	0c9H
	DB	030H
	DB	0bH
	DB	0d7H
	DD	018H
	DB	0ffH
	DB	0ffH
	DB	0ffH
	DB	0ffH
	DB	0ffH
	DB	0ffH
	DB	0ffH
	DB	0ffH
	DB	0ffH
	DB	0ffH
	DB	0ffH
	DB	0ffH
	DB	0ffH
	DB	0ffH
	DB	0ffH
	DB	0ffH
	DB	0ffH
	DB	0ffH
	DB	0ffH
	DB	0ffH
	DB	0ffH
	DB	0ffH
	DB	0ffH
	DB	0ffH
	ORG $+8
	DB	00H
	DB	00H
	DB	00H
	DB	00H
	DB	00H
	DB	00H
	DB	00H
	DB	00H
	DB	00H
	DB	00H
	DB	00H
	DB	00H
	DB	00H
	DB	00H
	DB	00H
	DB	00H
	DB	00H
	DB	00H
	DB	00H
	DB	00H
	DB	00H
	DB	00H
	DB	00H
	DB	00H
	DB	00H
	DB	00H
	DB	00H
	DB	00H
	DB	00H
	DB	00H
	DB	00H
	DB	00H
	DB	00H
	DB	00H
	DB	00H
	DB	00H
	DB	00H
	DB	00H
	DB	00H
	DB	00H
	DB	00H
	DB	00H
	DB	00H
	DB	00H
	DB	00H
	DB	00H
	DB	00H
	DB	00H
	DB	00H
	DB	00H
	DB	00H
	DB	00H
	DB	00H
	DB	00H
	DB	00H
	DB	00H
	DB	00H
	DB	00H
	DB	00H
	DB	00H
	DB	00H
	DB	00H
	DB	00H
	DB	00H
	DB	00H
	DB	00H
	DB	00H
	DB	00H
	DB	00H
	DB	00H
	DB	00H
	DB	00H
	DB	00H
	DB	00H
	DB	00H
	DB	00H
	DB	00H
	DB	00H
	DB	00H
	DB	00H
	DB	00H
	DB	00H
	DB	00H
	DB	00H
	DB	00H
	DB	00H
	DB	00H
	DB	00H
	DB	00H
	DB	00H
	DB	00H
	DB	00H
	DB	00H
	DB	00H
	DB	00H
	DB	00H
	DB	00H
	DB	00H
	DB	00H
	DB	00H
	DB	00H
	DB	00H
	DB	00H
	DB	00H
	DB	00H
	DB	00H
	DB	00H
	DB	00H
	DB	00H
	DB	00H
	DB	00H
	DB	00H
	DB	00H
	DB	00H
	DB	00H
	DB	00H
	DB	00H
	DB	00H
	DB	00H
	DB	00H
	DB	00H
	DB	00H
	DB	00H
	DB	00H
	DB	00H
	DB	00H
	DB	00H
	DB	00H
	DB	0ddH
	DB	08aH
	DB	049H
	DB	035H
	DB	014H
	DB	023H
	DB	01cH
	DB	0bfH
	DB	056H
	DB	0ecH
	DB	0ceH
	DB	0e4H
	DB	0c4H
	DB	08H
	DB	089H
	DB	0fbH
	DB	0ddH
	DB	08aH
	DB	049H
	DB	035H
	DB	014H
	DB	023H
	DB	01cH
	DB	0bfH
	DB	056H
	DB	0ecH
	DB	0ceH
	DB	0e4H
	DB	0c4H
	DB	08H
	DB	089H
	DB	0fbH
	DB	0ddH
	DB	08aH
	DB	049H
	DB	035H
	DB	014H
	DB	023H
	DB	01cH
	DB	0bfH
	DB	056H
	DB	0ecH
	DB	0ceH
	DB	0e4H
	DB	0c4H
	DB	08H
	DB	089H
	DB	0fbH
	DB	0ddH
	DB	08aH
	DB	049H
	DB	035H
	DB	014H
	DB	023H
	DB	01cH
	DB	0bfH
	DB	056H
	DB	0ecH
	DB	0ceH
	DB	0e4H
	DB	0c4H
	DB	08H
	DB	089H
	DB	0fbH
	DB	0ddH
	DB	08aH
	DB	049H
	DB	035H
	DB	014H
	DB	023H
	DB	01cH
	DB	0bfH
	DB	056H
	DB	0ecH
	DB	0ceH
	DB	0e4H
	DB	0c4H
	DB	08H
	DB	089H
	DB	0fbH
	DB	0ddH
	DB	08aH
	DB	049H
	DB	035H
	DB	014H
	DB	023H
	DB	01cH
	DB	0bfH
	DB	056H
	DB	0ecH
	DB	0ceH
	DB	0e4H
	DB	0c4H
	DB	08H
	DB	089H
	DB	0fbH
	DB	0ddH
	DB	08aH
	DB	049H
	DB	035H
	DB	014H
	DB	023H
	DB	01cH
	DB	0bfH
	DB	056H
	DB	0ecH
	DB	0ceH
	DB	0e4H
	DB	0c4H
	DB	08H
	DB	089H
	DB	0fbH
	DB	0ddH
	DB	08aH
	DB	049H
	DB	035H
	DB	014H
	DB	023H
	DB	01cH
	DB	0bfH
	DB	056H
	DB	0ecH
	DB	0ceH
	DB	0e4H
	DB	0c4H
	DB	08H
	DB	089H
	DB	0fbH
	DD	018H
	DB	00H
	DB	01H
	DB	02H
	DB	03H
	DB	04H
	DB	05H
	DB	06H
	DB	07H
	DB	08H
	DB	09H
	DB	0aH
	DB	0bH
	DB	0cH
	DB	0dH
	DB	0eH
	DB	0fH
	DB	010H
	DB	011H
	DB	012H
	DB	013H
	DB	014H
	DB	015H
	DB	016H
	DB	017H
	ORG $+8
	DB	00H
	DB	00H
	DB	00H
	DB	00H
	DB	00H
	DB	00H
	DB	00H
	DB	00H
	DB	00H
	DB	00H
	DB	00H
	DB	00H
	DB	00H
	DB	00H
	DB	00H
	DB	00H
	DB	00H
	DB	00H
	DB	00H
	DB	00H
	DB	00H
	DB	00H
	DB	00H
	DB	00H
	DB	00H
	DB	00H
	DB	00H
	DB	00H
	DB	00H
	DB	00H
	DB	00H
	DB	00H
	DB	00H
	DB	00H
	DB	00H
	DB	00H
	DB	00H
	DB	00H
	DB	00H
	DB	00H
	DB	00H
	DB	00H
	DB	00H
	DB	00H
	DB	00H
	DB	00H
	DB	00H
	DB	00H
	DB	00H
	DB	00H
	DB	00H
	DB	00H
	DB	00H
	DB	00H
	DB	00H
	DB	00H
	DB	00H
	DB	00H
	DB	00H
	DB	00H
	DB	00H
	DB	00H
	DB	00H
	DB	00H
	DB	00H
	DB	00H
	DB	00H
	DB	00H
	DB	00H
	DB	00H
	DB	00H
	DB	00H
	DB	00H
	DB	00H
	DB	00H
	DB	00H
	DB	00H
	DB	00H
	DB	00H
	DB	00H
	DB	00H
	DB	00H
	DB	00H
	DB	00H
	DB	00H
	DB	00H
	DB	00H
	DB	00H
	DB	00H
	DB	00H
	DB	00H
	DB	00H
	DB	00H
	DB	00H
	DB	00H
	DB	00H
	DB	00H
	DB	00H
	DB	00H
	DB	00H
	DB	00H
	DB	00H
	DB	00H
	DB	00H
	DB	00H
	DB	00H
	DB	00H
	DB	00H
	DB	00H
	DB	00H
	DB	00H
	DB	00H
	DB	00H
	DB	00H
	DB	00H
	DB	00H
	DB	00H
	DB	00H
	DB	00H
	DB	00H
	DB	00H
	DB	00H
	DB	00H
	DB	00H
	DB	00H
	DB	00H
	DB	00H
	DB	00H
	DB	091H
	DB	062H
	DB	051H
	DB	082H
	DB	01cH
	DB	073H
	DB	0a5H
	DB	022H
	DB	0c3H
	DB	096H
	DB	0d6H
	DB	027H
	DB	038H
	DB	01H
	DB	096H
	DB	07H
	DB	091H
	DB	062H
	DB	051H
	DB	082H
	DB	01cH
	DB	073H
	DB	0a5H
	DB	022H
	DB	0c3H
	DB	096H
	DB	0d6H
	DB	027H
	DB	038H
	DB	01H
	DB	096H
	DB	07H
	DB	091H
	DB	062H
	DB	051H
	DB	082H
	DB	01cH
	DB	073H
	DB	0a5H
	DB	022H
	DB	0c3H
	DB	096H
	DB	0d6H
	DB	027H
	DB	038H
	DB	01H
	DB	096H
	DB	07H
	DB	091H
	DB	062H
	DB	051H
	DB	082H
	DB	01cH
	DB	073H
	DB	0a5H
	DB	022H
	DB	0c3H
	DB	096H
	DB	0d6H
	DB	027H
	DB	038H
	DB	01H
	DB	096H
	DB	07H
	DB	091H
	DB	062H
	DB	051H
	DB	082H
	DB	01cH
	DB	073H
	DB	0a5H
	DB	022H
	DB	0c3H
	DB	096H
	DB	0d6H
	DB	027H
	DB	038H
	DB	01H
	DB	096H
	DB	07H
	DB	091H
	DB	062H
	DB	051H
	DB	082H
	DB	01cH
	DB	073H
	DB	0a5H
	DB	022H
	DB	0c3H
	DB	096H
	DB	0d6H
	DB	027H
	DB	038H
	DB	01H
	DB	096H
	DB	07H
	DB	091H
	DB	062H
	DB	051H
	DB	082H
	DB	01cH
	DB	073H
	DB	0a5H
	DB	022H
	DB	0c3H
	DB	096H
	DB	0d6H
	DB	027H
	DB	038H
	DB	01H
	DB	096H
	DB	07H
	DB	091H
	DB	062H
	DB	051H
	DB	082H
	DB	01cH
	DB	073H
	DB	0a5H
	DB	022H
	DB	0c3H
	DB	096H
	DB	0d6H
	DB	027H
	DB	038H
	DB	01H
	DB	096H
	DB	07H
	DD	018H
	DB	00H
	DB	00H
	DB	00H
	DB	00H
	DB	00H
	DB	00H
	DB	00H
	DB	00H
	DB	00H
	DB	00H
	DB	00H
	DB	00H
	DB	00H
	DB	00H
	DB	00H
	DB	00H
	DB	00H
	DB	00H
	DB	00H
	DB	00H
	DB	00H
	DB	00H
	DB	00H
	DB	00H
	ORG $+8
	DB	00H
	DB	01H
	DB	02H
	DB	03H
	DB	04H
	DB	05H
	DB	06H
	DB	07H
	DB	08H
	DB	09H
	DB	0aH
	DB	0bH
	DB	0cH
	DB	0dH
	DB	0eH
	DB	0fH
	DB	010H
	DB	011H
	DB	012H
	DB	013H
	DB	014H
	DB	015H
	DB	016H
	DB	017H
	DB	018H
	DB	019H
	DB	01aH
	DB	01bH
	DB	01cH
	DB	01dH
	DB	01eH
	DB	01fH
	DB	020H
	DB	021H
	DB	022H
	DB	023H
	DB	024H
	DB	025H
	DB	026H
	DB	027H
	DB	028H
	DB	029H
	DB	02aH
	DB	02bH
	DB	02cH
	DB	02dH
	DB	02eH
	DB	02fH
	DB	030H
	DB	031H
	DB	032H
	DB	033H
	DB	034H
	DB	035H
	DB	036H
	DB	037H
	DB	038H
	DB	039H
	DB	03aH
	DB	03bH
	DB	03cH
	DB	03dH
	DB	03eH
	DB	03fH
	DB	040H
	DB	041H
	DB	042H
	DB	043H
	DB	044H
	DB	045H
	DB	046H
	DB	047H
	DB	048H
	DB	049H
	DB	04aH
	DB	04bH
	DB	04cH
	DB	04dH
	DB	04eH
	DB	04fH
	DB	050H
	DB	051H
	DB	052H
	DB	053H
	DB	054H
	DB	055H
	DB	056H
	DB	057H
	DB	058H
	DB	059H
	DB	05aH
	DB	05bH
	DB	05cH
	DB	05dH
	DB	05eH
	DB	05fH
	DB	060H
	DB	061H
	DB	062H
	DB	063H
	DB	064H
	DB	065H
	DB	066H
	DB	067H
	DB	068H
	DB	069H
	DB	06aH
	DB	06bH
	DB	06cH
	DB	06dH
	DB	06eH
	DB	06fH
	DB	070H
	DB	071H
	DB	072H
	DB	073H
	DB	074H
	DB	075H
	DB	076H
	DB	077H
	DB	078H
	DB	079H
	DB	07aH
	DB	07bH
	DB	07cH
	DB	07dH
	DB	07eH
	DB	07fH
	DB	0b8H
	DB	01aH
	DB	066H
	DB	049H
	DB	050H
	DB	00H
	DB	08fH
	DB	091H
	DB	032H
	DB	03eH
	DB	0d5H
	DB	03bH
	DB	0d3H
	DB	030H
	DB	093H
	DB	029H
	DB	0ebH
	DB	0c9H
	DB	0eH
	DB	0bdH
	DB	0e3H
	DB	08cH
	DB	04H
	DB	015H
	DB	06fH
	DB	083H
	DB	0a9H
	DB	0f8H
	DB	051H
	DB	0eeH
	DB	084H
	DB	077H
	DB	052H
	DB	062H
	DB	0aH
	DB	0bdH
	DB	0b1H
	DB	060H
	DB	0a8H
	DB	066H
	DB	0f2H
	DB	0e4H
	DB	0b8H
	DB	06aH
	DB	0ddH
	DB	03bH
	DB	026H
	DB	076H
	DB	085H
	DB	081H
	DB	0e4H
	DB	0c2H
	DB	04bH
	DB	09dH
	DB	082H
	DB	0daH
	DB	0f1H
	DB	054H
	DB	06dH
	DB	040H
	DB	02dH
	DB	0cH
	DB	046H
	DB	037H
	DB	051H
	DB	08dH
	DB	059H
	DB	07bH
	DB	08fH
	DB	022H
	DB	08eH
	DB	059H
	DB	0dbH
	DB	09eH
	DB	0eaH
	DB	08eH
	DB	0feH
	DB	084H
	DB	01aH
	DB	04aH
	DB	0c7H
	DB	063H
	DB	0aaH
	DB	03fH
	DB	0ecH
	DB	030H
	DB	045H
	DB	05H
	DB	031H
	DB	04bH
	DB	0b3H
	DB	02cH
	DB	0fH
	DB	015H
	DB	0d3H
	DB	048H
	DB	02aH
	DB	031H
	DB	069H
	DB	07fH
	DB	0fH
	DB	047H
	DB	07cH
	DB	04eH
	DB	098H
	DB	0aH
	DB	0e0H
	DB	033H
	DB	0e8H
	DB	053H
	DB	065H
	DB	047H
	DB	0e8H
	DB	0aH
	DB	08eH
	DB	010H
	DB	066H
	DB	0cfH
	DB	037H
	DB	0afH
	DB	084H
	DB	0e5H
	DB	056H
	DB	010H
	DB	0e1H
	DB	02fH
	DB	0cbH
	DB	047H
	DD	018H
	DB	0ffH
	DB	0ffH
	DB	0ffH
	DB	0ffH
	DB	0ffH
	DB	0ffH
	DB	0ffH
	DB	0ffH
	DB	0ffH
	DB	0ffH
	DB	0ffH
	DB	0ffH
	DB	0ffH
	DB	0ffH
	DB	0ffH
	DB	0ffH
	DB	0ffH
	DB	0ffH
	DB	0ffH
	DB	0ffH
	DB	0ffH
	DB	0ffH
	DB	0ffH
	DB	0ffH
	ORG $+8
	DB	00H
	DB	01H
	DB	02H
	DB	03H
	DB	04H
	DB	05H
	DB	06H
	DB	07H
	DB	08H
	DB	09H
	DB	0aH
	DB	0bH
	DB	0cH
	DB	0dH
	DB	0eH
	DB	0fH
	DB	010H
	DB	011H
	DB	012H
	DB	013H
	DB	014H
	DB	015H
	DB	016H
	DB	017H
	DB	018H
	DB	019H
	DB	01aH
	DB	01bH
	DB	01cH
	DB	01dH
	DB	01eH
	DB	01fH
	DB	020H
	DB	021H
	DB	022H
	DB	023H
	DB	024H
	DB	025H
	DB	026H
	DB	027H
	DB	028H
	DB	029H
	DB	02aH
	DB	02bH
	DB	02cH
	DB	02dH
	DB	02eH
	DB	02fH
	DB	030H
	DB	031H
	DB	032H
	DB	033H
	DB	034H
	DB	035H
	DB	036H
	DB	037H
	DB	038H
	DB	039H
	DB	03aH
	DB	03bH
	DB	03cH
	DB	03dH
	DB	03eH
	DB	03fH
	DB	040H
	DB	041H
	DB	042H
	DB	043H
	DB	044H
	DB	045H
	DB	046H
	DB	047H
	DB	048H
	DB	049H
	DB	04aH
	DB	04bH
	DB	04cH
	DB	04dH
	DB	04eH
	DB	04fH
	DB	050H
	DB	051H
	DB	052H
	DB	053H
	DB	054H
	DB	055H
	DB	056H
	DB	057H
	DB	058H
	DB	059H
	DB	05aH
	DB	05bH
	DB	05cH
	DB	05dH
	DB	05eH
	DB	05fH
	DB	060H
	DB	061H
	DB	062H
	DB	063H
	DB	064H
	DB	065H
	DB	066H
	DB	067H
	DB	068H
	DB	069H
	DB	06aH
	DB	06bH
	DB	06cH
	DB	06dH
	DB	06eH
	DB	06fH
	DB	070H
	DB	071H
	DB	072H
	DB	073H
	DB	074H
	DB	075H
	DB	076H
	DB	077H
	DB	078H
	DB	079H
	DB	07aH
	DB	07bH
	DB	07cH
	DB	07dH
	DB	07eH
	DB	07fH
	DB	048H
	DB	0d2H
	DB	0d3H
	DB	0aeH
	DB	01dH
	DB	0b3H
	DB	06dH
	DB	0b3H
	DB	040H
	DB	043H
	DB	0b4H
	DB	0cH
	DB	0eH
	DB	03aH
	DB	04H
	DB	085H
	DB	049H
	DB	0b1H
	DB	0acH
	DB	024H
	DB	0ddH
	DB	01aH
	DB	024H
	DB	05aH
	DB	050H
	DB	0e1H
	DB	0d2H
	DB	087H
	DB	0e4H
	DB	066H
	DB	097H
	DB	048H
	DB	09fH
	DB	095H
	DB	0f4H
	DB	0ffH
	DB	0aeH
	DB	09H
	DB	019H
	DB	0cH
	DB	0acH
	DB	0c7H
	DB	0f5H
	DB	085H
	DB	08eH
	DB	09fH
	DB	0b0H
	DB	0fcH
	DB	0daH
	DB	02dH
	DB	05H
	DB	01aH
	DB	07fH
	DB	08eH
	DB	0cH
	DB	01H
	DB	09fH
	DB	0a0H
	DB	09dH
	DB	09aH
	DB	0c8H
	DB	057H
	DB	053H
	DB	09H
	DB	073H
	DB	08bH
	DB	083H
	DB	0ddH
	DB	0b4H
	DB	0f1H
	DB	012H
	DB	021H
	DB	075H
	DB	048H
	DB	011H
	DB	09H
	DB	024H
	DB	034H
	DB	0a0H
	DB	0e3H
	DB	0caH
	DB	09cH
	DB	0e0H
	DB	081H
	DB	041H
	DB	0f4H
	DB	0a2H
	DB	0f5H
	DB	042H
	DB	090H
	DB	074H
	DB	064H
	DB	030H
	DB	0d9H
	DB	093H
	DB	0ecH
	DB	057H
	DB	0baH
	DB	067H
	DB	013H
	DB	030H
	DB	081H
	DB	02fH
	DB	05eH
	DB	05H
	DB	020H
	DB	0e6H
	DB	078H
	DB	02fH
	DB	0dfH
	DB	0eaH
	DB	082H
	DB	081H
	DB	01dH
	DB	0eeH
	DB	0a2H
	DB	0ffH
	DB	09cH
	DB	0f3H
	DB	0caH
	DB	0f4H
	DB	0e8H
	DB	0e8H
	DB	0b8H
	DB	093H
	DB	03eH
	DB	0c7H
	DB	0a8H
	DD	018H
	DB	00H
	DB	01H
	DB	02H
	DB	03H
	DB	04H
	DB	05H
	DB	06H
	DB	07H
	DB	08H
	DB	09H
	DB	0aH
	DB	0bH
	DB	0cH
	DB	0dH
	DB	0eH
	DB	0fH
	DB	010H
	DB	011H
	DB	012H
	DB	013H
	DB	014H
	DB	015H
	DB	016H
	DB	017H
	ORG $+8
	DB	00H
	DB	01H
	DB	02H
	DB	03H
	DB	04H
	DB	05H
	DB	06H
	DB	07H
	DB	08H
	DB	09H
	DB	0aH
	DB	0bH
	DB	0cH
	DB	0dH
	DB	0eH
	DB	0fH
	DB	010H
	DB	011H
	DB	012H
	DB	013H
	DB	014H
	DB	015H
	DB	016H
	DB	017H
	DB	018H
	DB	019H
	DB	01aH
	DB	01bH
	DB	01cH
	DB	01dH
	DB	01eH
	DB	01fH
	DB	020H
	DB	021H
	DB	022H
	DB	023H
	DB	024H
	DB	025H
	DB	026H
	DB	027H
	DB	028H
	DB	029H
	DB	02aH
	DB	02bH
	DB	02cH
	DB	02dH
	DB	02eH
	DB	02fH
	DB	030H
	DB	031H
	DB	032H
	DB	033H
	DB	034H
	DB	035H
	DB	036H
	DB	037H
	DB	038H
	DB	039H
	DB	03aH
	DB	03bH
	DB	03cH
	DB	03dH
	DB	03eH
	DB	03fH
	DB	040H
	DB	041H
	DB	042H
	DB	043H
	DB	044H
	DB	045H
	DB	046H
	DB	047H
	DB	048H
	DB	049H
	DB	04aH
	DB	04bH
	DB	04cH
	DB	04dH
	DB	04eH
	DB	04fH
	DB	050H
	DB	051H
	DB	052H
	DB	053H
	DB	054H
	DB	055H
	DB	056H
	DB	057H
	DB	058H
	DB	059H
	DB	05aH
	DB	05bH
	DB	05cH
	DB	05dH
	DB	05eH
	DB	05fH
	DB	060H
	DB	061H
	DB	062H
	DB	063H
	DB	064H
	DB	065H
	DB	066H
	DB	067H
	DB	068H
	DB	069H
	DB	06aH
	DB	06bH
	DB	06cH
	DB	06dH
	DB	06eH
	DB	06fH
	DB	070H
	DB	071H
	DB	072H
	DB	073H
	DB	074H
	DB	075H
	DB	076H
	DB	077H
	DB	078H
	DB	079H
	DB	07aH
	DB	07bH
	DB	07cH
	DB	07dH
	DB	07eH
	DB	07fH
	DB	00H
	DB	060H
	DB	0bfH
	DB	0feH
	DB	046H
	DB	083H
	DB	04bH
	DB	0b8H
	DB	0daH
	DB	05cH
	DB	0f9H
	DB	0a6H
	DB	01fH
	DB	0f2H
	DB	020H
	DB	0aeH
	DB	093H
	DB	0aeH
	DB	03bH
	DB	07fH
	DB	09fH
	DB	0c2H
	DB	0e8H
	DB	015H
	DB	09dH
	DB	05H
	DB	0a6H
	DB	0a9H
	DB	0f5H
	DB	0e2H
	DB	04fH
	DB	02dH
	DB	077H
	DB	09fH
	DB	0e4H
	DB	04fH
	DB	029H
	DB	0ffH
	DB	0faH
	DB	02cH
	DB	025H
	DB	0d3H
	DB	046H
	DB	04fH
	DB	0c3H
	DB	0dbH
	DB	03cH
	DB	049H
	DB	068H
	DB	025H
	DB	0f0H
	DB	06fH
	DB	075H
	DB	018H
	DB	05dH
	DB	048H
	DB	03bH
	DB	021H
	DB	053H
	DB	078H
	DB	063H
	DB	012H
	DB	081H
	DB	09eH
	DB	027H
	DB	054H
	DB	09eH
	DB	031H
	DB	027H
	DB	059H
	DB	02dH
	DB	093H
	DB	0f0H
	DB	091H
	DB	060H
	DB	08dH
	DB	027H
	DB	0e9H
	DB	066H
	DB	0d4H
	DB	0b8H
	DB	0e9H
	DB	095H
	DB	0e4H
	DB	06dH
	DB	058H
	DB	04bH
	DB	074H
	DB	02bH
	DB	07aH
	DB	077H
	DB	065H
	DB	07bH
	DB	0c4H
	DB	013H
	DB	037H
	DB	048H
	DB	07bH
	DB	023H
	DB	042H
	DB	03dH
	DB	019H
	DB	029H
	DB	018H
	DB	07aH
	DB	0c2H
	DB	059H
	DB	0d6H
	DB	045H
	DB	025H
	DB	094H
	DB	0aH
	DB	01dH
	DB	013H
	DB	01H
	DB	07aH
	DB	06eH
	DB	0e6H
	DB	03bH
	DB	0e4H
	DB	04dH
	DB	0d7H
	DB	06bH
	DB	037H
	DB	08cH
	DB	0aH
	DB	0b7H
	DB	035H
	DD	020H
	DB	00H
	DB	00H
	DB	00H
	DB	00H
	DB	00H
	DB	00H
	DB	00H
	DB	00H
	DB	00H
	DB	00H
	DB	00H
	DB	00H
	DB	00H
	DB	00H
	DB	00H
	DB	00H
	DB	00H
	DB	00H
	DB	00H
	DB	00H
	DB	00H
	DB	00H
	DB	00H
	DB	00H
	DB	00H
	DB	00H
	DB	00H
	DB	00H
	DB	00H
	DB	00H
	DB	00H
	DB	00H
	DB	00H
	DB	00H
	DB	00H
	DB	00H
	DB	00H
	DB	00H
	DB	00H
	DB	00H
	DB	00H
	DB	00H
	DB	00H
	DB	00H
	DB	00H
	DB	00H
	DB	00H
	DB	00H
	DB	00H
	DB	00H
	DB	00H
	DB	00H
	DB	00H
	DB	00H
	DB	00H
	DB	00H
	DB	00H
	DB	00H
	DB	00H
	DB	00H
	DB	00H
	DB	00H
	DB	00H
	DB	00H
	DB	00H
	DB	00H
	DB	00H
	DB	00H
	DB	00H
	DB	00H
	DB	00H
	DB	00H
	DB	00H
	DB	00H
	DB	00H
	DB	00H
	DB	00H
	DB	00H
	DB	00H
	DB	00H
	DB	00H
	DB	00H
	DB	00H
	DB	00H
	DB	00H
	DB	00H
	DB	00H
	DB	00H
	DB	00H
	DB	00H
	DB	00H
	DB	00H
	DB	00H
	DB	00H
	DB	00H
	DB	00H
	DB	00H
	DB	00H
	DB	00H
	DB	00H
	DB	00H
	DB	00H
	DB	00H
	DB	00H
	DB	00H
	DB	00H
	DB	00H
	DB	00H
	DB	00H
	DB	00H
	DB	00H
	DB	00H
	DB	00H
	DB	00H
	DB	00H
	DB	00H
	DB	00H
	DB	00H
	DB	00H
	DB	00H
	DB	00H
	DB	00H
	DB	00H
	DB	00H
	DB	00H
	DB	00H
	DB	00H
	DB	00H
	DB	00H
	DB	00H
	DB	00H
	DB	00H
	DB	00H
	DB	00H
	DB	00H
	DB	00H
	DB	00H
	DB	00H
	DB	00H
	DB	00H
	DB	00H
	DB	00H
	DB	00H
	DB	00H
	DB	00H
	DB	00H
	DB	00H
	DB	00H
	DB	00H
	DB	00H
	DB	00H
	DB	00H
	DB	00H
	DB	00H
	DB	00H
	DB	00H
	DB	00H
	DB	00H
	DB	00H
	DB	00H
	DB	0dcH
	DB	095H
	DB	0c0H
	DB	078H
	DB	0a2H
	DB	040H
	DB	089H
	DB	089H
	DB	0adH
	DB	048H
	DB	0a2H
	DB	014H
	DB	092H
	DB	084H
	DB	020H
	DB	087H
	DB	0dcH
	DB	095H
	DB	0c0H
	DB	078H
	DB	0a2H
	DB	040H
	DB	089H
	DB	089H
	DB	0adH
	DB	048H
	DB	0a2H
	DB	014H
	DB	092H
	DB	084H
	DB	020H
	DB	087H
	DB	0dcH
	DB	095H
	DB	0c0H
	DB	078H
	DB	0a2H
	DB	040H
	DB	089H
	DB	089H
	DB	0adH
	DB	048H
	DB	0a2H
	DB	014H
	DB	092H
	DB	084H
	DB	020H
	DB	087H
	DB	0dcH
	DB	095H
	DB	0c0H
	DB	078H
	DB	0a2H
	DB	040H
	DB	089H
	DB	089H
	DB	0adH
	DB	048H
	DB	0a2H
	DB	014H
	DB	092H
	DB	084H
	DB	020H
	DB	087H
	DB	0dcH
	DB	095H
	DB	0c0H
	DB	078H
	DB	0a2H
	DB	040H
	DB	089H
	DB	089H
	DB	0adH
	DB	048H
	DB	0a2H
	DB	014H
	DB	092H
	DB	084H
	DB	020H
	DB	087H
	DB	0dcH
	DB	095H
	DB	0c0H
	DB	078H
	DB	0a2H
	DB	040H
	DB	089H
	DB	089H
	DB	0adH
	DB	048H
	DB	0a2H
	DB	014H
	DB	092H
	DB	084H
	DB	020H
	DB	087H
	DB	0dcH
	DB	095H
	DB	0c0H
	DB	078H
	DB	0a2H
	DB	040H
	DB	089H
	DB	089H
	DB	0adH
	DB	048H
	DB	0a2H
	DB	014H
	DB	092H
	DB	084H
	DB	020H
	DB	087H
	DB	0dcH
	DB	095H
	DB	0c0H
	DB	078H
	DB	0a2H
	DB	040H
	DB	089H
	DB	089H
	DB	0adH
	DB	048H
	DB	0a2H
	DB	014H
	DB	092H
	DB	084H
	DB	020H
	DB	087H
	DD	020H
	DB	0ffH
	DB	0ffH
	DB	0ffH
	DB	0ffH
	DB	0ffH
	DB	0ffH
	DB	0ffH
	DB	0ffH
	DB	0ffH
	DB	0ffH
	DB	0ffH
	DB	0ffH
	DB	0ffH
	DB	0ffH
	DB	0ffH
	DB	0ffH
	DB	0ffH
	DB	0ffH
	DB	0ffH
	DB	0ffH
	DB	0ffH
	DB	0ffH
	DB	0ffH
	DB	0ffH
	DB	0ffH
	DB	0ffH
	DB	0ffH
	DB	0ffH
	DB	0ffH
	DB	0ffH
	DB	0ffH
	DB	0ffH
	DB	00H
	DB	00H
	DB	00H
	DB	00H
	DB	00H
	DB	00H
	DB	00H
	DB	00H
	DB	00H
	DB	00H
	DB	00H
	DB	00H
	DB	00H
	DB	00H
	DB	00H
	DB	00H
	DB	00H
	DB	00H
	DB	00H
	DB	00H
	DB	00H
	DB	00H
	DB	00H
	DB	00H
	DB	00H
	DB	00H
	DB	00H
	DB	00H
	DB	00H
	DB	00H
	DB	00H
	DB	00H
	DB	00H
	DB	00H
	DB	00H
	DB	00H
	DB	00H
	DB	00H
	DB	00H
	DB	00H
	DB	00H
	DB	00H
	DB	00H
	DB	00H
	DB	00H
	DB	00H
	DB	00H
	DB	00H
	DB	00H
	DB	00H
	DB	00H
	DB	00H
	DB	00H
	DB	00H
	DB	00H
	DB	00H
	DB	00H
	DB	00H
	DB	00H
	DB	00H
	DB	00H
	DB	00H
	DB	00H
	DB	00H
	DB	00H
	DB	00H
	DB	00H
	DB	00H
	DB	00H
	DB	00H
	DB	00H
	DB	00H
	DB	00H
	DB	00H
	DB	00H
	DB	00H
	DB	00H
	DB	00H
	DB	00H
	DB	00H
	DB	00H
	DB	00H
	DB	00H
	DB	00H
	DB	00H
	DB	00H
	DB	00H
	DB	00H
	DB	00H
	DB	00H
	DB	00H
	DB	00H
	DB	00H
	DB	00H
	DB	00H
	DB	00H
	DB	00H
	DB	00H
	DB	00H
	DB	00H
	DB	00H
	DB	00H
	DB	00H
	DB	00H
	DB	00H
	DB	00H
	DB	00H
	DB	00H
	DB	00H
	DB	00H
	DB	00H
	DB	00H
	DB	00H
	DB	00H
	DB	00H
	DB	00H
	DB	00H
	DB	00H
	DB	00H
	DB	00H
	DB	00H
	DB	00H
	DB	00H
	DB	00H
	DB	00H
	DB	00H
	DB	00H
	DB	00H
	DB	04bH
	DB	0f8H
	DB	05fH
	DB	01bH
	DB	05dH
	DB	054H
	DB	0adH
	DB	0bcH
	DB	030H
	DB	07bH
	DB	0aH
	DB	04H
	DB	083H
	DB	089H
	DB	0adH
	DB	0cbH
	DB	04bH
	DB	0f8H
	DB	05fH
	DB	01bH
	DB	05dH
	DB	054H
	DB	0adH
	DB	0bcH
	DB	030H
	DB	07bH
	DB	0aH
	DB	04H
	DB	083H
	DB	089H
	DB	0adH
	DB	0cbH
	DB	04bH
	DB	0f8H
	DB	05fH
	DB	01bH
	DB	05dH
	DB	054H
	DB	0adH
	DB	0bcH
	DB	030H
	DB	07bH
	DB	0aH
	DB	04H
	DB	083H
	DB	089H
	DB	0adH
	DB	0cbH
	DB	04bH
	DB	0f8H
	DB	05fH
	DB	01bH
	DB	05dH
	DB	054H
	DB	0adH
	DB	0bcH
	DB	030H
	DB	07bH
	DB	0aH
	DB	04H
	DB	083H
	DB	089H
	DB	0adH
	DB	0cbH
	DB	04bH
	DB	0f8H
	DB	05fH
	DB	01bH
	DB	05dH
	DB	054H
	DB	0adH
	DB	0bcH
	DB	030H
	DB	07bH
	DB	0aH
	DB	04H
	DB	083H
	DB	089H
	DB	0adH
	DB	0cbH
	DB	04bH
	DB	0f8H
	DB	05fH
	DB	01bH
	DB	05dH
	DB	054H
	DB	0adH
	DB	0bcH
	DB	030H
	DB	07bH
	DB	0aH
	DB	04H
	DB	083H
	DB	089H
	DB	0adH
	DB	0cbH
	DB	04bH
	DB	0f8H
	DB	05fH
	DB	01bH
	DB	05dH
	DB	054H
	DB	0adH
	DB	0bcH
	DB	030H
	DB	07bH
	DB	0aH
	DB	04H
	DB	083H
	DB	089H
	DB	0adH
	DB	0cbH
	DB	04bH
	DB	0f8H
	DB	05fH
	DB	01bH
	DB	05dH
	DB	054H
	DB	0adH
	DB	0bcH
	DB	030H
	DB	07bH
	DB	0aH
	DB	04H
	DB	083H
	DB	089H
	DB	0adH
	DB	0cbH
	DD	020H
	DB	00H
	DB	01H
	DB	02H
	DB	03H
	DB	04H
	DB	05H
	DB	06H
	DB	07H
	DB	08H
	DB	09H
	DB	0aH
	DB	0bH
	DB	0cH
	DB	0dH
	DB	0eH
	DB	0fH
	DB	010H
	DB	011H
	DB	012H
	DB	013H
	DB	014H
	DB	015H
	DB	016H
	DB	017H
	DB	018H
	DB	019H
	DB	01aH
	DB	01bH
	DB	01cH
	DB	01dH
	DB	01eH
	DB	01fH
	DB	00H
	DB	00H
	DB	00H
	DB	00H
	DB	00H
	DB	00H
	DB	00H
	DB	00H
	DB	00H
	DB	00H
	DB	00H
	DB	00H
	DB	00H
	DB	00H
	DB	00H
	DB	00H
	DB	00H
	DB	00H
	DB	00H
	DB	00H
	DB	00H
	DB	00H
	DB	00H
	DB	00H
	DB	00H
	DB	00H
	DB	00H
	DB	00H
	DB	00H
	DB	00H
	DB	00H
	DB	00H
	DB	00H
	DB	00H
	DB	00H
	DB	00H
	DB	00H
	DB	00H
	DB	00H
	DB	00H
	DB	00H
	DB	00H
	DB	00H
	DB	00H
	DB	00H
	DB	00H
	DB	00H
	DB	00H
	DB	00H
	DB	00H
	DB	00H
	DB	00H
	DB	00H
	DB	00H
	DB	00H
	DB	00H
	DB	00H
	DB	00H
	DB	00H
	DB	00H
	DB	00H
	DB	00H
	DB	00H
	DB	00H
	DB	00H
	DB	00H
	DB	00H
	DB	00H
	DB	00H
	DB	00H
	DB	00H
	DB	00H
	DB	00H
	DB	00H
	DB	00H
	DB	00H
	DB	00H
	DB	00H
	DB	00H
	DB	00H
	DB	00H
	DB	00H
	DB	00H
	DB	00H
	DB	00H
	DB	00H
	DB	00H
	DB	00H
	DB	00H
	DB	00H
	DB	00H
	DB	00H
	DB	00H
	DB	00H
	DB	00H
	DB	00H
	DB	00H
	DB	00H
	DB	00H
	DB	00H
	DB	00H
	DB	00H
	DB	00H
	DB	00H
	DB	00H
	DB	00H
	DB	00H
	DB	00H
	DB	00H
	DB	00H
	DB	00H
	DB	00H
	DB	00H
	DB	00H
	DB	00H
	DB	00H
	DB	00H
	DB	00H
	DB	00H
	DB	00H
	DB	00H
	DB	00H
	DB	00H
	DB	00H
	DB	00H
	DB	00H
	DB	00H
	DB	00H
	DB	0f2H
	DB	090H
	DB	00H
	DB	0b6H
	DB	02aH
	DB	049H
	DB	09fH
	DB	0d0H
	DB	0a9H
	DB	0f3H
	DB	09aH
	DB	06aH
	DB	0ddH
	DB	02eH
	DB	077H
	DB	080H
	DB	0f2H
	DB	090H
	DB	00H
	DB	0b6H
	DB	02aH
	DB	049H
	DB	09fH
	DB	0d0H
	DB	0a9H
	DB	0f3H
	DB	09aH
	DB	06aH
	DB	0ddH
	DB	02eH
	DB	077H
	DB	080H
	DB	0f2H
	DB	090H
	DB	00H
	DB	0b6H
	DB	02aH
	DB	049H
	DB	09fH
	DB	0d0H
	DB	0a9H
	DB	0f3H
	DB	09aH
	DB	06aH
	DB	0ddH
	DB	02eH
	DB	077H
	DB	080H
	DB	0f2H
	DB	090H
	DB	00H
	DB	0b6H
	DB	02aH
	DB	049H
	DB	09fH
	DB	0d0H
	DB	0a9H
	DB	0f3H
	DB	09aH
	DB	06aH
	DB	0ddH
	DB	02eH
	DB	077H
	DB	080H
	DB	0f2H
	DB	090H
	DB	00H
	DB	0b6H
	DB	02aH
	DB	049H
	DB	09fH
	DB	0d0H
	DB	0a9H
	DB	0f3H
	DB	09aH
	DB	06aH
	DB	0ddH
	DB	02eH
	DB	077H
	DB	080H
	DB	0f2H
	DB	090H
	DB	00H
	DB	0b6H
	DB	02aH
	DB	049H
	DB	09fH
	DB	0d0H
	DB	0a9H
	DB	0f3H
	DB	09aH
	DB	06aH
	DB	0ddH
	DB	02eH
	DB	077H
	DB	080H
	DB	0f2H
	DB	090H
	DB	00H
	DB	0b6H
	DB	02aH
	DB	049H
	DB	09fH
	DB	0d0H
	DB	0a9H
	DB	0f3H
	DB	09aH
	DB	06aH
	DB	0ddH
	DB	02eH
	DB	077H
	DB	080H
	DB	0f2H
	DB	090H
	DB	00H
	DB	0b6H
	DB	02aH
	DB	049H
	DB	09fH
	DB	0d0H
	DB	0a9H
	DB	0f3H
	DB	09aH
	DB	06aH
	DB	0ddH
	DB	02eH
	DB	077H
	DB	080H
	DD	020H
	DB	00H
	DB	00H
	DB	00H
	DB	00H
	DB	00H
	DB	00H
	DB	00H
	DB	00H
	DB	00H
	DB	00H
	DB	00H
	DB	00H
	DB	00H
	DB	00H
	DB	00H
	DB	00H
	DB	00H
	DB	00H
	DB	00H
	DB	00H
	DB	00H
	DB	00H
	DB	00H
	DB	00H
	DB	00H
	DB	00H
	DB	00H
	DB	00H
	DB	00H
	DB	00H
	DB	00H
	DB	00H
	DB	00H
	DB	01H
	DB	02H
	DB	03H
	DB	04H
	DB	05H
	DB	06H
	DB	07H
	DB	08H
	DB	09H
	DB	0aH
	DB	0bH
	DB	0cH
	DB	0dH
	DB	0eH
	DB	0fH
	DB	010H
	DB	011H
	DB	012H
	DB	013H
	DB	014H
	DB	015H
	DB	016H
	DB	017H
	DB	018H
	DB	019H
	DB	01aH
	DB	01bH
	DB	01cH
	DB	01dH
	DB	01eH
	DB	01fH
	DB	020H
	DB	021H
	DB	022H
	DB	023H
	DB	024H
	DB	025H
	DB	026H
	DB	027H
	DB	028H
	DB	029H
	DB	02aH
	DB	02bH
	DB	02cH
	DB	02dH
	DB	02eH
	DB	02fH
	DB	030H
	DB	031H
	DB	032H
	DB	033H
	DB	034H
	DB	035H
	DB	036H
	DB	037H
	DB	038H
	DB	039H
	DB	03aH
	DB	03bH
	DB	03cH
	DB	03dH
	DB	03eH
	DB	03fH
	DB	040H
	DB	041H
	DB	042H
	DB	043H
	DB	044H
	DB	045H
	DB	046H
	DB	047H
	DB	048H
	DB	049H
	DB	04aH
	DB	04bH
	DB	04cH
	DB	04dH
	DB	04eH
	DB	04fH
	DB	050H
	DB	051H
	DB	052H
	DB	053H
	DB	054H
	DB	055H
	DB	056H
	DB	057H
	DB	058H
	DB	059H
	DB	05aH
	DB	05bH
	DB	05cH
	DB	05dH
	DB	05eH
	DB	05fH
	DB	060H
	DB	061H
	DB	062H
	DB	063H
	DB	064H
	DB	065H
	DB	066H
	DB	067H
	DB	068H
	DB	069H
	DB	06aH
	DB	06bH
	DB	06cH
	DB	06dH
	DB	06eH
	DB	06fH
	DB	070H
	DB	071H
	DB	072H
	DB	073H
	DB	074H
	DB	075H
	DB	076H
	DB	077H
	DB	078H
	DB	079H
	DB	07aH
	DB	07bH
	DB	07cH
	DB	07dH
	DB	07eH
	DB	07fH
	DB	0b6H
	DB	05dH
	DB	030H
	DB	03H
	DB	0cH
	DB	088H
	DB	0b4H
	DB	04cH
	DB	097H
	DB	05aH
	DB	034H
	DB	03fH
	DB	093H
	DB	0fbH
	DB	03cH
	DB	09H
	DB	061H
	DB	00H
	DB	066H
	DB	066H
	DB	01H
	DB	0cH
	DB	043H
	DB	037H
	DB	09eH
	DB	0deH
	DB	085H
	DB	04H
	DB	082H
	DB	013H
	DB	092H
	DB	01fH
	DB	0abH
	DB	098H
	DB	07dH
	DB	0a5H
	DB	0c8H
	DB	088H
	DB	0aH
	DB	0c6H
	DB	01cH
	DB	0e7H
	DB	0d1H
	DB	06H
	DB	090H
	DB	041H
	DB	0bbH
	DB	096H
	DB	0c5H
	DB	036H
	DB	084H
	DB	0daH
	DB	013H
	DB	0c6H
	DB	07eH
	DB	0e7H
	DB	0b7H
	DB	0cbH
	DB	068H
	DB	079H
	DB	05eH
	DB	0ecH
	DB	0acH
	DB	0e8H
	DB	076H
	DB	095H
	DB	0c5H
	DB	0abH
	DB	0e9H
	DB	06H
	DB	0dbH
	DB	0bbH
	DB	074H
	DB	04cH
	DB	0a0H
	DB	082H
	DB	06eH
	DB	060H
	DB	01dH
	DB	0ffH
	DB	0c9H
	DB	063H
	DB	047H
	DB	06H
	DB	0ffH
	DB	0e0H
	DB	044H
	DB	0b6H
	DB	071H
	DB	0e4H
	DB	0a5H
	DB	025H
	DB	04dH
	DB	0a2H
	DB	02eH
	DB	0bbH
	DB	044H
	DB	084H
	DB	0f1H
	DB	050H
	DB	086H
	DB	0beH
	DB	08H
	DB	081H
	DB	0abH
	DB	0f4H
	DB	033H
	DB	09eH
	DB	059H
	DB	035H
	DB	063H
	DB	0e2H
	DB	04aH
	DB	0dH
	DB	05fH
	DB	0f8H
	DB	0f3H
	DB	017H
	DB	0f1H
	DB	043H
	DB	01dH
	DB	08dH
	DB	06bH
	DB	016H
	DB	0eH
	DB	06bH
	DB	07eH
	DB	025H
	DD	020H
	DB	0ffH
	DB	0ffH
	DB	0ffH
	DB	0ffH
	DB	0ffH
	DB	0ffH
	DB	0ffH
	DB	0ffH
	DB	0ffH
	DB	0ffH
	DB	0ffH
	DB	0ffH
	DB	0ffH
	DB	0ffH
	DB	0ffH
	DB	0ffH
	DB	0ffH
	DB	0ffH
	DB	0ffH
	DB	0ffH
	DB	0ffH
	DB	0ffH
	DB	0ffH
	DB	0ffH
	DB	0ffH
	DB	0ffH
	DB	0ffH
	DB	0ffH
	DB	0ffH
	DB	0ffH
	DB	0ffH
	DB	0ffH
	DB	00H
	DB	01H
	DB	02H
	DB	03H
	DB	04H
	DB	05H
	DB	06H
	DB	07H
	DB	08H
	DB	09H
	DB	0aH
	DB	0bH
	DB	0cH
	DB	0dH
	DB	0eH
	DB	0fH
	DB	010H
	DB	011H
	DB	012H
	DB	013H
	DB	014H
	DB	015H
	DB	016H
	DB	017H
	DB	018H
	DB	019H
	DB	01aH
	DB	01bH
	DB	01cH
	DB	01dH
	DB	01eH
	DB	01fH
	DB	020H
	DB	021H
	DB	022H
	DB	023H
	DB	024H
	DB	025H
	DB	026H
	DB	027H
	DB	028H
	DB	029H
	DB	02aH
	DB	02bH
	DB	02cH
	DB	02dH
	DB	02eH
	DB	02fH
	DB	030H
	DB	031H
	DB	032H
	DB	033H
	DB	034H
	DB	035H
	DB	036H
	DB	037H
	DB	038H
	DB	039H
	DB	03aH
	DB	03bH
	DB	03cH
	DB	03dH
	DB	03eH
	DB	03fH
	DB	040H
	DB	041H
	DB	042H
	DB	043H
	DB	044H
	DB	045H
	DB	046H
	DB	047H
	DB	048H
	DB	049H
	DB	04aH
	DB	04bH
	DB	04cH
	DB	04dH
	DB	04eH
	DB	04fH
	DB	050H
	DB	051H
	DB	052H
	DB	053H
	DB	054H
	DB	055H
	DB	056H
	DB	057H
	DB	058H
	DB	059H
	DB	05aH
	DB	05bH
	DB	05cH
	DB	05dH
	DB	05eH
	DB	05fH
	DB	060H
	DB	061H
	DB	062H
	DB	063H
	DB	064H
	DB	065H
	DB	066H
	DB	067H
	DB	068H
	DB	069H
	DB	06aH
	DB	06bH
	DB	06cH
	DB	06dH
	DB	06eH
	DB	06fH
	DB	070H
	DB	071H
	DB	072H
	DB	073H
	DB	074H
	DB	075H
	DB	076H
	DB	077H
	DB	078H
	DB	079H
	DB	07aH
	DB	07bH
	DB	07cH
	DB	07dH
	DB	07eH
	DB	07fH
	DB	0cdH
	DB	057H
	DB	01dH
	DB	0c3H
	DB	01eH
	DB	042H
	DB	095H
	DB	0a7H
	DB	0b5H
	DB	0c6H
	DB	024H
	DB	0d6H
	DB	05dH
	DB	091H
	DB	04bH
	DB	0b8H
	DB	03H
	DB	05bH
	DB	092H
	DB	098H
	DB	04dH
	DB	022H
	DB	0cH
	DB	098H
	DB	063H
	DB	0a0H
	DB	087H
	DB	0bcH
	DB	0b0H
	DB	04H
	DB	051H
	DB	07eH
	DB	09aH
	DB	03dH
	DB	0fbH
	DB	0eH
	DB	074H
	DB	0abH
	DB	0fH
	DB	0dfH
	DB	06cH
	DB	068H
	DB	064H
	DB	039H
	DB	0eH
	DB	022H
	DB	0afH
	DB	096H
	DB	050H
	DB	0a0H
	DB	0c4H
	DB	034H
	DB	05H
	DB	019H
	DB	0ceH
	DB	051H
	DB	089H
	DB	03aH
	DB	0f9H
	DB	0b1H
	DB	064H
	DB	086H
	DB	09fH
	DB	0f3H
	DB	0faH
	DB	01cH
	DB	0c8H
	DB	030H
	DB	064H
	DB	0f6H
	DB	04aH
	DB	05aH
	DB	04bH
	DB	04bH
	DB	095H
	DB	028H
	DB	04cH
	DB	04dH
	DB	089H
	DB	036H
	DB	066H
	DB	071H
	DB	025H
	DB	08dH
	DB	0c7H
	DB	0dbH
	DB	0a5H
	DB	093H
	DB	062H
	DB	06eH
	DB	03eH
	DB	07bH
	DB	081H
	DB	097H
	DB	0e9H
	DB	024H
	DB	016H
	DB	041H
	DB	03aH
	DB	0bdH
	DB	027H
	DB	07cH
	DB	06eH
	DB	0fH
	DB	08eH
	DB	062H
	DB	066H
	DB	0f9H
	DB	05eH
	DB	08dH
	DB	016H
	DB	04eH
	DB	0e3H
	DB	0a8H
	DB	03H
	DB	099H
	DB	0caH
	DB	06bH
	DB	02aH
	DB	058H
	DB	0faH
	DB	018H
	DB	0bfH
	DB	039H
	DB	079H
	DB	02H
	DB	07H
	DB	08aH
	DD	020H
	DB	00H
	DB	01H
	DB	02H
	DB	03H
	DB	04H
	DB	05H
	DB	06H
	DB	07H
	DB	08H
	DB	09H
	DB	0aH
	DB	0bH
	DB	0cH
	DB	0dH
	DB	0eH
	DB	0fH
	DB	010H
	DB	011H
	DB	012H
	DB	013H
	DB	014H
	DB	015H
	DB	016H
	DB	017H
	DB	018H
	DB	019H
	DB	01aH
	DB	01bH
	DB	01cH
	DB	01dH
	DB	01eH
	DB	01fH
	DB	00H
	DB	01H
	DB	02H
	DB	03H
	DB	04H
	DB	05H
	DB	06H
	DB	07H
	DB	08H
	DB	09H
	DB	0aH
	DB	0bH
	DB	0cH
	DB	0dH
	DB	0eH
	DB	0fH
	DB	010H
	DB	011H
	DB	012H
	DB	013H
	DB	014H
	DB	015H
	DB	016H
	DB	017H
	DB	018H
	DB	019H
	DB	01aH
	DB	01bH
	DB	01cH
	DB	01dH
	DB	01eH
	DB	01fH
	DB	020H
	DB	021H
	DB	022H
	DB	023H
	DB	024H
	DB	025H
	DB	026H
	DB	027H
	DB	028H
	DB	029H
	DB	02aH
	DB	02bH
	DB	02cH
	DB	02dH
	DB	02eH
	DB	02fH
	DB	030H
	DB	031H
	DB	032H
	DB	033H
	DB	034H
	DB	035H
	DB	036H
	DB	037H
	DB	038H
	DB	039H
	DB	03aH
	DB	03bH
	DB	03cH
	DB	03dH
	DB	03eH
	DB	03fH
	DB	040H
	DB	041H
	DB	042H
	DB	043H
	DB	044H
	DB	045H
	DB	046H
	DB	047H
	DB	048H
	DB	049H
	DB	04aH
	DB	04bH
	DB	04cH
	DB	04dH
	DB	04eH
	DB	04fH
	DB	050H
	DB	051H
	DB	052H
	DB	053H
	DB	054H
	DB	055H
	DB	056H
	DB	057H
	DB	058H
	DB	059H
	DB	05aH
	DB	05bH
	DB	05cH
	DB	05dH
	DB	05eH
	DB	05fH
	DB	060H
	DB	061H
	DB	062H
	DB	063H
	DB	064H
	DB	065H
	DB	066H
	DB	067H
	DB	068H
	DB	069H
	DB	06aH
	DB	06bH
	DB	06cH
	DB	06dH
	DB	06eH
	DB	06fH
	DB	070H
	DB	071H
	DB	072H
	DB	073H
	DB	074H
	DB	075H
	DB	076H
	DB	077H
	DB	078H
	DB	079H
	DB	07aH
	DB	07bH
	DB	07cH
	DB	07dH
	DB	07eH
	DB	07fH
	DB	05aH
	DB	06eH
	DB	04H
	DB	057H
	DB	08H
	DB	0fbH
	DB	071H
	DB	096H
	DB	0f0H
	DB	02eH
	DB	055H
	DB	03dH
	DB	02H
	DB	0c3H
	DB	0a6H
	DB	092H
	DB	0e9H
	DB	0c3H
	DB	0efH
	DB	08aH
	DB	0b2H
	DB	034H
	DB	053H
	DB	0e6H
	DB	0f0H
	DB	074H
	DB	09cH
	DB	0d6H
	DB	036H
	DB	0e7H
	DB	0a8H
	DB	08eH
	DB	061H
	DB	0a6H
	DB	093H
	DB	06eH
	DB	04eH
	DB	08fH
	DB	010H
	DB	01cH
	DB	01cH
	DB	0c1H
	DB	0f9H
	DB	093H
	DB	0b5H
	DB	042H
	DB	0a0H
	DB	0d4H
	DB	0e2H
	DB	074H
	DB	0eH
	DB	08aH
	DB	0faH
	DB	0d4H
	DB	0e4H
	DB	0d1H
	DB	05dH
	DB	0dH
	DB	066H
	DB	01bH
	DB	038H
	DB	02eH
	DB	0caH
	DB	089H
	DB	0a3H
	DB	07eH
	DB	0dfH
	DB	03fH
	DB	097H
	DB	05aH
	DB	0baH
	DB	0efH
	DB	093H
	DB	07bH
	DB	062H
	DB	0c7H
	DB	08dH
	DB	05bH
	DB	0b1H
	DB	057H
	DB	097H
	DB	04bH
	DB	041H
	DB	027H
	DB	038H
	DB	0e5H
	DB	0fH
	DB	045H
	DB	0c7H
	DB	0f9H
	DB	0dbH
	DB	025H
	DB	041H
	DB	03fH
	DB	027H
	DB	04bH
	DB	0d0H
	DB	0a2H
	DB	00H
	DB	0feH
	DB	0f4H
	DB	069H
	DB	024H
	DB	0a4H
	DB	0b8H
	DB	02dH
	DB	0ffH
	DB	0f8H
	DB	053H
	DB	08eH
	DB	0c1H
	DB	0b6H
	DB	0c7H
	DB	077H
	DB	0f1H
	DB	0a7H
	DB	055H
	DB	02dH
	DB	056H
	DB	07H
	DB	022H
	DB	0aeH
	DB	016H
	DB	05cH
	DB	04aH
	DB	05H
	DB	01eH
	DB	067H
	DD	00H
	ORG $+288
_DATA	ENDS
PUBLIC	??_C@_0BJ@IMEOKNJD@?5?5?$CD?$CF02u?5?$CI?$CFu?5bytes?$CJ?5fail?6?$AA@ ; `string'
PUBLIC	??_C@_0BJ@HBBPBPKD@?5?5?$CD?$CF02u?5?$CI?$CFu?5bytes?$CJ?5pass?6?$AA@ ; `string'
PUBLIC	??_C@_0BA@BGJGIKJE@aes_encrypt_128?$AA@		; `string'
PUBLIC	??_C@_0BA@OACMINPP@aes_encrypt_192?$AA@		; `string'
PUBLIC	??_C@_0BA@JPOPBOHB@aes_encrypt_256?$AA@		; `string'
PUBLIC	??_C@_0BC@GEOOPMIG@Test?3?5cl_encrypt?6?$AA@	; `string'
PUBLIC	__$ArrayPad$
PUBLIC	?cl_encrypt_test@@YAXXZ				; cl_encrypt_test
EXTRN	?cl_release_all@@YAXXZ:PROC			; cl_release_all
EXTRN	?cl_encrypt@@YAXPAEPAI@Z:PROC			; cl_encrypt
EXTRN	?rijndaelSetupEncrypt@@YAHPAKPBEH@Z:PROC	; rijndaelSetupEncrypt
EXTRN	?cl_init@@YAXPADII@Z:PROC			; cl_init
EXTRN	_printf:PROC
EXTRN	___security_cookie:DWORD
EXTRN	@__security_check_cookie@4:PROC
;	COMDAT ??_C@_0BJ@IMEOKNJD@?5?5?$CD?$CF02u?5?$CI?$CFu?5bytes?$CJ?5fail?6?$AA@
; File c:\users\tdrol\documents\visual studio 2010\projects\analizator\analizator-bd-opencl\cl_encrypt_test.cpp
CONST	SEGMENT
??_C@_0BJ@IMEOKNJD@?5?5?$CD?$CF02u?5?$CI?$CFu?5bytes?$CJ?5fail?6?$AA@ DB ' '
	DB	' #%02u (%u bytes) fail', 0aH, 00H		; `string'
CONST	ENDS
;	COMDAT ??_C@_0BJ@HBBPBPKD@?5?5?$CD?$CF02u?5?$CI?$CFu?5bytes?$CJ?5pass?6?$AA@
CONST	SEGMENT
??_C@_0BJ@HBBPBPKD@?5?5?$CD?$CF02u?5?$CI?$CFu?5bytes?$CJ?5pass?6?$AA@ DB ' '
	DB	' #%02u (%u bytes) pass', 0aH, 00H		; `string'
CONST	ENDS
;	COMDAT ??_C@_0BA@BGJGIKJE@aes_encrypt_128?$AA@
CONST	SEGMENT
??_C@_0BA@BGJGIKJE@aes_encrypt_128?$AA@ DB 'aes_encrypt_128', 00H ; `string'
CONST	ENDS
;	COMDAT ??_C@_0BA@OACMINPP@aes_encrypt_192?$AA@
CONST	SEGMENT
??_C@_0BA@OACMINPP@aes_encrypt_192?$AA@ DB 'aes_encrypt_192', 00H ; `string'
CONST	ENDS
;	COMDAT ??_C@_0BA@JPOPBOHB@aes_encrypt_256?$AA@
CONST	SEGMENT
??_C@_0BA@JPOPBOHB@aes_encrypt_256?$AA@ DB 'aes_encrypt_256', 00H ; `string'
CONST	ENDS
;	COMDAT ??_C@_0BC@GEOOPMIG@Test?3?5cl_encrypt?6?$AA@
CONST	SEGMENT
??_C@_0BC@GEOOPMIG@Test?3?5cl_encrypt?6?$AA@ DB 'Test: cl_encrypt', 0aH, 00H ; `string'
; Function compile flags: /Ogtp
CONST	ENDS
;	COMDAT ?cl_encrypt_test@@YAXXZ
_TEXT	SEGMENT
_rk$6718 = -244						; size = 240
__$ArrayPad$ = -4					; size = 4
?cl_encrypt_test@@YAXXZ PROC				; cl_encrypt_test, COMDAT

; 24   : {

	push	ebp
	mov	ebp, esp
	sub	esp, 244				; 000000f4H
	mov	eax, DWORD PTR ___security_cookie
	xor	eax, ebp
	mov	DWORD PTR __$ArrayPad$[ebp], eax

; 25   : 	printf("Test: cl_encrypt\n");

	push	OFFSET ??_C@_0BC@GEOOPMIG@Test?3?5cl_encrypt?6?$AA@
	call	_printf
	add	esp, 4

; 26   : 
; 27   : 	//uint8_t result[DATA_LENGTH];
; 28   : 
; 29   : 	for (unsigned int i = 0; test_data[i].length; i++)

	cmp	DWORD PTR _test_data, 0
	je	$LN8@cl_encrypt

; 25   : 	printf("Test: cl_encrypt\n");

	push	ebx
	push	esi
	push	edi
	mov	esi, OFFSET _test_data
	mov	ebx, 1
	npad	6
$LL10@cl_encrypt:

; 30   : 	{
; 31   : 		Encrypt_Data &data = test_data[i];
; 32   : 		
; 33   : 		switch (data.length)

	mov	eax, DWORD PTR [esi]
	cmp	eax, 16					; 00000010H
	je	SHORT $LN5@cl_encrypt
	cmp	eax, 24					; 00000018H
	je	SHORT $LN4@cl_encrypt
	cmp	eax, 32					; 00000020H
	jne	SHORT $LN6@cl_encrypt

; 43   : 		case 32:
; 44   : 			cl_init("aes_encrypt_256", DATA_LENGTH, 
; 45   : 					RKLENGTH(data.length*8)*sizeof(uint32_t));

	add	eax, eax
	add	eax, eax
	add	eax, eax
	shr	eax, 3
	lea	ecx, DWORD PTR [eax*4+112]
	push	ecx
	push	128					; 00000080H
	push	OFFSET ??_C@_0BA@JPOPBOHB@aes_encrypt_256?$AA@

; 46   : 			break;

	jmp	SHORT $LN23@cl_encrypt
$LN4@cl_encrypt:

; 38   : 			break;
; 39   : 		case 24:
; 40   : 			cl_init("aes_encrypt_192", DATA_LENGTH, 
; 41   : 					RKLENGTH(data.length*8)*sizeof(uint32_t));

	lea	edx, DWORD PTR [eax*8]
	shr	edx, 3
	lea	eax, DWORD PTR [edx*4+112]
	push	eax
	push	128					; 00000080H
	push	OFFSET ??_C@_0BA@OACMINPP@aes_encrypt_192?$AA@

; 42   : 			break;

	jmp	SHORT $LN23@cl_encrypt
$LN5@cl_encrypt:

; 34   : 		{
; 35   : 		case 16:
; 36   : 			cl_init("aes_encrypt_128", DATA_LENGTH, 
; 37   : 					RKLENGTH(data.length*8)*sizeof(uint32_t));

	lea	ecx, DWORD PTR [eax*8]
	shr	ecx, 3
	lea	edx, DWORD PTR [ecx*4+112]
	push	edx
	push	128					; 00000080H
	push	OFFSET ??_C@_0BA@BGJGIKJE@aes_encrypt_128?$AA@
$LN23@cl_encrypt:
	call	?cl_init@@YAXPADII@Z			; cl_init
	add	esp, 12					; 0000000cH
$LN6@cl_encrypt:

; 47   : 		}
; 48   : 
; 49   : 		uint32_t rk[RKLENGTH(256)];
; 50   : 		uint8_t plaintext[DATA_LENGTH];
; 51   : 
; 52   : 		memcpy(plaintext, data.plaintext, DATA_LENGTH);
; 53   : 
; 54   : 		rijndaelSetupEncrypt((unsigned long *) rk, data.key, data.length*8);

	mov	eax, DWORD PTR [esi]
	add	eax, eax
	add	eax, eax
	add	eax, eax
	push	eax
	lea	ecx, DWORD PTR [esi+4]
	push	ecx
	lea	edx, DWORD PTR _rk$6718[ebp]
	push	edx
	call	?rijndaelSetupEncrypt@@YAHPAKPBEH@Z	; rijndaelSetupEncrypt

; 55   : 
; 56   : 		//memcpy(result, data.plaintext, DATA_LENGTH);
; 57   : 
; 58   : 		cl_encrypt(data.plaintext, rk);

	lea	eax, DWORD PTR _rk$6718[ebp]
	push	eax
	lea	edi, DWORD PTR [esi+36]
	push	edi
	call	?cl_encrypt@@YAXPAEPAI@Z		; cl_encrypt

; 59   : 		//local_encrypt(plaintext, rk);
; 60   : 
; 61   : 		if (memcmp(data.plaintext, data.ciphertext, DATA_LENGTH) == 0)

	lea	eax, DWORD PTR [esi+164]
	add	esp, 20					; 00000014H
	mov	ecx, 128				; 00000080H
	sub	edi, eax
	npad	7
$LL14@cl_encrypt:
	mov	edx, DWORD PTR [edi+eax]
	cmp	edx, DWORD PTR [eax]
	jne	SHORT $LN2@cl_encrypt
	sub	ecx, 4
	add	eax, 4
	cmp	ecx, 4
	jae	SHORT $LL14@cl_encrypt

; 62   : 		{
; 63   : 			printf("  #%02u (%u bytes) pass\n", i+1, data.length);

	mov	ecx, DWORD PTR [esi]
	push	ecx
	push	ebx
	push	OFFSET ??_C@_0BJ@HBBPBPKD@?5?5?$CD?$CF02u?5?$CI?$CFu?5bytes?$CJ?5pass?6?$AA@
$LN24@cl_encrypt:
	call	_printf
	inc	ebx
	mov	edx, ebx
	imul	edx, 292				; 00000124H
	lea	esi, DWORD PTR _test_data[edx-292]
	add	esp, 12					; 0000000cH
	cmp	DWORD PTR [esi], 0
	jne	$LL10@cl_encrypt
	pop	edi
	pop	esi
	pop	ebx
$LN8@cl_encrypt:

; 68   : 			/*
; 69   : 			for (unsigned int j = 0; j < 16; j += 4)
; 70   : 			{
; 71   : 				printf("    ");
; 72   : 				printf("0x%08x  ", ((uint_u *) (data.plaintext + j))->i);
; 73   : 				printf("0x%08x  ", ((uint_u *) (data.ciphertext + j))->i);
; 74   : 				printf("%2i\n", memcmp(data.plaintext + j, data.ciphertext + j, 4));
; 75   : 			}
; 76   : 			*/
; 77   : 		}
; 78   : 	}
; 79   : 
; 80   : 	cl_release_all();

	call	?cl_release_all@@YAXXZ			; cl_release_all

; 81   : }

	mov	ecx, DWORD PTR __$ArrayPad$[ebp]
	xor	ecx, ebp
	call	@__security_check_cookie@4
	mov	esp, ebp
	pop	ebp
	ret	0
$LN2@cl_encrypt:

; 64   : 		}
; 65   : 		else
; 66   : 		{
; 67   : 			printf("  #%02u (%u bytes) fail\n", i+1, data.length);

	mov	eax, DWORD PTR [esi]
	push	eax
	push	ebx
	push	OFFSET ??_C@_0BJ@IMEOKNJD@?5?5?$CD?$CF02u?5?$CI?$CFu?5bytes?$CJ?5fail?6?$AA@
	jmp	SHORT $LN24@cl_encrypt
?cl_encrypt_test@@YAXXZ ENDP				; cl_encrypt_test
_TEXT	ENDS
PUBLIC	?local_encrypt@@YAXPAEPAI@Z			; local_encrypt
; Function compile flags: /Ogtp
;	COMDAT ?local_encrypt@@YAXPAEPAI@Z
_TEXT	SEGMENT
tv1843 = -12						; size = 4
_t2$ = -12						; size = 4
_s1$ = -12						; size = 4
_t1$ = -8						; size = 4
_t0$ = -4						; size = 4
tv1845 = 8						; size = 4
tv1841 = 8						; size = 4
tv1838 = 8						; size = 4
tv1836 = 8						; size = 4
tv1834 = 8						; size = 4
_s2$ = 8						; size = 4
_plaintext$ = 8						; size = 4
_t3$ = 12						; size = 4
_s3$ = 12						; size = 4
_s0$ = 12						; size = 4
_rk$ = 12						; size = 4
?local_encrypt@@YAXPAEPAI@Z PROC			; local_encrypt, COMDAT

; 424  : {

	push	ebp
	mov	ebp, esp
	sub	esp, 12					; 0000000cH

; 425  : 	uint32_t s0, s1, s2, s3, t0, t1, t2, t3;
; 426  : 
; 427  : #define GETU32(plaintext) (((uint32_t)(plaintext)[0] << 24) ^ \
; 428  : 						   ((uint32_t)(plaintext)[1] << 16) ^ \
; 429  :  						   ((uint32_t)(plaintext)[2] <<  8) ^ \
; 430  : 						   ((uint32_t)(plaintext)[3]      ))
; 431  : 
; 432  : #define PUTU32(ciphertext, st) { (ciphertext)[0] = (uint8_t)((st) >> 24); \
; 433  : 								 (ciphertext)[1] = (uint8_t)((st) >> 16); \
; 434  : 								 (ciphertext)[2] = (uint8_t)((st) >>  8); \
; 435  : 								 (ciphertext)[3] = (uint8_t)((st)      ); }
; 436  : 
; 437  : 	s0 = GETU32(plaintext     ) ^ rk[0];

	mov	ecx, DWORD PTR _plaintext$[ebp]
	movzx	eax, BYTE PTR [ecx+1]
	movzx	edx, BYTE PTR [ecx+2]
	push	ebx
	push	esi
	movzx	esi, BYTE PTR [ecx]
	push	edi

; 438  : 	s1 = GETU32(plaintext +  4) ^ rk[1];

	movzx	edi, BYTE PTR [ecx+5]
	shl	esi, 8
	xor	esi, eax
	movzx	eax, BYTE PTR [ecx+3]

; 439  : 	s2 = GETU32(plaintext +  8) ^ rk[2];

	movzx	ebx, BYTE PTR [ecx+9]
	shl	esi, 8
	xor	esi, edx
	movzx	edx, BYTE PTR [ecx+4]
	shl	edx, 8
	xor	edx, edi
	movzx	edi, BYTE PTR [ecx+6]
	shl	edx, 8
	xor	edx, edi
	movzx	edi, BYTE PTR [ecx+7]
	shl	esi, 8
	xor	esi, eax
	mov	eax, DWORD PTR _rk$[ebp]
	shl	edx, 8
	xor	edx, DWORD PTR [eax+4]
	xor	esi, DWORD PTR [eax]
	xor	edx, edi
	movzx	edi, BYTE PTR [ecx+8]
	shl	edi, 8
	xor	edi, ebx
	movzx	ebx, BYTE PTR [ecx+10]
	shl	edi, 8
	xor	edi, ebx
	movzx	ebx, BYTE PTR [ecx+11]
	shl	edi, 8
	xor	edi, DWORD PTR [eax+8]
	xor	edi, ebx

; 440  : 	s3 = GETU32(plaintext + 12) ^ rk[3];

	movzx	ebx, BYTE PTR [ecx+13]
	mov	DWORD PTR _s2$[ebp], edi
	movzx	edi, BYTE PTR [ecx+12]
	shl	edi, 8
	xor	edi, ebx
	movzx	ebx, BYTE PTR [ecx+14]
	shl	edi, 8
	xor	edi, ebx
	movzx	ebx, BYTE PTR [ecx+15]
	shl	edi, 8
	xor	edi, DWORD PTR [eax+12]
	xor	edi, ebx
	mov	DWORD PTR _s3$[ebp], edi

; 441  : 
; 442  : 	t0 = Te0[s0 >> 24] ^ Te1[(s1 >> 16) & 0xff] ^ Te2[(s2 >>  8) & 0xff] ^ Te3[s3 & 0xff] ^ rk[ 4];

	mov	edi, DWORD PTR _s2$[ebp]
	shr	edi, 8
	and	edi, 255				; 000000ffH
	mov	edi, DWORD PTR _Te2[edi*4]
	mov	ebx, edx
	shr	ebx, 16					; 00000010H
	and	ebx, 255				; 000000ffH
	xor	edi, DWORD PTR _Te1[ebx*4]
	mov	ebx, esi
	shr	ebx, 24					; 00000018H
	xor	edi, DWORD PTR _Te0[ebx*4]
	mov	ebx, DWORD PTR _s3$[ebp]
	and	ebx, 255				; 000000ffH
	xor	edi, DWORD PTR _Te3[ebx*4]

; 443  : 	t1 = Te0[s1 >> 24] ^ Te1[(s2 >> 16) & 0xff] ^ Te2[(s3 >>  8) & 0xff] ^ Te3[s0 & 0xff] ^ rk[ 5];

	mov	ebx, DWORD PTR _s2$[ebp]
	xor	edi, DWORD PTR [eax+16]
	shr	ebx, 16					; 00000010H
	mov	DWORD PTR _t0$[ebp], edi
	mov	edi, DWORD PTR _s3$[ebp]
	shr	edi, 8
	and	edi, 255				; 000000ffH
	mov	edi, DWORD PTR _Te2[edi*4]
	and	ebx, 255				; 000000ffH
	xor	edi, DWORD PTR _Te1[ebx*4]
	mov	ebx, edx
	shr	ebx, 24					; 00000018H
	xor	edi, DWORD PTR _Te0[ebx*4]
	mov	ebx, esi
	and	ebx, 255				; 000000ffH
	xor	edi, DWORD PTR _Te3[ebx*4]
	xor	edi, DWORD PTR [eax+20]

; 444  : 	t2 = Te0[s2 >> 24] ^ Te1[(s3 >> 16) & 0xff] ^ Te2[(s0 >>  8) & 0xff] ^ Te3[s1 & 0xff] ^ rk[ 6];

	mov	ebx, esi
	shr	ebx, 8
	and	ebx, 255				; 000000ffH
	mov	DWORD PTR _t1$[ebp], edi
	mov	edi, DWORD PTR _s3$[ebp]
	shr	edi, 16					; 00000010H
	and	edi, 255				; 000000ffH
	mov	edi, DWORD PTR _Te1[edi*4]
	xor	edi, DWORD PTR _Te2[ebx*4]
	mov	ebx, DWORD PTR _s2$[ebp]
	shr	ebx, 24					; 00000018H
	xor	edi, DWORD PTR _Te0[ebx*4]
	mov	ebx, edx

; 445  : 	t3 = Te0[s3 >> 24] ^ Te1[(s0 >> 16) & 0xff] ^ Te2[(s1 >>  8) & 0xff] ^ Te3[s2 & 0xff] ^ rk[ 7];

	shr	edx, 8
	and	ebx, 255				; 000000ffH
	xor	edi, DWORD PTR _Te3[ebx*4]

; 446  : 
; 447  : 	s0 = Te0[t0 >> 24] ^ Te1[(t1 >> 16) & 0xff] ^ Te2[(t2 >>  8) & 0xff] ^ Te3[t3 & 0xff] ^ rk[ 8];

	mov	ebx, DWORD PTR _t1$[ebp]
	xor	edi, DWORD PTR [eax+24]
	and	edx, 255				; 000000ffH
	mov	edx, DWORD PTR _Te2[edx*4]
	shr	esi, 16					; 00000010H
	and	esi, 255				; 000000ffH
	xor	edx, DWORD PTR _Te1[esi*4]
	mov	esi, DWORD PTR _s3$[ebp]
	shr	esi, 24					; 00000018H
	xor	edx, DWORD PTR _Te0[esi*4]
	mov	esi, DWORD PTR _s2$[ebp]
	shr	ebx, 16					; 00000010H
	and	ebx, 255				; 000000ffH
	and	esi, 255				; 000000ffH
	xor	edx, DWORD PTR _Te3[esi*4]
	mov	esi, edi
	xor	edx, DWORD PTR [eax+28]
	shr	esi, 8
	and	esi, 255				; 000000ffH
	mov	esi, DWORD PTR _Te2[esi*4]
	xor	esi, DWORD PTR _Te1[ebx*4]
	mov	ebx, DWORD PTR _t0$[ebp]
	shr	ebx, 24					; 00000018H
	xor	esi, DWORD PTR _Te0[ebx*4]
	mov	ebx, edx
	and	ebx, 255				; 000000ffH
	xor	esi, DWORD PTR _Te3[ebx*4]

; 448  : 	s1 = Te0[t1 >> 24] ^ Te1[(t2 >> 16) & 0xff] ^ Te2[(t3 >>  8) & 0xff] ^ Te3[t0 & 0xff] ^ rk[ 9];

	mov	ebx, edx
	shr	ebx, 8
	and	ebx, 255				; 000000ffH
	mov	DWORD PTR _t2$[ebp], edi
	shr	edi, 16					; 00000010H
	and	edi, 255				; 000000ffH
	mov	DWORD PTR tv1845[ebp], edi
	mov	edi, DWORD PTR _Te2[ebx*4]
	mov	ebx, DWORD PTR tv1845[ebp]
	xor	edi, DWORD PTR _Te1[ebx*4]
	mov	ebx, DWORD PTR _t1$[ebp]
	shr	ebx, 24					; 00000018H
	xor	edi, DWORD PTR _Te0[ebx*4]
	mov	ebx, DWORD PTR _t0$[ebp]
	and	ebx, 255				; 000000ffH
	xor	edi, DWORD PTR _Te3[ebx*4]

; 449  : 	s2 = Te0[t2 >> 24] ^ Te1[(t3 >> 16) & 0xff] ^ Te2[(t0 >>  8) & 0xff] ^ Te3[t1 & 0xff] ^ rk[10];

	mov	ebx, DWORD PTR _t0$[ebp]
	mov	DWORD PTR _t3$[ebp], edx
	shr	edx, 16					; 00000010H
	xor	esi, DWORD PTR [eax+32]
	xor	edi, DWORD PTR [eax+36]
	and	edx, 255				; 000000ffH
	mov	edx, DWORD PTR _Te1[edx*4]
	shr	ebx, 8
	and	ebx, 255				; 000000ffH
	xor	edx, DWORD PTR _Te2[ebx*4]
	mov	ebx, DWORD PTR _t2$[ebp]
	shr	ebx, 24					; 00000018H
	xor	edx, DWORD PTR _Te0[ebx*4]
	mov	ebx, DWORD PTR _t1$[ebp]
	and	ebx, 255				; 000000ffH
	xor	edx, DWORD PTR _Te3[ebx*4]
	xor	edx, DWORD PTR [eax+40]
	mov	DWORD PTR _s2$[ebp], edx

; 450  : 	s3 = Te0[t3 >> 24] ^ Te1[(t0 >> 16) & 0xff] ^ Te2[(t1 >>  8) & 0xff] ^ Te3[t2 & 0xff] ^ rk[11];

	mov	edx, DWORD PTR _t1$[ebp]
	shr	edx, 8
	and	edx, 255				; 000000ffH
	mov	edx, DWORD PTR _Te2[edx*4]
	mov	ebx, DWORD PTR _t0$[ebp]
	shr	ebx, 16					; 00000010H
	and	ebx, 255				; 000000ffH
	xor	edx, DWORD PTR _Te1[ebx*4]
	mov	ebx, DWORD PTR _t3$[ebp]
	shr	ebx, 24					; 00000018H
	xor	edx, DWORD PTR _Te0[ebx*4]
	mov	ebx, DWORD PTR _t2$[ebp]
	and	ebx, 255				; 000000ffH
	xor	edx, DWORD PTR _Te3[ebx*4]

; 451  : 
; 452  : 	t0 = Te0[s0 >> 24] ^ Te1[(s1 >> 16) & 0xff] ^ Te2[(s2 >>  8) & 0xff] ^ Te3[s3 & 0xff] ^ rk[12];

	mov	ebx, edi
	xor	edx, DWORD PTR [eax+44]
	shr	ebx, 16					; 00000010H
	mov	DWORD PTR _s3$[ebp], edx
	mov	edx, DWORD PTR _s2$[ebp]
	shr	edx, 8
	and	edx, 255				; 000000ffH
	mov	edx, DWORD PTR _Te2[edx*4]
	and	ebx, 255				; 000000ffH
	xor	edx, DWORD PTR _Te1[ebx*4]
	mov	ebx, esi
	shr	ebx, 24					; 00000018H
	xor	edx, DWORD PTR _Te0[ebx*4]
	mov	ebx, DWORD PTR _s3$[ebp]
	and	ebx, 255				; 000000ffH
	xor	edx, DWORD PTR _Te3[ebx*4]

; 453  : 	t1 = Te0[s1 >> 24] ^ Te1[(s2 >> 16) & 0xff] ^ Te2[(s3 >>  8) & 0xff] ^ Te3[s0 & 0xff] ^ rk[13];

	mov	ebx, DWORD PTR _s2$[ebp]
	xor	edx, DWORD PTR [eax+48]
	shr	ebx, 16					; 00000010H
	mov	DWORD PTR _t0$[ebp], edx
	mov	edx, DWORD PTR _s3$[ebp]
	shr	edx, 8
	and	edx, 255				; 000000ffH
	mov	edx, DWORD PTR _Te2[edx*4]
	and	ebx, 255				; 000000ffH
	xor	edx, DWORD PTR _Te1[ebx*4]
	mov	ebx, edi
	shr	ebx, 24					; 00000018H
	xor	edx, DWORD PTR _Te0[ebx*4]
	mov	ebx, esi
	and	ebx, 255				; 000000ffH
	xor	edx, DWORD PTR _Te3[ebx*4]

; 454  : 	t2 = Te0[s2 >> 24] ^ Te1[(s3 >> 16) & 0xff] ^ Te2[(s0 >>  8) & 0xff] ^ Te3[s1 & 0xff] ^ rk[14];

	mov	ebx, esi
	xor	edx, DWORD PTR [eax+52]
	shr	ebx, 8
	mov	DWORD PTR _t1$[ebp], edx
	mov	edx, DWORD PTR _s3$[ebp]
	shr	edx, 16					; 00000010H
	and	edx, 255				; 000000ffH
	and	ebx, 255				; 000000ffH
	mov	DWORD PTR tv1843[ebp], ebx
	mov	ebx, DWORD PTR _Te1[edx*4]
	mov	edx, DWORD PTR tv1843[ebp]
	xor	ebx, DWORD PTR _Te2[edx*4]
	mov	edx, DWORD PTR _s2$[ebp]
	shr	edx, 24					; 00000018H
	xor	ebx, DWORD PTR _Te0[edx*4]
	mov	edx, edi

; 455  : 	t3 = Te0[s3 >> 24] ^ Te1[(s0 >> 16) & 0xff] ^ Te2[(s1 >>  8) & 0xff] ^ Te3[s2 & 0xff] ^ rk[15];

	shr	edi, 8
	and	edx, 255				; 000000ffH
	xor	ebx, DWORD PTR _Te3[edx*4]
	mov	edx, DWORD PTR _s3$[ebp]
	xor	ebx, DWORD PTR [eax+56]
	and	edi, 255				; 000000ffH
	mov	edi, DWORD PTR _Te2[edi*4]
	shr	esi, 16					; 00000010H
	and	esi, 255				; 000000ffH
	xor	edi, DWORD PTR _Te1[esi*4]

; 456  : 
; 457  : 	s0 = Te0[t0 >> 24] ^ Te1[(t1 >> 16) & 0xff] ^ Te2[(t2 >>  8) & 0xff] ^ Te3[t3 & 0xff] ^ rk[16];

	mov	esi, DWORD PTR _t1$[ebp]
	shr	edx, 24					; 00000018H
	xor	edi, DWORD PTR _Te0[edx*4]
	mov	edx, DWORD PTR _s2$[ebp]
	and	edx, 255				; 000000ffH
	xor	edi, DWORD PTR _Te3[edx*4]
	mov	edx, ebx
	xor	edi, DWORD PTR [eax+60]
	shr	edx, 8
	mov	DWORD PTR _t2$[ebp], ebx
	mov	DWORD PTR _t3$[ebp], edi
	and	edx, 255				; 000000ffH
	mov	edx, DWORD PTR _Te2[edx*4]
	shr	esi, 16					; 00000010H
	and	esi, 255				; 000000ffH
	xor	edx, DWORD PTR _Te1[esi*4]
	mov	esi, DWORD PTR _t0$[ebp]

; 458  : 	s1 = Te0[t1 >> 24] ^ Te1[(t2 >> 16) & 0xff] ^ Te2[(t3 >>  8) & 0xff] ^ Te3[t0 & 0xff] ^ rk[17];

	shr	ebx, 16					; 00000010H
	and	ebx, 255				; 000000ffH
	shr	esi, 24					; 00000018H
	xor	edx, DWORD PTR _Te0[esi*4]
	mov	esi, edi
	and	esi, 255				; 000000ffH
	xor	edx, DWORD PTR _Te3[esi*4]
	mov	esi, edi

; 459  : 	s2 = Te0[t2 >> 24] ^ Te1[(t3 >> 16) & 0xff] ^ Te2[(t0 >>  8) & 0xff] ^ Te3[t1 & 0xff] ^ rk[18];

	shr	edi, 16					; 00000010H
	shr	esi, 8
	and	edi, 255				; 000000ffH
	mov	edi, DWORD PTR _Te1[edi*4]
	and	esi, 255				; 000000ffH
	mov	esi, DWORD PTR _Te2[esi*4]
	xor	esi, DWORD PTR _Te1[ebx*4]
	mov	ebx, DWORD PTR _t1$[ebp]
	shr	ebx, 24					; 00000018H
	xor	esi, DWORD PTR _Te0[ebx*4]
	mov	ebx, DWORD PTR _t0$[ebp]
	and	ebx, 255				; 000000ffH
	xor	esi, DWORD PTR _Te3[ebx*4]
	mov	ebx, DWORD PTR _t0$[ebp]
	shr	ebx, 8
	and	ebx, 255				; 000000ffH
	xor	edi, DWORD PTR _Te2[ebx*4]
	mov	ebx, DWORD PTR _t2$[ebp]
	shr	ebx, 24					; 00000018H
	xor	edi, DWORD PTR _Te0[ebx*4]
	mov	ebx, DWORD PTR _t1$[ebp]
	and	ebx, 255				; 000000ffH
	xor	edi, DWORD PTR _Te3[ebx*4]

; 460  : 	s3 = Te0[t3 >> 24] ^ Te1[(t0 >> 16) & 0xff] ^ Te2[(t1 >>  8) & 0xff] ^ Te3[t2 & 0xff] ^ rk[19];

	mov	ebx, DWORD PTR _t0$[ebp]
	xor	edi, DWORD PTR [eax+72]
	shr	ebx, 16					; 00000010H
	mov	DWORD PTR _s2$[ebp], edi
	mov	edi, DWORD PTR _t1$[ebp]
	shr	edi, 8
	and	edi, 255				; 000000ffH
	mov	edi, DWORD PTR _Te2[edi*4]
	xor	esi, DWORD PTR [eax+68]
	and	ebx, 255				; 000000ffH
	xor	edi, DWORD PTR _Te1[ebx*4]
	mov	ebx, DWORD PTR _t3$[ebp]
	shr	ebx, 24					; 00000018H
	xor	edi, DWORD PTR _Te0[ebx*4]
	mov	ebx, DWORD PTR _t2$[ebp]
	xor	edx, DWORD PTR [eax+64]
	and	ebx, 255				; 000000ffH
	xor	edi, DWORD PTR _Te3[ebx*4]

; 461  : 
; 462  : 	t0 = Te0[s0 >> 24] ^ Te1[(s1 >> 16) & 0xff] ^ Te2[(s2 >>  8) & 0xff] ^ Te3[s3 & 0xff] ^ rk[20];

	mov	ebx, esi
	xor	edi, DWORD PTR [eax+76]
	shr	ebx, 16					; 00000010H
	mov	DWORD PTR _s3$[ebp], edi
	mov	edi, DWORD PTR _s2$[ebp]
	shr	edi, 8
	and	edi, 255				; 000000ffH
	mov	edi, DWORD PTR _Te2[edi*4]
	and	ebx, 255				; 000000ffH
	xor	edi, DWORD PTR _Te1[ebx*4]
	mov	ebx, edx
	shr	ebx, 24					; 00000018H
	xor	edi, DWORD PTR _Te0[ebx*4]
	mov	ebx, DWORD PTR _s3$[ebp]
	and	ebx, 255				; 000000ffH
	xor	edi, DWORD PTR _Te3[ebx*4]

; 463  : 	t1 = Te0[s1 >> 24] ^ Te1[(s2 >> 16) & 0xff] ^ Te2[(s3 >>  8) & 0xff] ^ Te3[s0 & 0xff] ^ rk[21];

	mov	ebx, DWORD PTR _s2$[ebp]
	xor	edi, DWORD PTR [eax+80]
	shr	ebx, 16					; 00000010H
	mov	DWORD PTR _t0$[ebp], edi
	mov	edi, DWORD PTR _s3$[ebp]
	shr	edi, 8
	and	edi, 255				; 000000ffH
	mov	edi, DWORD PTR _Te2[edi*4]
	and	ebx, 255				; 000000ffH
	xor	edi, DWORD PTR _Te1[ebx*4]
	mov	ebx, esi
	shr	ebx, 24					; 00000018H
	xor	edi, DWORD PTR _Te0[ebx*4]
	mov	ebx, edx
	and	ebx, 255				; 000000ffH
	xor	edi, DWORD PTR _Te3[ebx*4]

; 464  : 	t2 = Te0[s2 >> 24] ^ Te1[(s3 >> 16) & 0xff] ^ Te2[(s0 >>  8) & 0xff] ^ Te3[s1 & 0xff] ^ rk[22];

	mov	ebx, edx
	xor	edi, DWORD PTR [eax+84]
	shr	ebx, 8
	and	ebx, 255				; 000000ffH
	mov	DWORD PTR _t1$[ebp], edi
	mov	edi, DWORD PTR _s3$[ebp]
	shr	edi, 16					; 00000010H
	and	edi, 255				; 000000ffH
	mov	edi, DWORD PTR _Te1[edi*4]
	xor	edi, DWORD PTR _Te2[ebx*4]
	mov	ebx, DWORD PTR _s2$[ebp]
	shr	ebx, 24					; 00000018H
	xor	edi, DWORD PTR _Te0[ebx*4]
	mov	ebx, esi
	and	ebx, 255				; 000000ffH
	xor	edi, DWORD PTR _Te3[ebx*4]

; 465  : 	t3 = Te0[s3 >> 24] ^ Te1[(s0 >> 16) & 0xff] ^ Te2[(s1 >>  8) & 0xff] ^ Te3[s2 & 0xff] ^ rk[23];
; 466  : 
; 467  : 	s0 = Te0[t0 >> 24] ^ Te1[(t1 >> 16) & 0xff] ^ Te2[(t2 >>  8) & 0xff] ^ Te3[t3 & 0xff] ^ rk[24];

	mov	ebx, DWORD PTR _t1$[ebp]
	xor	edi, DWORD PTR [eax+88]
	shr	esi, 8
	shr	edx, 16					; 00000010H
	and	edx, 255				; 000000ffH
	and	esi, 255				; 000000ffH
	mov	esi, DWORD PTR _Te2[esi*4]
	xor	esi, DWORD PTR _Te1[edx*4]
	mov	edx, DWORD PTR _s3$[ebp]
	shr	edx, 24					; 00000018H
	xor	esi, DWORD PTR _Te0[edx*4]
	mov	edx, DWORD PTR _s2$[ebp]
	shr	ebx, 16					; 00000010H
	and	ebx, 255				; 000000ffH
	and	edx, 255				; 000000ffH
	xor	esi, DWORD PTR _Te3[edx*4]
	mov	edx, edi
	xor	esi, DWORD PTR [eax+92]
	shr	edx, 8
	and	edx, 255				; 000000ffH
	mov	edx, DWORD PTR _Te2[edx*4]
	xor	edx, DWORD PTR _Te1[ebx*4]
	mov	ebx, DWORD PTR _t0$[ebp]
	shr	ebx, 24					; 00000018H
	xor	edx, DWORD PTR _Te0[ebx*4]
	mov	ebx, esi
	and	ebx, 255				; 000000ffH
	xor	edx, DWORD PTR _Te3[ebx*4]
	mov	DWORD PTR _t2$[ebp], edi

; 468  : 	s1 = Te0[t1 >> 24] ^ Te1[(t2 >> 16) & 0xff] ^ Te2[(t3 >>  8) & 0xff] ^ Te3[t0 & 0xff] ^ rk[25];

	mov	ebx, esi
	shr	ebx, 8
	and	ebx, 255				; 000000ffH
	shr	edi, 16					; 00000010H
	and	edi, 255				; 000000ffH
	mov	DWORD PTR tv1841[ebp], edi
	mov	edi, DWORD PTR _Te2[ebx*4]
	mov	ebx, DWORD PTR tv1841[ebp]
	xor	edi, DWORD PTR _Te1[ebx*4]
	mov	ebx, DWORD PTR _t1$[ebp]
	shr	ebx, 24					; 00000018H
	xor	edi, DWORD PTR _Te0[ebx*4]
	mov	ebx, DWORD PTR _t0$[ebp]
	xor	edx, DWORD PTR [eax+96]
	and	ebx, 255				; 000000ffH
	xor	edi, DWORD PTR _Te3[ebx*4]

; 469  : 	s2 = Te0[t2 >> 24] ^ Te1[(t3 >> 16) & 0xff] ^ Te2[(t0 >>  8) & 0xff] ^ Te3[t1 & 0xff] ^ rk[26];

	mov	ebx, DWORD PTR _t0$[ebp]
	xor	edi, DWORD PTR [eax+100]
	mov	DWORD PTR _t3$[ebp], esi
	shr	esi, 16					; 00000010H
	shr	ebx, 8
	and	esi, 255				; 000000ffH
	mov	esi, DWORD PTR _Te1[esi*4]
	and	ebx, 255				; 000000ffH
	xor	esi, DWORD PTR _Te2[ebx*4]
	mov	ebx, DWORD PTR _t2$[ebp]
	shr	ebx, 24					; 00000018H
	xor	esi, DWORD PTR _Te0[ebx*4]
	mov	ebx, DWORD PTR _t1$[ebp]
	and	ebx, 255				; 000000ffH
	xor	esi, DWORD PTR _Te3[ebx*4]
	xor	esi, DWORD PTR [eax+104]

; 470  : 	s3 = Te0[t3 >> 24] ^ Te1[(t0 >> 16) & 0xff] ^ Te2[(t1 >>  8) & 0xff] ^ Te3[t2 & 0xff] ^ rk[27];

	mov	ebx, DWORD PTR _t0$[ebp]
	mov	DWORD PTR _s2$[ebp], esi
	mov	esi, DWORD PTR _t1$[ebp]
	shr	esi, 8
	and	esi, 255				; 000000ffH
	mov	esi, DWORD PTR _Te2[esi*4]
	shr	ebx, 16					; 00000010H
	and	ebx, 255				; 000000ffH
	xor	esi, DWORD PTR _Te1[ebx*4]
	mov	ebx, DWORD PTR _t3$[ebp]
	shr	ebx, 24					; 00000018H
	xor	esi, DWORD PTR _Te0[ebx*4]
	mov	ebx, DWORD PTR _t2$[ebp]
	and	ebx, 255				; 000000ffH
	xor	esi, DWORD PTR _Te3[ebx*4]

; 471  : 
; 472  : 	t0 = Te0[s0 >> 24] ^ Te1[(s1 >> 16) & 0xff] ^ Te2[(s2 >>  8) & 0xff] ^ Te3[s3 & 0xff] ^ rk[28];

	mov	ebx, edi
	xor	esi, DWORD PTR [eax+108]
	shr	ebx, 16					; 00000010H
	mov	DWORD PTR _s3$[ebp], esi
	mov	esi, DWORD PTR _s2$[ebp]
	shr	esi, 8
	and	esi, 255				; 000000ffH
	mov	esi, DWORD PTR _Te2[esi*4]
	and	ebx, 255				; 000000ffH
	xor	esi, DWORD PTR _Te1[ebx*4]
	mov	ebx, edx
	shr	ebx, 24					; 00000018H
	xor	esi, DWORD PTR _Te0[ebx*4]
	mov	ebx, DWORD PTR _s3$[ebp]
	and	ebx, 255				; 000000ffH
	xor	esi, DWORD PTR _Te3[ebx*4]

; 473  : 	t1 = Te0[s1 >> 24] ^ Te1[(s2 >> 16) & 0xff] ^ Te2[(s3 >>  8) & 0xff] ^ Te3[s0 & 0xff] ^ rk[29];

	mov	ebx, DWORD PTR _s2$[ebp]
	xor	esi, DWORD PTR [eax+112]
	shr	ebx, 16					; 00000010H
	mov	DWORD PTR _t0$[ebp], esi
	mov	esi, DWORD PTR _s3$[ebp]
	shr	esi, 8
	and	esi, 255				; 000000ffH
	mov	esi, DWORD PTR _Te2[esi*4]
	and	ebx, 255				; 000000ffH
	xor	esi, DWORD PTR _Te1[ebx*4]
	mov	ebx, edi
	shr	ebx, 24					; 00000018H
	xor	esi, DWORD PTR _Te0[ebx*4]
	mov	ebx, edx
	and	ebx, 255				; 000000ffH
	xor	esi, DWORD PTR _Te3[ebx*4]

; 474  : 	t2 = Te0[s2 >> 24] ^ Te1[(s3 >> 16) & 0xff] ^ Te2[(s0 >>  8) & 0xff] ^ Te3[s1 & 0xff] ^ rk[30];

	mov	ebx, edx
	xor	esi, DWORD PTR [eax+116]
	shr	ebx, 8
	mov	DWORD PTR _t1$[ebp], esi
	mov	esi, DWORD PTR _s3$[ebp]
	shr	esi, 16					; 00000010H
	and	esi, 255				; 000000ffH
	mov	esi, DWORD PTR _Te1[esi*4]
	and	ebx, 255				; 000000ffH
	xor	esi, DWORD PTR _Te2[ebx*4]
	mov	ebx, DWORD PTR _s2$[ebp]
	shr	ebx, 24					; 00000018H
	xor	esi, DWORD PTR _Te0[ebx*4]
	mov	ebx, edi

; 475  : 	t3 = Te0[s3 >> 24] ^ Te1[(s0 >> 16) & 0xff] ^ Te2[(s1 >>  8) & 0xff] ^ Te3[s2 & 0xff] ^ rk[31];

	shr	edi, 8
	shr	edx, 16					; 00000010H
	and	edi, 255				; 000000ffH
	mov	edi, DWORD PTR _Te2[edi*4]
	and	edx, 255				; 000000ffH
	xor	edi, DWORD PTR _Te1[edx*4]
	mov	edx, DWORD PTR _s3$[ebp]
	shr	edx, 24					; 00000018H
	xor	edi, DWORD PTR _Te0[edx*4]
	mov	edx, DWORD PTR _s2$[ebp]
	and	ebx, 255				; 000000ffH
	xor	esi, DWORD PTR _Te3[ebx*4]
	and	edx, 255				; 000000ffH
	xor	edi, DWORD PTR _Te3[edx*4]
	xor	esi, DWORD PTR [eax+120]
	xor	edi, DWORD PTR [eax+124]
	mov	DWORD PTR _t2$[ebp], esi
	mov	DWORD PTR _t3$[ebp], edi

; 476  : 
; 477  : 	s0 = Te0[t0 >> 24] ^ Te1[(t1 >> 16) & 0xff] ^ Te2[(t2 >>  8) & 0xff] ^ Te3[t3 & 0xff] ^ rk[32];

	mov	edx, esi
	mov	ebx, DWORD PTR _t1$[ebp]
	shr	ebx, 16					; 00000010H
	and	ebx, 255				; 000000ffH
	shr	edx, 8
	and	edx, 255				; 000000ffH
	mov	edx, DWORD PTR _Te2[edx*4]
	xor	edx, DWORD PTR _Te1[ebx*4]
	mov	ebx, DWORD PTR _t0$[ebp]
	shr	ebx, 24					; 00000018H
	xor	edx, DWORD PTR _Te0[ebx*4]
	mov	ebx, edi
	and	ebx, 255				; 000000ffH
	xor	edx, DWORD PTR _Te3[ebx*4]

; 478  : 	s1 = Te0[t1 >> 24] ^ Te1[(t2 >> 16) & 0xff] ^ Te2[(t3 >>  8) & 0xff] ^ Te3[t0 & 0xff] ^ rk[33];

	mov	ebx, edi
	shr	ebx, 8
	and	ebx, 255				; 000000ffH
	shr	esi, 16					; 00000010H

; 479  : 	s2 = Te0[t2 >> 24] ^ Te1[(t3 >> 16) & 0xff] ^ Te2[(t0 >>  8) & 0xff] ^ Te3[t1 & 0xff] ^ rk[34];

	shr	edi, 16					; 00000010H
	and	esi, 255				; 000000ffH
	mov	DWORD PTR tv1838[ebp], esi
	mov	esi, DWORD PTR _Te2[ebx*4]
	mov	ebx, DWORD PTR tv1838[ebp]
	xor	esi, DWORD PTR _Te1[ebx*4]
	mov	ebx, DWORD PTR _t1$[ebp]
	shr	ebx, 24					; 00000018H
	xor	esi, DWORD PTR _Te0[ebx*4]
	mov	ebx, DWORD PTR _t0$[ebp]
	and	ebx, 255				; 000000ffH
	xor	esi, DWORD PTR _Te3[ebx*4]
	mov	ebx, DWORD PTR _t0$[ebp]
	and	edi, 255				; 000000ffH
	mov	edi, DWORD PTR _Te1[edi*4]
	shr	ebx, 8
	and	ebx, 255				; 000000ffH
	xor	edi, DWORD PTR _Te2[ebx*4]
	mov	ebx, DWORD PTR _t2$[ebp]
	shr	ebx, 24					; 00000018H
	xor	edi, DWORD PTR _Te0[ebx*4]
	mov	ebx, DWORD PTR _t1$[ebp]
	and	ebx, 255				; 000000ffH
	xor	edi, DWORD PTR _Te3[ebx*4]

; 480  : 	s3 = Te0[t3 >> 24] ^ Te1[(t0 >> 16) & 0xff] ^ Te2[(t1 >>  8) & 0xff] ^ Te3[t2 & 0xff] ^ rk[35];

	mov	ebx, DWORD PTR _t0$[ebp]
	xor	edi, DWORD PTR [eax+136]
	xor	esi, DWORD PTR [eax+132]
	mov	DWORD PTR _s2$[ebp], edi
	mov	edi, DWORD PTR _t1$[ebp]
	shr	edi, 8
	and	edi, 255				; 000000ffH
	mov	edi, DWORD PTR _Te2[edi*4]
	shr	ebx, 16					; 00000010H
	and	ebx, 255				; 000000ffH
	xor	edi, DWORD PTR _Te1[ebx*4]
	mov	ebx, DWORD PTR _t3$[ebp]
	xor	edx, DWORD PTR [eax+128]
	shr	ebx, 24					; 00000018H
	xor	edi, DWORD PTR _Te0[ebx*4]
	mov	ebx, DWORD PTR _t2$[ebp]
	and	ebx, 255				; 000000ffH
	xor	edi, DWORD PTR _Te3[ebx*4]

; 481  : 
; 482  : 	t0 = Te0[s0 >> 24] ^ Te1[(s1 >> 16) & 0xff] ^ Te2[(s2 >>  8) & 0xff] ^ Te3[s3 & 0xff] ^ rk[36];

	mov	ebx, esi
	xor	edi, DWORD PTR [eax+140]
	shr	ebx, 16					; 00000010H
	mov	DWORD PTR _s3$[ebp], edi
	mov	edi, DWORD PTR _s2$[ebp]
	shr	edi, 8
	and	edi, 255				; 000000ffH
	mov	edi, DWORD PTR _Te2[edi*4]
	and	ebx, 255				; 000000ffH
	xor	edi, DWORD PTR _Te1[ebx*4]
	mov	ebx, edx
	shr	ebx, 24					; 00000018H
	xor	edi, DWORD PTR _Te0[ebx*4]
	mov	ebx, DWORD PTR _s3$[ebp]
	and	ebx, 255				; 000000ffH
	xor	edi, DWORD PTR _Te3[ebx*4]

; 483  : 	t1 = Te0[s1 >> 24] ^ Te1[(s2 >> 16) & 0xff] ^ Te2[(s3 >>  8) & 0xff] ^ Te3[s0 & 0xff] ^ rk[37];

	mov	ebx, DWORD PTR _s2$[ebp]
	xor	edi, DWORD PTR [eax+144]
	mov	DWORD PTR _t0$[ebp], edi
	mov	edi, DWORD PTR _s3$[ebp]
	shr	edi, 8
	and	edi, 255				; 000000ffH
	mov	edi, DWORD PTR _Te2[edi*4]
	shr	ebx, 16					; 00000010H
	and	ebx, 255				; 000000ffH
	xor	edi, DWORD PTR _Te1[ebx*4]
	mov	ebx, esi
	shr	ebx, 24					; 00000018H
	xor	edi, DWORD PTR _Te0[ebx*4]
	mov	ebx, edx
	and	ebx, 255				; 000000ffH
	xor	edi, DWORD PTR _Te3[ebx*4]

; 484  : 	t2 = Te0[s2 >> 24] ^ Te1[(s3 >> 16) & 0xff] ^ Te2[(s0 >>  8) & 0xff] ^ Te3[s1 & 0xff] ^ rk[38];

	mov	ebx, edx
	xor	edi, DWORD PTR [eax+148]
	shr	ebx, 8
	and	ebx, 255				; 000000ffH
	mov	DWORD PTR _t1$[ebp], edi
	mov	edi, DWORD PTR _s3$[ebp]
	shr	edi, 16					; 00000010H
	and	edi, 255				; 000000ffH
	mov	edi, DWORD PTR _Te1[edi*4]
	xor	edi, DWORD PTR _Te2[ebx*4]
	mov	ebx, DWORD PTR _s2$[ebp]
	shr	ebx, 24					; 00000018H
	xor	edi, DWORD PTR _Te0[ebx*4]
	mov	ebx, esi
	and	ebx, 255				; 000000ffH
	xor	edi, DWORD PTR _Te3[ebx*4]

; 485  : 	t3 = Te0[s3 >> 24] ^ Te1[(s0 >> 16) & 0xff] ^ Te2[(s1 >>  8) & 0xff] ^ Te3[s2 & 0xff] ^ rk[39];
; 486  : 
; 487  : 	s0 = Te0[t0 >> 24] ^ Te1[(t1 >> 16) & 0xff] ^ Te2[(t2 >>  8) & 0xff] ^ Te3[t3 & 0xff] ^ rk[40];

	mov	ebx, DWORD PTR _t1$[ebp]
	xor	edi, DWORD PTR [eax+152]
	shr	edx, 16					; 00000010H
	shr	esi, 8
	and	edx, 255				; 000000ffH
	and	esi, 255				; 000000ffH
	mov	esi, DWORD PTR _Te2[esi*4]
	xor	esi, DWORD PTR _Te1[edx*4]
	mov	edx, DWORD PTR _s3$[ebp]
	shr	edx, 24					; 00000018H
	xor	esi, DWORD PTR _Te0[edx*4]
	mov	edx, DWORD PTR _s2$[ebp]
	shr	ebx, 16					; 00000010H
	and	edx, 255				; 000000ffH
	xor	esi, DWORD PTR _Te3[edx*4]
	and	ebx, 255				; 000000ffH
	xor	esi, DWORD PTR [eax+156]
	mov	edx, edi
	shr	edx, 8
	and	edx, 255				; 000000ffH
	mov	edx, DWORD PTR _Te2[edx*4]
	xor	edx, DWORD PTR _Te1[ebx*4]
	mov	ebx, DWORD PTR _t0$[ebp]
	shr	ebx, 24					; 00000018H
	xor	edx, DWORD PTR _Te0[ebx*4]
	mov	ebx, esi
	and	ebx, 255				; 000000ffH
	xor	edx, DWORD PTR _Te3[ebx*4]
	mov	DWORD PTR _t2$[ebp], edi
	xor	edx, DWORD PTR [eax+160]

; 488  : 	s1 = Te0[t1 >> 24] ^ Te1[(t2 >> 16) & 0xff] ^ Te2[(t3 >>  8) & 0xff] ^ Te3[t0 & 0xff] ^ rk[41];

	shr	edi, 16					; 00000010H
	mov	ebx, esi
	shr	ebx, 8
	and	ebx, 255				; 000000ffH
	and	edi, 255				; 000000ffH
	mov	DWORD PTR tv1836[ebp], edi
	mov	edi, DWORD PTR _Te2[ebx*4]
	mov	ebx, DWORD PTR tv1836[ebp]
	xor	edi, DWORD PTR _Te1[ebx*4]
	mov	ebx, DWORD PTR _t1$[ebp]
	shr	ebx, 24					; 00000018H
	xor	edi, DWORD PTR _Te0[ebx*4]
	mov	ebx, DWORD PTR _t0$[ebp]
	and	ebx, 255				; 000000ffH
	xor	edi, DWORD PTR _Te3[ebx*4]

; 489  : 	s2 = Te0[t2 >> 24] ^ Te1[(t3 >> 16) & 0xff] ^ Te2[(t0 >>  8) & 0xff] ^ Te3[t1 & 0xff] ^ rk[42];

	mov	ebx, DWORD PTR _t0$[ebp]
	xor	edi, DWORD PTR [eax+164]
	mov	DWORD PTR _t3$[ebp], esi
	shr	esi, 16					; 00000010H
	shr	ebx, 8
	and	esi, 255				; 000000ffH
	mov	esi, DWORD PTR _Te1[esi*4]
	and	ebx, 255				; 000000ffH
	xor	esi, DWORD PTR _Te2[ebx*4]
	mov	ebx, DWORD PTR _t2$[ebp]
	shr	ebx, 24					; 00000018H
	xor	esi, DWORD PTR _Te0[ebx*4]
	mov	ebx, DWORD PTR _t1$[ebp]
	and	ebx, 255				; 000000ffH
	xor	esi, DWORD PTR _Te3[ebx*4]

; 490  : 	s3 = Te0[t3 >> 24] ^ Te1[(t0 >> 16) & 0xff] ^ Te2[(t1 >>  8) & 0xff] ^ Te3[t2 & 0xff] ^ rk[43];

	mov	ebx, DWORD PTR _t0$[ebp]
	xor	esi, DWORD PTR [eax+168]
	shr	ebx, 16					; 00000010H
	mov	DWORD PTR _s2$[ebp], esi
	mov	esi, DWORD PTR _t1$[ebp]
	shr	esi, 8
	and	esi, 255				; 000000ffH
	mov	esi, DWORD PTR _Te2[esi*4]
	and	ebx, 255				; 000000ffH
	xor	esi, DWORD PTR _Te1[ebx*4]
	mov	ebx, DWORD PTR _t3$[ebp]
	shr	ebx, 24					; 00000018H
	xor	esi, DWORD PTR _Te0[ebx*4]
	mov	ebx, DWORD PTR _t2$[ebp]
	and	ebx, 255				; 000000ffH
	xor	esi, DWORD PTR _Te3[ebx*4]

; 491  : 
; 492  : 	t0 = Te0[s0 >> 24] ^ Te1[(s1 >> 16) & 0xff] ^ Te2[(s2 >>  8) & 0xff] ^ Te3[s3 & 0xff] ^ rk[44];

	mov	ebx, edi
	xor	esi, DWORD PTR [eax+172]
	shr	ebx, 16					; 00000010H
	mov	DWORD PTR _s3$[ebp], esi
	mov	esi, DWORD PTR _s2$[ebp]
	shr	esi, 8
	and	esi, 255				; 000000ffH
	mov	esi, DWORD PTR _Te2[esi*4]
	and	ebx, 255				; 000000ffH
	xor	esi, DWORD PTR _Te1[ebx*4]
	mov	ebx, edx
	shr	ebx, 24					; 00000018H
	xor	esi, DWORD PTR _Te0[ebx*4]
	mov	ebx, DWORD PTR _s3$[ebp]
	and	ebx, 255				; 000000ffH
	xor	esi, DWORD PTR _Te3[ebx*4]

; 493  : 	t1 = Te0[s1 >> 24] ^ Te1[(s2 >> 16) & 0xff] ^ Te2[(s3 >>  8) & 0xff] ^ Te3[s0 & 0xff] ^ rk[45];

	mov	ebx, DWORD PTR _s2$[ebp]
	xor	esi, DWORD PTR [eax+176]
	shr	ebx, 16					; 00000010H
	mov	DWORD PTR _t0$[ebp], esi
	mov	esi, DWORD PTR _s3$[ebp]
	shr	esi, 8
	and	esi, 255				; 000000ffH
	mov	esi, DWORD PTR _Te2[esi*4]
	and	ebx, 255				; 000000ffH
	xor	esi, DWORD PTR _Te1[ebx*4]
	mov	ebx, edi
	shr	ebx, 24					; 00000018H
	xor	esi, DWORD PTR _Te0[ebx*4]
	mov	ebx, edx
	and	ebx, 255				; 000000ffH
	xor	esi, DWORD PTR _Te3[ebx*4]

; 494  : 	t2 = Te0[s2 >> 24] ^ Te1[(s3 >> 16) & 0xff] ^ Te2[(s0 >>  8) & 0xff] ^ Te3[s1 & 0xff] ^ rk[46];

	mov	ebx, edx
	xor	esi, DWORD PTR [eax+180]
	shr	ebx, 8
	mov	DWORD PTR _t1$[ebp], esi
	mov	esi, DWORD PTR _s3$[ebp]
	shr	esi, 16					; 00000010H
	and	esi, 255				; 000000ffH
	mov	esi, DWORD PTR _Te1[esi*4]
	and	ebx, 255				; 000000ffH
	xor	esi, DWORD PTR _Te2[ebx*4]
	mov	ebx, DWORD PTR _s2$[ebp]
	shr	ebx, 24					; 00000018H
	xor	esi, DWORD PTR _Te0[ebx*4]
	mov	ebx, edi

; 495  : 	t3 = Te0[s3 >> 24] ^ Te1[(s0 >> 16) & 0xff] ^ Te2[(s1 >>  8) & 0xff] ^ Te3[s2 & 0xff] ^ rk[47];

	shr	edi, 8
	shr	edx, 16					; 00000010H
	and	edi, 255				; 000000ffH
	mov	edi, DWORD PTR _Te2[edi*4]
	and	edx, 255				; 000000ffH
	xor	edi, DWORD PTR _Te1[edx*4]
	mov	edx, DWORD PTR _s3$[ebp]
	and	ebx, 255				; 000000ffH
	xor	esi, DWORD PTR _Te3[ebx*4]
	shr	edx, 24					; 00000018H
	xor	esi, DWORD PTR [eax+184]
	xor	edi, DWORD PTR _Te0[edx*4]
	mov	edx, DWORD PTR _s2$[ebp]
	mov	DWORD PTR _t2$[ebp], esi

; 496  : 
; 497  : 	s0 = Te0[t0 >> 24] ^ Te1[(t1 >> 16) & 0xff] ^ Te2[(t2 >>  8) & 0xff] ^ Te3[t3 & 0xff] ^ rk[48];

	mov	ebx, DWORD PTR _t1$[ebp]
	shr	ebx, 16					; 00000010H
	and	ebx, 255				; 000000ffH
	and	edx, 255				; 000000ffH
	xor	edi, DWORD PTR _Te3[edx*4]
	mov	edx, esi
	xor	edi, DWORD PTR [eax+188]
	shr	edx, 8
	and	edx, 255				; 000000ffH
	mov	edx, DWORD PTR _Te2[edx*4]
	xor	edx, DWORD PTR _Te1[ebx*4]
	mov	ebx, DWORD PTR _t0$[ebp]
	shr	ebx, 24					; 00000018H
	xor	edx, DWORD PTR _Te0[ebx*4]
	mov	ebx, edi
	and	ebx, 255				; 000000ffH
	xor	edx, DWORD PTR _Te3[ebx*4]

; 498  : 	s1 = Te0[t1 >> 24] ^ Te1[(t2 >> 16) & 0xff] ^ Te2[(t3 >>  8) & 0xff] ^ Te3[t0 & 0xff] ^ rk[49];

	mov	ebx, edi
	shr	ebx, 8
	and	ebx, 255				; 000000ffH
	mov	DWORD PTR _t3$[ebp], edi
	shr	esi, 16					; 00000010H
	and	esi, 255				; 000000ffH
	mov	DWORD PTR tv1834[ebp], esi
	mov	esi, DWORD PTR _Te2[ebx*4]
	mov	ebx, DWORD PTR tv1834[ebp]
	xor	esi, DWORD PTR _Te1[ebx*4]
	mov	ebx, DWORD PTR _t1$[ebp]
	shr	ebx, 24					; 00000018H
	xor	esi, DWORD PTR _Te0[ebx*4]
	mov	ebx, DWORD PTR _t0$[ebp]
	and	ebx, 255				; 000000ffH
	xor	esi, DWORD PTR _Te3[ebx*4]

; 499  : 	s2 = Te0[t2 >> 24] ^ Te1[(t3 >> 16) & 0xff] ^ Te2[(t0 >>  8) & 0xff] ^ Te3[t1 & 0xff] ^ rk[50];

	mov	ebx, DWORD PTR _t0$[ebp]
	shr	edi, 16					; 00000010H
	and	edi, 255				; 000000ffH
	mov	edi, DWORD PTR _Te1[edi*4]
	shr	ebx, 8
	and	ebx, 255				; 000000ffH
	xor	edi, DWORD PTR _Te2[ebx*4]
	mov	ebx, DWORD PTR _t2$[ebp]
	shr	ebx, 24					; 00000018H
	xor	edi, DWORD PTR _Te0[ebx*4]
	mov	ebx, DWORD PTR _t1$[ebp]
	and	ebx, 255				; 000000ffH
	xor	edi, DWORD PTR _Te3[ebx*4]

; 500  : 	s3 = Te0[t3 >> 24] ^ Te1[(t0 >> 16) & 0xff] ^ Te2[(t1 >>  8) & 0xff] ^ Te3[t2 & 0xff] ^ rk[51];

	mov	ebx, DWORD PTR _t0$[ebp]
	xor	edi, DWORD PTR [eax+200]
	xor	esi, DWORD PTR [eax+196]
	mov	DWORD PTR _s2$[ebp], edi
	mov	edi, DWORD PTR _t1$[ebp]
	shr	edi, 8
	and	edi, 255				; 000000ffH
	mov	edi, DWORD PTR _Te2[edi*4]
	shr	ebx, 16					; 00000010H
	and	ebx, 255				; 000000ffH
	xor	edi, DWORD PTR _Te1[ebx*4]
	mov	ebx, DWORD PTR _t3$[ebp]
	xor	edx, DWORD PTR [eax+192]
	shr	ebx, 24					; 00000018H
	xor	edi, DWORD PTR _Te0[ebx*4]
	mov	ebx, DWORD PTR _t2$[ebp]
	and	ebx, 255				; 000000ffH
	xor	edi, DWORD PTR _Te3[ebx*4]

; 501  : 
; 502  : 	t0 = Te0[s0 >> 24] ^ Te1[(s1 >> 16) & 0xff] ^ Te2[(s2 >>  8) & 0xff] ^ Te3[s3 & 0xff] ^ rk[52];

	mov	ebx, esi
	xor	edi, DWORD PTR [eax+204]
	shr	ebx, 16					; 00000010H
	mov	DWORD PTR _s3$[ebp], edi
	mov	edi, DWORD PTR _s2$[ebp]
	shr	edi, 8
	and	edi, 255				; 000000ffH
	mov	edi, DWORD PTR _Te2[edi*4]
	and	ebx, 255				; 000000ffH
	xor	edi, DWORD PTR _Te1[ebx*4]
	mov	ebx, edx
	shr	ebx, 24					; 00000018H
	xor	edi, DWORD PTR _Te0[ebx*4]
	mov	ebx, DWORD PTR _s3$[ebp]
	and	ebx, 255				; 000000ffH
	xor	edi, DWORD PTR _Te3[ebx*4]
	xor	edi, DWORD PTR [eax+208]

; 503  : 	t1 = Te0[s1 >> 24] ^ Te1[(s2 >> 16) & 0xff] ^ Te2[(s3 >>  8) & 0xff] ^ Te3[s0 & 0xff] ^ rk[53];

	mov	ebx, DWORD PTR _s2$[ebp]
	shr	ebx, 16					; 00000010H
	and	ebx, 255				; 000000ffH
	mov	DWORD PTR _t0$[ebp], edi
	mov	edi, DWORD PTR _s3$[ebp]
	shr	edi, 8
	and	edi, 255				; 000000ffH
	mov	edi, DWORD PTR _Te2[edi*4]
	xor	edi, DWORD PTR _Te1[ebx*4]
	mov	ebx, esi
	shr	ebx, 24					; 00000018H
	xor	edi, DWORD PTR _Te0[ebx*4]
	mov	ebx, edx
	and	ebx, 255				; 000000ffH
	xor	edi, DWORD PTR _Te3[ebx*4]

; 504  : 	t2 = Te0[s2 >> 24] ^ Te1[(s3 >> 16) & 0xff] ^ Te2[(s0 >>  8) & 0xff] ^ Te3[s1 & 0xff] ^ rk[54];

	mov	ebx, edx
	xor	edi, DWORD PTR [eax+212]
	shr	ebx, 8
	and	ebx, 255				; 000000ffH
	mov	DWORD PTR _t1$[ebp], edi
	mov	edi, DWORD PTR _s3$[ebp]
	shr	edi, 16					; 00000010H

; 505  : 	t3 = Te0[s3 >> 24] ^ Te1[(s0 >> 16) & 0xff] ^ Te2[(s1 >>  8) & 0xff] ^ Te3[s2 & 0xff] ^ rk[55];

	shr	edx, 16					; 00000010H
	and	edi, 255				; 000000ffH
	mov	edi, DWORD PTR _Te1[edi*4]
	xor	edi, DWORD PTR _Te2[ebx*4]
	mov	ebx, DWORD PTR _s2$[ebp]
	shr	ebx, 24					; 00000018H
	xor	edi, DWORD PTR _Te0[ebx*4]
	and	edx, 255				; 000000ffH
	mov	ebx, esi
	and	ebx, 255				; 000000ffH
	xor	edi, DWORD PTR _Te3[ebx*4]
	shr	esi, 8
	xor	edi, DWORD PTR [eax+216]
	and	esi, 255				; 000000ffH
	mov	esi, DWORD PTR _Te2[esi*4]
	xor	esi, DWORD PTR _Te1[edx*4]
	mov	edx, DWORD PTR _s3$[ebp]
	shr	edx, 24					; 00000018H
	xor	esi, DWORD PTR _Te0[edx*4]
	mov	edx, DWORD PTR _s2$[ebp]
	and	edx, 255				; 000000ffH
	xor	esi, DWORD PTR _Te3[edx*4]

; 506  : 
; 507  : 	rk += 56;
; 508  : 
; 509  : 	s0 =
; 510  : 		(Te4[(t0 >> 24)       ] & 0xff000000) ^
; 511  : 		(Te4[(t1 >> 16) & 0xff] & 0x00ff0000) ^
; 512  : 		(Te4[(t2 >>  8) & 0xff] & 0x0000ff00) ^
; 513  : 		(Te4[(t3      ) & 0xff] & 0x000000ff) ^
; 514  : 		rk[0];

	mov	edx, DWORD PTR _t1$[ebp]
	xor	esi, DWORD PTR [eax+220]
	shr	edx, 16					; 00000010H
	and	edx, 255				; 000000ffH
	mov	edx, DWORD PTR _Te4[edx*4]
	and	edx, 16711680				; 00ff0000H
	mov	ebx, edi
	shr	ebx, 8
	and	ebx, 255				; 000000ffH
	mov	ebx, DWORD PTR _Te4[ebx*4]
	and	ebx, 65280				; 0000ff00H
	xor	edx, ebx
	mov	ebx, DWORD PTR _t0$[ebp]
	shr	ebx, 24					; 00000018H
	mov	ebx, DWORD PTR _Te4[ebx*4]
	and	ebx, -16777216				; ff000000H
	xor	edx, ebx
	mov	ebx, esi
	and	ebx, 255				; 000000ffH
	movzx	ebx, BYTE PTR _Te4[ebx*4]
	xor	edx, ebx
	xor	edx, DWORD PTR [eax+224]

; 515  : 
; 516  : 	s1 =
; 517  : 		(Te4[(t1 >> 24)       ] & 0xff000000) ^
; 518  : 		(Te4[(t2 >> 16) & 0xff] & 0x00ff0000) ^
; 519  : 		(Te4[(t3 >>  8) & 0xff] & 0x0000ff00) ^
; 520  : 		(Te4[(t0      ) & 0xff] & 0x000000ff) ^
; 521  : 		rk[1];

	mov	ebx, esi
	mov	DWORD PTR _s0$[ebp], edx
	shr	ebx, 8
	mov	edx, edi
	shr	edx, 16					; 00000010H
	and	ebx, 255				; 000000ffH
	mov	ebx, DWORD PTR _Te4[ebx*4]
	and	edx, 255				; 000000ffH
	mov	edx, DWORD PTR _Te4[edx*4]
	and	ebx, 65280				; 0000ff00H
	and	edx, 16711680				; 00ff0000H
	xor	edx, ebx
	mov	ebx, DWORD PTR _t1$[ebp]
	shr	ebx, 24					; 00000018H
	mov	ebx, DWORD PTR _Te4[ebx*4]
	and	ebx, -16777216				; ff000000H
	xor	edx, ebx
	mov	ebx, DWORD PTR _t0$[ebp]
	and	ebx, 255				; 000000ffH
	movzx	ebx, BYTE PTR _Te4[ebx*4]
	xor	edx, ebx
	xor	edx, DWORD PTR [eax+228]

; 522  : 
; 523  : 	s2 =
; 524  : 		(Te4[(t2 >> 24)       ] & 0xff000000) ^
; 525  : 		(Te4[(t3 >> 16) & 0xff] & 0x00ff0000) ^
; 526  : 		(Te4[(t0 >>  8) & 0xff] & 0x0000ff00) ^
; 527  : 		(Te4[(t1      ) & 0xff] & 0x000000ff) ^
; 528  : 		rk[2];

	mov	ebx, DWORD PTR _t0$[ebp]
	shr	ebx, 8
	and	ebx, 255				; 000000ffH
	mov	ebx, DWORD PTR _Te4[ebx*4]
	and	ebx, 65280				; 0000ff00H
	mov	DWORD PTR _s1$[ebp], edx
	mov	edx, esi
	shr	edx, 16					; 00000010H
	and	edx, 255				; 000000ffH
	mov	edx, DWORD PTR _Te4[edx*4]
	and	edx, 16711680				; 00ff0000H
	xor	edx, ebx
	mov	ebx, edi
	shr	ebx, 24					; 00000018H
	mov	ebx, DWORD PTR _Te4[ebx*4]
	and	ebx, -16777216				; ff000000H
	xor	edx, ebx
	mov	ebx, DWORD PTR _t1$[ebp]
	and	ebx, 255				; 000000ffH
	movzx	ebx, BYTE PTR _Te4[ebx*4]
	xor	edx, ebx
	xor	edx, DWORD PTR [eax+232]

; 529  :  
; 530  : 	s3 =
; 531  : 		(Te4[(t3 >> 24)       ] & 0xff000000) ^
; 532  : 		(Te4[(t0 >> 16) & 0xff] & 0x00ff0000) ^
; 533  : 		(Te4[(t1 >>  8) & 0xff] & 0x0000ff00) ^
; 534  : 		(Te4[(t2      ) & 0xff] & 0x000000ff) ^
; 535  : 		rk[3];

	mov	ebx, DWORD PTR _t1$[ebp]
	shr	ebx, 8
	and	ebx, 255				; 000000ffH
	mov	ebx, DWORD PTR _Te4[ebx*4]
	mov	DWORD PTR _s2$[ebp], edx
	mov	edx, DWORD PTR _t0$[ebp]
	and	ebx, 65280				; 0000ff00H
	shr	edx, 16					; 00000010H
	and	edx, 255				; 000000ffH
	mov	edx, DWORD PTR _Te4[edx*4]
	shr	esi, 24					; 00000018H
	mov	esi, DWORD PTR _Te4[esi*4]
	and	edx, 16711680				; 00ff0000H
	xor	edx, ebx
	and	esi, -16777216				; ff000000H
	xor	edx, esi
	and	edi, 255				; 000000ffH
	movzx	esi, BYTE PTR _Te4[edi*4]
	xor	edx, esi
	xor	edx, DWORD PTR [eax+236]

; 536  : 	
; 537  : 	PUTU32(plaintext     , s0);

	mov	eax, DWORD PTR _s0$[ebp]
	mov	ebx, eax
	shr	ebx, 24					; 00000018H
	mov	BYTE PTR [ecx], bl
	mov	ebx, eax
	shr	ebx, 16					; 00000010H
	mov	BYTE PTR [ecx+1], bl
	mov	ebx, eax
	shr	ebx, 8
	mov	BYTE PTR [ecx+2], bl
	mov	BYTE PTR [ecx+3], al

; 538  : 	PUTU32(plaintext +  4, s1);

	mov	eax, DWORD PTR _s1$[ebp]
	mov	ebx, eax
	shr	ebx, 24					; 00000018H
	mov	BYTE PTR [ecx+4], bl
	mov	ebx, eax
	shr	ebx, 16					; 00000010H
	mov	BYTE PTR [ecx+5], bl
	mov	ebx, eax
	shr	ebx, 8
	mov	BYTE PTR [ecx+6], bl
	mov	BYTE PTR [ecx+7], al

; 539  : 	PUTU32(plaintext +  8, s2);

	mov	eax, DWORD PTR _s2$[ebp]
	mov	ebx, eax
	shr	ebx, 24					; 00000018H
	mov	BYTE PTR [ecx+8], bl
	mov	ebx, eax
	shr	ebx, 16					; 00000010H
	mov	BYTE PTR [ecx+9], bl
	mov	ebx, eax
	shr	ebx, 8
	mov	BYTE PTR [ecx+10], bl
	mov	BYTE PTR [ecx+11], al

; 540  : 	PUTU32(plaintext + 12, s3);

	mov	eax, edx
	shr	eax, 24					; 00000018H
	mov	BYTE PTR [ecx+12], al
	mov	eax, edx
	shr	eax, 16					; 00000010H
	mov	BYTE PTR [ecx+13], al
	pop	edi
	mov	eax, edx
	shr	eax, 8
	pop	esi
	mov	BYTE PTR [ecx+14], al
	mov	BYTE PTR [ecx+15], dl
	pop	ebx

; 541  : }

	mov	esp, ebp
	pop	ebp
	ret	0
?local_encrypt@@YAXPAEPAI@Z ENDP			; local_encrypt
_TEXT	ENDS
PUBLIC	??_C@_08HGBLDJKM@?6?7?$HN?0?6?$HN?0?6?$AA@	; `string'
PUBLIC	??_C@_07IBKPNOEB@?6?7?$HN?0?6?7?$HL?$AA@	; `string'
PUBLIC	??_C@_08DEEIID@0x?$CF02x?0?5?$AA@		; `string'
PUBLIC	??_C@_03GPBFEAEB@?6?7?7?$AA@			; `string'
PUBLIC	??_C@_09PGEBELMJ@?$HL?6?7?$CFu?0?6?7?$HL?$AA@	; `string'
PUBLIC	__$ArrayPad$
PUBLIC	?print_test_data@@YAXXZ				; print_test_data
EXTRN	?rijndaelEncrypt@@YAXPBKHQBEQAE@Z:PROC		; rijndaelEncrypt
EXTRN	_memset:PROC
;	COMDAT ??_C@_08HGBLDJKM@?6?7?$HN?0?6?$HN?0?6?$AA@
CONST	SEGMENT
??_C@_08HGBLDJKM@?6?7?$HN?0?6?$HN?0?6?$AA@ DB 0aH, 09H, '},', 0aH, '},', 0aH
	DB	00H						; `string'
CONST	ENDS
;	COMDAT ??_C@_07IBKPNOEB@?6?7?$HN?0?6?7?$HL?$AA@
CONST	SEGMENT
??_C@_07IBKPNOEB@?6?7?$HN?0?6?7?$HL?$AA@ DB 0aH, 09H, '},', 0aH, 09H, '{', 00H ; `string'
CONST	ENDS
;	COMDAT ??_C@_08DEEIID@0x?$CF02x?0?5?$AA@
CONST	SEGMENT
??_C@_08DEEIID@0x?$CF02x?0?5?$AA@ DB '0x%02x, ', 00H	; `string'
CONST	ENDS
;	COMDAT ??_C@_03GPBFEAEB@?6?7?7?$AA@
CONST	SEGMENT
??_C@_03GPBFEAEB@?6?7?7?$AA@ DB 0aH, 09H, 09H, 00H	; `string'
CONST	ENDS
;	COMDAT ??_C@_09PGEBELMJ@?$HL?6?7?$CFu?0?6?7?$HL?$AA@
CONST	SEGMENT
??_C@_09PGEBELMJ@?$HL?6?7?$CFu?0?6?7?$HL?$AA@ DB '{', 0aH, 09H, '%u,', 0aH
	DB	09H, '{', 00H				; `string'
; Function compile flags: /Ogtp
CONST	ENDS
;	COMDAT ?print_test_data@@YAXXZ
_TEXT	SEGMENT
_j$6783 = -396						; size = 4
_k$6787 = -392						; size = 4
_i$6779 = -388						; size = 4
_bits$ = -384						; size = 12
_key$ = -372						; size = 240
_text$ = -132						; size = 128
__$ArrayPad$ = -4					; size = 4
?print_test_data@@YAXXZ PROC				; print_test_data, COMDAT

; 544  : {

	push	ebp
	mov	ebp, esp
	sub	esp, 396				; 0000018cH
	mov	eax, DWORD PTR ___security_cookie
	xor	eax, ebp
	mov	DWORD PTR __$ArrayPad$[ebp], eax
	push	ebx
	push	esi

; 545  : 	int bits[3] = {16, 24, 32};

	mov	DWORD PTR _bits$[ebp], 16		; 00000010H
	mov	DWORD PTR _bits$[ebp+4], 24		; 00000018H
	mov	DWORD PTR _bits$[ebp+8], 32		; 00000020H

; 546  : 	uint8_t key[RKLENGTH(256)*4];
; 547  : 	uint8_t text[DATA_LENGTH];
; 548  : 
; 549  : 	for (int i = 0; i < 3; i++)

	mov	DWORD PTR _i$6779[ebp], 0
	push	edi
	npad	2
$LL60@print_test:

; 550  : 	{
; 551  : 		for (int j = 0; j < 2; j++)

	mov	eax, DWORD PTR _i$6779[ebp]
	mov	edi, DWORD PTR _bits$[ebp+eax*4]
	mov	DWORD PTR _j$6783[ebp], 0
	npad	9
$LL61@print_test:

; 552  : 		{
; 553  : 			for (int k = 0; k < 3; k++)

	mov	DWORD PTR _k$6787[ebp], 0
	npad	6
$LL62@print_test:

; 554  : 			{
; 555  : 				switch (j)

	mov	eax, DWORD PTR _j$6783[ebp]
	sub	eax, 0
	je	SHORT $LN28@print_test
	dec	eax
	jne	SHORT $LN63@print_test
	npad	2
$LL26@print_test:

; 559  : 					break;
; 560  : 				case 1:
; 561  : 					for (int l = 0; l < DATA_LENGTH; text[l] = l, l++);

	mov	BYTE PTR _text$[ebp+eax], al
	inc	eax
	cmp	eax, 128				; 00000080H
	jl	SHORT $LL26@print_test

; 562  : 					break;

	jmp	SHORT $LN63@print_test
$LN28@print_test:

; 556  : 				{
; 557  : 				case 0:
; 558  : 					memset(text, 0x00, DATA_LENGTH);

	push	128					; 00000080H
	lea	ecx, DWORD PTR _text$[ebp]
	push	0
	push	ecx
	call	_memset
	add	esp, 12					; 0000000cH
$LN63@print_test:

; 563  : 				}
; 564  : 
; 565  : 				switch (k)

	mov	eax, DWORD PTR _k$6787[ebp]
	sub	eax, 0
	je	SHORT $LN21@print_test
	dec	eax
	je	SHORT $LN20@print_test
	dec	eax
	jne	SHORT $LN22@print_test

; 573  : 				case 2:
; 574  : 					for (int l = 0; l < bits[i]; key[l] = l, l++);

	test	edi, edi
	jle	SHORT $LN22@print_test
	npad	4
$LL18@print_test:
	mov	BYTE PTR _key$[ebp+eax], al
	inc	eax
	cmp	eax, edi
	jl	SHORT $LL18@print_test

; 575  : 					break;

	jmp	SHORT $LN22@print_test
$LN20@print_test:

; 569  : 					break;
; 570  : 				case 1:
; 571  : 					memset(key, 0xff, bits[i]);

	push	edi
	push	255					; 000000ffH
	lea	edx, DWORD PTR _key$[ebp]
	push	edx

; 572  : 					break;

	jmp	SHORT $LN65@print_test
$LN21@print_test:

; 566  : 				{
; 567  : 				case 0:
; 568  : 					memset(key, 0x00, bits[i]);

	push	edi
	push	0
	lea	eax, DWORD PTR _key$[ebp]
	push	eax
$LN65@print_test:
	call	_memset
	add	esp, 12					; 0000000cH
$LN22@print_test:

; 576  : 				}
; 577  : 
; 578  : 				printf("{\n\t%u,\n\t{", bits[i]);

	push	edi
	push	OFFSET ??_C@_09PGEBELMJ@?$HL?6?7?$CFu?0?6?7?$HL?$AA@
	call	_printf
	add	esp, 8

; 579  : 
; 580  : 				for (int l = 0; l < bits[i]; l++)

	xor	ebx, ebx
	test	edi, edi
	jle	SHORT $LN64@print_test
$LL15@print_test:

; 581  : 				{
; 582  : 					if (l % 8 == 0)

	test	bl, 7
	jne	SHORT $LN12@print_test

; 583  : 					{
; 584  : 						printf("\n\t\t");

	push	OFFSET ??_C@_03GPBFEAEB@?6?7?7?$AA@
	call	_printf
	add	esp, 4
$LN12@print_test:

; 585  : 					}
; 586  : 
; 587  : 					printf("0x%02x, ", key[l]);

	movzx	ecx, BYTE PTR _key$[ebp+ebx]
	push	ecx
	push	OFFSET ??_C@_08DEEIID@0x?$CF02x?0?5?$AA@
	call	_printf
	inc	ebx
	add	esp, 8
	cmp	ebx, edi
	jl	SHORT $LL15@print_test
$LN64@print_test:

; 588  : 				}
; 589  : 
; 590  : 				printf("\n\t},\n\t{");

	push	OFFSET ??_C@_07IBKPNOEB@?6?7?$HN?0?6?7?$HL?$AA@
	call	_printf
	add	esp, 4

; 591  : 
; 592  : 				for (int l = 0; l < DATA_LENGTH; l++)

	xor	ebx, ebx
	npad	1
$LL11@print_test:

; 593  : 				{
; 594  : 					if (l % 16 == 0)

	test	bl, 15					; 0000000fH
	jne	SHORT $LN8@print_test

; 595  : 					{
; 596  : 						printf("\n\t\t");

	push	OFFSET ??_C@_03GPBFEAEB@?6?7?7?$AA@
	call	_printf
	add	esp, 4
$LN8@print_test:

; 597  : 					}
; 598  : 
; 599  : 					printf("0x%02x, ", text[l]);

	movzx	edx, BYTE PTR _text$[ebp+ebx]
	push	edx
	push	OFFSET ??_C@_08DEEIID@0x?$CF02x?0?5?$AA@
	call	_printf
	inc	ebx
	add	esp, 8
	cmp	ebx, 128				; 00000080H
	jl	SHORT $LL11@print_test

; 600  : 				}
; 601  : 
; 602  : 				printf("\n\t},\n\t{");

	push	OFFSET ??_C@_07IBKPNOEB@?6?7?$HN?0?6?7?$HL?$AA@
	call	_printf

; 603  : 
; 604  : 				int nrounds = rijndaelSetupEncrypt((unsigned long *) key, key, bits[i]*8);

	lea	eax, DWORD PTR [edi*8]
	push	eax
	lea	eax, DWORD PTR _key$[ebp]
	push	eax
	mov	ecx, eax
	push	ecx
	call	?rijndaelSetupEncrypt@@YAHPAKPBEH@Z	; rijndaelSetupEncrypt
	add	esp, 16					; 00000010H
	mov	ebx, eax

; 605  : 
; 606  : 				for (int l = 0; l < DATA_LENGTH; l += 16)

	xor	esi, esi
	npad	7
$LL7@print_test:

; 607  : 				{
; 608  : 					rijndaelEncrypt((unsigned long *) key, nrounds, text+l, text+l);

	lea	eax, DWORD PTR _text$[ebp+esi]
	push	eax
	push	eax
	lea	edx, DWORD PTR _key$[ebp]
	push	ebx
	push	edx
	call	?rijndaelEncrypt@@YAXPBKHQBEQAE@Z	; rijndaelEncrypt
	add	esi, 16					; 00000010H
	add	esp, 16					; 00000010H
	cmp	esi, 128				; 00000080H
	jl	SHORT $LL7@print_test

; 609  : 				}
; 610  : 
; 611  : 				for (int l = 0; l < DATA_LENGTH; l++)

	xor	ebx, ebx
$LL4@print_test:

; 612  : 				{
; 613  : 					if (l % 16 == 0)

	test	bl, 15					; 0000000fH
	jne	SHORT $LN1@print_test

; 614  : 					{
; 615  : 						printf("\n\t\t");

	push	OFFSET ??_C@_03GPBFEAEB@?6?7?7?$AA@
	call	_printf
	add	esp, 4
$LN1@print_test:

; 616  : 					}
; 617  : 
; 618  : 					printf("0x%02x, ", text[l]);

	movzx	eax, BYTE PTR _text$[ebp+ebx]
	push	eax
	push	OFFSET ??_C@_08DEEIID@0x?$CF02x?0?5?$AA@
	call	_printf
	inc	ebx
	add	esp, 8
	cmp	ebx, 128				; 00000080H
	jl	SHORT $LL4@print_test

; 619  : 				}
; 620  : 
; 621  : 				printf("\n\t},\n},\n");

	push	OFFSET ??_C@_08HGBLDJKM@?6?7?$HN?0?6?$HN?0?6?$AA@
	call	_printf
	mov	eax, DWORD PTR _k$6787[ebp]
	inc	eax
	add	esp, 4
	mov	DWORD PTR _k$6787[ebp], eax
	cmp	eax, 3
	jl	$LL62@print_test

; 550  : 	{
; 551  : 		for (int j = 0; j < 2; j++)

	mov	eax, DWORD PTR _j$6783[ebp]
	inc	eax
	mov	DWORD PTR _j$6783[ebp], eax
	cmp	eax, 2
	jl	$LL61@print_test

; 546  : 	uint8_t key[RKLENGTH(256)*4];
; 547  : 	uint8_t text[DATA_LENGTH];
; 548  : 
; 549  : 	for (int i = 0; i < 3; i++)

	mov	eax, DWORD PTR _i$6779[ebp]
	inc	eax
	mov	DWORD PTR _i$6779[ebp], eax
	cmp	eax, 3
	jl	$LL60@print_test

; 622  : 			}
; 623  : 		}
; 624  : 	}
; 625  : }

	mov	ecx, DWORD PTR __$ArrayPad$[ebp]
	pop	edi
	pop	esi
	xor	ecx, ebp
	pop	ebx
	call	@__security_check_cookie@4
	mov	esp, ebp
	pop	ebp
	ret	0
?print_test_data@@YAXXZ ENDP				; print_test_data
_TEXT	ENDS
END
