; Listing generated by Microsoft (R) Optimizing Compiler Version 16.00.30319.01 

	TITLE	C:\Users\tdrol\documents\visual studio 2010\Projects\analizator\analizator-bd-opencl\key_schedule_test.cpp
	.686P
	.XMM
	include listing.inc
	.model	flat

INCLUDELIB OLDNAMES

PUBLIC	?test_data@@3PAUKey_Data@@A			; test_data
PUBLIC	??_C@_0BE@MABLGNOI@Test?3?5key_schedule?6?$AA@	; `string'
PUBLIC	??_C@_0BF@OCMGHPDK@?5?5?$CD?$CFu?5?$CI?$CFu?5bit?$CJ?5pass?6?$AA@ ; `string'
PUBLIC	??_C@_0BF@BPJHMNAK@?5?5?$CD?$CFu?5?$CI?$CFu?5bit?$CJ?5fail?6?$AA@ ; `string'
;	COMDAT ??_C@_0BF@BPJHMNAK@?5?5?$CD?$CFu?5?$CI?$CFu?5bit?$CJ?5fail?6?$AA@
CONST	SEGMENT
??_C@_0BF@BPJHMNAK@?5?5?$CD?$CFu?5?$CI?$CFu?5bit?$CJ?5fail?6?$AA@ DB '  #'
	DB	'%u (%u bit) fail', 0aH, 00H			; `string'
CONST	ENDS
;	COMDAT ??_C@_0BF@OCMGHPDK@?5?5?$CD?$CFu?5?$CI?$CFu?5bit?$CJ?5pass?6?$AA@
CONST	SEGMENT
??_C@_0BF@OCMGHPDK@?5?5?$CD?$CFu?5?$CI?$CFu?5bit?$CJ?5pass?6?$AA@ DB '  #'
	DB	'%u (%u bit) pass', 0aH, 00H			; `string'
CONST	ENDS
;	COMDAT ??_C@_0BE@MABLGNOI@Test?3?5key_schedule?6?$AA@
CONST	SEGMENT
??_C@_0BE@MABLGNOI@Test?3?5key_schedule?6?$AA@ DB 'Test: key_schedule', 0aH
	DB	00H						; `string'
_test_data_size DD 0aH
?test_data@@3PAUKey_Data@@A DD 010H			; test_data
	DB	00H
	DB	00H
	DB	00H
	DB	00H
	DB	00H
	DB	00H
	DB	00H
	DB	00H
	DB	00H
	DB	00H
	DB	00H
	DB	00H
	DB	00H
	DB	00H
	DB	00H
	DB	00H
	ORG $+16
	DB	00H
	DB	00H
	DB	00H
	DB	00H
	DB	00H
	DB	00H
	DB	00H
	DB	00H
	DB	00H
	DB	00H
	DB	00H
	DB	00H
	DB	00H
	DB	00H
	DB	00H
	DB	00H
	DB	062H
	DB	063H
	DB	063H
	DB	063H
	DB	062H
	DB	063H
	DB	063H
	DB	063H
	DB	062H
	DB	063H
	DB	063H
	DB	063H
	DB	062H
	DB	063H
	DB	063H
	DB	063H
	DB	09bH
	DB	098H
	DB	098H
	DB	0c9H
	DB	0f9H
	DB	0fbH
	DB	0fbH
	DB	0aaH
	DB	09bH
	DB	098H
	DB	098H
	DB	0c9H
	DB	0f9H
	DB	0fbH
	DB	0fbH
	DB	0aaH
	DB	090H
	DB	097H
	DB	034H
	DB	050H
	DB	069H
	DB	06cH
	DB	0cfH
	DB	0faH
	DB	0f2H
	DB	0f4H
	DB	057H
	DB	033H
	DB	0bH
	DB	0fH
	DB	0acH
	DB	099H
	DB	0eeH
	DB	06H
	DB	0daH
	DB	07bH
	DB	087H
	DB	06aH
	DB	015H
	DB	081H
	DB	075H
	DB	09eH
	DB	042H
	DB	0b2H
	DB	07eH
	DB	091H
	DB	0eeH
	DB	02bH
	DB	07fH
	DB	02eH
	DB	02bH
	DB	088H
	DB	0f8H
	DB	044H
	DB	03eH
	DB	09H
	DB	08dH
	DB	0daH
	DB	07cH
	DB	0bbH
	DB	0f3H
	DB	04bH
	DB	092H
	DB	090H
	DB	0ecH
	DB	061H
	DB	04bH
	DB	085H
	DB	014H
	DB	025H
	DB	075H
	DB	08cH
	DB	099H
	DB	0ffH
	DB	09H
	DB	037H
	DB	06aH
	DB	0b4H
	DB	09bH
	DB	0a7H
	DB	021H
	DB	075H
	DB	017H
	DB	087H
	DB	035H
	DB	050H
	DB	062H
	DB	0bH
	DB	0acH
	DB	0afH
	DB	06bH
	DB	03cH
	DB	0c6H
	DB	01bH
	DB	0f0H
	DB	09bH
	DB	0eH
	DB	0f9H
	DB	03H
	DB	033H
	DB	03bH
	DB	0a9H
	DB	061H
	DB	038H
	DB	097H
	DB	06H
	DB	0aH
	DB	04H
	DB	051H
	DB	01dH
	DB	0faH
	DB	09fH
	DB	0b1H
	DB	0d4H
	DB	0d8H
	DB	0e2H
	DB	08aH
	DB	07dH
	DB	0b9H
	DB	0daH
	DB	01dH
	DB	07bH
	DB	0b3H
	DB	0deH
	DB	04cH
	DB	066H
	DB	049H
	DB	041H
	DB	0b4H
	DB	0efH
	DB	05bH
	DB	0cbH
	DB	03eH
	DB	092H
	DB	0e2H
	DB	011H
	DB	023H
	DB	0e9H
	DB	051H
	DB	0cfH
	DB	06fH
	DB	08fH
	DB	018H
	DB	08eH
	ORG $+336
	DD	010H
	DB	0ffH
	DB	0ffH
	DB	0ffH
	DB	0ffH
	DB	0ffH
	DB	0ffH
	DB	0ffH
	DB	0ffH
	DB	0ffH
	DB	0ffH
	DB	0ffH
	DB	0ffH
	DB	0ffH
	DB	0ffH
	DB	0ffH
	DB	0ffH
	ORG $+16
	DB	0ffH
	DB	0ffH
	DB	0ffH
	DB	0ffH
	DB	0ffH
	DB	0ffH
	DB	0ffH
	DB	0ffH
	DB	0ffH
	DB	0ffH
	DB	0ffH
	DB	0ffH
	DB	0ffH
	DB	0ffH
	DB	0ffH
	DB	0ffH
	DB	0e8H
	DB	0e9H
	DB	0e9H
	DB	0e9H
	DB	017H
	DB	016H
	DB	016H
	DB	016H
	DB	0e8H
	DB	0e9H
	DB	0e9H
	DB	0e9H
	DB	017H
	DB	016H
	DB	016H
	DB	016H
	DB	0adH
	DB	0aeH
	DB	0aeH
	DB	019H
	DB	0baH
	DB	0b8H
	DB	0b8H
	DB	0fH
	DB	052H
	DB	051H
	DB	051H
	DB	0e6H
	DB	045H
	DB	047H
	DB	047H
	DB	0f0H
	DB	09H
	DB	0eH
	DB	022H
	DB	077H
	DB	0b3H
	DB	0b6H
	DB	09aH
	DB	078H
	DB	0e1H
	DB	0e7H
	DB	0cbH
	DB	09eH
	DB	0a4H
	DB	0a0H
	DB	08cH
	DB	06eH
	DB	0e1H
	DB	06aH
	DB	0bdH
	DB	03eH
	DB	052H
	DB	0dcH
	DB	027H
	DB	046H
	DB	0b3H
	DB	03bH
	DB	0ecH
	DB	0d8H
	DB	017H
	DB	09bH
	DB	060H
	DB	0b6H
	DB	0e5H
	DB	0baH
	DB	0f3H
	DB	0ceH
	DB	0b7H
	DB	066H
	DB	0d4H
	DB	088H
	DB	04H
	DB	05dH
	DB	038H
	DB	050H
	DB	013H
	DB	0c6H
	DB	058H
	DB	0e6H
	DB	071H
	DB	0d0H
	DB	07dH
	DB	0b3H
	DB	0c6H
	DB	0b6H
	DB	0a9H
	DB	03bH
	DB	0c2H
	DB	0ebH
	DB	091H
	DB	06bH
	DB	0d1H
	DB	02dH
	DB	0c9H
	DB	08dH
	DB	0e9H
	DB	0dH
	DB	020H
	DB	08dH
	DB	02fH
	DB	0bbH
	DB	089H
	DB	0b6H
	DB	0edH
	DB	050H
	DB	018H
	DB	0ddH
	DB	03cH
	DB	07dH
	DB	0d1H
	DB	050H
	DB	096H
	DB	033H
	DB	073H
	DB	066H
	DB	0b9H
	DB	088H
	DB	0faH
	DB	0d0H
	DB	054H
	DB	0d8H
	DB	0e2H
	DB	0dH
	DB	068H
	DB	0a5H
	DB	033H
	DB	05dH
	DB	08bH
	DB	0f0H
	DB	03fH
	DB	023H
	DB	032H
	DB	078H
	DB	0c5H
	DB	0f3H
	DB	066H
	DB	0a0H
	DB	027H
	DB	0feH
	DB	0eH
	DB	05H
	DB	014H
	DB	0a3H
	DB	0d6H
	DB	0aH
	DB	035H
	DB	088H
	DB	0e4H
	DB	072H
	DB	0f0H
	DB	07bH
	DB	082H
	DB	0d2H
	DB	0d7H
	DB	085H
	DB	08cH
	DB	0d7H
	DB	0c3H
	DB	026H
	ORG $+336
	DD	010H
	DB	00H
	DB	01H
	DB	02H
	DB	03H
	DB	04H
	DB	05H
	DB	06H
	DB	07H
	DB	08H
	DB	09H
	DB	0aH
	DB	0bH
	DB	0cH
	DB	0dH
	DB	0eH
	DB	0fH
	ORG $+16
	DB	00H
	DB	01H
	DB	02H
	DB	03H
	DB	04H
	DB	05H
	DB	06H
	DB	07H
	DB	08H
	DB	09H
	DB	0aH
	DB	0bH
	DB	0cH
	DB	0dH
	DB	0eH
	DB	0fH
	DB	0d6H
	DB	0aaH
	DB	074H
	DB	0fdH
	DB	0d2H
	DB	0afH
	DB	072H
	DB	0faH
	DB	0daH
	DB	0a6H
	DB	078H
	DB	0f1H
	DB	0d6H
	DB	0abH
	DB	076H
	DB	0feH
	DB	0b6H
	DB	092H
	DB	0cfH
	DB	0bH
	DB	064H
	DB	03dH
	DB	0bdH
	DB	0f1H
	DB	0beH
	DB	09bH
	DB	0c5H
	DB	00H
	DB	068H
	DB	030H
	DB	0b3H
	DB	0feH
	DB	0b6H
	DB	0ffH
	DB	074H
	DB	04eH
	DB	0d2H
	DB	0c2H
	DB	0c9H
	DB	0bfH
	DB	06cH
	DB	059H
	DB	0cH
	DB	0bfH
	DB	04H
	DB	069H
	DB	0bfH
	DB	041H
	DB	047H
	DB	0f7H
	DB	0f7H
	DB	0bcH
	DB	095H
	DB	035H
	DB	03eH
	DB	03H
	DB	0f9H
	DB	06cH
	DB	032H
	DB	0bcH
	DB	0fdH
	DB	05H
	DB	08dH
	DB	0fdH
	DB	03cH
	DB	0aaH
	DB	0a3H
	DB	0e8H
	DB	0a9H
	DB	09fH
	DB	09dH
	DB	0ebH
	DB	050H
	DB	0f3H
	DB	0afH
	DB	057H
	DB	0adH
	DB	0f6H
	DB	022H
	DB	0aaH
	DB	05eH
	DB	039H
	DB	0fH
	DB	07dH
	DB	0f7H
	DB	0a6H
	DB	092H
	DB	096H
	DB	0a7H
	DB	055H
	DB	03dH
	DB	0c1H
	DB	0aH
	DB	0a3H
	DB	01fH
	DB	06bH
	DB	014H
	DB	0f9H
	DB	070H
	DB	01aH
	DB	0e3H
	DB	05fH
	DB	0e2H
	DB	08cH
	DB	044H
	DB	0aH
	DB	0dfH
	DB	04dH
	DB	04eH
	DB	0a9H
	DB	0c0H
	DB	026H
	DB	047H
	DB	043H
	DB	087H
	DB	035H
	DB	0a4H
	DB	01cH
	DB	065H
	DB	0b9H
	DB	0e0H
	DB	016H
	DB	0baH
	DB	0f4H
	DB	0aeH
	DB	0bfH
	DB	07aH
	DB	0d2H
	DB	054H
	DB	099H
	DB	032H
	DB	0d1H
	DB	0f0H
	DB	085H
	DB	057H
	DB	068H
	DB	010H
	DB	093H
	DB	0edH
	DB	09cH
	DB	0beH
	DB	02cH
	DB	097H
	DB	04eH
	DB	013H
	DB	011H
	DB	01dH
	DB	07fH
	DB	0e3H
	DB	094H
	DB	04aH
	DB	017H
	DB	0f3H
	DB	07H
	DB	0a7H
	DB	08bH
	DB	04dH
	DB	02bH
	DB	030H
	DB	0c5H
	ORG $+336
	DD	010H
	DB	069H
	DB	020H
	DB	0e2H
	DB	099H
	DB	0a5H
	DB	020H
	DB	02aH
	DB	06dH
	DB	065H
	DB	06eH
	DB	063H
	DB	068H
	DB	069H
	DB	074H
	DB	06fH
	DB	02aH
	ORG $+16
	DB	069H
	DB	020H
	DB	0e2H
	DB	099H
	DB	0a5H
	DB	020H
	DB	02aH
	DB	06dH
	DB	065H
	DB	06eH
	DB	063H
	DB	068H
	DB	069H
	DB	074H
	DB	06fH
	DB	02aH
	DB	0faH
	DB	088H
	DB	07H
	DB	060H
	DB	05fH
	DB	0a8H
	DB	02dH
	DB	0dH
	DB	03aH
	DB	0c6H
	DB	04eH
	DB	065H
	DB	053H
	DB	0b2H
	DB	021H
	DB	04fH
	DB	0cfH
	DB	075H
	DB	083H
	DB	08dH
	DB	090H
	DB	0ddH
	DB	0aeH
	DB	080H
	DB	0aaH
	DB	01bH
	DB	0e0H
	DB	0e5H
	DB	0f9H
	DB	0a9H
	DB	0c1H
	DB	0aaH
	DB	018H
	DB	0dH
	DB	02fH
	DB	014H
	DB	088H
	DB	0d0H
	DB	081H
	DB	094H
	DB	022H
	DB	0cbH
	DB	061H
	DB	071H
	DB	0dbH
	DB	062H
	DB	0a0H
	DB	0dbH
	DB	0baH
	DB	0edH
	DB	096H
	DB	0adH
	DB	032H
	DB	03dH
	DB	017H
	DB	039H
	DB	010H
	DB	0f6H
	DB	076H
	DB	048H
	DB	0cbH
	DB	094H
	DB	0d6H
	DB	093H
	DB	088H
	DB	01bH
	DB	04aH
	DB	0b2H
	DB	0baH
	DB	026H
	DB	05dH
	DB	08bH
	DB	0aaH
	DB	0d0H
	DB	02bH
	DB	0c3H
	DB	061H
	DB	044H
	DB	0fdH
	DB	050H
	DB	0b3H
	DB	04fH
	DB	019H
	DB	05dH
	DB	09H
	DB	069H
	DB	044H
	DB	0d6H
	DB	0a3H
	DB	0b9H
	DB	06fH
	DB	015H
	DB	0c2H
	DB	0fdH
	DB	092H
	DB	045H
	DB	0a7H
	DB	00H
	DB	077H
	DB	078H
	DB	0aeH
	DB	069H
	DB	033H
	DB	0aeH
	DB	0dH
	DB	0d0H
	DB	05cH
	DB	0bbH
	DB	0cfH
	DB	02dH
	DB	0ceH
	DB	0feH
	DB	0ffH
	DB	08bH
	DB	0ccH
	DB	0f2H
	DB	051H
	DB	0e2H
	DB	0ffH
	DB	05cH
	DB	05cH
	DB	032H
	DB	0a3H
	DB	0e7H
	DB	093H
	DB	01fH
	DB	06dH
	DB	019H
	DB	024H
	DB	0b7H
	DB	018H
	DB	02eH
	DB	075H
	DB	055H
	DB	0e7H
	DB	072H
	DB	029H
	DB	067H
	DB	044H
	DB	095H
	DB	0baH
	DB	078H
	DB	029H
	DB	08cH
	DB	0aeH
	DB	012H
	DB	07cH
	DB	0daH
	DB	0dbH
	DB	047H
	DB	09bH
	DB	0a8H
	DB	0f2H
	DB	020H
	DB	0dfH
	DB	03dH
	DB	048H
	DB	058H
	DB	0f6H
	DB	0b1H
	ORG $+336
	DD	018H
	DB	00H
	DB	00H
	DB	00H
	DB	00H
	DB	00H
	DB	00H
	DB	00H
	DB	00H
	DB	00H
	DB	00H
	DB	00H
	DB	00H
	DB	00H
	DB	00H
	DB	00H
	DB	00H
	DB	00H
	DB	00H
	DB	00H
	DB	00H
	DB	00H
	DB	00H
	DB	00H
	DB	00H
	ORG $+8
	DB	00H
	DB	00H
	DB	00H
	DB	00H
	DB	00H
	DB	00H
	DB	00H
	DB	00H
	DB	00H
	DB	00H
	DB	00H
	DB	00H
	DB	00H
	DB	00H
	DB	00H
	DB	00H
	DB	00H
	DB	00H
	DB	00H
	DB	00H
	DB	00H
	DB	00H
	DB	00H
	DB	00H
	DB	062H
	DB	063H
	DB	063H
	DB	063H
	DB	062H
	DB	063H
	DB	063H
	DB	063H
	DB	062H
	DB	063H
	DB	063H
	DB	063H
	DB	062H
	DB	063H
	DB	063H
	DB	063H
	DB	062H
	DB	063H
	DB	063H
	DB	063H
	DB	062H
	DB	063H
	DB	063H
	DB	063H
	DB	09bH
	DB	098H
	DB	098H
	DB	0c9H
	DB	0f9H
	DB	0fbH
	DB	0fbH
	DB	0aaH
	DB	09bH
	DB	098H
	DB	098H
	DB	0c9H
	DB	0f9H
	DB	0fbH
	DB	0fbH
	DB	0aaH
	DB	09bH
	DB	098H
	DB	098H
	DB	0c9H
	DB	0f9H
	DB	0fbH
	DB	0fbH
	DB	0aaH
	DB	090H
	DB	097H
	DB	034H
	DB	050H
	DB	069H
	DB	06cH
	DB	0cfH
	DB	0faH
	DB	0f2H
	DB	0f4H
	DB	057H
	DB	033H
	DB	0bH
	DB	0fH
	DB	0acH
	DB	099H
	DB	090H
	DB	097H
	DB	034H
	DB	050H
	DB	069H
	DB	06cH
	DB	0cfH
	DB	0faH
	DB	0c8H
	DB	01dH
	DB	019H
	DB	0a9H
	DB	0a1H
	DB	071H
	DB	0d6H
	DB	053H
	DB	053H
	DB	085H
	DB	081H
	DB	060H
	DB	058H
	DB	08aH
	DB	02dH
	DB	0f9H
	DB	0c8H
	DB	01dH
	DB	019H
	DB	0a9H
	DB	0a1H
	DB	071H
	DB	0d6H
	DB	053H
	DB	07bH
	DB	0ebH
	DB	0f4H
	DB	09bH
	DB	0daH
	DB	09aH
	DB	022H
	DB	0c8H
	DB	089H
	DB	01fH
	DB	0a3H
	DB	0a8H
	DB	0d1H
	DB	095H
	DB	08eH
	DB	051H
	DB	019H
	DB	088H
	DB	097H
	DB	0f8H
	DB	0b8H
	DB	0f9H
	DB	041H
	DB	0abH
	DB	0c2H
	DB	068H
	DB	096H
	DB	0f7H
	DB	018H
	DB	0f2H
	DB	0b4H
	DB	03fH
	DB	091H
	DB	0edH
	DB	017H
	DB	097H
	DB	040H
	DB	078H
	DB	099H
	DB	0c6H
	DB	059H
	DB	0f0H
	DB	0eH
	DB	03eH
	DB	0e1H
	DB	09H
	DB	04fH
	DB	095H
	DB	083H
	DB	0ecH
	DB	0bcH
	DB	0fH
	DB	09bH
	DB	01eH
	DB	08H
	DB	030H
	DB	0aH
	DB	0f3H
	DB	01fH
	DB	0a7H
	DB	04aH
	DB	08bH
	DB	086H
	DB	061H
	DB	013H
	DB	07bH
	DB	088H
	DB	05fH
	DB	0f2H
	DB	072H
	DB	0c7H
	DB	0caH
	DB	043H
	DB	02aH
	DB	0c8H
	DB	086H
	DB	0d8H
	DB	034H
	DB	0c0H
	DB	0b6H
	DB	0d2H
	DB	0c7H
	DB	0dfH
	DB	011H
	DB	098H
	DB	04cH
	DB	059H
	DB	070H
	ORG $+304
	DD	018H
	DB	0ffH
	DB	0ffH
	DB	0ffH
	DB	0ffH
	DB	0ffH
	DB	0ffH
	DB	0ffH
	DB	0ffH
	DB	0ffH
	DB	0ffH
	DB	0ffH
	DB	0ffH
	DB	0ffH
	DB	0ffH
	DB	0ffH
	DB	0ffH
	DB	0ffH
	DB	0ffH
	DB	0ffH
	DB	0ffH
	DB	0ffH
	DB	0ffH
	DB	0ffH
	DB	0ffH
	ORG $+8
	DB	0ffH
	DB	0ffH
	DB	0ffH
	DB	0ffH
	DB	0ffH
	DB	0ffH
	DB	0ffH
	DB	0ffH
	DB	0ffH
	DB	0ffH
	DB	0ffH
	DB	0ffH
	DB	0ffH
	DB	0ffH
	DB	0ffH
	DB	0ffH
	DB	0ffH
	DB	0ffH
	DB	0ffH
	DB	0ffH
	DB	0ffH
	DB	0ffH
	DB	0ffH
	DB	0ffH
	DB	0e8H
	DB	0e9H
	DB	0e9H
	DB	0e9H
	DB	017H
	DB	016H
	DB	016H
	DB	016H
	DB	0e8H
	DB	0e9H
	DB	0e9H
	DB	0e9H
	DB	017H
	DB	016H
	DB	016H
	DB	016H
	DB	0e8H
	DB	0e9H
	DB	0e9H
	DB	0e9H
	DB	017H
	DB	016H
	DB	016H
	DB	016H
	DB	0adH
	DB	0aeH
	DB	0aeH
	DB	019H
	DB	0baH
	DB	0b8H
	DB	0b8H
	DB	0fH
	DB	052H
	DB	051H
	DB	051H
	DB	0e6H
	DB	045H
	DB	047H
	DB	047H
	DB	0f0H
	DB	0adH
	DB	0aeH
	DB	0aeH
	DB	019H
	DB	0baH
	DB	0b8H
	DB	0b8H
	DB	0fH
	DB	0c5H
	DB	0c2H
	DB	0d8H
	DB	0edH
	DB	07fH
	DB	07aH
	DB	060H
	DB	0e2H
	DB	02dH
	DB	02bH
	DB	031H
	DB	04H
	DB	068H
	DB	06cH
	DB	076H
	DB	0f4H
	DB	0c5H
	DB	0c2H
	DB	0d8H
	DB	0edH
	DB	07fH
	DB	07aH
	DB	060H
	DB	0e2H
	DB	017H
	DB	012H
	DB	040H
	DB	03fH
	DB	068H
	DB	068H
	DB	020H
	DB	0ddH
	DB	045H
	DB	043H
	DB	011H
	DB	0d9H
	DB	02dH
	DB	02fH
	DB	067H
	DB	02dH
	DB	0e8H
	DB	0edH
	DB	0bfH
	DB	0c0H
	DB	097H
	DB	097H
	DB	0dfH
	DB	022H
	DB	08fH
	DB	08cH
	DB	0d3H
	DB	0b7H
	DB	0e7H
	DB	0e4H
	DB	0f3H
	DB	06aH
	DB	0a2H
	DB	0a7H
	DB	0e2H
	DB	0b3H
	DB	08fH
	DB	088H
	DB	085H
	DB	09eH
	DB	067H
	DB	065H
	DB	03aH
	DB	05eH
	DB	0f0H
	DB	0f2H
	DB	0e5H
	DB	07cH
	DB	026H
	DB	055H
	DB	0c3H
	DB	03bH
	DB	0c1H
	DB	0b1H
	DB	030H
	DB	051H
	DB	063H
	DB	016H
	DB	0d2H
	DB	0e2H
	DB	0ecH
	DB	09eH
	DB	057H
	DB	07cH
	DB	08bH
	DB	0fbH
	DB	06dH
	DB	022H
	DB	07bH
	DB	09H
	DB	088H
	DB	05eH
	DB	067H
	DB	091H
	DB	09bH
	DB	01aH
	DB	0a6H
	DB	020H
	DB	0abH
	DB	04bH
	DB	0c5H
	DB	036H
	DB	079H
	DB	0a9H
	DB	029H
	DB	0a8H
	DB	02eH
	DB	0d5H
	DB	0a2H
	DB	053H
	DB	043H
	DB	0f7H
	DB	0d9H
	DB	05aH
	DB	0cbH
	DB	0a9H
	DB	059H
	DB	08eH
	DB	048H
	DB	02fH
	DB	0ffH
	DB	0aeH
	DB	0e3H
	DB	064H
	DB	03aH
	DB	098H
	DB	09aH
	DB	0cdH
	DB	013H
	DB	030H
	DB	0b4H
	DB	018H
	ORG $+304
	DD	018H
	DB	00H
	DB	01H
	DB	02H
	DB	03H
	DB	04H
	DB	05H
	DB	06H
	DB	07H
	DB	08H
	DB	09H
	DB	0aH
	DB	0bH
	DB	0cH
	DB	0dH
	DB	0eH
	DB	0fH
	DB	010H
	DB	011H
	DB	012H
	DB	013H
	DB	014H
	DB	015H
	DB	016H
	DB	017H
	ORG $+8
	DB	00H
	DB	01H
	DB	02H
	DB	03H
	DB	04H
	DB	05H
	DB	06H
	DB	07H
	DB	08H
	DB	09H
	DB	0aH
	DB	0bH
	DB	0cH
	DB	0dH
	DB	0eH
	DB	0fH
	DB	010H
	DB	011H
	DB	012H
	DB	013H
	DB	014H
	DB	015H
	DB	016H
	DB	017H
	DB	058H
	DB	046H
	DB	0f2H
	DB	0f9H
	DB	05cH
	DB	043H
	DB	0f4H
	DB	0feH
	DB	054H
	DB	04aH
	DB	0feH
	DB	0f5H
	DB	058H
	DB	047H
	DB	0f0H
	DB	0faH
	DB	048H
	DB	056H
	DB	0e2H
	DB	0e9H
	DB	05cH
	DB	043H
	DB	0f4H
	DB	0feH
	DB	040H
	DB	0f9H
	DB	049H
	DB	0b3H
	DB	01cH
	DB	0baH
	DB	0bdH
	DB	04dH
	DB	048H
	DB	0f0H
	DB	043H
	DB	0b8H
	DB	010H
	DB	0b7H
	DB	0b3H
	DB	042H
	DB	058H
	DB	0e1H
	DB	051H
	DB	0abH
	DB	04H
	DB	0a2H
	DB	0a5H
	DB	055H
	DB	07eH
	DB	0ffH
	DB	0b5H
	DB	041H
	DB	062H
	DB	045H
	DB	08H
	DB	0cH
	DB	02aH
	DB	0b5H
	DB	04bH
	DB	0b4H
	DB	03aH
	DB	02H
	DB	0f8H
	DB	0f6H
	DB	062H
	DB	0e3H
	DB	0a9H
	DB	05dH
	DB	066H
	DB	041H
	DB	0cH
	DB	08H
	DB	0f5H
	DB	01H
	DB	085H
	DB	072H
	DB	097H
	DB	044H
	DB	08dH
	DB	07eH
	DB	0bdH
	DB	0f1H
	DB	0c6H
	DB	0caH
	DB	087H
	DB	0f3H
	DB	03eH
	DB	03cH
	DB	0e5H
	DB	010H
	DB	097H
	DB	061H
	DB	083H
	DB	051H
	DB	09bH
	DB	069H
	DB	034H
	DB	015H
	DB	07cH
	DB	09eH
	DB	0a3H
	DB	051H
	DB	0f1H
	DB	0e0H
	DB	01eH
	DB	0a0H
	DB	037H
	DB	02aH
	DB	099H
	DB	053H
	DB	09H
	DB	016H
	DB	07cH
	DB	043H
	DB	09eH
	DB	077H
	DB	0ffH
	DB	012H
	DB	05H
	DB	01eH
	DB	0ddH
	DB	07eH
	DB	0eH
	DB	088H
	DB	07eH
	DB	02fH
	DB	0ffH
	DB	068H
	DB	060H
	DB	08fH
	DB	0c8H
	DB	042H
	DB	0f9H
	DB	0dcH
	DB	0c1H
	DB	054H
	DB	085H
	DB	09fH
	DB	05fH
	DB	023H
	DB	07aH
	DB	08dH
	DB	05aH
	DB	03dH
	DB	0c0H
	DB	0c0H
	DB	029H
	DB	052H
	DB	0beH
	DB	0efH
	DB	0d6H
	DB	03aH
	DB	0deH
	DB	060H
	DB	01eH
	DB	078H
	DB	027H
	DB	0bcH
	DB	0dfH
	DB	02cH
	DB	0a2H
	DB	023H
	DB	080H
	DB	0fH
	DB	0d8H
	DB	0aeH
	DB	0daH
	DB	032H
	DB	0a4H
	DB	097H
	DB	0aH
	DB	033H
	DB	01aH
	DB	078H
	DB	0dcH
	DB	09H
	DB	0c4H
	DB	018H
	DB	0c2H
	DB	071H
	DB	0e3H
	DB	0a4H
	DB	01dH
	DB	05dH
	ORG $+304
	DD	020H
	DB	00H
	DB	00H
	DB	00H
	DB	00H
	DB	00H
	DB	00H
	DB	00H
	DB	00H
	DB	00H
	DB	00H
	DB	00H
	DB	00H
	DB	00H
	DB	00H
	DB	00H
	DB	00H
	DB	00H
	DB	00H
	DB	00H
	DB	00H
	DB	00H
	DB	00H
	DB	00H
	DB	00H
	DB	00H
	DB	00H
	DB	00H
	DB	00H
	DB	00H
	DB	00H
	DB	00H
	DB	00H
	DB	00H
	DB	00H
	DB	00H
	DB	00H
	DB	00H
	DB	00H
	DB	00H
	DB	00H
	DB	00H
	DB	00H
	DB	00H
	DB	00H
	DB	00H
	DB	00H
	DB	00H
	DB	00H
	DB	00H
	DB	00H
	DB	00H
	DB	00H
	DB	00H
	DB	00H
	DB	00H
	DB	00H
	DB	00H
	DB	00H
	DB	00H
	DB	00H
	DB	00H
	DB	00H
	DB	00H
	DB	00H
	DB	062H
	DB	063H
	DB	063H
	DB	063H
	DB	062H
	DB	063H
	DB	063H
	DB	063H
	DB	062H
	DB	063H
	DB	063H
	DB	063H
	DB	062H
	DB	063H
	DB	063H
	DB	063H
	DB	0aaH
	DB	0fbH
	DB	0fbH
	DB	0fbH
	DB	0aaH
	DB	0fbH
	DB	0fbH
	DB	0fbH
	DB	0aaH
	DB	0fbH
	DB	0fbH
	DB	0fbH
	DB	0aaH
	DB	0fbH
	DB	0fbH
	DB	0fbH
	DB	06fH
	DB	06cH
	DB	06cH
	DB	0cfH
	DB	0dH
	DB	0fH
	DB	0fH
	DB	0acH
	DB	06fH
	DB	06cH
	DB	06cH
	DB	0cfH
	DB	0dH
	DB	0fH
	DB	0fH
	DB	0acH
	DB	07dH
	DB	08dH
	DB	08dH
	DB	06aH
	DB	0d7H
	DB	076H
	DB	076H
	DB	091H
	DB	07dH
	DB	08dH
	DB	08dH
	DB	06aH
	DB	0d7H
	DB	076H
	DB	076H
	DB	091H
	DB	053H
	DB	054H
	DB	0edH
	DB	0c1H
	DB	05eH
	DB	05bH
	DB	0e2H
	DB	06dH
	DB	031H
	DB	037H
	DB	08eH
	DB	0a2H
	DB	03cH
	DB	038H
	DB	081H
	DB	0eH
	DB	096H
	DB	08aH
	DB	081H
	DB	0c1H
	DB	041H
	DB	0fcH
	DB	0f7H
	DB	050H
	DB	03cH
	DB	071H
	DB	07aH
	DB	03aH
	DB	0ebH
	DB	07H
	DB	0cH
	DB	0abH
	DB	09eH
	DB	0aaH
	DB	08fH
	DB	028H
	DB	0c0H
	DB	0f1H
	DB	06dH
	DB	045H
	DB	0f1H
	DB	0c6H
	DB	0e3H
	DB	0e7H
	DB	0cdH
	DB	0feH
	DB	062H
	DB	0e9H
	DB	02bH
	DB	031H
	DB	02bH
	DB	0dfH
	DB	06aH
	DB	0cdH
	DB	0dcH
	DB	08fH
	DB	056H
	DB	0bcH
	DB	0a6H
	DB	0b5H
	DB	0bdH
	DB	0bbH
	DB	0aaH
	DB	01eH
	DB	064H
	DB	06H
	DB	0fdH
	DB	052H
	DB	0a4H
	DB	0f7H
	DB	090H
	DB	017H
	DB	055H
	DB	031H
	DB	073H
	DB	0f0H
	DB	098H
	DB	0cfH
	DB	011H
	DB	019H
	DB	06dH
	DB	0bbH
	DB	0a9H
	DB	0bH
	DB	07H
	DB	076H
	DB	075H
	DB	084H
	DB	051H
	DB	0caH
	DB	0d3H
	DB	031H
	DB	0ecH
	DB	071H
	DB	079H
	DB	02fH
	DB	0e7H
	DB	0b0H
	DB	0e8H
	DB	09cH
	DB	043H
	DB	047H
	DB	078H
	DB	08bH
	DB	016H
	DB	076H
	DB	0bH
	DB	07bH
	DB	08eH
	DB	0b9H
	DB	01aH
	DB	062H
	DB	074H
	DB	0edH
	DB	0bH
	DB	0a1H
	DB	073H
	DB	09bH
	DB	07eH
	DB	025H
	DB	022H
	DB	051H
	DB	0adH
	DB	014H
	DB	0ceH
	DB	020H
	DB	0d4H
	DB	03bH
	DB	010H
	DB	0f8H
	DB	0aH
	DB	017H
	DB	053H
	DB	0bfH
	DB	072H
	DB	09cH
	DB	045H
	DB	0c9H
	DB	079H
	DB	0e7H
	DB	0cbH
	DB	070H
	DB	063H
	DB	085H
	ORG $+272
	DD	020H
	DB	0ffH
	DB	0ffH
	DB	0ffH
	DB	0ffH
	DB	0ffH
	DB	0ffH
	DB	0ffH
	DB	0ffH
	DB	0ffH
	DB	0ffH
	DB	0ffH
	DB	0ffH
	DB	0ffH
	DB	0ffH
	DB	0ffH
	DB	0ffH
	DB	0ffH
	DB	0ffH
	DB	0ffH
	DB	0ffH
	DB	0ffH
	DB	0ffH
	DB	0ffH
	DB	0ffH
	DB	0ffH
	DB	0ffH
	DB	0ffH
	DB	0ffH
	DB	0ffH
	DB	0ffH
	DB	0ffH
	DB	0ffH
	DB	0ffH
	DB	0ffH
	DB	0ffH
	DB	0ffH
	DB	0ffH
	DB	0ffH
	DB	0ffH
	DB	0ffH
	DB	0ffH
	DB	0ffH
	DB	0ffH
	DB	0ffH
	DB	0ffH
	DB	0ffH
	DB	0ffH
	DB	0ffH
	DB	0ffH
	DB	0ffH
	DB	0ffH
	DB	0ffH
	DB	0ffH
	DB	0ffH
	DB	0ffH
	DB	0ffH
	DB	0ffH
	DB	0ffH
	DB	0ffH
	DB	0ffH
	DB	0ffH
	DB	0ffH
	DB	0ffH
	DB	0ffH
	DB	0e8H
	DB	0e9H
	DB	0e9H
	DB	0e9H
	DB	017H
	DB	016H
	DB	016H
	DB	016H
	DB	0e8H
	DB	0e9H
	DB	0e9H
	DB	0e9H
	DB	017H
	DB	016H
	DB	016H
	DB	016H
	DB	0fH
	DB	0b8H
	DB	0b8H
	DB	0b8H
	DB	0f0H
	DB	047H
	DB	047H
	DB	047H
	DB	0fH
	DB	0b8H
	DB	0b8H
	DB	0b8H
	DB	0f0H
	DB	047H
	DB	047H
	DB	047H
	DB	04aH
	DB	049H
	DB	049H
	DB	065H
	DB	05dH
	DB	05fH
	DB	05fH
	DB	073H
	DB	0b5H
	DB	0b6H
	DB	0b6H
	DB	09aH
	DB	0a2H
	DB	0a0H
	DB	0a0H
	DB	08cH
	DB	035H
	DB	058H
	DB	058H
	DB	0dcH
	DB	0c5H
	DB	01fH
	DB	01fH
	DB	09bH
	DB	0caH
	DB	0a7H
	DB	0a7H
	DB	023H
	DB	03aH
	DB	0e0H
	DB	0e0H
	DB	064H
	DB	0afH
	DB	0a8H
	DB	0aH
	DB	0e5H
	DB	0f2H
	DB	0f7H
	DB	055H
	DB	096H
	DB	047H
	DB	041H
	DB	0e3H
	DB	0cH
	DB	0e5H
	DB	0e1H
	DB	043H
	DB	080H
	DB	0ecH
	DB	0a0H
	DB	042H
	DB	011H
	DB	029H
	DB	0bfH
	DB	05dH
	DB	08aH
	DB	0e3H
	DB	018H
	DB	0faH
	DB	0a9H
	DB	0d9H
	DB	0f8H
	DB	01aH
	DB	0cdH
	DB	0e6H
	DB	0aH
	DB	0b7H
	DB	0d0H
	DB	014H
	DB	0fdH
	DB	0e2H
	DB	046H
	DB	053H
	DB	0bcH
	DB	01H
	DB	04aH
	DB	0b6H
	DB	05dH
	DB	042H
	DB	0caH
	DB	0a2H
	DB	0ecH
	DB	06eH
	DB	065H
	DB	08bH
	DB	053H
	DB	033H
	DB	0efH
	DB	068H
	DB	04bH
	DB	0c9H
	DB	046H
	DB	0b1H
	DB	0b3H
	DB	0d3H
	DB	08bH
	DB	09bH
	DB	06cH
	DB	08aH
	DB	018H
	DB	08fH
	DB	091H
	DB	068H
	DB	05eH
	DB	0dcH
	DB	02dH
	DB	069H
	DB	014H
	DB	06aH
	DB	070H
	DB	02bH
	DB	0deH
	DB	0a0H
	DB	0bdH
	DB	09fH
	DB	078H
	DB	02bH
	DB	0eeH
	DB	0acH
	DB	097H
	DB	043H
	DB	0a5H
	DB	065H
	DB	0d1H
	DB	0f2H
	DB	016H
	DB	0b6H
	DB	05aH
	DB	0fcH
	DB	022H
	DB	034H
	DB	091H
	DB	073H
	DB	0b3H
	DB	05cH
	DB	0cfH
	DB	0afH
	DB	09eH
	DB	035H
	DB	0dbH
	DB	0c5H
	DB	0eeH
	DB	01eH
	DB	05H
	DB	06H
	DB	095H
	DB	0edH
	DB	013H
	DB	02dH
	DB	07bH
	DB	041H
	DB	084H
	DB	06eH
	DB	0deH
	DB	024H
	DB	055H
	DB	09cH
	DB	0c8H
	DB	092H
	DB	0fH
	DB	054H
	DB	06dH
	DB	042H
	DB	04fH
	DB	027H
	DB	0deH
	DB	01eH
	DB	080H
	DB	088H
	DB	040H
	DB	02bH
	DB	05bH
	DB	04dH
	DB	0aeH
	DB	035H
	DB	05eH
	ORG $+272
	DD	020H
	DB	00H
	DB	01H
	DB	02H
	DB	03H
	DB	04H
	DB	05H
	DB	06H
	DB	07H
	DB	08H
	DB	09H
	DB	0aH
	DB	0bH
	DB	0cH
	DB	0dH
	DB	0eH
	DB	0fH
	DB	010H
	DB	011H
	DB	012H
	DB	013H
	DB	014H
	DB	015H
	DB	016H
	DB	017H
	DB	018H
	DB	019H
	DB	01aH
	DB	01bH
	DB	01cH
	DB	01dH
	DB	01eH
	DB	01fH
	DB	00H
	DB	01H
	DB	02H
	DB	03H
	DB	04H
	DB	05H
	DB	06H
	DB	07H
	DB	08H
	DB	09H
	DB	0aH
	DB	0bH
	DB	0cH
	DB	0dH
	DB	0eH
	DB	0fH
	DB	010H
	DB	011H
	DB	012H
	DB	013H
	DB	014H
	DB	015H
	DB	016H
	DB	017H
	DB	018H
	DB	019H
	DB	01aH
	DB	01bH
	DB	01cH
	DB	01dH
	DB	01eH
	DB	01fH
	DB	0a5H
	DB	073H
	DB	0c2H
	DB	09fH
	DB	0a1H
	DB	076H
	DB	0c4H
	DB	098H
	DB	0a9H
	DB	07fH
	DB	0ceH
	DB	093H
	DB	0a5H
	DB	072H
	DB	0c0H
	DB	09cH
	DB	016H
	DB	051H
	DB	0a8H
	DB	0cdH
	DB	02H
	DB	044H
	DB	0beH
	DB	0daH
	DB	01aH
	DB	05dH
	DB	0a4H
	DB	0c1H
	DB	06H
	DB	040H
	DB	0baH
	DB	0deH
	DB	0aeH
	DB	087H
	DB	0dfH
	DB	0f0H
	DB	0fH
	DB	0f1H
	DB	01bH
	DB	068H
	DB	0a6H
	DB	08eH
	DB	0d5H
	DB	0fbH
	DB	03H
	DB	0fcH
	DB	015H
	DB	067H
	DB	06dH
	DB	0e1H
	DB	0f1H
	DB	048H
	DB	06fH
	DB	0a5H
	DB	04fH
	DB	092H
	DB	075H
	DB	0f8H
	DB	0ebH
	DB	053H
	DB	073H
	DB	0b8H
	DB	051H
	DB	08dH
	DB	0c6H
	DB	056H
	DB	082H
	DB	07fH
	DB	0c9H
	DB	0a7H
	DB	099H
	DB	017H
	DB	06fH
	DB	029H
	DB	04cH
	DB	0ecH
	DB	06cH
	DB	0d5H
	DB	059H
	DB	08bH
	DB	03dH
	DB	0e2H
	DB	03aH
	DB	075H
	DB	052H
	DB	047H
	DB	075H
	DB	0e7H
	DB	027H
	DB	0bfH
	DB	09eH
	DB	0b4H
	DB	054H
	DB	07H
	DB	0cfH
	DB	039H
	DB	0bH
	DB	0dcH
	DB	090H
	DB	05fH
	DB	0c2H
	DB	07bH
	DB	09H
	DB	048H
	DB	0adH
	DB	052H
	DB	045H
	DB	0a4H
	DB	0c1H
	DB	087H
	DB	01cH
	DB	02fH
	DB	045H
	DB	0f5H
	DB	0a6H
	DB	060H
	DB	017H
	DB	0b2H
	DB	0d3H
	DB	087H
	DB	030H
	DB	0dH
	DB	04dH
	DB	033H
	DB	064H
	DB	0aH
	DB	082H
	DB	0aH
	DB	07cH
	DB	0cfH
	DB	0f7H
	DB	01cH
	DB	0beH
	DB	0b4H
	DB	0feH
	DB	054H
	DB	013H
	DB	0e6H
	DB	0bbH
	DB	0f0H
	DB	0d2H
	DB	061H
	DB	0a7H
	DB	0dfH
	DB	0f0H
	DB	01aH
	DB	0faH
	DB	0feH
	DB	0e7H
	DB	0a8H
	DB	029H
	DB	079H
	DB	0d7H
	DB	0a5H
	DB	064H
	DB	04aH
	DB	0b3H
	DB	0afH
	DB	0e6H
	DB	040H
	DB	025H
	DB	041H
	DB	0feH
	DB	071H
	DB	09bH
	DB	0f5H
	DB	00H
	DB	025H
	DB	088H
	DB	013H
	DB	0bbH
	DB	0d5H
	DB	05aH
	DB	072H
	DB	01cH
	DB	0aH
	DB	04eH
	DB	05aH
	DB	066H
	DB	099H
	DB	0a9H
	DB	0f2H
	DB	04fH
	DB	0e0H
	DB	07eH
	DB	057H
	DB	02bH
	DB	0aaH
	DB	0cdH
	DB	0f8H
	DB	0cdH
	DB	0eaH
	DB	024H
	DB	0fcH
	DB	079H
	DB	0ccH
	DB	0bfH
	DB	09H
	DB	079H
	DB	0e9H
	DB	037H
	DB	01aH
	DB	0c2H
	DB	03cH
	DB	06dH
	DB	068H
	DB	0deH
	DB	036H
	ORG $+272
PUBLIC	__$ArrayPad$
PUBLIC	?key_schedule_test@@YAXXZ			; key_schedule_test
; Function compile flags: /Ogtp
; File c:\users\tdrol\documents\visual studio 2010\projects\analizator\analizator-bd-opencl\key_schedule_test.cpp
;	COMDAT ?key_schedule_test@@YAXXZ
_TEXT	SEGMENT
tv678 = -276						; size = 4
tv628 = -272						; size = 4
tv541 = -268						; size = 4
tv638 = -264						; size = 4
tv651 = -260						; size = 4
tv630 = -256						; size = 4
tv472 = -252						; size = 4
_t$30086 = -248						; size = 4
_result$ = -244						; size = 240
__$ArrayPad$ = -4					; size = 4
?key_schedule_test@@YAXXZ PROC				; key_schedule_test, COMDAT

; 246  : {

	push	ebp
	mov	ebp, esp
	sub	esp, 276				; 00000114H
	mov	eax, DWORD PTR ___security_cookie
	xor	eax, ebp
	mov	DWORD PTR __$ArrayPad$[ebp], eax
	push	ebx
	push	esi
	push	edi

; 247  : 	printf("Test: key_schedule\n");

	push	OFFSET ??_C@_0BE@MABLGNOI@Test?3?5key_schedule?6?$AA@
	call	_printf
	mov	ebx, 1
	mov	edi, OFFSET ?test_data@@3PAUKey_Data@@A	; test_data
	add	esp, 4
	mov	DWORD PTR tv630[ebp], ebx
	mov	DWORD PTR tv638[ebp], edi
	mov	DWORD PTR tv651[ebp], 10		; 0000000aH
$LL5@key_schedu@2:

; 248  : 
; 249  : 	uint8_t result[RKLENGTH(256)];
; 250  : 
; 251  : 	for (unsigned int i = 0; i < test_data_size; i++)
; 252  : 	{
; 253  : 		Key_Data &data = test_data[i];
; 254  : 		memcpy(result, data.key, data.length);

	mov	esi, DWORD PTR [edi]
	push	esi
	lea	eax, DWORD PTR [edi+4]
	push	eax
	lea	ecx, DWORD PTR _result$[ebp]
	push	ecx
	call	_memcpy

; 255  : 
; 256  : 		key_schedule(result, data.length*8);

	lea	eax, DWORD PTR [esi*8]
	mov	esi, eax
	shr	esi, 3
	lea	ecx, DWORD PTR [esi*4+112]
	add	esp, 12					; 0000000cH
	mov	DWORD PTR tv678[ebp], eax
	cmp	esi, ecx
	jae	$LN14@key_schedu@2
	mov	eax, 4
	sub	eax, esi
	mov	edi, 4
	lea	edx, DWORD PTR _result$[ebp]
	sub	edi, edx
	mov	DWORD PTR tv472[ebp], OFFSET _rcon+1
	lea	ecx, DWORD PTR _result$[ebp+esi-4]
	mov	DWORD PTR tv628[ebp], eax
	mov	DWORD PTR tv541[ebp], edi
	jmp	SHORT $LN15@key_schedu@2
	npad	3
$LL29@key_schedu@2:
	mov	edi, DWORD PTR tv541[ebp]
$LN15@key_schedu@2:
	movzx	eax, BYTE PTR [ecx+1]
	mov	dl, BYTE PTR [ecx+2]
	mov	BYTE PTR _t$30086[ebp+1], al
	movzx	eax, BYTE PTR [ecx+3]
	add	edi, ecx
	mov	BYTE PTR _t$30086[ebp+2], dl
	mov	BYTE PTR _t$30086[ebp+3], al
	xor	edx, edx
	mov	eax, edi
	div	esi
	mov	bl, BYTE PTR [ecx]
	mov	BYTE PTR _t$30086[ebp], bl
	test	edx, edx
	jne	SHORT $LN28@key_schedu@2
	movzx	edx, BYTE PTR _t$30086[ebp+1]
	mov	al, bl
	mov	bl, BYTE PTR _sbox[edx]
	mov	edx, DWORD PTR tv472[ebp]
	xor	bl, BYTE PTR [edx]
	movzx	edx, BYTE PTR _t$30086[ebp+2]
	movzx	edx, BYTE PTR _sbox[edx]
	inc	DWORD PTR tv472[ebp]
	mov	BYTE PTR _t$30086[ebp+1], dl
	movzx	edx, BYTE PTR _t$30086[ebp+3]
	movzx	edx, BYTE PTR _sbox[edx]
	movzx	eax, al
	mov	BYTE PTR _t$30086[ebp+2], dl
	movzx	edx, BYTE PTR _sbox[eax]
	mov	BYTE PTR _t$30086[ebp], bl
	mov	BYTE PTR _t$30086[ebp+3], dl
$LN28@key_schedu@2:
	cmp	esi, 32					; 00000020H
	jne	SHORT $LN12@key_schedu@2
	mov	eax, edi
	and	al, 31					; 0000001fH
	cmp	al, 16					; 00000010H
	jne	SHORT $LN12@key_schedu@2
	movzx	edx, bl
	movzx	eax, BYTE PTR _sbox[edx]
	movzx	edx, BYTE PTR _t$30086[ebp+1]
	mov	BYTE PTR _t$30086[ebp], al
	movzx	eax, BYTE PTR _sbox[edx]
	movzx	edx, BYTE PTR _t$30086[ebp+2]
	mov	BYTE PTR _t$30086[ebp+1], al
	movzx	eax, BYTE PTR _sbox[edx]
	movzx	edx, BYTE PTR _t$30086[ebp+3]
	mov	BYTE PTR _t$30086[ebp+2], al
	movzx	eax, BYTE PTR _sbox[edx]
	mov	BYTE PTR _t$30086[ebp+3], al
$LN12@key_schedu@2:
	mov	edx, DWORD PTR tv628[ebp]
	mov	eax, DWORD PTR [edx+ecx]
	xor	eax, DWORD PTR _t$30086[ebp]
	mov	edx, DWORD PTR tv541[ebp]
	mov	DWORD PTR [ecx+4], eax
	add	ecx, 4
	add	edx, ecx
	lea	eax, DWORD PTR [esi*4+112]
	cmp	edx, eax
	jb	$LL29@key_schedu@2
	mov	eax, DWORD PTR tv678[ebp]
	mov	edi, DWORD PTR tv638[ebp]
	mov	ebx, DWORD PTR tv630[ebp]
$LN14@key_schedu@2:

; 257  : 
; 258  : 		if (memcmp(result, data.expanded_key, RKLENGTH(data.length*8)) == 0)

	cdq
	and	edx, 7
	add	eax, edx
	sar	eax, 3
	lea	eax, DWORD PTR [eax*4+112]
	lea	ecx, DWORD PTR [edi+36]
	lea	esi, DWORD PTR _result$[ebp]
	cmp	eax, 4
	jb	SHORT $LN24@key_schedu@2
$LL9@key_schedu@2:
	mov	edx, DWORD PTR [esi]
	cmp	edx, DWORD PTR [ecx]
	jne	SHORT $LN2@key_schedu@2
	sub	eax, 4
	add	ecx, 4
	add	esi, 4
	cmp	eax, 4
	jae	SHORT $LL9@key_schedu@2
$LN24@key_schedu@2:
	test	eax, eax
	je	SHORT $LN11@key_schedu@2
	mov	dl, BYTE PTR [ecx]
	cmp	dl, BYTE PTR [esi]
	jne	SHORT $LN2@key_schedu@2
	cmp	eax, 1
	jbe	SHORT $LN11@key_schedu@2
	mov	dl, BYTE PTR [ecx+1]
	cmp	dl, BYTE PTR [esi+1]
	jne	SHORT $LN2@key_schedu@2
	cmp	eax, 2
	jbe	SHORT $LN11@key_schedu@2
	mov	al, BYTE PTR [ecx+2]
	cmp	al, BYTE PTR [esi+2]
	je	SHORT $LN11@key_schedu@2
$LN2@key_schedu@2:

; 261  : 		}
; 262  : 		else
; 263  : 		{
; 264  : 			printf("  #%u (%u bit) fail\n", i+1, data.length);

	mov	eax, DWORD PTR [edi]
	push	eax
	push	ebx
	push	OFFSET ??_C@_0BF@BPJHMNAK@?5?5?$CD?$CFu?5?$CI?$CFu?5bit?$CJ?5fail?6?$AA@
	jmp	SHORT $LN30@key_schedu@2
$LN11@key_schedu@2:

; 259  : 		{
; 260  : 			printf("  #%u (%u bit) pass\n", i+1, data.length);

	mov	eax, DWORD PTR [edi]
	push	eax
	push	ebx
	push	OFFSET ??_C@_0BF@OCMGHPDK@?5?5?$CD?$CFu?5?$CI?$CFu?5bit?$CJ?5pass?6?$AA@
$LN30@key_schedu@2:
	call	_printf
	add	edi, 548				; 00000224H
	inc	ebx
	add	esp, 12					; 0000000cH
	dec	DWORD PTR tv651[ebp]
	mov	DWORD PTR tv638[ebp], edi
	mov	DWORD PTR tv630[ebp], ebx
	jne	$LL5@key_schedu@2

; 265  : 		}
; 266  : 	}
; 267  : 	printf("\n");

	push	OFFSET ??_C@_01EEMJAFIK@?6?$AA@
	call	_printf

; 268  : }

	mov	ecx, DWORD PTR __$ArrayPad$[ebp]
	add	esp, 4
	pop	edi
	pop	esi
	xor	ecx, ebp
	pop	ebx
	call	@__security_check_cookie@4
	mov	esp, ebp
	pop	ebp
	ret	0
?key_schedule_test@@YAXXZ ENDP				; key_schedule_test
END
