; Listing generated by Microsoft (R) Optimizing Compiler Version 16.00.30319.01 

	TITLE	C:\Users\tdrol\documents\visual studio 2010\Projects\analizator\analizator-bd-opencl\rijndael.cpp
	.686P
	.XMM
	include listing.inc
	.model	flat

INCLUDELIB LIBCMT
INCLUDELIB OLDNAMES

CONST	SEGMENT
_Te0	DD	0c66363a5H
	DD	0f87c7c84H
	DD	0ee777799H
	DD	0f67b7b8dH
	DD	0fff2f20dH
	DD	0d66b6bbdH
	DD	0de6f6fb1H
	DD	091c5c554H
	DD	060303050H
	DD	02010103H
	DD	0ce6767a9H
	DD	0562b2b7dH
	DD	0e7fefe19H
	DD	0b5d7d762H
	DD	04dababe6H
	DD	0ec76769aH
	DD	08fcaca45H
	DD	01f82829dH
	DD	089c9c940H
	DD	0fa7d7d87H
	DD	0effafa15H
	DD	0b25959ebH
	DD	08e4747c9H
	DD	0fbf0f00bH
	DD	041adadecH
	DD	0b3d4d467H
	DD	05fa2a2fdH
	DD	045afafeaH
	DD	0239c9cbfH
	DD	053a4a4f7H
	DD	0e4727296H
	DD	09bc0c05bH
	DD	075b7b7c2H
	DD	0e1fdfd1cH
	DD	03d9393aeH
	DD	04c26266aH
	DD	06c36365aH
	DD	07e3f3f41H
	DD	0f5f7f702H
	DD	083cccc4fH
	DD	06834345cH
	DD	051a5a5f4H
	DD	0d1e5e534H
	DD	0f9f1f108H
	DD	0e2717193H
	DD	0abd8d873H
	DD	062313153H
	DD	02a15153fH
	DD	0804040cH
	DD	095c7c752H
	DD	046232365H
	DD	09dc3c35eH
	DD	030181828H
	DD	0379696a1H
	DD	0a05050fH
	DD	02f9a9ab5H
	DD	0e070709H
	DD	024121236H
	DD	01b80809bH
	DD	0dfe2e23dH
	DD	0cdebeb26H
	DD	04e272769H
	DD	07fb2b2cdH
	DD	0ea75759fH
	DD	01209091bH
	DD	01d83839eH
	DD	0582c2c74H
	DD	0341a1a2eH
	DD	0361b1b2dH
	DD	0dc6e6eb2H
	DD	0b45a5aeeH
	DD	05ba0a0fbH
	DD	0a45252f6H
	DD	0763b3b4dH
	DD	0b7d6d661H
	DD	07db3b3ceH
	DD	05229297bH
	DD	0dde3e33eH
	DD	05e2f2f71H
	DD	013848497H
	DD	0a65353f5H
	DD	0b9d1d168H
	DD	00H
	DD	0c1eded2cH
	DD	040202060H
	DD	0e3fcfc1fH
	DD	079b1b1c8H
	DD	0b65b5bedH
	DD	0d46a6abeH
	DD	08dcbcb46H
	DD	067bebed9H
	DD	07239394bH
	DD	0944a4adeH
	DD	0984c4cd4H
	DD	0b05858e8H
	DD	085cfcf4aH
	DD	0bbd0d06bH
	DD	0c5efef2aH
	DD	04faaaae5H
	DD	0edfbfb16H
	DD	0864343c5H
	DD	09a4d4dd7H
	DD	066333355H
	DD	011858594H
	DD	08a4545cfH
	DD	0e9f9f910H
	DD	04020206H
	DD	0fe7f7f81H
	DD	0a05050f0H
	DD	0783c3c44H
	DD	0259f9fbaH
	DD	04ba8a8e3H
	DD	0a25151f3H
	DD	05da3a3feH
	DD	0804040c0H
	DD	058f8f8aH
	DD	03f9292adH
	DD	0219d9dbcH
	DD	070383848H
	DD	0f1f5f504H
	DD	063bcbcdfH
	DD	077b6b6c1H
	DD	0afdada75H
	DD	042212163H
	DD	020101030H
	DD	0e5ffff1aH
	DD	0fdf3f30eH
	DD	0bfd2d26dH
	DD	081cdcd4cH
	DD	0180c0c14H
	DD	026131335H
	DD	0c3ecec2fH
	DD	0be5f5fe1H
	DD	0359797a2H
	DD	0884444ccH
	DD	02e171739H
	DD	093c4c457H
	DD	055a7a7f2H
	DD	0fc7e7e82H
	DD	07a3d3d47H
	DD	0c86464acH
	DD	0ba5d5de7H
	DD	03219192bH
	DD	0e6737395H
	DD	0c06060a0H
	DD	019818198H
	DD	09e4f4fd1H
	DD	0a3dcdc7fH
	DD	044222266H
	DD	0542a2a7eH
	DD	03b9090abH
	DD	0b888883H
	DD	08c4646caH
	DD	0c7eeee29H
	DD	06bb8b8d3H
	DD	02814143cH
	DD	0a7dede79H
	DD	0bc5e5ee2H
	DD	0160b0b1dH
	DD	0addbdb76H
	DD	0dbe0e03bH
	DD	064323256H
	DD	0743a3a4eH
	DD	0140a0a1eH
	DD	0924949dbH
	DD	0c06060aH
	DD	04824246cH
	DD	0b85c5ce4H
	DD	09fc2c25dH
	DD	0bdd3d36eH
	DD	043acacefH
	DD	0c46262a6H
	DD	0399191a8H
	DD	0319595a4H
	DD	0d3e4e437H
	DD	0f279798bH
	DD	0d5e7e732H
	DD	08bc8c843H
	DD	06e373759H
	DD	0da6d6db7H
	DD	018d8d8cH
	DD	0b1d5d564H
	DD	09c4e4ed2H
	DD	049a9a9e0H
	DD	0d86c6cb4H
	DD	0ac5656faH
	DD	0f3f4f407H
	DD	0cfeaea25H
	DD	0ca6565afH
	DD	0f47a7a8eH
	DD	047aeaee9H
	DD	010080818H
	DD	06fbabad5H
	DD	0f0787888H
	DD	04a25256fH
	DD	05c2e2e72H
	DD	0381c1c24H
	DD	057a6a6f1H
	DD	073b4b4c7H
	DD	097c6c651H
	DD	0cbe8e823H
	DD	0a1dddd7cH
	DD	0e874749cH
	DD	03e1f1f21H
	DD	0964b4bddH
	DD	061bdbddcH
	DD	0d8b8b86H
	DD	0f8a8a85H
	DD	0e0707090H
	DD	07c3e3e42H
	DD	071b5b5c4H
	DD	0cc6666aaH
	DD	0904848d8H
	DD	06030305H
	DD	0f7f6f601H
	DD	01c0e0e12H
	DD	0c26161a3H
	DD	06a35355fH
	DD	0ae5757f9H
	DD	069b9b9d0H
	DD	017868691H
	DD	099c1c158H
	DD	03a1d1d27H
	DD	0279e9eb9H
	DD	0d9e1e138H
	DD	0ebf8f813H
	DD	02b9898b3H
	DD	022111133H
	DD	0d26969bbH
	DD	0a9d9d970H
	DD	078e8e89H
	DD	0339494a7H
	DD	02d9b9bb6H
	DD	03c1e1e22H
	DD	015878792H
	DD	0c9e9e920H
	DD	087cece49H
	DD	0aa5555ffH
	DD	050282878H
	DD	0a5dfdf7aH
	DD	038c8c8fH
	DD	059a1a1f8H
	DD	09898980H
	DD	01a0d0d17H
	DD	065bfbfdaH
	DD	0d7e6e631H
	DD	0844242c6H
	DD	0d06868b8H
	DD	0824141c3H
	DD	0299999b0H
	DD	05a2d2d77H
	DD	01e0f0f11H
	DD	07bb0b0cbH
	DD	0a85454fcH
	DD	06dbbbbd6H
	DD	02c16163aH
_Te1	DD	0a5c66363H
	DD	084f87c7cH
	DD	099ee7777H
	DD	08df67b7bH
	DD	0dfff2f2H
	DD	0bdd66b6bH
	DD	0b1de6f6fH
	DD	05491c5c5H
	DD	050603030H
	DD	03020101H
	DD	0a9ce6767H
	DD	07d562b2bH
	DD	019e7fefeH
	DD	062b5d7d7H
	DD	0e64dababH
	DD	09aec7676H
	DD	0458fcacaH
	DD	09d1f8282H
	DD	04089c9c9H
	DD	087fa7d7dH
	DD	015effafaH
	DD	0ebb25959H
	DD	0c98e4747H
	DD	0bfbf0f0H
	DD	0ec41adadH
	DD	067b3d4d4H
	DD	0fd5fa2a2H
	DD	0ea45afafH
	DD	0bf239c9cH
	DD	0f753a4a4H
	DD	096e47272H
	DD	05b9bc0c0H
	DD	0c275b7b7H
	DD	01ce1fdfdH
	DD	0ae3d9393H
	DD	06a4c2626H
	DD	05a6c3636H
	DD	0417e3f3fH
	DD	02f5f7f7H
	DD	04f83ccccH
	DD	05c683434H
	DD	0f451a5a5H
	DD	034d1e5e5H
	DD	08f9f1f1H
	DD	093e27171H
	DD	073abd8d8H
	DD	053623131H
	DD	03f2a1515H
	DD	0c080404H
	DD	05295c7c7H
	DD	065462323H
	DD	05e9dc3c3H
	DD	028301818H
	DD	0a1379696H
	DD	0f0a0505H
	DD	0b52f9a9aH
	DD	090e0707H
	DD	036241212H
	DD	09b1b8080H
	DD	03ddfe2e2H
	DD	026cdebebH
	DD	0694e2727H
	DD	0cd7fb2b2H
	DD	09fea7575H
	DD	01b120909H
	DD	09e1d8383H
	DD	074582c2cH
	DD	02e341a1aH
	DD	02d361b1bH
	DD	0b2dc6e6eH
	DD	0eeb45a5aH
	DD	0fb5ba0a0H
	DD	0f6a45252H
	DD	04d763b3bH
	DD	061b7d6d6H
	DD	0ce7db3b3H
	DD	07b522929H
	DD	03edde3e3H
	DD	0715e2f2fH
	DD	097138484H
	DD	0f5a65353H
	DD	068b9d1d1H
	DD	00H
	DD	02cc1ededH
	DD	060402020H
	DD	01fe3fcfcH
	DD	0c879b1b1H
	DD	0edb65b5bH
	DD	0bed46a6aH
	DD	0468dcbcbH
	DD	0d967bebeH
	DD	04b723939H
	DD	0de944a4aH
	DD	0d4984c4cH
	DD	0e8b05858H
	DD	04a85cfcfH
	DD	06bbbd0d0H
	DD	02ac5efefH
	DD	0e54faaaaH
	DD	016edfbfbH
	DD	0c5864343H
	DD	0d79a4d4dH
	DD	055663333H
	DD	094118585H
	DD	0cf8a4545H
	DD	010e9f9f9H
	DD	06040202H
	DD	081fe7f7fH
	DD	0f0a05050H
	DD	044783c3cH
	DD	0ba259f9fH
	DD	0e34ba8a8H
	DD	0f3a25151H
	DD	0fe5da3a3H
	DD	0c0804040H
	DD	08a058f8fH
	DD	0ad3f9292H
	DD	0bc219d9dH
	DD	048703838H
	DD	04f1f5f5H
	DD	0df63bcbcH
	DD	0c177b6b6H
	DD	075afdadaH
	DD	063422121H
	DD	030201010H
	DD	01ae5ffffH
	DD	0efdf3f3H
	DD	06dbfd2d2H
	DD	04c81cdcdH
	DD	014180c0cH
	DD	035261313H
	DD	02fc3ececH
	DD	0e1be5f5fH
	DD	0a2359797H
	DD	0cc884444H
	DD	0392e1717H
	DD	05793c4c4H
	DD	0f255a7a7H
	DD	082fc7e7eH
	DD	0477a3d3dH
	DD	0acc86464H
	DD	0e7ba5d5dH
	DD	02b321919H
	DD	095e67373H
	DD	0a0c06060H
	DD	098198181H
	DD	0d19e4f4fH
	DD	07fa3dcdcH
	DD	066442222H
	DD	07e542a2aH
	DD	0ab3b9090H
	DD	0830b8888H
	DD	0ca8c4646H
	DD	029c7eeeeH
	DD	0d36bb8b8H
	DD	03c281414H
	DD	079a7dedeH
	DD	0e2bc5e5eH
	DD	01d160b0bH
	DD	076addbdbH
	DD	03bdbe0e0H
	DD	056643232H
	DD	04e743a3aH
	DD	01e140a0aH
	DD	0db924949H
	DD	0a0c0606H
	DD	06c482424H
	DD	0e4b85c5cH
	DD	05d9fc2c2H
	DD	06ebdd3d3H
	DD	0ef43acacH
	DD	0a6c46262H
	DD	0a8399191H
	DD	0a4319595H
	DD	037d3e4e4H
	DD	08bf27979H
	DD	032d5e7e7H
	DD	0438bc8c8H
	DD	0596e3737H
	DD	0b7da6d6dH
	DD	08c018d8dH
	DD	064b1d5d5H
	DD	0d29c4e4eH
	DD	0e049a9a9H
	DD	0b4d86c6cH
	DD	0faac5656H
	DD	07f3f4f4H
	DD	025cfeaeaH
	DD	0afca6565H
	DD	08ef47a7aH
	DD	0e947aeaeH
	DD	018100808H
	DD	0d56fbabaH
	DD	088f07878H
	DD	06f4a2525H
	DD	0725c2e2eH
	DD	024381c1cH
	DD	0f157a6a6H
	DD	0c773b4b4H
	DD	05197c6c6H
	DD	023cbe8e8H
	DD	07ca1ddddH
	DD	09ce87474H
	DD	0213e1f1fH
	DD	0dd964b4bH
	DD	0dc61bdbdH
	DD	0860d8b8bH
	DD	0850f8a8aH
	DD	090e07070H
	DD	0427c3e3eH
	DD	0c471b5b5H
	DD	0aacc6666H
	DD	0d8904848H
	DD	05060303H
	DD	01f7f6f6H
	DD	0121c0e0eH
	DD	0a3c26161H
	DD	05f6a3535H
	DD	0f9ae5757H
	DD	0d069b9b9H
	DD	091178686H
	DD	05899c1c1H
	DD	0273a1d1dH
	DD	0b9279e9eH
	DD	038d9e1e1H
	DD	013ebf8f8H
	DD	0b32b9898H
	DD	033221111H
	DD	0bbd26969H
	DD	070a9d9d9H
	DD	089078e8eH
	DD	0a7339494H
	DD	0b62d9b9bH
	DD	0223c1e1eH
	DD	092158787H
	DD	020c9e9e9H
	DD	04987ceceH
	DD	0ffaa5555H
	DD	078502828H
	DD	07aa5dfdfH
	DD	08f038c8cH
	DD	0f859a1a1H
	DD	080098989H
	DD	0171a0d0dH
	DD	0da65bfbfH
	DD	031d7e6e6H
	DD	0c6844242H
	DD	0b8d06868H
	DD	0c3824141H
	DD	0b0299999H
	DD	0775a2d2dH
	DD	0111e0f0fH
	DD	0cb7bb0b0H
	DD	0fca85454H
	DD	0d66dbbbbH
	DD	03a2c1616H
_Te2	DD	063a5c663H
	DD	07c84f87cH
	DD	07799ee77H
	DD	07b8df67bH
	DD	0f20dfff2H
	DD	06bbdd66bH
	DD	06fb1de6fH
	DD	0c55491c5H
	DD	030506030H
	DD	01030201H
	DD	067a9ce67H
	DD	02b7d562bH
	DD	0fe19e7feH
	DD	0d762b5d7H
	DD	0abe64dabH
	DD	0769aec76H
	DD	0ca458fcaH
	DD	0829d1f82H
	DD	0c94089c9H
	DD	07d87fa7dH
	DD	0fa15effaH
	DD	059ebb259H
	DD	047c98e47H
	DD	0f00bfbf0H
	DD	0adec41adH
	DD	0d467b3d4H
	DD	0a2fd5fa2H
	DD	0afea45afH
	DD	09cbf239cH
	DD	0a4f753a4H
	DD	07296e472H
	DD	0c05b9bc0H
	DD	0b7c275b7H
	DD	0fd1ce1fdH
	DD	093ae3d93H
	DD	0266a4c26H
	DD	0365a6c36H
	DD	03f417e3fH
	DD	0f702f5f7H
	DD	0cc4f83ccH
	DD	0345c6834H
	DD	0a5f451a5H
	DD	0e534d1e5H
	DD	0f108f9f1H
	DD	07193e271H
	DD	0d873abd8H
	DD	031536231H
	DD	0153f2a15H
	DD	040c0804H
	DD	0c75295c7H
	DD	023654623H
	DD	0c35e9dc3H
	DD	018283018H
	DD	096a13796H
	DD	050f0a05H
	DD	09ab52f9aH
	DD	07090e07H
	DD	012362412H
	DD	0809b1b80H
	DD	0e23ddfe2H
	DD	0eb26cdebH
	DD	027694e27H
	DD	0b2cd7fb2H
	DD	0759fea75H
	DD	091b1209H
	DD	0839e1d83H
	DD	02c74582cH
	DD	01a2e341aH
	DD	01b2d361bH
	DD	06eb2dc6eH
	DD	05aeeb45aH
	DD	0a0fb5ba0H
	DD	052f6a452H
	DD	03b4d763bH
	DD	0d661b7d6H
	DD	0b3ce7db3H
	DD	0297b5229H
	DD	0e33edde3H
	DD	02f715e2fH
	DD	084971384H
	DD	053f5a653H
	DD	0d168b9d1H
	DD	00H
	DD	0ed2cc1edH
	DD	020604020H
	DD	0fc1fe3fcH
	DD	0b1c879b1H
	DD	05bedb65bH
	DD	06abed46aH
	DD	0cb468dcbH
	DD	0bed967beH
	DD	0394b7239H
	DD	04ade944aH
	DD	04cd4984cH
	DD	058e8b058H
	DD	0cf4a85cfH
	DD	0d06bbbd0H
	DD	0ef2ac5efH
	DD	0aae54faaH
	DD	0fb16edfbH
	DD	043c58643H
	DD	04dd79a4dH
	DD	033556633H
	DD	085941185H
	DD	045cf8a45H
	DD	0f910e9f9H
	DD	02060402H
	DD	07f81fe7fH
	DD	050f0a050H
	DD	03c44783cH
	DD	09fba259fH
	DD	0a8e34ba8H
	DD	051f3a251H
	DD	0a3fe5da3H
	DD	040c08040H
	DD	08f8a058fH
	DD	092ad3f92H
	DD	09dbc219dH
	DD	038487038H
	DD	0f504f1f5H
	DD	0bcdf63bcH
	DD	0b6c177b6H
	DD	0da75afdaH
	DD	021634221H
	DD	010302010H
	DD	0ff1ae5ffH
	DD	0f30efdf3H
	DD	0d26dbfd2H
	DD	0cd4c81cdH
	DD	0c14180cH
	DD	013352613H
	DD	0ec2fc3ecH
	DD	05fe1be5fH
	DD	097a23597H
	DD	044cc8844H
	DD	017392e17H
	DD	0c45793c4H
	DD	0a7f255a7H
	DD	07e82fc7eH
	DD	03d477a3dH
	DD	064acc864H
	DD	05de7ba5dH
	DD	0192b3219H
	DD	07395e673H
	DD	060a0c060H
	DD	081981981H
	DD	04fd19e4fH
	DD	0dc7fa3dcH
	DD	022664422H
	DD	02a7e542aH
	DD	090ab3b90H
	DD	088830b88H
	DD	046ca8c46H
	DD	0ee29c7eeH
	DD	0b8d36bb8H
	DD	0143c2814H
	DD	0de79a7deH
	DD	05ee2bc5eH
	DD	0b1d160bH
	DD	0db76addbH
	DD	0e03bdbe0H
	DD	032566432H
	DD	03a4e743aH
	DD	0a1e140aH
	DD	049db9249H
	DD	060a0c06H
	DD	0246c4824H
	DD	05ce4b85cH
	DD	0c25d9fc2H
	DD	0d36ebdd3H
	DD	0acef43acH
	DD	062a6c462H
	DD	091a83991H
	DD	095a43195H
	DD	0e437d3e4H
	DD	0798bf279H
	DD	0e732d5e7H
	DD	0c8438bc8H
	DD	037596e37H
	DD	06db7da6dH
	DD	08d8c018dH
	DD	0d564b1d5H
	DD	04ed29c4eH
	DD	0a9e049a9H
	DD	06cb4d86cH
	DD	056faac56H
	DD	0f407f3f4H
	DD	0ea25cfeaH
	DD	065afca65H
	DD	07a8ef47aH
	DD	0aee947aeH
	DD	08181008H
	DD	0bad56fbaH
	DD	07888f078H
	DD	0256f4a25H
	DD	02e725c2eH
	DD	01c24381cH
	DD	0a6f157a6H
	DD	0b4c773b4H
	DD	0c65197c6H
	DD	0e823cbe8H
	DD	0dd7ca1ddH
	DD	0749ce874H
	DD	01f213e1fH
	DD	04bdd964bH
	DD	0bddc61bdH
	DD	08b860d8bH
	DD	08a850f8aH
	DD	07090e070H
	DD	03e427c3eH
	DD	0b5c471b5H
	DD	066aacc66H
	DD	048d89048H
	DD	03050603H
	DD	0f601f7f6H
	DD	0e121c0eH
	DD	061a3c261H
	DD	0355f6a35H
	DD	057f9ae57H
	DD	0b9d069b9H
	DD	086911786H
	DD	0c15899c1H
	DD	01d273a1dH
	DD	09eb9279eH
	DD	0e138d9e1H
	DD	0f813ebf8H
	DD	098b32b98H
	DD	011332211H
	DD	069bbd269H
	DD	0d970a9d9H
	DD	08e89078eH
	DD	094a73394H
	DD	09bb62d9bH
	DD	01e223c1eH
	DD	087921587H
	DD	0e920c9e9H
	DD	0ce4987ceH
	DD	055ffaa55H
	DD	028785028H
	DD	0df7aa5dfH
	DD	08c8f038cH
	DD	0a1f859a1H
	DD	089800989H
	DD	0d171a0dH
	DD	0bfda65bfH
	DD	0e631d7e6H
	DD	042c68442H
	DD	068b8d068H
	DD	041c38241H
	DD	099b02999H
	DD	02d775a2dH
	DD	0f111e0fH
	DD	0b0cb7bb0H
	DD	054fca854H
	DD	0bbd66dbbH
	DD	0163a2c16H
_Te3	DD	06363a5c6H
	DD	07c7c84f8H
	DD	0777799eeH
	DD	07b7b8df6H
	DD	0f2f20dffH
	DD	06b6bbdd6H
	DD	06f6fb1deH
	DD	0c5c55491H
	DD	030305060H
	DD	01010302H
	DD	06767a9ceH
	DD	02b2b7d56H
	DD	0fefe19e7H
	DD	0d7d762b5H
	DD	0ababe64dH
	DD	076769aecH
	DD	0caca458fH
	DD	082829d1fH
	DD	0c9c94089H
	DD	07d7d87faH
	DD	0fafa15efH
	DD	05959ebb2H
	DD	04747c98eH
	DD	0f0f00bfbH
	DD	0adadec41H
	DD	0d4d467b3H
	DD	0a2a2fd5fH
	DD	0afafea45H
	DD	09c9cbf23H
	DD	0a4a4f753H
	DD	0727296e4H
	DD	0c0c05b9bH
	DD	0b7b7c275H
	DD	0fdfd1ce1H
	DD	09393ae3dH
	DD	026266a4cH
	DD	036365a6cH
	DD	03f3f417eH
	DD	0f7f702f5H
	DD	0cccc4f83H
	DD	034345c68H
	DD	0a5a5f451H
	DD	0e5e534d1H
	DD	0f1f108f9H
	DD	0717193e2H
	DD	0d8d873abH
	DD	031315362H
	DD	015153f2aH
	DD	04040c08H
	DD	0c7c75295H
	DD	023236546H
	DD	0c3c35e9dH
	DD	018182830H
	DD	09696a137H
	DD	05050f0aH
	DD	09a9ab52fH
	DD	0707090eH
	DD	012123624H
	DD	080809b1bH
	DD	0e2e23ddfH
	DD	0ebeb26cdH
	DD	02727694eH
	DD	0b2b2cd7fH
	DD	075759feaH
	DD	09091b12H
	DD	083839e1dH
	DD	02c2c7458H
	DD	01a1a2e34H
	DD	01b1b2d36H
	DD	06e6eb2dcH
	DD	05a5aeeb4H
	DD	0a0a0fb5bH
	DD	05252f6a4H
	DD	03b3b4d76H
	DD	0d6d661b7H
	DD	0b3b3ce7dH
	DD	029297b52H
	DD	0e3e33eddH
	DD	02f2f715eH
	DD	084849713H
	DD	05353f5a6H
	DD	0d1d168b9H
	DD	00H
	DD	0eded2cc1H
	DD	020206040H
	DD	0fcfc1fe3H
	DD	0b1b1c879H
	DD	05b5bedb6H
	DD	06a6abed4H
	DD	0cbcb468dH
	DD	0bebed967H
	DD	039394b72H
	DD	04a4ade94H
	DD	04c4cd498H
	DD	05858e8b0H
	DD	0cfcf4a85H
	DD	0d0d06bbbH
	DD	0efef2ac5H
	DD	0aaaae54fH
	DD	0fbfb16edH
	DD	04343c586H
	DD	04d4dd79aH
	DD	033335566H
	DD	085859411H
	DD	04545cf8aH
	DD	0f9f910e9H
	DD	02020604H
	DD	07f7f81feH
	DD	05050f0a0H
	DD	03c3c4478H
	DD	09f9fba25H
	DD	0a8a8e34bH
	DD	05151f3a2H
	DD	0a3a3fe5dH
	DD	04040c080H
	DD	08f8f8a05H
	DD	09292ad3fH
	DD	09d9dbc21H
	DD	038384870H
	DD	0f5f504f1H
	DD	0bcbcdf63H
	DD	0b6b6c177H
	DD	0dada75afH
	DD	021216342H
	DD	010103020H
	DD	0ffff1ae5H
	DD	0f3f30efdH
	DD	0d2d26dbfH
	DD	0cdcd4c81H
	DD	0c0c1418H
	DD	013133526H
	DD	0ecec2fc3H
	DD	05f5fe1beH
	DD	09797a235H
	DD	04444cc88H
	DD	01717392eH
	DD	0c4c45793H
	DD	0a7a7f255H
	DD	07e7e82fcH
	DD	03d3d477aH
	DD	06464acc8H
	DD	05d5de7baH
	DD	019192b32H
	DD	0737395e6H
	DD	06060a0c0H
	DD	081819819H
	DD	04f4fd19eH
	DD	0dcdc7fa3H
	DD	022226644H
	DD	02a2a7e54H
	DD	09090ab3bH
	DD	08888830bH
	DD	04646ca8cH
	DD	0eeee29c7H
	DD	0b8b8d36bH
	DD	014143c28H
	DD	0dede79a7H
	DD	05e5ee2bcH
	DD	0b0b1d16H
	DD	0dbdb76adH
	DD	0e0e03bdbH
	DD	032325664H
	DD	03a3a4e74H
	DD	0a0a1e14H
	DD	04949db92H
	DD	06060a0cH
	DD	024246c48H
	DD	05c5ce4b8H
	DD	0c2c25d9fH
	DD	0d3d36ebdH
	DD	0acacef43H
	DD	06262a6c4H
	DD	09191a839H
	DD	09595a431H
	DD	0e4e437d3H
	DD	079798bf2H
	DD	0e7e732d5H
	DD	0c8c8438bH
	DD	03737596eH
	DD	06d6db7daH
	DD	08d8d8c01H
	DD	0d5d564b1H
	DD	04e4ed29cH
	DD	0a9a9e049H
	DD	06c6cb4d8H
	DD	05656faacH
	DD	0f4f407f3H
	DD	0eaea25cfH
	DD	06565afcaH
	DD	07a7a8ef4H
	DD	0aeaee947H
	DD	08081810H
	DD	0babad56fH
	DD	0787888f0H
	DD	025256f4aH
	DD	02e2e725cH
	DD	01c1c2438H
	DD	0a6a6f157H
	DD	0b4b4c773H
	DD	0c6c65197H
	DD	0e8e823cbH
	DD	0dddd7ca1H
	DD	074749ce8H
	DD	01f1f213eH
	DD	04b4bdd96H
	DD	0bdbddc61H
	DD	08b8b860dH
	DD	08a8a850fH
	DD	0707090e0H
	DD	03e3e427cH
	DD	0b5b5c471H
	DD	06666aaccH
	DD	04848d890H
	DD	03030506H
	DD	0f6f601f7H
	DD	0e0e121cH
	DD	06161a3c2H
	DD	035355f6aH
	DD	05757f9aeH
	DD	0b9b9d069H
	DD	086869117H
	DD	0c1c15899H
	DD	01d1d273aH
	DD	09e9eb927H
	DD	0e1e138d9H
	DD	0f8f813ebH
	DD	09898b32bH
	DD	011113322H
	DD	06969bbd2H
	DD	0d9d970a9H
	DD	08e8e8907H
	DD	09494a733H
	DD	09b9bb62dH
	DD	01e1e223cH
	DD	087879215H
	DD	0e9e920c9H
	DD	0cece4987H
	DD	05555ffaaH
	DD	028287850H
	DD	0dfdf7aa5H
	DD	08c8c8f03H
	DD	0a1a1f859H
	DD	089898009H
	DD	0d0d171aH
	DD	0bfbfda65H
	DD	0e6e631d7H
	DD	04242c684H
	DD	06868b8d0H
	DD	04141c382H
	DD	09999b029H
	DD	02d2d775aH
	DD	0f0f111eH
	DD	0b0b0cb7bH
	DD	05454fca8H
	DD	0bbbbd66dH
	DD	016163a2cH
_Te4	DD	063636363H
	DD	07c7c7c7cH
	DD	077777777H
	DD	07b7b7b7bH
	DD	0f2f2f2f2H
	DD	06b6b6b6bH
	DD	06f6f6f6fH
	DD	0c5c5c5c5H
	DD	030303030H
	DD	01010101H
	DD	067676767H
	DD	02b2b2b2bH
	DD	0fefefefeH
	DD	0d7d7d7d7H
	DD	0ababababH
	DD	076767676H
	DD	0cacacacaH
	DD	082828282H
	DD	0c9c9c9c9H
	DD	07d7d7d7dH
	DD	0fafafafaH
	DD	059595959H
	DD	047474747H
	DD	0f0f0f0f0H
	DD	0adadadadH
	DD	0d4d4d4d4H
	DD	0a2a2a2a2H
	DD	0afafafafH
	DD	09c9c9c9cH
	DD	0a4a4a4a4H
	DD	072727272H
	DD	0c0c0c0c0H
	DD	0b7b7b7b7H
	DD	0fdfdfdfdH
	DD	093939393H
	DD	026262626H
	DD	036363636H
	DD	03f3f3f3fH
	DD	0f7f7f7f7H
	DD	0ccccccccH
	DD	034343434H
	DD	0a5a5a5a5H
	DD	0e5e5e5e5H
	DD	0f1f1f1f1H
	DD	071717171H
	DD	0d8d8d8d8H
	DD	031313131H
	DD	015151515H
	DD	04040404H
	DD	0c7c7c7c7H
	DD	023232323H
	DD	0c3c3c3c3H
	DD	018181818H
	DD	096969696H
	DD	05050505H
	DD	09a9a9a9aH
	DD	07070707H
	DD	012121212H
	DD	080808080H
	DD	0e2e2e2e2H
	DD	0ebebebebH
	DD	027272727H
	DD	0b2b2b2b2H
	DD	075757575H
	DD	09090909H
	DD	083838383H
	DD	02c2c2c2cH
	DD	01a1a1a1aH
	DD	01b1b1b1bH
	DD	06e6e6e6eH
	DD	05a5a5a5aH
	DD	0a0a0a0a0H
	DD	052525252H
	DD	03b3b3b3bH
	DD	0d6d6d6d6H
	DD	0b3b3b3b3H
	DD	029292929H
	DD	0e3e3e3e3H
	DD	02f2f2f2fH
	DD	084848484H
	DD	053535353H
	DD	0d1d1d1d1H
	DD	00H
	DD	0ededededH
	DD	020202020H
	DD	0fcfcfcfcH
	DD	0b1b1b1b1H
	DD	05b5b5b5bH
	DD	06a6a6a6aH
	DD	0cbcbcbcbH
	DD	0bebebebeH
	DD	039393939H
	DD	04a4a4a4aH
	DD	04c4c4c4cH
	DD	058585858H
	DD	0cfcfcfcfH
	DD	0d0d0d0d0H
	DD	0efefefefH
	DD	0aaaaaaaaH
	DD	0fbfbfbfbH
	DD	043434343H
	DD	04d4d4d4dH
	DD	033333333H
	DD	085858585H
	DD	045454545H
	DD	0f9f9f9f9H
	DD	02020202H
	DD	07f7f7f7fH
	DD	050505050H
	DD	03c3c3c3cH
	DD	09f9f9f9fH
	DD	0a8a8a8a8H
	DD	051515151H
	DD	0a3a3a3a3H
	DD	040404040H
	DD	08f8f8f8fH
	DD	092929292H
	DD	09d9d9d9dH
	DD	038383838H
	DD	0f5f5f5f5H
	DD	0bcbcbcbcH
	DD	0b6b6b6b6H
	DD	0dadadadaH
	DD	021212121H
	DD	010101010H
	DD	0ffffffffH
	DD	0f3f3f3f3H
	DD	0d2d2d2d2H
	DD	0cdcdcdcdH
	DD	0c0c0c0cH
	DD	013131313H
	DD	0ececececH
	DD	05f5f5f5fH
	DD	097979797H
	DD	044444444H
	DD	017171717H
	DD	0c4c4c4c4H
	DD	0a7a7a7a7H
	DD	07e7e7e7eH
	DD	03d3d3d3dH
	DD	064646464H
	DD	05d5d5d5dH
	DD	019191919H
	DD	073737373H
	DD	060606060H
	DD	081818181H
	DD	04f4f4f4fH
	DD	0dcdcdcdcH
	DD	022222222H
	DD	02a2a2a2aH
	DD	090909090H
	DD	088888888H
	DD	046464646H
	DD	0eeeeeeeeH
	DD	0b8b8b8b8H
	DD	014141414H
	DD	0dedededeH
	DD	05e5e5e5eH
	DD	0b0b0b0bH
	DD	0dbdbdbdbH
	DD	0e0e0e0e0H
	DD	032323232H
	DD	03a3a3a3aH
	DD	0a0a0a0aH
	DD	049494949H
	DD	06060606H
	DD	024242424H
	DD	05c5c5c5cH
	DD	0c2c2c2c2H
	DD	0d3d3d3d3H
	DD	0acacacacH
	DD	062626262H
	DD	091919191H
	DD	095959595H
	DD	0e4e4e4e4H
	DD	079797979H
	DD	0e7e7e7e7H
	DD	0c8c8c8c8H
	DD	037373737H
	DD	06d6d6d6dH
	DD	08d8d8d8dH
	DD	0d5d5d5d5H
	DD	04e4e4e4eH
	DD	0a9a9a9a9H
	DD	06c6c6c6cH
	DD	056565656H
	DD	0f4f4f4f4H
	DD	0eaeaeaeaH
	DD	065656565H
	DD	07a7a7a7aH
	DD	0aeaeaeaeH
	DD	08080808H
	DD	0babababaH
	DD	078787878H
	DD	025252525H
	DD	02e2e2e2eH
	DD	01c1c1c1cH
	DD	0a6a6a6a6H
	DD	0b4b4b4b4H
	DD	0c6c6c6c6H
	DD	0e8e8e8e8H
	DD	0ddddddddH
	DD	074747474H
	DD	01f1f1f1fH
	DD	04b4b4b4bH
	DD	0bdbdbdbdH
	DD	08b8b8b8bH
	DD	08a8a8a8aH
	DD	070707070H
	DD	03e3e3e3eH
	DD	0b5b5b5b5H
	DD	066666666H
	DD	048484848H
	DD	03030303H
	DD	0f6f6f6f6H
	DD	0e0e0e0eH
	DD	061616161H
	DD	035353535H
	DD	057575757H
	DD	0b9b9b9b9H
	DD	086868686H
	DD	0c1c1c1c1H
	DD	01d1d1d1dH
	DD	09e9e9e9eH
	DD	0e1e1e1e1H
	DD	0f8f8f8f8H
	DD	098989898H
	DD	011111111H
	DD	069696969H
	DD	0d9d9d9d9H
	DD	08e8e8e8eH
	DD	094949494H
	DD	09b9b9b9bH
	DD	01e1e1e1eH
	DD	087878787H
	DD	0e9e9e9e9H
	DD	0cecececeH
	DD	055555555H
	DD	028282828H
	DD	0dfdfdfdfH
	DD	08c8c8c8cH
	DD	0a1a1a1a1H
	DD	089898989H
	DD	0d0d0d0dH
	DD	0bfbfbfbfH
	DD	0e6e6e6e6H
	DD	042424242H
	DD	068686868H
	DD	041414141H
	DD	099999999H
	DD	02d2d2d2dH
	DD	0f0f0f0fH
	DD	0b0b0b0b0H
	DD	054545454H
	DD	0bbbbbbbbH
	DD	016161616H
_Td0	DD	051f4a750H
	DD	07e416553H
	DD	01a17a4c3H
	DD	03a275e96H
	DD	03bab6bcbH
	DD	01f9d45f1H
	DD	0acfa58abH
	DD	04be30393H
	DD	02030fa55H
	DD	0ad766df6H
	DD	088cc7691H
	DD	0f5024c25H
	DD	04fe5d7fcH
	DD	0c52acbd7H
	DD	026354480H
	DD	0b562a38fH
	DD	0deb15a49H
	DD	025ba1b67H
	DD	045ea0e98H
	DD	05dfec0e1H
	DD	0c32f7502H
	DD	0814cf012H
	DD	08d4697a3H
	DD	06bd3f9c6H
	DD	038f5fe7H
	DD	015929c95H
	DD	0bf6d7aebH
	DD	0955259daH
	DD	0d4be832dH
	DD	0587421d3H
	DD	049e06929H
	DD	08ec9c844H
	DD	075c2896aH
	DD	0f48e7978H
	DD	099583e6bH
	DD	027b971ddH
	DD	0bee14fb6H
	DD	0f088ad17H
	DD	0c920ac66H
	DD	07dce3ab4H
	DD	063df4a18H
	DD	0e51a3182H
	DD	097513360H
	DD	062537f45H
	DD	0b16477e0H
	DD	0bb6bae84H
	DD	0fe81a01cH
	DD	0f9082b94H
	DD	070486858H
	DD	08f45fd19H
	DD	094de6c87H
	DD	0527bf8b7H
	DD	0ab73d323H
	DD	0724b02e2H
	DD	0e31f8f57H
	DD	06655ab2aH
	DD	0b2eb2807H
	DD	02fb5c203H
	DD	086c57b9aH
	DD	0d33708a5H
	DD	0302887f2H
	DD	023bfa5b2H
	DD	02036abaH
	DD	0ed16825cH
	DD	08acf1c2bH
	DD	0a779b492H
	DD	0f307f2f0H
	DD	04e69e2a1H
	DD	065daf4cdH
	DD	0605bed5H
	DD	0d134621fH
	DD	0c4a6fe8aH
	DD	0342e539dH
	DD	0a2f355a0H
	DD	058ae132H
	DD	0a4f6eb75H
	DD	0b83ec39H
	DD	04060efaaH
	DD	05e719f06H
	DD	0bd6e1051H
	DD	03e218af9H
	DD	096dd063dH
	DD	0dd3e05aeH
	DD	04de6bd46H
	DD	091548db5H
	DD	071c45d05H
	DD	0406d46fH
	DD	0605015ffH
	DD	01998fb24H
	DD	0d6bde997H
	DD	0894043ccH
	DD	067d99e77H
	DD	0b0e842bdH
	DD	07898b88H
	DD	0e7195b38H
	DD	079c8eedbH
	DD	0a17c0a47H
	DD	07c420fe9H
	DD	0f8841ec9H
	DD	00H
	DD	09808683H
	DD	0322bed48H
	DD	01e1170acH
	DD	06c5a724eH
	DD	0fd0efffbH
	DD	0f853856H
	DD	03daed51eH
	DD	0362d3927H
	DD	0a0fd964H
	DD	0685ca621H
	DD	09b5b54d1H
	DD	024362e3aH
	DD	0c0a67b1H
	DD	09357e70fH
	DD	0b4ee96d2H
	DD	01b9b919eH
	DD	080c0c54fH
	DD	061dc20a2H
	DD	05a774b69H
	DD	01c121a16H
	DD	0e293ba0aH
	DD	0c0a02ae5H
	DD	03c22e043H
	DD	0121b171dH
	DD	0e090d0bH
	DD	0f28bc7adH
	DD	02db6a8b9H
	DD	0141ea9c8H
	DD	057f11985H
	DD	0af75074cH
	DD	0ee99ddbbH
	DD	0a37f60fdH
	DD	0f701269fH
	DD	05c72f5bcH
	DD	044663bc5H
	DD	05bfb7e34H
	DD	08b432976H
	DD	0cb23c6dcH
	DD	0b6edfc68H
	DD	0b8e4f163H
	DD	0d731dccaH
	DD	042638510H
	DD	013972240H
	DD	084c61120H
	DD	0854a247dH
	DD	0d2bb3df8H
	DD	0aef93211H
	DD	0c729a16dH
	DD	01d9e2f4bH
	DD	0dcb230f3H
	DD	0d8652ecH
	DD	077c1e3d0H
	DD	02bb3166cH
	DD	0a970b999H
	DD	0119448faH
	DD	047e96422H
	DD	0a8fc8cc4H
	DD	0a0f03f1aH
	DD	0567d2cd8H
	DD	0223390efH
	DD	087494ec7H
	DD	0d938d1c1H
	DD	08ccaa2feH
	DD	098d40b36H
	DD	0a6f581cfH
	DD	0a57ade28H
	DD	0dab78e26H
	DD	03fadbfa4H
	DD	02c3a9de4H
	DD	05078920dH
	DD	06a5fcc9bH
	DD	0547e4662H
	DD	0f68d13c2H
	DD	090d8b8e8H
	DD	02e39f75eH
	DD	082c3aff5H
	DD	09f5d80beH
	DD	069d0937cH
	DD	06fd52da9H
	DD	0cf2512b3H
	DD	0c8ac993bH
	DD	010187da7H
	DD	0e89c636eH
	DD	0db3bbb7bH
	DD	0cd267809H
	DD	06e5918f4H
	DD	0ec9ab701H
	DD	0834f9aa8H
	DD	0e6956e65H
	DD	0aaffe67eH
	DD	021bccf08H
	DD	0ef15e8e6H
	DD	0bae79bd9H
	DD	04a6f36ceH
	DD	0ea9f09d4H
	DD	029b07cd6H
	DD	031a4b2afH
	DD	02a3f2331H
	DD	0c6a59430H
	DD	035a266c0H
	DD	0744ebc37H
	DD	0fc82caa6H
	DD	0e090d0b0H
	DD	033a7d815H
	DD	0f104984aH
	DD	041ecdaf7H
	DD	07fcd500eH
	DD	01791f62fH
	DD	0764dd68dH
	DD	043efb04dH
	DD	0ccaa4d54H
	DD	0e49604dfH
	DD	09ed1b5e3H
	DD	04c6a881bH
	DD	0c12c1fb8H
	DD	04665517fH
	DD	09d5eea04H
	DD	018c355dH
	DD	0fa877473H
	DD	0fb0b412eH
	DD	0b3671d5aH
	DD	092dbd252H
	DD	0e9105633H
	DD	06dd64713H
	DD	09ad7618cH
	DD	037a10c7aH
	DD	059f8148eH
	DD	0eb133c89H
	DD	0cea927eeH
	DD	0b761c935H
	DD	0e11ce5edH
	DD	07a47b13cH
	DD	09cd2df59H
	DD	055f2733fH
	DD	01814ce79H
	DD	073c737bfH
	DD	053f7cdeaH
	DD	05ffdaa5bH
	DD	0df3d6f14H
	DD	07844db86H
	DD	0caaff381H
	DD	0b968c43eH
	DD	03824342cH
	DD	0c2a3405fH
	DD	0161dc372H
	DD	0bce2250cH
	DD	0283c498bH
	DD	0ff0d9541H
	DD	039a80171H
	DD	080cb3deH
	DD	0d8b4e49cH
	DD	06456c190H
	DD	07bcb8461H
	DD	0d532b670H
	DD	0486c5c74H
	DD	0d0b85742H
_Td1	DD	05051f4a7H
	DD	0537e4165H
	DD	0c31a17a4H
	DD	0963a275eH
	DD	0cb3bab6bH
	DD	0f11f9d45H
	DD	0abacfa58H
	DD	0934be303H
	DD	0552030faH
	DD	0f6ad766dH
	DD	09188cc76H
	DD	025f5024cH
	DD	0fc4fe5d7H
	DD	0d7c52acbH
	DD	080263544H
	DD	08fb562a3H
	DD	049deb15aH
	DD	06725ba1bH
	DD	09845ea0eH
	DD	0e15dfec0H
	DD	02c32f75H
	DD	012814cf0H
	DD	0a38d4697H
	DD	0c66bd3f9H
	DD	0e7038f5fH
	DD	09515929cH
	DD	0ebbf6d7aH
	DD	0da955259H
	DD	02dd4be83H
	DD	0d3587421H
	DD	02949e069H
	DD	0448ec9c8H
	DD	06a75c289H
	DD	078f48e79H
	DD	06b99583eH
	DD	0dd27b971H
	DD	0b6bee14fH
	DD	017f088adH
	DD	066c920acH
	DD	0b47dce3aH
	DD	01863df4aH
	DD	082e51a31H
	DD	060975133H
	DD	04562537fH
	DD	0e0b16477H
	DD	084bb6baeH
	DD	01cfe81a0H
	DD	094f9082bH
	DD	058704868H
	DD	0198f45fdH
	DD	08794de6cH
	DD	0b7527bf8H
	DD	023ab73d3H
	DD	0e2724b02H
	DD	057e31f8fH
	DD	02a6655abH
	DD	07b2eb28H
	DD	032fb5c2H
	DD	09a86c57bH
	DD	0a5d33708H
	DD	0f2302887H
	DD	0b223bfa5H
	DD	0ba02036aH
	DD	05ced1682H
	DD	02b8acf1cH
	DD	092a779b4H
	DD	0f0f307f2H
	DD	0a14e69e2H
	DD	0cd65daf4H
	DD	0d50605beH
	DD	01fd13462H
	DD	08ac4a6feH
	DD	09d342e53H
	DD	0a0a2f355H
	DD	032058ae1H
	DD	075a4f6ebH
	DD	0390b83ecH
	DD	0aa4060efH
	DD	065e719fH
	DD	051bd6e10H
	DD	0f93e218aH
	DD	03d96dd06H
	DD	0aedd3e05H
	DD	0464de6bdH
	DD	0b591548dH
	DD	0571c45dH
	DD	06f0406d4H
	DD	0ff605015H
	DD	0241998fbH
	DD	097d6bde9H
	DD	0cc894043H
	DD	07767d99eH
	DD	0bdb0e842H
	DD	08807898bH
	DD	038e7195bH
	DD	0db79c8eeH
	DD	047a17c0aH
	DD	0e97c420fH
	DD	0c9f8841eH
	DD	00H
	DD	083098086H
	DD	048322bedH
	DD	0ac1e1170H
	DD	04e6c5a72H
	DD	0fbfd0effH
	DD	0560f8538H
	DD	01e3daed5H
	DD	027362d39H
	DD	0640a0fd9H
	DD	021685ca6H
	DD	0d19b5b54H
	DD	03a24362eH
	DD	0b10c0a67H
	DD	0f9357e7H
	DD	0d2b4ee96H
	DD	09e1b9b91H
	DD	04f80c0c5H
	DD	0a261dc20H
	DD	0695a774bH
	DD	0161c121aH
	DD	0ae293baH
	DD	0e5c0a02aH
	DD	0433c22e0H
	DD	01d121b17H
	DD	0b0e090dH
	DD	0adf28bc7H
	DD	0b92db6a8H
	DD	0c8141ea9H
	DD	08557f119H
	DD	04caf7507H
	DD	0bbee99ddH
	DD	0fda37f60H
	DD	09ff70126H
	DD	0bc5c72f5H
	DD	0c544663bH
	DD	0345bfb7eH
	DD	0768b4329H
	DD	0dccb23c6H
	DD	068b6edfcH
	DD	063b8e4f1H
	DD	0cad731dcH
	DD	010426385H
	DD	040139722H
	DD	02084c611H
	DD	07d854a24H
	DD	0f8d2bb3dH
	DD	011aef932H
	DD	06dc729a1H
	DD	04b1d9e2fH
	DD	0f3dcb230H
	DD	0ec0d8652H
	DD	0d077c1e3H
	DD	06c2bb316H
	DD	099a970b9H
	DD	0fa119448H
	DD	02247e964H
	DD	0c4a8fc8cH
	DD	01aa0f03fH
	DD	0d8567d2cH
	DD	0ef223390H
	DD	0c787494eH
	DD	0c1d938d1H
	DD	0fe8ccaa2H
	DD	03698d40bH
	DD	0cfa6f581H
	DD	028a57adeH
	DD	026dab78eH
	DD	0a43fadbfH
	DD	0e42c3a9dH
	DD	0d507892H
	DD	09b6a5fccH
	DD	062547e46H
	DD	0c2f68d13H
	DD	0e890d8b8H
	DD	05e2e39f7H
	DD	0f582c3afH
	DD	0be9f5d80H
	DD	07c69d093H
	DD	0a96fd52dH
	DD	0b3cf2512H
	DD	03bc8ac99H
	DD	0a710187dH
	DD	06ee89c63H
	DD	07bdb3bbbH
	DD	09cd2678H
	DD	0f46e5918H
	DD	01ec9ab7H
	DD	0a8834f9aH
	DD	065e6956eH
	DD	07eaaffe6H
	DD	0821bccfH
	DD	0e6ef15e8H
	DD	0d9bae79bH
	DD	0ce4a6f36H
	DD	0d4ea9f09H
	DD	0d629b07cH
	DD	0af31a4b2H
	DD	0312a3f23H
	DD	030c6a594H
	DD	0c035a266H
	DD	037744ebcH
	DD	0a6fc82caH
	DD	0b0e090d0H
	DD	01533a7d8H
	DD	04af10498H
	DD	0f741ecdaH
	DD	0e7fcd50H
	DD	02f1791f6H
	DD	08d764dd6H
	DD	04d43efb0H
	DD	054ccaa4dH
	DD	0dfe49604H
	DD	0e39ed1b5H
	DD	01b4c6a88H
	DD	0b8c12c1fH
	DD	07f466551H
	DD	049d5eeaH
	DD	05d018c35H
	DD	073fa8774H
	DD	02efb0b41H
	DD	05ab3671dH
	DD	05292dbd2H
	DD	033e91056H
	DD	0136dd647H
	DD	08c9ad761H
	DD	07a37a10cH
	DD	08e59f814H
	DD	089eb133cH
	DD	0eecea927H
	DD	035b761c9H
	DD	0ede11ce5H
	DD	03c7a47b1H
	DD	0599cd2dfH
	DD	03f55f273H
	DD	0791814ceH
	DD	0bf73c737H
	DD	0ea53f7cdH
	DD	05b5ffdaaH
	DD	014df3d6fH
	DD	0867844dbH
	DD	081caaff3H
	DD	03eb968c4H
	DD	02c382434H
	DD	05fc2a340H
	DD	072161dc3H
	DD	0cbce225H
	DD	08b283c49H
	DD	041ff0d95H
	DD	07139a801H
	DD	0de080cb3H
	DD	09cd8b4e4H
	DD	0906456c1H
	DD	0617bcb84H
	DD	070d532b6H
	DD	074486c5cH
	DD	042d0b857H
_Td2	DD	0a75051f4H
	DD	065537e41H
	DD	0a4c31a17H
	DD	05e963a27H
	DD	06bcb3babH
	DD	045f11f9dH
	DD	058abacfaH
	DD	03934be3H
	DD	0fa552030H
	DD	06df6ad76H
	DD	0769188ccH
	DD	04c25f502H
	DD	0d7fc4fe5H
	DD	0cbd7c52aH
	DD	044802635H
	DD	0a38fb562H
	DD	05a49deb1H
	DD	01b6725baH
	DD	0e9845eaH
	DD	0c0e15dfeH
	DD	07502c32fH
	DD	0f012814cH
	DD	097a38d46H
	DD	0f9c66bd3H
	DD	05fe7038fH
	DD	09c951592H
	DD	07aebbf6dH
	DD	059da9552H
	DD	0832dd4beH
	DD	021d35874H
	DD	0692949e0H
	DD	0c8448ec9H
	DD	0896a75c2H
	DD	07978f48eH
	DD	03e6b9958H
	DD	071dd27b9H
	DD	04fb6bee1H
	DD	0ad17f088H
	DD	0ac66c920H
	DD	03ab47dceH
	DD	04a1863dfH
	DD	03182e51aH
	DD	033609751H
	DD	07f456253H
	DD	077e0b164H
	DD	0ae84bb6bH
	DD	0a01cfe81H
	DD	02b94f908H
	DD	068587048H
	DD	0fd198f45H
	DD	06c8794deH
	DD	0f8b7527bH
	DD	0d323ab73H
	DD	02e2724bH
	DD	08f57e31fH
	DD	0ab2a6655H
	DD	02807b2ebH
	DD	0c2032fb5H
	DD	07b9a86c5H
	DD	08a5d337H
	DD	087f23028H
	DD	0a5b223bfH
	DD	06aba0203H
	DD	0825ced16H
	DD	01c2b8acfH
	DD	0b492a779H
	DD	0f2f0f307H
	DD	0e2a14e69H
	DD	0f4cd65daH
	DD	0bed50605H
	DD	0621fd134H
	DD	0fe8ac4a6H
	DD	0539d342eH
	DD	055a0a2f3H
	DD	0e132058aH
	DD	0eb75a4f6H
	DD	0ec390b83H
	DD	0efaa4060H
	DD	09f065e71H
	DD	01051bd6eH
	DD	08af93e21H
	DD	063d96ddH
	DD	05aedd3eH
	DD	0bd464de6H
	DD	08db59154H
	DD	05d0571c4H
	DD	0d46f0406H
	DD	015ff6050H
	DD	0fb241998H
	DD	0e997d6bdH
	DD	043cc8940H
	DD	09e7767d9H
	DD	042bdb0e8H
	DD	08b880789H
	DD	05b38e719H
	DD	0eedb79c8H
	DD	0a47a17cH
	DD	0fe97c42H
	DD	01ec9f884H
	DD	00H
	DD	086830980H
	DD	0ed48322bH
	DD	070ac1e11H
	DD	0724e6c5aH
	DD	0fffbfd0eH
	DD	038560f85H
	DD	0d51e3daeH
	DD	03927362dH
	DD	0d9640a0fH
	DD	0a621685cH
	DD	054d19b5bH
	DD	02e3a2436H
	DD	067b10c0aH
	DD	0e70f9357H
	DD	096d2b4eeH
	DD	0919e1b9bH
	DD	0c54f80c0H
	DD	020a261dcH
	DD	04b695a77H
	DD	01a161c12H
	DD	0ba0ae293H
	DD	02ae5c0a0H
	DD	0e0433c22H
	DD	0171d121bH
	DD	0d0b0e09H
	DD	0c7adf28bH
	DD	0a8b92db6H
	DD	0a9c8141eH
	DD	0198557f1H
	DD	074caf75H
	DD	0ddbbee99H
	DD	060fda37fH
	DD	0269ff701H
	DD	0f5bc5c72H
	DD	03bc54466H
	DD	07e345bfbH
	DD	029768b43H
	DD	0c6dccb23H
	DD	0fc68b6edH
	DD	0f163b8e4H
	DD	0dccad731H
	DD	085104263H
	DD	022401397H
	DD	0112084c6H
	DD	0247d854aH
	DD	03df8d2bbH
	DD	03211aef9H
	DD	0a16dc729H
	DD	02f4b1d9eH
	DD	030f3dcb2H
	DD	052ec0d86H
	DD	0e3d077c1H
	DD	0166c2bb3H
	DD	0b999a970H
	DD	048fa1194H
	DD	0642247e9H
	DD	08cc4a8fcH
	DD	03f1aa0f0H
	DD	02cd8567dH
	DD	090ef2233H
	DD	04ec78749H
	DD	0d1c1d938H
	DD	0a2fe8ccaH
	DD	0b3698d4H
	DD	081cfa6f5H
	DD	0de28a57aH
	DD	08e26dab7H
	DD	0bfa43fadH
	DD	09de42c3aH
	DD	0920d5078H
	DD	0cc9b6a5fH
	DD	04662547eH
	DD	013c2f68dH
	DD	0b8e890d8H
	DD	0f75e2e39H
	DD	0aff582c3H
	DD	080be9f5dH
	DD	0937c69d0H
	DD	02da96fd5H
	DD	012b3cf25H
	DD	0993bc8acH
	DD	07da71018H
	DD	0636ee89cH
	DD	0bb7bdb3bH
	DD	07809cd26H
	DD	018f46e59H
	DD	0b701ec9aH
	DD	09aa8834fH
	DD	06e65e695H
	DD	0e67eaaffH
	DD	0cf0821bcH
	DD	0e8e6ef15H
	DD	09bd9bae7H
	DD	036ce4a6fH
	DD	09d4ea9fH
	DD	07cd629b0H
	DD	0b2af31a4H
	DD	023312a3fH
	DD	09430c6a5H
	DD	066c035a2H
	DD	0bc37744eH
	DD	0caa6fc82H
	DD	0d0b0e090H
	DD	0d81533a7H
	DD	0984af104H
	DD	0daf741ecH
	DD	0500e7fcdH
	DD	0f62f1791H
	DD	0d68d764dH
	DD	0b04d43efH
	DD	04d54ccaaH
	DD	04dfe496H
	DD	0b5e39ed1H
	DD	0881b4c6aH
	DD	01fb8c12cH
	DD	0517f4665H
	DD	0ea049d5eH
	DD	0355d018cH
	DD	07473fa87H
	DD	0412efb0bH
	DD	01d5ab367H
	DD	0d25292dbH
	DD	05633e910H
	DD	047136dd6H
	DD	0618c9ad7H
	DD	0c7a37a1H
	DD	0148e59f8H
	DD	03c89eb13H
	DD	027eecea9H
	DD	0c935b761H
	DD	0e5ede11cH
	DD	0b13c7a47H
	DD	0df599cd2H
	DD	0733f55f2H
	DD	0ce791814H
	DD	037bf73c7H
	DD	0cdea53f7H
	DD	0aa5b5ffdH
	DD	06f14df3dH
	DD	0db867844H
	DD	0f381caafH
	DD	0c43eb968H
	DD	0342c3824H
	DD	0405fc2a3H
	DD	0c372161dH
	DD	0250cbce2H
	DD	0498b283cH
	DD	09541ff0dH
	DD	017139a8H
	DD	0b3de080cH
	DD	0e49cd8b4H
	DD	0c1906456H
	DD	084617bcbH
	DD	0b670d532H
	DD	05c74486cH
	DD	05742d0b8H
_Td3	DD	0f4a75051H
	DD	04165537eH
	DD	017a4c31aH
	DD	0275e963aH
	DD	0ab6bcb3bH
	DD	09d45f11fH
	DD	0fa58abacH
	DD	0e303934bH
	DD	030fa5520H
	DD	0766df6adH
	DD	0cc769188H
	DD	024c25f5H
	DD	0e5d7fc4fH
	DD	02acbd7c5H
	DD	035448026H
	DD	062a38fb5H
	DD	0b15a49deH
	DD	0ba1b6725H
	DD	0ea0e9845H
	DD	0fec0e15dH
	DD	02f7502c3H
	DD	04cf01281H
	DD	04697a38dH
	DD	0d3f9c66bH
	DD	08f5fe703H
	DD	0929c9515H
	DD	06d7aebbfH
	DD	05259da95H
	DD	0be832dd4H
	DD	07421d358H
	DD	0e0692949H
	DD	0c9c8448eH
	DD	0c2896a75H
	DD	08e7978f4H
	DD	0583e6b99H
	DD	0b971dd27H
	DD	0e14fb6beH
	DD	088ad17f0H
	DD	020ac66c9H
	DD	0ce3ab47dH
	DD	0df4a1863H
	DD	01a3182e5H
	DD	051336097H
	DD	0537f4562H
	DD	06477e0b1H
	DD	06bae84bbH
	DD	081a01cfeH
	DD	082b94f9H
	DD	048685870H
	DD	045fd198fH
	DD	0de6c8794H
	DD	07bf8b752H
	DD	073d323abH
	DD	04b02e272H
	DD	01f8f57e3H
	DD	055ab2a66H
	DD	0eb2807b2H
	DD	0b5c2032fH
	DD	0c57b9a86H
	DD	03708a5d3H
	DD	02887f230H
	DD	0bfa5b223H
	DD	036aba02H
	DD	016825cedH
	DD	0cf1c2b8aH
	DD	079b492a7H
	DD	07f2f0f3H
	DD	069e2a14eH
	DD	0daf4cd65H
	DD	05bed506H
	DD	034621fd1H
	DD	0a6fe8ac4H
	DD	02e539d34H
	DD	0f355a0a2H
	DD	08ae13205H
	DD	0f6eb75a4H
	DD	083ec390bH
	DD	060efaa40H
	DD	0719f065eH
	DD	06e1051bdH
	DD	0218af93eH
	DD	0dd063d96H
	DD	03e05aeddH
	DD	0e6bd464dH
	DD	0548db591H
	DD	0c45d0571H
	DD	06d46f04H
	DD	05015ff60H
	DD	098fb2419H
	DD	0bde997d6H
	DD	04043cc89H
	DD	0d99e7767H
	DD	0e842bdb0H
	DD	0898b8807H
	DD	0195b38e7H
	DD	0c8eedb79H
	DD	07c0a47a1H
	DD	0420fe97cH
	DD	0841ec9f8H
	DD	00H
	DD	080868309H
	DD	02bed4832H
	DD	01170ac1eH
	DD	05a724e6cH
	DD	0efffbfdH
	DD	08538560fH
	DD	0aed51e3dH
	DD	02d392736H
	DD	0fd9640aH
	DD	05ca62168H
	DD	05b54d19bH
	DD	0362e3a24H
	DD	0a67b10cH
	DD	057e70f93H
	DD	0ee96d2b4H
	DD	09b919e1bH
	DD	0c0c54f80H
	DD	0dc20a261H
	DD	0774b695aH
	DD	0121a161cH
	DD	093ba0ae2H
	DD	0a02ae5c0H
	DD	022e0433cH
	DD	01b171d12H
	DD	090d0b0eH
	DD	08bc7adf2H
	DD	0b6a8b92dH
	DD	01ea9c814H
	DD	0f1198557H
	DD	075074cafH
	DD	099ddbbeeH
	DD	07f60fda3H
	DD	01269ff7H
	DD	072f5bc5cH
	DD	0663bc544H
	DD	0fb7e345bH
	DD	04329768bH
	DD	023c6dccbH
	DD	0edfc68b6H
	DD	0e4f163b8H
	DD	031dccad7H
	DD	063851042H
	DD	097224013H
	DD	0c6112084H
	DD	04a247d85H
	DD	0bb3df8d2H
	DD	0f93211aeH
	DD	029a16dc7H
	DD	09e2f4b1dH
	DD	0b230f3dcH
	DD	08652ec0dH
	DD	0c1e3d077H
	DD	0b3166c2bH
	DD	070b999a9H
	DD	09448fa11H
	DD	0e9642247H
	DD	0fc8cc4a8H
	DD	0f03f1aa0H
	DD	07d2cd856H
	DD	03390ef22H
	DD	0494ec787H
	DD	038d1c1d9H
	DD	0caa2fe8cH
	DD	0d40b3698H
	DD	0f581cfa6H
	DD	07ade28a5H
	DD	0b78e26daH
	DD	0adbfa43fH
	DD	03a9de42cH
	DD	078920d50H
	DD	05fcc9b6aH
	DD	07e466254H
	DD	08d13c2f6H
	DD	0d8b8e890H
	DD	039f75e2eH
	DD	0c3aff582H
	DD	05d80be9fH
	DD	0d0937c69H
	DD	0d52da96fH
	DD	02512b3cfH
	DD	0ac993bc8H
	DD	0187da710H
	DD	09c636ee8H
	DD	03bbb7bdbH
	DD	0267809cdH
	DD	05918f46eH
	DD	09ab701ecH
	DD	04f9aa883H
	DD	0956e65e6H
	DD	0ffe67eaaH
	DD	0bccf0821H
	DD	015e8e6efH
	DD	0e79bd9baH
	DD	06f36ce4aH
	DD	09f09d4eaH
	DD	0b07cd629H
	DD	0a4b2af31H
	DD	03f23312aH
	DD	0a59430c6H
	DD	0a266c035H
	DD	04ebc3774H
	DD	082caa6fcH
	DD	090d0b0e0H
	DD	0a7d81533H
	DD	04984af1H
	DD	0ecdaf741H
	DD	0cd500e7fH
	DD	091f62f17H
	DD	04dd68d76H
	DD	0efb04d43H
	DD	0aa4d54ccH
	DD	09604dfe4H
	DD	0d1b5e39eH
	DD	06a881b4cH
	DD	02c1fb8c1H
	DD	065517f46H
	DD	05eea049dH
	DD	08c355d01H
	DD	0877473faH
	DD	0b412efbH
	DD	0671d5ab3H
	DD	0dbd25292H
	DD	0105633e9H
	DD	0d647136dH
	DD	0d7618c9aH
	DD	0a10c7a37H
	DD	0f8148e59H
	DD	0133c89ebH
	DD	0a927eeceH
	DD	061c935b7H
	DD	01ce5ede1H
	DD	047b13c7aH
	DD	0d2df599cH
	DD	0f2733f55H
	DD	014ce7918H
	DD	0c737bf73H
	DD	0f7cdea53H
	DD	0fdaa5b5fH
	DD	03d6f14dfH
	DD	044db8678H
	DD	0aff381caH
	DD	068c43eb9H
	DD	024342c38H
	DD	0a3405fc2H
	DD	01dc37216H
	DD	0e2250cbcH
	DD	03c498b28H
	DD	0d9541ffH
	DD	0a8017139H
	DD	0cb3de08H
	DD	0b4e49cd8H
	DD	056c19064H
	DD	0cb84617bH
	DD	032b670d5H
	DD	06c5c7448H
	DD	0b85742d0H
_Td4	DD	052525252H
	DD	09090909H
	DD	06a6a6a6aH
	DD	0d5d5d5d5H
	DD	030303030H
	DD	036363636H
	DD	0a5a5a5a5H
	DD	038383838H
	DD	0bfbfbfbfH
	DD	040404040H
	DD	0a3a3a3a3H
	DD	09e9e9e9eH
	DD	081818181H
	DD	0f3f3f3f3H
	DD	0d7d7d7d7H
	DD	0fbfbfbfbH
	DD	07c7c7c7cH
	DD	0e3e3e3e3H
	DD	039393939H
	DD	082828282H
	DD	09b9b9b9bH
	DD	02f2f2f2fH
	DD	0ffffffffH
	DD	087878787H
	DD	034343434H
	DD	08e8e8e8eH
	DD	043434343H
	DD	044444444H
	DD	0c4c4c4c4H
	DD	0dedededeH
	DD	0e9e9e9e9H
	DD	0cbcbcbcbH
	DD	054545454H
	DD	07b7b7b7bH
	DD	094949494H
	DD	032323232H
	DD	0a6a6a6a6H
	DD	0c2c2c2c2H
	DD	023232323H
	DD	03d3d3d3dH
	DD	0eeeeeeeeH
	DD	04c4c4c4cH
	DD	095959595H
	DD	0b0b0b0bH
	DD	042424242H
	DD	0fafafafaH
	DD	0c3c3c3c3H
	DD	04e4e4e4eH
	DD	08080808H
	DD	02e2e2e2eH
	DD	0a1a1a1a1H
	DD	066666666H
	DD	028282828H
	DD	0d9d9d9d9H
	DD	024242424H
	DD	0b2b2b2b2H
	DD	076767676H
	DD	05b5b5b5bH
	DD	0a2a2a2a2H
	DD	049494949H
	DD	06d6d6d6dH
	DD	08b8b8b8bH
	DD	0d1d1d1d1H
	DD	025252525H
	DD	072727272H
	DD	0f8f8f8f8H
	DD	0f6f6f6f6H
	DD	064646464H
	DD	086868686H
	DD	068686868H
	DD	098989898H
	DD	016161616H
	DD	0d4d4d4d4H
	DD	0a4a4a4a4H
	DD	05c5c5c5cH
	DD	0ccccccccH
	DD	05d5d5d5dH
	DD	065656565H
	DD	0b6b6b6b6H
	DD	092929292H
	DD	06c6c6c6cH
	DD	070707070H
	DD	048484848H
	DD	050505050H
	DD	0fdfdfdfdH
	DD	0ededededH
	DD	0b9b9b9b9H
	DD	0dadadadaH
	DD	05e5e5e5eH
	DD	015151515H
	DD	046464646H
	DD	057575757H
	DD	0a7a7a7a7H
	DD	08d8d8d8dH
	DD	09d9d9d9dH
	DD	084848484H
	DD	090909090H
	DD	0d8d8d8d8H
	DD	0ababababH
	DD	00H
	DD	08c8c8c8cH
	DD	0bcbcbcbcH
	DD	0d3d3d3d3H
	DD	0a0a0a0aH
	DD	0f7f7f7f7H
	DD	0e4e4e4e4H
	DD	058585858H
	DD	05050505H
	DD	0b8b8b8b8H
	DD	0b3b3b3b3H
	DD	045454545H
	DD	06060606H
	DD	0d0d0d0d0H
	DD	02c2c2c2cH
	DD	01e1e1e1eH
	DD	08f8f8f8fH
	DD	0cacacacaH
	DD	03f3f3f3fH
	DD	0f0f0f0fH
	DD	02020202H
	DD	0c1c1c1c1H
	DD	0afafafafH
	DD	0bdbdbdbdH
	DD	03030303H
	DD	01010101H
	DD	013131313H
	DD	08a8a8a8aH
	DD	06b6b6b6bH
	DD	03a3a3a3aH
	DD	091919191H
	DD	011111111H
	DD	041414141H
	DD	04f4f4f4fH
	DD	067676767H
	DD	0dcdcdcdcH
	DD	0eaeaeaeaH
	DD	097979797H
	DD	0f2f2f2f2H
	DD	0cfcfcfcfH
	DD	0cecececeH
	DD	0f0f0f0f0H
	DD	0b4b4b4b4H
	DD	0e6e6e6e6H
	DD	073737373H
	DD	096969696H
	DD	0acacacacH
	DD	074747474H
	DD	022222222H
	DD	0e7e7e7e7H
	DD	0adadadadH
	DD	035353535H
	DD	085858585H
	DD	0e2e2e2e2H
	DD	0f9f9f9f9H
	DD	037373737H
	DD	0e8e8e8e8H
	DD	01c1c1c1cH
	DD	075757575H
	DD	0dfdfdfdfH
	DD	06e6e6e6eH
	DD	047474747H
	DD	0f1f1f1f1H
	DD	01a1a1a1aH
	DD	071717171H
	DD	01d1d1d1dH
	DD	029292929H
	DD	0c5c5c5c5H
	DD	089898989H
	DD	06f6f6f6fH
	DD	0b7b7b7b7H
	DD	062626262H
	DD	0e0e0e0eH
	DD	0aaaaaaaaH
	DD	018181818H
	DD	0bebebebeH
	DD	01b1b1b1bH
	DD	0fcfcfcfcH
	DD	056565656H
	DD	03e3e3e3eH
	DD	04b4b4b4bH
	DD	0c6c6c6c6H
	DD	0d2d2d2d2H
	DD	079797979H
	DD	020202020H
	DD	09a9a9a9aH
	DD	0dbdbdbdbH
	DD	0c0c0c0c0H
	DD	0fefefefeH
	DD	078787878H
	DD	0cdcdcdcdH
	DD	05a5a5a5aH
	DD	0f4f4f4f4H
	DD	01f1f1f1fH
	DD	0ddddddddH
	DD	0a8a8a8a8H
	DD	033333333H
	DD	088888888H
	DD	07070707H
	DD	0c7c7c7c7H
	DD	031313131H
	DD	0b1b1b1b1H
	DD	012121212H
	DD	010101010H
	DD	059595959H
	DD	027272727H
	DD	080808080H
	DD	0ececececH
	DD	05f5f5f5fH
	DD	060606060H
	DD	051515151H
	DD	07f7f7f7fH
	DD	0a9a9a9a9H
	DD	019191919H
	DD	0b5b5b5b5H
	DD	04a4a4a4aH
	DD	0d0d0d0dH
	DD	02d2d2d2dH
	DD	0e5e5e5e5H
	DD	07a7a7a7aH
	DD	09f9f9f9fH
	DD	093939393H
	DD	0c9c9c9c9H
	DD	09c9c9c9cH
	DD	0efefefefH
	DD	0a0a0a0a0H
	DD	0e0e0e0e0H
	DD	03b3b3b3bH
	DD	04d4d4d4dH
	DD	0aeaeaeaeH
	DD	02a2a2a2aH
	DD	0f5f5f5f5H
	DD	0b0b0b0b0H
	DD	0c8c8c8c8H
	DD	0ebebebebH
	DD	0bbbbbbbbH
	DD	03c3c3c3cH
	DD	083838383H
	DD	053535353H
	DD	099999999H
	DD	061616161H
	DD	017171717H
	DD	02b2b2b2bH
	DD	04040404H
	DD	07e7e7e7eH
	DD	0babababaH
	DD	077777777H
	DD	0d6d6d6d6H
	DD	026262626H
	DD	0e1e1e1e1H
	DD	069696969H
	DD	014141414H
	DD	063636363H
	DD	055555555H
	DD	021212121H
	DD	0c0c0c0cH
	DD	07d7d7d7dH
_rcon	DD	01000000H
	DD	02000000H
	DD	04000000H
	DD	08000000H
	DD	010000000H
	DD	020000000H
	DD	040000000H
	DD	080000000H
	DD	01b000000H
	DD	036000000H
CONST	ENDS
PUBLIC	?rijndaelSetupEncrypt@@YAHPAKPBEH@Z		; rijndaelSetupEncrypt
; Function compile flags: /Ogtp
; File c:\users\tdrol\documents\visual studio 2010\projects\analizator\analizator-bd-opencl\rijndael.cpp
;	COMDAT ?rijndaelSetupEncrypt@@YAHPAKPBEH@Z
_TEXT	SEGMENT
_rk$ = 8						; size = 4
_key$ = 12						; size = 4
_keybits$ = 16						; size = 4
?rijndaelSetupEncrypt@@YAHPAKPBEH@Z PROC		; rijndaelSetupEncrypt, COMDAT

; 713  : {

	push	ebp
	mov	ebp, esp

; 714  :   int i = 0;
; 715  :   u32 temp;
; 716  : 
; 717  :   rk[0] = GETU32(key     );

	mov	edx, DWORD PTR _key$[ebp]
	movzx	ecx, BYTE PTR [edx]
	movzx	eax, BYTE PTR [edx+1]
	push	esi
	shl	ecx, 8
	xor	ecx, eax
	movzx	eax, BYTE PTR [edx+2]
	shl	ecx, 8
	xor	ecx, eax
	movzx	eax, BYTE PTR [edx+3]
	shl	ecx, 8
	push	edi
	xor	ecx, eax
	mov	eax, DWORD PTR _rk$[ebp]
	mov	DWORD PTR [eax], ecx

; 718  :   rk[1] = GETU32(key +  4);

	movzx	esi, BYTE PTR [edx+4]
	movzx	edi, BYTE PTR [edx+5]
	shl	esi, 8
	xor	esi, edi
	movzx	edi, BYTE PTR [edx+6]
	shl	esi, 8
	xor	esi, edi
	movzx	edi, BYTE PTR [edx+7]
	shl	esi, 8
	xor	esi, edi
	mov	DWORD PTR [eax+4], esi

; 719  :   rk[2] = GETU32(key +  8);

	movzx	esi, BYTE PTR [edx+8]
	movzx	edi, BYTE PTR [edx+9]
	shl	esi, 8
	xor	esi, edi
	movzx	edi, BYTE PTR [edx+10]
	lea	ecx, DWORD PTR [eax+4]
	shl	esi, 8
	xor	esi, edi
	movzx	edi, BYTE PTR [edx+11]
	shl	esi, 8
	xor	esi, edi
	mov	DWORD PTR [eax+8], esi

; 720  :   rk[3] = GETU32(key + 12);

	movzx	esi, BYTE PTR [edx+12]
	movzx	edi, BYTE PTR [edx+13]
	shl	esi, 8
	xor	esi, edi
	movzx	edi, BYTE PTR [edx+14]
	shl	esi, 8
	xor	esi, edi
	movzx	edi, BYTE PTR [edx+15]
	shl	esi, 8
	xor	esi, edi
	mov	DWORD PTR [eax+12], esi

; 721  :   if (keybits == 128)

	mov	esi, DWORD PTR _keybits$[ebp]
	cmp	esi, 128				; 00000080H
	jne	$LN10@rijndaelSe

; 722  :   {
; 723  :     for (;;)
; 724  :     {
; 725  :       temp  = rk[3];

	mov	esi, DWORD PTR [eax+12]

; 726  :       rk[4] = rk[0] ^
; 727  :         (Te4[(temp >> 16) & 0xff] & 0xff000000) ^
; 728  :         (Te4[(temp >>  8) & 0xff] & 0x00ff0000) ^
; 729  :         (Te4[(temp      ) & 0xff] & 0x0000ff00) ^
; 730  :         (Te4[(temp >> 24)       ] & 0x000000ff) ^
; 731  :         rcon[i];

	mov	edx, esi
	shr	edx, 16					; 00000010H
	and	edx, 255				; 000000ffH
	mov	edx, DWORD PTR _Te4[edx*4]
	mov	edi, esi
	shr	edi, 8
	and	edi, 255				; 000000ffH
	mov	edi, DWORD PTR _Te4[edi*4]
	and	edi, 16711680				; 00ff0000H
	xor	edx, 16777216				; 01000000H
	and	edx, -16777216				; ff000000H
	xor	edx, edi
	mov	edi, esi
	shr	edi, 24					; 00000018H
	movzx	edi, BYTE PTR _Te4[edi*4]
	xor	edx, edi
	mov	edi, esi
	and	edi, 255				; 000000ffH
	mov	edi, DWORD PTR _Te4[edi*4]
	and	edi, 65280				; 0000ff00H
	xor	edx, edi
	xor	edx, DWORD PTR [eax]

; 732  :       rk[5] = rk[1] ^ rk[4];

	mov	edi, DWORD PTR [ecx]
	xor	edi, edx
	mov	DWORD PTR [eax+16], edx

; 733  :       rk[6] = rk[2] ^ rk[5];

	mov	edx, DWORD PTR [eax+8]
	xor	edx, edi

; 734  :       rk[7] = rk[3] ^ rk[6];

	xor	esi, edx
	mov	DWORD PTR [eax+28], esi
	mov	DWORD PTR [eax+20], edi
	mov	DWORD PTR [eax+24], edx
	mov	esi, OFFSET _rcon+4
$LL11@rijndaelSe:

; 737  :       rk += 4;

	mov	edx, DWORD PTR [ecx+24]
	add	ecx, 16					; 00000010H
	mov	eax, edx
	shr	eax, 8
	mov	edi, edx
	and	eax, 255				; 000000ffH
	mov	eax, DWORD PTR _Te4[eax*4]
	shr	edi, 16					; 00000010H
	and	edi, 255				; 000000ffH
	mov	edi, DWORD PTR _Te4[edi*4]
	and	eax, 16711680				; 00ff0000H
	and	edi, -16777216				; ff000000H
	xor	eax, edi
	mov	edi, edx
	and	edx, 255				; 000000ffH
	mov	edx, DWORD PTR _Te4[edx*4]
	shr	edi, 24					; 00000018H
	movzx	edi, BYTE PTR _Te4[edi*4]
	xor	eax, edi
	and	edx, 65280				; 0000ff00H
	xor	eax, edx
	xor	eax, DWORD PTR [ecx-4]
	add	esi, 4
	xor	eax, DWORD PTR [esi-4]
	mov	DWORD PTR [ecx+12], eax
	mov	edx, DWORD PTR [ecx]
	xor	edx, eax
	mov	DWORD PTR [ecx+16], edx
	mov	eax, DWORD PTR [ecx+4]
	xor	eax, edx
	mov	DWORD PTR [ecx+20], eax
	mov	edx, DWORD PTR [ecx+8]
	xor	edx, eax
	mov	DWORD PTR [ecx+24], edx
	cmp	esi, OFFSET _rcon+40
	jne	$LL11@rijndaelSe

; 735  :       if (++i == 10)
; 736  :         return 10;

	pop	edi
	mov	eax, 10					; 0000000aH
	pop	esi

; 794  : }

	pop	ebp
	ret	0
$LN10@rijndaelSe:

; 738  :     }
; 739  :   }
; 740  :   rk[4] = GETU32(key + 16);

	movzx	edi, BYTE PTR [edx+16]
	shl	edi, 8
	push	ebx
	movzx	ebx, BYTE PTR [edx+17]
	xor	edi, ebx
	movzx	ebx, BYTE PTR [edx+18]
	shl	edi, 8
	xor	edi, ebx
	movzx	ebx, BYTE PTR [edx+19]
	shl	edi, 8
	xor	edi, ebx
	mov	DWORD PTR [eax+16], edi

; 741  :   rk[5] = GETU32(key + 20);

	movzx	edi, BYTE PTR [edx+20]
	movzx	ebx, BYTE PTR [edx+21]
	shl	edi, 8
	xor	edi, ebx
	movzx	ebx, BYTE PTR [edx+22]
	shl	edi, 8
	xor	edi, ebx
	movzx	ebx, BYTE PTR [edx+23]
	shl	edi, 8
	xor	edi, ebx
	mov	DWORD PTR [eax+20], edi

; 742  :   if (keybits == 192)

	cmp	esi, 192				; 000000c0H
	jne	$LN6@rijndaelSe

; 743  :   {
; 744  :     for (;;)
; 745  :     {
; 746  :       temp = rk[ 5];

	mov	esi, edi

; 747  :       rk[ 6] = rk[ 0] ^
; 748  :         (Te4[(temp >> 16) & 0xff] & 0xff000000) ^
; 749  :         (Te4[(temp >>  8) & 0xff] & 0x00ff0000) ^
; 750  :         (Te4[(temp      ) & 0xff] & 0x0000ff00) ^
; 751  :         (Te4[(temp >> 24)       ] & 0x000000ff) ^
; 752  :         rcon[i];
; 753  :       rk[ 7] = rk[ 1] ^ rk[ 6];

	mov	ecx, DWORD PTR [ecx]
	mov	edx, esi
	shr	edx, 16					; 00000010H
	and	edx, 255				; 000000ffH
	mov	edx, DWORD PTR _Te4[edx*4]
	shr	edi, 8
	xor	edx, 16777216				; 01000000H
	and	edi, 255				; 000000ffH
	mov	edi, DWORD PTR _Te4[edi*4]
	and	edx, -16777216				; ff000000H
	and	edi, 16711680				; 00ff0000H
	xor	edx, edi
	mov	edi, esi
	shr	edi, 24					; 00000018H
	movzx	edi, BYTE PTR _Te4[edi*4]
	and	esi, 255				; 000000ffH
	mov	esi, DWORD PTR _Te4[esi*4]
	xor	edx, edi
	and	esi, 65280				; 0000ff00H
	xor	edx, esi
	xor	edx, DWORD PTR [eax]
	mov	esi, OFFSET _rcon+4
	xor	ecx, edx
	mov	DWORD PTR [eax+24], edx

; 754  :       rk[ 8] = rk[ 2] ^ rk[ 7];

	mov	edx, DWORD PTR [eax+8]
	xor	edx, ecx
	mov	DWORD PTR [eax+28], ecx

; 755  :       rk[ 9] = rk[ 3] ^ rk[ 8];

	mov	ecx, DWORD PTR [eax+12]
	xor	ecx, edx
	mov	DWORD PTR [eax+32], edx
	mov	DWORD PTR [eax+36], ecx
	add	eax, 40					; 00000028H
$LL7@rijndaelSe:

; 758  :       rk[10] = rk[ 4] ^ rk[ 9];

	mov	ecx, DWORD PTR [eax-24]
	xor	ecx, DWORD PTR [eax-4]

; 759  :       rk[11] = rk[ 5] ^ rk[10];

	mov	edx, DWORD PTR [eax-20]
	xor	edx, ecx
	mov	DWORD PTR [eax], ecx
	mov	DWORD PTR [eax+4], edx
	mov	edx, DWORD PTR [eax+4]

; 760  :       rk += 6;

	add	eax, 24					; 00000018H
	mov	ecx, edx
	shr	ecx, 8
	mov	edi, edx
	and	ecx, 255				; 000000ffH
	mov	ecx, DWORD PTR _Te4[ecx*4]
	shr	edi, 16					; 00000010H
	and	edi, 255				; 000000ffH
	mov	edi, DWORD PTR _Te4[edi*4]
	and	ecx, 16711680				; 00ff0000H
	and	edi, -16777216				; ff000000H
	xor	ecx, edi
	mov	edi, edx
	and	edx, 255				; 000000ffH
	mov	edx, DWORD PTR _Te4[edx*4]
	shr	edi, 24					; 00000018H
	movzx	edi, BYTE PTR _Te4[edi*4]
	xor	ecx, edi
	and	edx, 65280				; 0000ff00H
	xor	ecx, edx
	xor	ecx, DWORD PTR [eax-40]
	add	esi, 4
	xor	ecx, DWORD PTR [esi-4]
	mov	DWORD PTR [eax-16], ecx
	mov	edx, DWORD PTR [eax-36]
	xor	edx, ecx
	mov	DWORD PTR [eax-12], edx
	mov	ecx, DWORD PTR [eax-32]
	xor	ecx, edx
	mov	DWORD PTR [eax-8], ecx
	mov	edx, DWORD PTR [eax-28]
	xor	edx, ecx
	mov	DWORD PTR [eax-4], edx
	cmp	esi, OFFSET _rcon+32
	jne	$LL7@rijndaelSe

; 756  :       if (++i == 8)
; 757  :         return 12;

	pop	ebx
	pop	edi
	mov	eax, 12					; 0000000cH
	pop	esi

; 794  : }

	pop	ebp
	ret	0
$LN6@rijndaelSe:

; 761  :     }
; 762  :   }
; 763  :   rk[6] = GETU32(key + 24);

	movzx	edi, BYTE PTR [edx+24]
	movzx	ebx, BYTE PTR [edx+25]
	shl	edi, 8
	xor	edi, ebx
	movzx	ebx, BYTE PTR [edx+26]
	shl	edi, 8
	xor	edi, ebx
	movzx	ebx, BYTE PTR [edx+27]
	shl	edi, 8
	xor	edi, ebx
	mov	DWORD PTR [eax+24], edi

; 764  :   rk[7] = GETU32(key + 28);

	movzx	edi, BYTE PTR [edx+28]
	movzx	ebx, BYTE PTR [edx+29]
	shl	edi, 8
	xor	edi, ebx
	movzx	ebx, BYTE PTR [edx+30]
	movzx	edx, BYTE PTR [edx+31]
	shl	edi, 8
	xor	edi, ebx
	shl	edi, 8
	xor	edi, edx
	mov	DWORD PTR [eax+28], edi

; 765  :   if (keybits == 256)

	cmp	esi, 256				; 00000100H
	jne	$LN2@rijndaelSe

; 766  :   {
; 767  :     for (;;)
; 768  :     {
; 769  :       temp = rk[ 7];

	mov	esi, edi

; 770  :       rk[ 8] = rk[ 0] ^
; 771  :         (Te4[(temp >> 16) & 0xff] & 0xff000000) ^
; 772  :         (Te4[(temp >>  8) & 0xff] & 0x00ff0000) ^
; 773  :         (Te4[(temp      ) & 0xff] & 0x0000ff00) ^
; 774  :         (Te4[(temp >> 24)       ] & 0x000000ff) ^
; 775  :         rcon[i];
; 776  :       rk[ 9] = rk[ 1] ^ rk[ 8];

	mov	ecx, DWORD PTR [ecx]
	mov	edx, esi
	shr	edx, 16					; 00000010H
	and	edx, 255				; 000000ffH
	mov	edx, DWORD PTR _Te4[edx*4]
	shr	edi, 8
	xor	edx, 16777216				; 01000000H
	and	edi, 255				; 000000ffH
	mov	edi, DWORD PTR _Te4[edi*4]
	and	edx, -16777216				; ff000000H
	and	edi, 16711680				; 00ff0000H
	xor	edx, edi
	mov	edi, esi
	shr	edi, 24					; 00000018H
	movzx	edi, BYTE PTR _Te4[edi*4]
	and	esi, 255				; 000000ffH
	mov	esi, DWORD PTR _Te4[esi*4]
	xor	edx, edi
	and	esi, 65280				; 0000ff00H
	xor	edx, esi
	xor	edx, DWORD PTR [eax]
	mov	esi, OFFSET _rcon+4
	xor	ecx, edx
	mov	DWORD PTR [eax+32], edx

; 777  :       rk[10] = rk[ 2] ^ rk[ 9];

	mov	edx, DWORD PTR [eax+8]
	xor	edx, ecx
	mov	DWORD PTR [eax+36], ecx

; 778  :       rk[11] = rk[ 3] ^ rk[10];

	mov	ecx, DWORD PTR [eax+12]
	xor	ecx, edx
	mov	DWORD PTR [eax+40], edx
	mov	DWORD PTR [eax+44], ecx
	add	eax, 48					; 00000030H
	npad	5
$LL3@rijndaelSe:

; 781  :       temp = rk[11];

	mov	edx, DWORD PTR [eax-4]

; 782  :       rk[12] = rk[ 4] ^
; 783  :         (Te4[(temp >> 24)       ] & 0xff000000) ^
; 784  :         (Te4[(temp >> 16) & 0xff] & 0x00ff0000) ^
; 785  :         (Te4[(temp >>  8) & 0xff] & 0x0000ff00) ^
; 786  :         (Te4[(temp      ) & 0xff] & 0x000000ff);

	mov	ecx, edx
	shr	ecx, 16					; 00000010H
	and	ecx, 255				; 000000ffH
	mov	ecx, DWORD PTR _Te4[ecx*4]
	mov	edi, edx
	shr	edi, 8
	and	ecx, 16711680				; 00ff0000H
	and	edi, 255				; 000000ffH
	mov	edi, DWORD PTR _Te4[edi*4]
	and	edi, 65280				; 0000ff00H
	xor	ecx, edi
	mov	edi, edx
	and	edx, 255				; 000000ffH
	movzx	edx, BYTE PTR _Te4[edx*4]
	shr	edi, 24					; 00000018H
	mov	edi, DWORD PTR _Te4[edi*4]
	and	edi, -16777216				; ff000000H
	xor	ecx, edi
	xor	ecx, edx
	xor	ecx, DWORD PTR [eax-32]

; 787  :       rk[13] = rk[ 5] ^ rk[12];

	mov	edx, DWORD PTR [eax-28]
	xor	edx, ecx
	mov	DWORD PTR [eax], ecx

; 788  :       rk[14] = rk[ 6] ^ rk[13];

	mov	ecx, DWORD PTR [eax-24]
	xor	ecx, edx
	mov	DWORD PTR [eax+4], edx

; 789  :       rk[15] = rk[ 7] ^ rk[14];

	mov	edx, DWORD PTR [eax-20]
	xor	edx, ecx
	mov	DWORD PTR [eax+8], ecx
	mov	DWORD PTR [eax+12], edx
	mov	edx, DWORD PTR [eax+12]

; 790  :       rk += 8;

	add	eax, 32					; 00000020H
	mov	ecx, edx
	shr	ecx, 8
	mov	edi, edx
	and	ecx, 255				; 000000ffH
	mov	ecx, DWORD PTR _Te4[ecx*4]
	shr	edi, 16					; 00000010H
	and	edi, 255				; 000000ffH
	mov	edi, DWORD PTR _Te4[edi*4]
	and	ecx, 16711680				; 00ff0000H
	and	edi, -16777216				; ff000000H
	xor	ecx, edi
	mov	edi, edx
	and	edx, 255				; 000000ffH
	mov	edx, DWORD PTR _Te4[edx*4]
	shr	edi, 24					; 00000018H
	movzx	edi, BYTE PTR _Te4[edi*4]
	xor	ecx, edi
	and	edx, 65280				; 0000ff00H
	xor	ecx, edx
	xor	ecx, DWORD PTR [eax-48]
	add	esi, 4
	xor	ecx, DWORD PTR [esi-4]
	mov	DWORD PTR [eax-16], ecx
	mov	edx, DWORD PTR [eax-44]
	xor	edx, ecx
	mov	DWORD PTR [eax-12], edx
	mov	ecx, DWORD PTR [eax-40]
	xor	ecx, edx
	mov	DWORD PTR [eax-8], ecx
	mov	edx, DWORD PTR [eax-36]
	xor	edx, ecx
	mov	DWORD PTR [eax-4], edx
	cmp	esi, OFFSET _rcon+28
	jne	$LL3@rijndaelSe

; 779  :       if (++i == 7)
; 780  :         return 14;

	pop	ebx
	pop	edi
	mov	eax, 14					; 0000000eH
	pop	esi

; 794  : }

	pop	ebp
	ret	0
$LN2@rijndaelSe:
	pop	ebx
	pop	edi

; 791  :     }
; 792  :   }
; 793  :   return 0;

	xor	eax, eax
	pop	esi

; 794  : }

	pop	ebp
	ret	0
?rijndaelSetupEncrypt@@YAHPAKPBEH@Z ENDP		; rijndaelSetupEncrypt
_TEXT	ENDS
PUBLIC	?rijndaelSetupDecrypt@@YAHPAKPBEH@Z		; rijndaelSetupDecrypt
; Function compile flags: /Ogtp
;	COMDAT ?rijndaelSetupDecrypt@@YAHPAKPBEH@Z
_TEXT	SEGMENT
_nrounds$ = -4						; size = 4
_rk$ = 8						; size = 4
_key$ = 12						; size = 4
_keybits$ = 16						; size = 4
?rijndaelSetupDecrypt@@YAHPAKPBEH@Z PROC		; rijndaelSetupDecrypt, COMDAT

; 802  : {

	push	ebp
	mov	ebp, esp
	push	ecx

; 803  :   int nrounds, i, j;
; 804  :   u32 temp;
; 805  : 
; 806  :   /* expand the cipher key: */
; 807  :   nrounds = rijndaelSetupEncrypt(rk, key, keybits);

	mov	eax, DWORD PTR _keybits$[ebp]
	mov	ecx, DWORD PTR _key$[ebp]
	push	ebx
	mov	ebx, DWORD PTR _rk$[ebp]
	push	esi
	push	edi
	push	eax
	push	ecx
	push	ebx
	call	?rijndaelSetupEncrypt@@YAHPAKPBEH@Z	; rijndaelSetupEncrypt

; 808  :   /* invert the order of the round keys: */
; 809  :   for (i = 0, j = 4*nrounds; i < j; i += 4, j -= 4)

	lea	esi, DWORD PTR [eax*4]
	add	esp, 12					; 0000000cH
	xor	edi, edi
	mov	DWORD PTR _nrounds$[ebp], eax
	test	esi, esi
	jle	SHORT $LN4@rijndaelSe@2

; 803  :   int nrounds, i, j;
; 804  :   u32 temp;
; 805  : 
; 806  :   /* expand the cipher key: */
; 807  :   nrounds = rijndaelSetupEncrypt(rk, key, keybits);

	lea	edx, DWORD PTR [ebx+esi*4+8]
	lea	ecx, DWORD PTR [ebx+8]
$LL6@rijndaelSe@2:

; 810  :   {
; 811  :     temp = rk[i    ]; rk[i    ] = rk[j    ]; rk[j    ] = temp;

	mov	ebx, DWORD PTR [edx-8]
	mov	eax, DWORD PTR [ecx-8]
	mov	DWORD PTR [ecx-8], ebx

; 812  :     temp = rk[i + 1]; rk[i + 1] = rk[j + 1]; rk[j + 1] = temp;

	mov	ebx, DWORD PTR [edx-4]
	mov	DWORD PTR [edx-8], eax
	mov	eax, DWORD PTR [ecx-4]
	mov	DWORD PTR [ecx-4], ebx

; 813  :     temp = rk[i + 2]; rk[i + 2] = rk[j + 2]; rk[j + 2] = temp;

	mov	ebx, DWORD PTR [edx]
	mov	DWORD PTR [edx-4], eax
	mov	eax, DWORD PTR [ecx]
	mov	DWORD PTR [ecx], ebx

; 814  :     temp = rk[i + 3]; rk[i + 3] = rk[j + 3]; rk[j + 3] = temp;

	mov	ebx, DWORD PTR [edx+4]
	mov	DWORD PTR [edx], eax
	mov	eax, DWORD PTR [ecx+4]
	mov	DWORD PTR [ecx+4], ebx
	mov	DWORD PTR [edx+4], eax
	add	edi, 4
	sub	esi, 4
	add	ecx, 16					; 00000010H
	sub	edx, 16					; 00000010H
	cmp	edi, esi
	jl	SHORT $LL6@rijndaelSe@2

; 808  :   /* invert the order of the round keys: */
; 809  :   for (i = 0, j = 4*nrounds; i < j; i += 4, j -= 4)

	mov	eax, DWORD PTR _nrounds$[ebp]
	mov	ebx, DWORD PTR _rk$[ebp]
$LN4@rijndaelSe@2:

; 815  :   }
; 816  :   /* apply the inverse MixColumn transform to all round keys but the first and the last: */
; 817  :   for (i = 1; i < nrounds; i++)

	cmp	eax, 1
	jle	$LN1@rijndaelSe@2
	lea	ecx, DWORD PTR [ebx+2]
	lea	esi, DWORD PTR [eax-1]
	npad	13
$LL3@rijndaelSe@2:

; 818  :   {
; 819  :     rk += 4;
; 820  :     rk[0] =
; 821  :       Td0[Te4[(rk[0] >> 24)       ] & 0xff] ^
; 822  :       Td1[Te4[(rk[0] >> 16) & 0xff] & 0xff] ^
; 823  :       Td2[Te4[(rk[0] >>  8) & 0xff] & 0xff] ^
; 824  :       Td3[Te4[(rk[0]      ) & 0xff] & 0xff];

	mov	edx, DWORD PTR [ecx+14]
	movzx	ebx, BYTE PTR [ecx+15]
	mov	ebx, DWORD PTR _Te4[ebx*4]
	add	ecx, 16					; 00000010H
	mov	edi, edx
	shr	edi, 24					; 00000018H
	mov	edi, DWORD PTR _Te4[edi*4]
	and	edi, 255				; 000000ffH
	mov	edi, DWORD PTR _Td0[edi*4]
	and	ebx, 255				; 000000ffH
	xor	edi, DWORD PTR _Td2[ebx*4]
	movzx	ebx, BYTE PTR [ecx]
	mov	ebx, DWORD PTR _Te4[ebx*4]
	and	ebx, 255				; 000000ffH
	xor	edi, DWORD PTR _Td1[ebx*4]

; 825  :     rk[1] =
; 826  :       Td0[Te4[(rk[1] >> 24)       ] & 0xff] ^
; 827  :       Td1[Te4[(rk[1] >> 16) & 0xff] & 0xff] ^
; 828  :       Td2[Te4[(rk[1] >>  8) & 0xff] & 0xff] ^
; 829  :       Td3[Te4[(rk[1]      ) & 0xff] & 0xff];

	movzx	ebx, BYTE PTR [ecx+3]
	and	edx, 255				; 000000ffH
	mov	edx, DWORD PTR _Te4[edx*4]
	and	edx, 255				; 000000ffH
	xor	edi, DWORD PTR _Td3[edx*4]
	mov	edx, DWORD PTR [ecx+2]
	mov	DWORD PTR [ecx-2], edi
	mov	ebx, DWORD PTR _Te4[ebx*4]
	mov	edi, edx
	shr	edi, 24					; 00000018H
	mov	edi, DWORD PTR _Te4[edi*4]
	and	edi, 255				; 000000ffH
	mov	edi, DWORD PTR _Td0[edi*4]
	and	ebx, 255				; 000000ffH
	xor	edi, DWORD PTR _Td2[ebx*4]
	movzx	ebx, BYTE PTR [ecx+4]
	mov	ebx, DWORD PTR _Te4[ebx*4]
	and	ebx, 255				; 000000ffH
	xor	edi, DWORD PTR _Td1[ebx*4]

; 830  :     rk[2] =
; 831  :       Td0[Te4[(rk[2] >> 24)       ] & 0xff] ^
; 832  :       Td1[Te4[(rk[2] >> 16) & 0xff] & 0xff] ^
; 833  :       Td2[Te4[(rk[2] >>  8) & 0xff] & 0xff] ^
; 834  :       Td3[Te4[(rk[2]      ) & 0xff] & 0xff];

	movzx	ebx, BYTE PTR [ecx+7]
	and	edx, 255				; 000000ffH
	mov	edx, DWORD PTR _Te4[edx*4]
	and	edx, 255				; 000000ffH
	xor	edi, DWORD PTR _Td3[edx*4]
	mov	edx, DWORD PTR [ecx+6]
	mov	DWORD PTR [ecx+2], edi
	mov	ebx, DWORD PTR _Te4[ebx*4]
	mov	edi, edx
	shr	edi, 24					; 00000018H
	mov	edi, DWORD PTR _Te4[edi*4]
	and	edi, 255				; 000000ffH
	mov	edi, DWORD PTR _Td0[edi*4]
	and	ebx, 255				; 000000ffH
	xor	edi, DWORD PTR _Td2[ebx*4]
	movzx	ebx, BYTE PTR [ecx+8]
	mov	ebx, DWORD PTR _Te4[ebx*4]
	and	ebx, 255				; 000000ffH
	xor	edi, DWORD PTR _Td1[ebx*4]

; 835  :     rk[3] =
; 836  :       Td0[Te4[(rk[3] >> 24)       ] & 0xff] ^
; 837  :       Td1[Te4[(rk[3] >> 16) & 0xff] & 0xff] ^
; 838  :       Td2[Te4[(rk[3] >>  8) & 0xff] & 0xff] ^
; 839  :       Td3[Te4[(rk[3]      ) & 0xff] & 0xff];

	movzx	ebx, BYTE PTR [ecx+11]
	and	edx, 255				; 000000ffH
	mov	edx, DWORD PTR _Te4[edx*4]
	and	edx, 255				; 000000ffH
	xor	edi, DWORD PTR _Td3[edx*4]
	mov	edx, DWORD PTR [ecx+10]
	mov	DWORD PTR [ecx+6], edi
	mov	ebx, DWORD PTR _Te4[ebx*4]
	mov	edi, edx
	shr	edi, 24					; 00000018H
	mov	edi, DWORD PTR _Te4[edi*4]
	and	edi, 255				; 000000ffH
	mov	edi, DWORD PTR _Td0[edi*4]
	and	ebx, 255				; 000000ffH
	xor	edi, DWORD PTR _Td2[ebx*4]
	movzx	ebx, BYTE PTR [ecx+12]
	mov	ebx, DWORD PTR _Te4[ebx*4]
	and	edx, 255				; 000000ffH
	mov	edx, DWORD PTR _Te4[edx*4]
	and	ebx, 255				; 000000ffH
	xor	edi, DWORD PTR _Td1[ebx*4]
	and	edx, 255				; 000000ffH
	xor	edi, DWORD PTR _Td3[edx*4]
	dec	esi
	mov	DWORD PTR [ecx+10], edi
	jne	$LL3@rijndaelSe@2
$LN1@rijndaelSe@2:
	pop	edi
	pop	esi
	pop	ebx

; 840  :   }
; 841  :   return nrounds;
; 842  : }

	mov	esp, ebp
	pop	ebp
	ret	0
?rijndaelSetupDecrypt@@YAHPAKPBEH@Z ENDP		; rijndaelSetupDecrypt
_TEXT	ENDS
PUBLIC	?rijndaelEncrypt@@YAXPBKHQBEQAE@Z		; rijndaelEncrypt
; Function compile flags: /Ogtp
;	COMDAT ?rijndaelEncrypt@@YAXPBKHQBEQAE@Z
_TEXT	SEGMENT
tv1172 = -12						; size = 4
tv1170 = -12						; size = 4
_t0$ = -12						; size = 4
_t2$ = -8						; size = 4
_s3$ = -4						; size = 4
_t3$ = 8						; size = 4
_s2$ = 8						; size = 4
_s1$ = 8						; size = 4
_s0$ = 8						; size = 4
_rk$ = 8						; size = 4
_r$ = 12						; size = 4
_nrounds$ = 12						; size = 4
tv1176 = 16						; size = 4
tv1174 = 16						; size = 4
tv378 = 16						; size = 4
_t1$ = 16						; size = 4
_plaintext$ = 16					; size = 4
_ciphertext$ = 20					; size = 4
?rijndaelEncrypt@@YAXPBKHQBEQAE@Z PROC			; rijndaelEncrypt, COMDAT

; 846  : {

	push	ebp
	mov	ebp, esp
	sub	esp, 12					; 0000000cH

; 847  :   u32 s0, s1, s2, s3, t0, t1, t2, t3;
; 848  :   #ifndef FULL_UNROLL
; 849  :     int r;
; 850  :   #endif /* ?FULL_UNROLL */
; 851  :   /*
; 852  :    * map byte array block to cipher state
; 853  :    * and add initial round key:
; 854  :   */
; 855  :   s0 = GETU32(plaintext     ) ^ rk[0];

	mov	eax, DWORD PTR _plaintext$[ebp]
	movzx	ecx, BYTE PTR [eax]
	movzx	edx, BYTE PTR [eax+1]
	push	ebx

; 856  :   s1 = GETU32(plaintext +  4) ^ rk[1];
; 857  :   s2 = GETU32(plaintext +  8) ^ rk[2];

	movzx	ebx, BYTE PTR [eax+9]
	push	esi
	movzx	esi, BYTE PTR [eax+4]
	push	edi
	movzx	edi, BYTE PTR [eax+5]
	shl	esi, 8
	xor	esi, edi
	movzx	edi, BYTE PTR [eax+6]
	shl	esi, 8
	xor	esi, edi
	movzx	edi, BYTE PTR [eax+7]
	shl	esi, 8
	xor	esi, edi
	movzx	edi, BYTE PTR [eax+8]
	shl	edi, 8
	xor	edi, ebx
	movzx	ebx, BYTE PTR [eax+10]
	shl	edi, 8
	xor	edi, ebx
	movzx	ebx, BYTE PTR [eax+11]
	shl	ecx, 8
	xor	ecx, edx
	movzx	edx, BYTE PTR [eax+2]
	shl	edi, 8
	xor	edi, ebx

; 858  :   s3 = GETU32(plaintext + 12) ^ rk[3];

	movzx	ebx, BYTE PTR [eax+12]
	shl	ecx, 8
	xor	ecx, edx
	movzx	edx, BYTE PTR [eax+3]
	shl	ecx, 8
	shl	ebx, 8
	xor	ecx, edx
	mov	edx, DWORD PTR _rk$[ebp]
	xor	edi, DWORD PTR [edx+8]
	xor	esi, DWORD PTR [edx+4]
	xor	ecx, DWORD PTR [edx]
	mov	DWORD PTR _s2$[ebp], edi
	movzx	edi, BYTE PTR [eax+13]
	xor	ebx, edi
	movzx	edi, BYTE PTR [eax+14]
	movzx	eax, BYTE PTR [eax+15]
	shl	ebx, 8
	xor	ebx, edi
	shl	ebx, 8
	xor	ebx, eax

; 859  :   #ifdef FULL_UNROLL
; 860  :     /* round 1: */
; 861  :     t0 = Te0[s0 >> 24] ^ Te1[(s1 >> 16) & 0xff] ^ Te2[(s2 >>  8) & 0xff] ^ Te3[s3 & 0xff] ^ rk[ 4];
; 862  :     t1 = Te0[s1 >> 24] ^ Te1[(s2 >> 16) & 0xff] ^ Te2[(s3 >>  8) & 0xff] ^ Te3[s0 & 0xff] ^ rk[ 5];
; 863  :     t2 = Te0[s2 >> 24] ^ Te1[(s3 >> 16) & 0xff] ^ Te2[(s0 >>  8) & 0xff] ^ Te3[s1 & 0xff] ^ rk[ 6];
; 864  :     t3 = Te0[s3 >> 24] ^ Te1[(s0 >> 16) & 0xff] ^ Te2[(s1 >>  8) & 0xff] ^ Te3[s2 & 0xff] ^ rk[ 7];
; 865  :     /* round 2: */
; 866  :     s0 = Te0[t0 >> 24] ^ Te1[(t1 >> 16) & 0xff] ^ Te2[(t2 >>  8) & 0xff] ^ Te3[t3 & 0xff] ^ rk[ 8];
; 867  :     s1 = Te0[t1 >> 24] ^ Te1[(t2 >> 16) & 0xff] ^ Te2[(t3 >>  8) & 0xff] ^ Te3[t0 & 0xff] ^ rk[ 9];
; 868  :     s2 = Te0[t2 >> 24] ^ Te1[(t3 >> 16) & 0xff] ^ Te2[(t0 >>  8) & 0xff] ^ Te3[t1 & 0xff] ^ rk[10];
; 869  :     s3 = Te0[t3 >> 24] ^ Te1[(t0 >> 16) & 0xff] ^ Te2[(t1 >>  8) & 0xff] ^ Te3[t2 & 0xff] ^ rk[11];
; 870  :     /* round 3: */
; 871  :     t0 = Te0[s0 >> 24] ^ Te1[(s1 >> 16) & 0xff] ^ Te2[(s2 >>  8) & 0xff] ^ Te3[s3 & 0xff] ^ rk[12];
; 872  :     t1 = Te0[s1 >> 24] ^ Te1[(s2 >> 16) & 0xff] ^ Te2[(s3 >>  8) & 0xff] ^ Te3[s0 & 0xff] ^ rk[13];
; 873  :     t2 = Te0[s2 >> 24] ^ Te1[(s3 >> 16) & 0xff] ^ Te2[(s0 >>  8) & 0xff] ^ Te3[s1 & 0xff] ^ rk[14];
; 874  :     t3 = Te0[s3 >> 24] ^ Te1[(s0 >> 16) & 0xff] ^ Te2[(s1 >>  8) & 0xff] ^ Te3[s2 & 0xff] ^ rk[15];
; 875  :     /* round 4: */
; 876  :     s0 = Te0[t0 >> 24] ^ Te1[(t1 >> 16) & 0xff] ^ Te2[(t2 >>  8) & 0xff] ^ Te3[t3 & 0xff] ^ rk[16];
; 877  :     s1 = Te0[t1 >> 24] ^ Te1[(t2 >> 16) & 0xff] ^ Te2[(t3 >>  8) & 0xff] ^ Te3[t0 & 0xff] ^ rk[17];
; 878  :     s2 = Te0[t2 >> 24] ^ Te1[(t3 >> 16) & 0xff] ^ Te2[(t0 >>  8) & 0xff] ^ Te3[t1 & 0xff] ^ rk[18];
; 879  :     s3 = Te0[t3 >> 24] ^ Te1[(t0 >> 16) & 0xff] ^ Te2[(t1 >>  8) & 0xff] ^ Te3[t2 & 0xff] ^ rk[19];
; 880  :     /* round 5: */
; 881  :     t0 = Te0[s0 >> 24] ^ Te1[(s1 >> 16) & 0xff] ^ Te2[(s2 >>  8) & 0xff] ^ Te3[s3 & 0xff] ^ rk[20];
; 882  :     t1 = Te0[s1 >> 24] ^ Te1[(s2 >> 16) & 0xff] ^ Te2[(s3 >>  8) & 0xff] ^ Te3[s0 & 0xff] ^ rk[21];
; 883  :     t2 = Te0[s2 >> 24] ^ Te1[(s3 >> 16) & 0xff] ^ Te2[(s0 >>  8) & 0xff] ^ Te3[s1 & 0xff] ^ rk[22];
; 884  :     t3 = Te0[s3 >> 24] ^ Te1[(s0 >> 16) & 0xff] ^ Te2[(s1 >>  8) & 0xff] ^ Te3[s2 & 0xff] ^ rk[23];
; 885  :     /* round 6: */
; 886  :     s0 = Te0[t0 >> 24] ^ Te1[(t1 >> 16) & 0xff] ^ Te2[(t2 >>  8) & 0xff] ^ Te3[t3 & 0xff] ^ rk[24];
; 887  :     s1 = Te0[t1 >> 24] ^ Te1[(t2 >> 16) & 0xff] ^ Te2[(t3 >>  8) & 0xff] ^ Te3[t0 & 0xff] ^ rk[25];
; 888  :     s2 = Te0[t2 >> 24] ^ Te1[(t3 >> 16) & 0xff] ^ Te2[(t0 >>  8) & 0xff] ^ Te3[t1 & 0xff] ^ rk[26];
; 889  :     s3 = Te0[t3 >> 24] ^ Te1[(t0 >> 16) & 0xff] ^ Te2[(t1 >>  8) & 0xff] ^ Te3[t2 & 0xff] ^ rk[27];
; 890  :     /* round 7: */
; 891  :     t0 = Te0[s0 >> 24] ^ Te1[(s1 >> 16) & 0xff] ^ Te2[(s2 >>  8) & 0xff] ^ Te3[s3 & 0xff] ^ rk[28];
; 892  :     t1 = Te0[s1 >> 24] ^ Te1[(s2 >> 16) & 0xff] ^ Te2[(s3 >>  8) & 0xff] ^ Te3[s0 & 0xff] ^ rk[29];
; 893  :     t2 = Te0[s2 >> 24] ^ Te1[(s3 >> 16) & 0xff] ^ Te2[(s0 >>  8) & 0xff] ^ Te3[s1 & 0xff] ^ rk[30];
; 894  :     t3 = Te0[s3 >> 24] ^ Te1[(s0 >> 16) & 0xff] ^ Te2[(s1 >>  8) & 0xff] ^ Te3[s2 & 0xff] ^ rk[31];
; 895  :     /* round 8: */
; 896  :     s0 = Te0[t0 >> 24] ^ Te1[(t1 >> 16) & 0xff] ^ Te2[(t2 >>  8) & 0xff] ^ Te3[t3 & 0xff] ^ rk[32];
; 897  :     s1 = Te0[t1 >> 24] ^ Te1[(t2 >> 16) & 0xff] ^ Te2[(t3 >>  8) & 0xff] ^ Te3[t0 & 0xff] ^ rk[33];
; 898  :     s2 = Te0[t2 >> 24] ^ Te1[(t3 >> 16) & 0xff] ^ Te2[(t0 >>  8) & 0xff] ^ Te3[t1 & 0xff] ^ rk[34];
; 899  :     s3 = Te0[t3 >> 24] ^ Te1[(t0 >> 16) & 0xff] ^ Te2[(t1 >>  8) & 0xff] ^ Te3[t2 & 0xff] ^ rk[35];
; 900  :     /* round 9: */
; 901  :     t0 = Te0[s0 >> 24] ^ Te1[(s1 >> 16) & 0xff] ^ Te2[(s2 >>  8) & 0xff] ^ Te3[s3 & 0xff] ^ rk[36];
; 902  :     t1 = Te0[s1 >> 24] ^ Te1[(s2 >> 16) & 0xff] ^ Te2[(s3 >>  8) & 0xff] ^ Te3[s0 & 0xff] ^ rk[37];
; 903  :     t2 = Te0[s2 >> 24] ^ Te1[(s3 >> 16) & 0xff] ^ Te2[(s0 >>  8) & 0xff] ^ Te3[s1 & 0xff] ^ rk[38];
; 904  :     t3 = Te0[s3 >> 24] ^ Te1[(s0 >> 16) & 0xff] ^ Te2[(s1 >>  8) & 0xff] ^ Te3[s2 & 0xff] ^ rk[39];
; 905  :     if (nrounds > 10)
; 906  :     {
; 907  :       /* round 10: */
; 908  :       s0 = Te0[t0 >> 24] ^ Te1[(t1 >> 16) & 0xff] ^ Te2[(t2 >>  8) & 0xff] ^ Te3[t3 & 0xff] ^ rk[40];
; 909  :       s1 = Te0[t1 >> 24] ^ Te1[(t2 >> 16) & 0xff] ^ Te2[(t3 >>  8) & 0xff] ^ Te3[t0 & 0xff] ^ rk[41];
; 910  :       s2 = Te0[t2 >> 24] ^ Te1[(t3 >> 16) & 0xff] ^ Te2[(t0 >>  8) & 0xff] ^ Te3[t1 & 0xff] ^ rk[42];
; 911  :       s3 = Te0[t3 >> 24] ^ Te1[(t0 >> 16) & 0xff] ^ Te2[(t1 >>  8) & 0xff] ^ Te3[t2 & 0xff] ^ rk[43];
; 912  :       /* round 11: */
; 913  :       t0 = Te0[s0 >> 24] ^ Te1[(s1 >> 16) & 0xff] ^ Te2[(s2 >>  8) & 0xff] ^ Te3[s3 & 0xff] ^ rk[44];
; 914  :       t1 = Te0[s1 >> 24] ^ Te1[(s2 >> 16) & 0xff] ^ Te2[(s3 >>  8) & 0xff] ^ Te3[s0 & 0xff] ^ rk[45];
; 915  :       t2 = Te0[s2 >> 24] ^ Te1[(s3 >> 16) & 0xff] ^ Te2[(s0 >>  8) & 0xff] ^ Te3[s1 & 0xff] ^ rk[46];
; 916  :       t3 = Te0[s3 >> 24] ^ Te1[(s0 >> 16) & 0xff] ^ Te2[(s1 >>  8) & 0xff] ^ Te3[s2 & 0xff] ^ rk[47];
; 917  :       if (nrounds > 12)
; 918  :       {
; 919  :         /* round 12: */
; 920  :         s0 = Te0[t0 >> 24] ^ Te1[(t1 >> 16) & 0xff] ^ Te2[(t2 >>  8) & 0xff] ^ Te3[t3 & 0xff] ^ rk[48];
; 921  :         s1 = Te0[t1 >> 24] ^ Te1[(t2 >> 16) & 0xff] ^ Te2[(t3 >>  8) & 0xff] ^ Te3[t0 & 0xff] ^ rk[49];
; 922  :         s2 = Te0[t2 >> 24] ^ Te1[(t3 >> 16) & 0xff] ^ Te2[(t0 >>  8) & 0xff] ^ Te3[t1 & 0xff] ^ rk[50];
; 923  :         s3 = Te0[t3 >> 24] ^ Te1[(t0 >> 16) & 0xff] ^ Te2[(t1 >>  8) & 0xff] ^ Te3[t2 & 0xff] ^ rk[51];
; 924  :         /* round 13: */
; 925  :         t0 = Te0[s0 >> 24] ^ Te1[(s1 >> 16) & 0xff] ^ Te2[(s2 >>  8) & 0xff] ^ Te3[s3 & 0xff] ^ rk[52];
; 926  :         t1 = Te0[s1 >> 24] ^ Te1[(s2 >> 16) & 0xff] ^ Te2[(s3 >>  8) & 0xff] ^ Te3[s0 & 0xff] ^ rk[53];
; 927  :         t2 = Te0[s2 >> 24] ^ Te1[(s3 >> 16) & 0xff] ^ Te2[(s0 >>  8) & 0xff] ^ Te3[s1 & 0xff] ^ rk[54];
; 928  :         t3 = Te0[s3 >> 24] ^ Te1[(s0 >> 16) & 0xff] ^ Te2[(s1 >>  8) & 0xff] ^ Te3[s2 & 0xff] ^ rk[55];
; 929  :       }
; 930  :     }
; 931  :     rk += nrounds << 2;
; 932  :   #else  /* !FULL_UNROLL */
; 933  :     /*
; 934  :     * nrounds - 1 full rounds:
; 935  :     */
; 936  :     r = nrounds >> 1;
; 937  :     for (;;)
; 938  :     {
; 939  :       t0 =
; 940  :         Te0[(s0 >> 24)       ] ^
; 941  :         Te1[(s1 >> 16) & 0xff] ^
; 942  :         Te2[(s2 >>  8) & 0xff] ^
; 943  :         Te3[(s3      ) & 0xff] ^
; 944  :         rk[4];

	mov	eax, DWORD PTR _s2$[ebp]
	xor	ebx, DWORD PTR [edx+12]
	shr	eax, 8
	and	eax, 255				; 000000ffH
	mov	edi, esi
	shr	edi, 16					; 00000010H
	and	edi, 255				; 000000ffH
	mov	DWORD PTR tv1176[ebp], edi
	mov	edi, DWORD PTR _Te2[eax*4]
	mov	eax, DWORD PTR tv1176[ebp]
	xor	edi, DWORD PTR _Te1[eax*4]
	mov	eax, ecx
	shr	eax, 24					; 00000018H
	xor	edi, DWORD PTR _Te0[eax*4]
	mov	eax, ebx
	and	eax, 255				; 000000ffH
	xor	edi, DWORD PTR _Te3[eax*4]

; 945  :       t1 =
; 946  :         Te0[(s1 >> 24)       ] ^
; 947  :         Te1[(s2 >> 16) & 0xff] ^
; 948  :         Te2[(s3 >>  8) & 0xff] ^
; 949  :         Te3[(s0      ) & 0xff] ^
; 950  :         rk[5];

	mov	eax, DWORD PTR _s2$[ebp]
	xor	edi, DWORD PTR [edx+16]
	mov	DWORD PTR _s3$[ebp], ebx
	shr	ebx, 8
	shr	eax, 16					; 00000010H
	and	ebx, 255				; 000000ffH
	and	eax, 255				; 000000ffH
	mov	DWORD PTR tv1174[ebp], eax
	mov	eax, DWORD PTR _Te2[ebx*4]
	mov	ebx, DWORD PTR tv1174[ebp]
	xor	eax, DWORD PTR _Te1[ebx*4]
	mov	ebx, esi
	shr	ebx, 24					; 00000018H
	xor	eax, DWORD PTR _Te0[ebx*4]
	mov	ebx, ecx
	and	ebx, 255				; 000000ffH
	xor	eax, DWORD PTR _Te3[ebx*4]

; 951  :       t2 =
; 952  :         Te0[(s2 >> 24)       ] ^
; 953  :         Te1[(s3 >> 16) & 0xff] ^
; 954  :         Te2[(s0 >>  8) & 0xff] ^
; 955  :         Te3[(s1      ) & 0xff] ^
; 956  :         rk[6];

	mov	ebx, ecx
	xor	eax, DWORD PTR [edx+20]
	shr	ebx, 8
	mov	DWORD PTR _t1$[ebp], eax
	mov	eax, DWORD PTR _s3$[ebp]
	shr	eax, 16					; 00000010H
	and	eax, 255				; 000000ffH
	and	ebx, 255				; 000000ffH
	mov	DWORD PTR tv1172[ebp], ebx
	mov	ebx, DWORD PTR _Te1[eax*4]
	mov	eax, DWORD PTR tv1172[ebp]
	xor	ebx, DWORD PTR _Te2[eax*4]
	mov	eax, DWORD PTR _s2$[ebp]
	shr	eax, 24					; 00000018H
	xor	ebx, DWORD PTR _Te0[eax*4]
	mov	eax, esi

; 957  :       t3 =
; 958  :         Te0[(s3 >> 24)       ] ^
; 959  :         Te1[(s0 >> 16) & 0xff] ^
; 960  :         Te2[(s1 >>  8) & 0xff] ^
; 961  :         Te3[(s2      ) & 0xff] ^
; 962  :         rk[7];

	shr	esi, 8
	and	eax, 255				; 000000ffH
	xor	ebx, DWORD PTR _Te3[eax*4]
	mov	eax, DWORD PTR _s3$[ebp]
	xor	ebx, DWORD PTR [edx+24]
	and	esi, 255				; 000000ffH
	mov	esi, DWORD PTR _Te2[esi*4]
	shr	ecx, 16					; 00000010H
	shr	eax, 24					; 00000018H
	and	ecx, 255				; 000000ffH
	xor	esi, DWORD PTR _Te1[ecx*4]

; 963  :         rk += 8;

	add	edx, 32					; 00000020H
	xor	esi, DWORD PTR _Te0[eax*4]
	mov	eax, DWORD PTR _s2$[ebp]
	and	eax, 255				; 000000ffH
	xor	esi, DWORD PTR _Te3[eax*4]
	mov	eax, DWORD PTR _nrounds$[ebp]
	xor	esi, DWORD PTR [edx-4]
	sar	eax, 1

; 964  :         if (--r == 0)

	dec	eax
	mov	DWORD PTR _t2$[ebp], ebx
	mov	DWORD PTR _t3$[ebp], esi
	mov	DWORD PTR _r$[ebp], eax
	je	$LN11@rijndaelEn
	npad	6
$LL10@rijndaelEn:

; 965  :             break;
; 966  :       s0 =
; 967  :         Te0[(t0 >> 24)       ] ^
; 968  :         Te1[(t1 >> 16) & 0xff] ^
; 969  :         Te2[(t2 >>  8) & 0xff] ^
; 970  :         Te3[(t3      ) & 0xff] ^
; 971  :         rk[0];

	mov	eax, DWORD PTR _t1$[ebp]
	mov	ecx, ebx
	shr	ecx, 8
	and	ecx, 255				; 000000ffH
	shr	eax, 16					; 00000010H
	and	eax, 255				; 000000ffH

; 972  :       s1 =
; 973  :         Te0[(t1 >> 24)       ] ^
; 974  :         Te1[(t2 >> 16) & 0xff] ^
; 975  :         Te2[(t3 >>  8) & 0xff] ^
; 976  :         Te3[(t0      ) & 0xff] ^
; 977  :         rk[1];

	shr	ebx, 16					; 00000010H
	mov	DWORD PTR tv1170[ebp], eax
	mov	eax, DWORD PTR _Te2[ecx*4]
	mov	ecx, DWORD PTR tv1170[ebp]
	xor	eax, DWORD PTR _Te1[ecx*4]
	mov	ecx, edi
	and	ebx, 255				; 000000ffH
	shr	ecx, 24					; 00000018H
	xor	eax, DWORD PTR _Te0[ecx*4]
	mov	ecx, esi
	and	ecx, 255				; 000000ffH
	xor	eax, DWORD PTR _Te3[ecx*4]
	mov	ecx, esi
	shr	ecx, 8
	and	ecx, 255				; 000000ffH
	mov	ecx, DWORD PTR _Te2[ecx*4]
	xor	ecx, DWORD PTR _Te1[ebx*4]
	mov	ebx, DWORD PTR _t1$[ebp]
	shr	ebx, 24					; 00000018H
	xor	ecx, DWORD PTR _Te0[ebx*4]
	mov	ebx, edi
	and	ebx, 255				; 000000ffH
	xor	ecx, DWORD PTR _Te3[ebx*4]

; 978  :       s2 =
; 979  :         Te0[(t2 >> 24)       ] ^
; 980  :         Te1[(t3 >> 16) & 0xff] ^
; 981  :         Te2[(t0 >>  8) & 0xff] ^
; 982  :         Te3[(t1      ) & 0xff] ^
; 983  :         rk[2];

	mov	ebx, edi
	shr	ebx, 8
	and	ebx, 255				; 000000ffH
	shr	esi, 16					; 00000010H
	and	esi, 255				; 000000ffH
	mov	esi, DWORD PTR _Te1[esi*4]
	xor	esi, DWORD PTR _Te2[ebx*4]
	mov	ebx, DWORD PTR _t2$[ebp]
	shr	ebx, 24					; 00000018H
	xor	esi, DWORD PTR _Te0[ebx*4]
	mov	ebx, DWORD PTR _t1$[ebp]
	and	ebx, 255				; 000000ffH
	xor	esi, DWORD PTR _Te3[ebx*4]

; 984  :       s3 =
; 985  :         Te0[(t3 >> 24)       ] ^
; 986  :         Te1[(t0 >> 16) & 0xff] ^
; 987  :         Te2[(t1 >>  8) & 0xff] ^
; 988  :         Te3[(t2      ) & 0xff] ^
; 989  :         rk[3];

	mov	ebx, DWORD PTR _t1$[ebp]
	shr	edi, 16					; 00000010H
	and	edi, 255				; 000000ffH
	shr	ebx, 8
	mov	DWORD PTR tv378[ebp], edi
	xor	esi, DWORD PTR [edx+8]
	and	ebx, 255				; 000000ffH
	mov	edi, DWORD PTR _Te2[ebx*4]
	mov	ebx, DWORD PTR tv378[ebp]
	xor	edi, DWORD PTR _Te1[ebx*4]
	mov	ebx, DWORD PTR _t3$[ebp]
	xor	ecx, DWORD PTR [edx+4]
	xor	eax, DWORD PTR [edx]
	shr	ebx, 24					; 00000018H
	xor	edi, DWORD PTR _Te0[ebx*4]
	mov	ebx, DWORD PTR _t2$[ebp]
	and	ebx, 255				; 000000ffH
	xor	edi, DWORD PTR _Te3[ebx*4]
	mov	ebx, ecx
	xor	edi, DWORD PTR [edx+12]
	shr	ebx, 16					; 00000010H
	mov	DWORD PTR _s3$[ebp], edi
	mov	edi, esi
	shr	edi, 8
	and	edi, 255				; 000000ffH
	mov	edi, DWORD PTR _Te2[edi*4]
	and	ebx, 255				; 000000ffH
	xor	edi, DWORD PTR _Te1[ebx*4]
	mov	ebx, eax
	shr	ebx, 24					; 00000018H
	xor	edi, DWORD PTR _Te0[ebx*4]
	mov	ebx, DWORD PTR _s3$[ebp]
	and	ebx, 255				; 000000ffH
	xor	edi, DWORD PTR _Te3[ebx*4]
	xor	edi, DWORD PTR [edx+16]
	mov	DWORD PTR _t0$[ebp], edi
	mov	edi, DWORD PTR _s3$[ebp]
	shr	edi, 8
	and	edi, 255				; 000000ffH

; 945  :       t1 =
; 946  :         Te0[(s1 >> 24)       ] ^
; 947  :         Te1[(s2 >> 16) & 0xff] ^
; 948  :         Te2[(s3 >>  8) & 0xff] ^
; 949  :         Te3[(s0      ) & 0xff] ^
; 950  :         rk[5];

	mov	edi, DWORD PTR _Te2[edi*4]
	mov	ebx, esi
	shr	ebx, 16					; 00000010H
	and	ebx, 255				; 000000ffH
	xor	edi, DWORD PTR _Te1[ebx*4]
	mov	ebx, ecx
	shr	ebx, 24					; 00000018H
	xor	edi, DWORD PTR _Te0[ebx*4]
	mov	ebx, eax
	and	ebx, 255				; 000000ffH
	xor	edi, DWORD PTR _Te3[ebx*4]

; 951  :       t2 =
; 952  :         Te0[(s2 >> 24)       ] ^
; 953  :         Te1[(s3 >> 16) & 0xff] ^
; 954  :         Te2[(s0 >>  8) & 0xff] ^
; 955  :         Te3[(s1      ) & 0xff] ^
; 956  :         rk[6];

	mov	ebx, eax
	xor	edi, DWORD PTR [edx+20]
	shr	ebx, 8
	mov	DWORD PTR _t1$[ebp], edi
	mov	edi, DWORD PTR _s3$[ebp]
	shr	edi, 16					; 00000010H
	and	edi, 255				; 000000ffH
	mov	edi, DWORD PTR _Te1[edi*4]
	and	ebx, 255				; 000000ffH
	xor	edi, DWORD PTR _Te2[ebx*4]
	mov	ebx, esi
	shr	ebx, 24					; 00000018H
	xor	edi, DWORD PTR _Te0[ebx*4]
	mov	ebx, ecx

; 957  :       t3 =
; 958  :         Te0[(s3 >> 24)       ] ^
; 959  :         Te1[(s0 >> 16) & 0xff] ^
; 960  :         Te2[(s1 >>  8) & 0xff] ^
; 961  :         Te3[(s2      ) & 0xff] ^
; 962  :         rk[7];

	shr	ecx, 8
	and	ecx, 255				; 000000ffH
	mov	ecx, DWORD PTR _Te2[ecx*4]
	shr	eax, 16					; 00000010H
	and	eax, 255				; 000000ffH
	xor	ecx, DWORD PTR _Te1[eax*4]
	mov	eax, DWORD PTR _s3$[ebp]
	shr	eax, 24					; 00000018H
	xor	ecx, DWORD PTR _Te0[eax*4]
	and	ebx, 255				; 000000ffH
	xor	edi, DWORD PTR _Te3[ebx*4]
	and	esi, 255				; 000000ffH
	xor	edi, DWORD PTR [edx+24]
	xor	ecx, DWORD PTR _Te3[esi*4]

; 963  :         rk += 8;

	add	edx, 32					; 00000020H
	xor	ecx, DWORD PTR [edx-4]

; 964  :         if (--r == 0)

	dec	DWORD PTR _r$[ebp]
	mov	ebx, edi
	mov	DWORD PTR _t2$[ebp], edi
	mov	edi, DWORD PTR _t0$[ebp]
	mov	esi, ecx
	mov	DWORD PTR _t3$[ebp], ecx
	jne	$LL10@rijndaelEn
$LN11@rijndaelEn:

; 990  :      }
; 991  :  #endif /* ?FULL_UNROLL */
; 992  :   /*
; 993  :   * apply last round and
; 994  :   * map cipher state to byte array block:
; 995  :   */
; 996  :   s0 =
; 997  :     (Te4[(t0 >> 24)       ] & 0xff000000) ^
; 998  :     (Te4[(t1 >> 16) & 0xff] & 0x00ff0000) ^
; 999  :     (Te4[(t2 >>  8) & 0xff] & 0x0000ff00) ^
; 1000 :     (Te4[(t3      ) & 0xff] & 0x000000ff) ^
; 1001 :     rk[0];

	mov	eax, DWORD PTR _t1$[ebp]
	shr	eax, 16					; 00000010H
	and	eax, 255				; 000000ffH
	mov	eax, DWORD PTR _Te4[eax*4]
	and	eax, 16711680				; 00ff0000H
	mov	ecx, ebx
	shr	ecx, 8
	and	ecx, 255				; 000000ffH
	mov	ecx, DWORD PTR _Te4[ecx*4]
	and	ecx, 65280				; 0000ff00H
	xor	eax, ecx
	mov	ecx, edi
	shr	ecx, 24					; 00000018H
	mov	ecx, DWORD PTR _Te4[ecx*4]
	and	ecx, -16777216				; ff000000H
	xor	eax, ecx
	mov	ecx, esi
	and	ecx, 255				; 000000ffH
	movzx	ecx, BYTE PTR _Te4[ecx*4]
	xor	eax, ecx
	xor	eax, DWORD PTR [edx]
	mov	DWORD PTR _s0$[ebp], eax

; 1002 :   PUTU32(ciphertext     , s0);

	mov	ecx, eax
	mov	eax, DWORD PTR _ciphertext$[ebp]
	shr	ecx, 24					; 00000018H
	mov	BYTE PTR [eax], cl
	mov	ecx, DWORD PTR _s0$[ebp]
	shr	ecx, 16					; 00000010H
	mov	BYTE PTR [eax+1], cl
	mov	ecx, DWORD PTR _s0$[ebp]
	shr	ecx, 8
	mov	BYTE PTR [eax+2], cl
	movzx	ecx, BYTE PTR _s0$[ebp]
	mov	BYTE PTR [eax+3], cl

; 1003 :   s1 =
; 1004 :     (Te4[(t1 >> 24)       ] & 0xff000000) ^
; 1005 :     (Te4[(t2 >> 16) & 0xff] & 0x00ff0000) ^
; 1006 :     (Te4[(t3 >>  8) & 0xff] & 0x0000ff00) ^
; 1007 :     (Te4[(t0      ) & 0xff] & 0x000000ff) ^
; 1008 :     rk[1];

	mov	eax, ebx
	shr	eax, 16					; 00000010H
	and	eax, 255				; 000000ffH
	mov	eax, DWORD PTR _Te4[eax*4]
	and	eax, 16711680				; 00ff0000H
	mov	ecx, esi
	shr	ecx, 8
	and	ecx, 255				; 000000ffH
	mov	ecx, DWORD PTR _Te4[ecx*4]
	and	ecx, 65280				; 0000ff00H
	xor	eax, ecx
	mov	ecx, DWORD PTR _t1$[ebp]
	shr	ecx, 24					; 00000018H
	mov	ecx, DWORD PTR _Te4[ecx*4]
	and	ecx, -16777216				; ff000000H
	xor	eax, ecx
	mov	ecx, edi
	and	ecx, 255				; 000000ffH
	movzx	ecx, BYTE PTR _Te4[ecx*4]
	xor	eax, ecx
	xor	eax, DWORD PTR [edx+4]
	mov	DWORD PTR _s1$[ebp], eax

; 1009 :   PUTU32(ciphertext +  4, s1);

	mov	ecx, eax
	mov	eax, DWORD PTR _ciphertext$[ebp]
	shr	ecx, 24					; 00000018H
	mov	BYTE PTR [eax+4], cl
	mov	ecx, DWORD PTR _s1$[ebp]
	shr	ecx, 16					; 00000010H
	mov	BYTE PTR [eax+5], cl
	mov	ecx, DWORD PTR _s1$[ebp]
	shr	ecx, 8
	mov	BYTE PTR [eax+6], cl
	movzx	ecx, BYTE PTR _s1$[ebp]
	mov	BYTE PTR [eax+7], cl

; 1010 :   s2 =
; 1011 :     (Te4[(t2 >> 24)       ] & 0xff000000) ^
; 1012 :     (Te4[(t3 >> 16) & 0xff] & 0x00ff0000) ^
; 1013 :     (Te4[(t0 >>  8) & 0xff] & 0x0000ff00) ^
; 1014 :     (Te4[(t1      ) & 0xff] & 0x000000ff) ^
; 1015 :     rk[2];

	mov	eax, esi
	shr	eax, 16					; 00000010H
	mov	ecx, edi
	shr	ecx, 8
	and	eax, 255				; 000000ffH
	mov	eax, DWORD PTR _Te4[eax*4]
	and	ecx, 255				; 000000ffH
	mov	ecx, DWORD PTR _Te4[ecx*4]
	and	ecx, 65280				; 0000ff00H
	and	eax, 16711680				; 00ff0000H
	xor	eax, ecx
	mov	ecx, ebx
	shr	ecx, 24					; 00000018H
	mov	ecx, DWORD PTR _Te4[ecx*4]
	and	ecx, -16777216				; ff000000H
	xor	eax, ecx
	mov	ecx, DWORD PTR _t1$[ebp]
	and	ecx, 255				; 000000ffH
	movzx	ecx, BYTE PTR _Te4[ecx*4]
	xor	eax, ecx
	xor	eax, DWORD PTR [edx+8]

; 1016 :   PUTU32(ciphertext +  8, s2);
; 1017 :   s3 =
; 1018 :     (Te4[(t3 >> 24)       ] & 0xff000000) ^
; 1019 :     (Te4[(t0 >> 16) & 0xff] & 0x00ff0000) ^
; 1020 :     (Te4[(t1 >>  8) & 0xff] & 0x0000ff00) ^
; 1021 :     (Te4[(t2      ) & 0xff] & 0x000000ff) ^
; 1022 :     rk[3];

	shr	edi, 16					; 00000010H
	mov	DWORD PTR _s2$[ebp], eax
	mov	ecx, eax
	mov	eax, DWORD PTR _ciphertext$[ebp]
	shr	ecx, 24					; 00000018H
	mov	BYTE PTR [eax+8], cl
	mov	ecx, DWORD PTR _s2$[ebp]
	shr	ecx, 16					; 00000010H
	mov	BYTE PTR [eax+9], cl
	mov	ecx, DWORD PTR _s2$[ebp]
	shr	ecx, 8
	mov	BYTE PTR [eax+10], cl
	movzx	ecx, BYTE PTR _s2$[ebp]
	mov	BYTE PTR [eax+11], cl
	and	edi, 255				; 000000ffH
	mov	ecx, DWORD PTR _Te4[edi*4]
	mov	edi, DWORD PTR _t1$[ebp]
	shr	edi, 8
	and	edi, 255				; 000000ffH
	mov	edi, DWORD PTR _Te4[edi*4]
	shr	esi, 24					; 00000018H
	mov	esi, DWORD PTR _Te4[esi*4]
	and	ecx, 16711680				; 00ff0000H
	and	edi, 65280				; 0000ff00H
	xor	ecx, edi
	and	esi, -16777216				; ff000000H
	xor	ecx, esi
	and	ebx, 255				; 000000ffH
	movzx	esi, BYTE PTR _Te4[ebx*4]
	xor	ecx, esi
	xor	ecx, DWORD PTR [edx+12]
	pop	edi

; 1023 :   PUTU32(ciphertext + 12, s3);

	mov	edx, ecx
	shr	edx, 24					; 00000018H
	mov	BYTE PTR [eax+12], dl
	mov	edx, ecx
	shr	edx, 16					; 00000010H
	mov	BYTE PTR [eax+13], dl
	mov	edx, ecx
	shr	edx, 8
	pop	esi
	mov	BYTE PTR [eax+14], dl
	mov	BYTE PTR [eax+15], cl
	pop	ebx

; 1024 : }

	mov	esp, ebp
	pop	ebp
	ret	0
?rijndaelEncrypt@@YAXPBKHQBEQAE@Z ENDP			; rijndaelEncrypt
_TEXT	ENDS
PUBLIC	?rijndaelDecrypt@@YAXPBKHQBEQAE@Z		; rijndaelDecrypt
; Function compile flags: /Ogtp
;	COMDAT ?rijndaelDecrypt@@YAXPBKHQBEQAE@Z
_TEXT	SEGMENT
tv1171 = -12						; size = 4
tv1169 = -12						; size = 4
_t0$ = -8						; size = 4
_s3$ = -4						; size = 4
_t3$ = 8						; size = 4
_s2$ = 8						; size = 4
_s1$ = 8						; size = 4
_s0$ = 8						; size = 4
_rk$ = 8						; size = 4
_r$ = 12						; size = 4
_nrounds$ = 12						; size = 4
tv1173 = 16						; size = 4
_t1$ = 16						; size = 4
_ciphertext$ = 16					; size = 4
_plaintext$ = 20					; size = 4
?rijndaelDecrypt@@YAXPBKHQBEQAE@Z PROC			; rijndaelDecrypt, COMDAT

; 1028 : {

	push	ebp
	mov	ebp, esp
	sub	esp, 12					; 0000000cH

; 1029 :   u32 s0, s1, s2, s3, t0, t1, t2, t3;
; 1030 :   #ifndef FULL_UNROLL
; 1031 :     int r;
; 1032 :   #endif /* ?FULL_UNROLL */
; 1033 : 
; 1034 :   /*
; 1035 :   * map byte array block to cipher state
; 1036 :   * and add initial round key:
; 1037 :   */
; 1038 :     s0 = GETU32(ciphertext     ) ^ rk[0];

	push	ebx

; 1039 :     s1 = GETU32(ciphertext +  4) ^ rk[1];
; 1040 :     s2 = GETU32(ciphertext +  8) ^ rk[2];

	push	esi
	push	edi

; 1029 :   u32 s0, s1, s2, s3, t0, t1, t2, t3;
; 1030 :   #ifndef FULL_UNROLL
; 1031 :     int r;
; 1032 :   #endif /* ?FULL_UNROLL */
; 1033 : 
; 1034 :   /*
; 1035 :   * map byte array block to cipher state
; 1036 :   * and add initial round key:
; 1037 :   */
; 1038 :     s0 = GETU32(ciphertext     ) ^ rk[0];

	mov	eax, DWORD PTR _ciphertext$[ebp]
	movzx	ecx, BYTE PTR [eax]
	movzx	edx, BYTE PTR [eax+1]
	shl	ecx, 8
	xor	ecx, edx
	movzx	edx, BYTE PTR [eax+2]
	shl	ecx, 8
	xor	ecx, edx
	movzx	edx, BYTE PTR [eax+3]
	shl	ecx, 8
	xor	ecx, edx
	mov	edx, DWORD PTR _rk$[ebp]
	xor	ecx, DWORD PTR [edx]

; 1039 :     s1 = GETU32(ciphertext +  4) ^ rk[1];
; 1040 :     s2 = GETU32(ciphertext +  8) ^ rk[2];

	movzx	ebx, BYTE PTR [eax+8]
	mov	DWORD PTR _s0$[ebp], ecx
	movzx	ecx, BYTE PTR [eax+5]
	movzx	esi, BYTE PTR [eax+4]
	shl	esi, 8
	xor	esi, ecx
	movzx	ecx, BYTE PTR [eax+6]
	shl	esi, 8
	xor	esi, ecx
	movzx	ecx, BYTE PTR [eax+7]
	shl	esi, 8
	xor	esi, ecx
	movzx	ecx, BYTE PTR [eax+9]
	shl	ebx, 8
	xor	ebx, ecx
	movzx	ecx, BYTE PTR [eax+10]

; 1041 :     s3 = GETU32(ciphertext + 12) ^ rk[3];

	movzx	edi, BYTE PTR [eax+12]
	shl	ebx, 8
	xor	ebx, ecx
	movzx	ecx, BYTE PTR [eax+11]
	shl	edi, 8
	xor	esi, DWORD PTR [edx+4]
	shl	ebx, 8
	xor	ebx, ecx
	movzx	ecx, BYTE PTR [eax+13]
	xor	ebx, DWORD PTR [edx+8]
	xor	edi, ecx
	movzx	ecx, BYTE PTR [eax+14]
	movzx	eax, BYTE PTR [eax+15]
	shl	edi, 8
	xor	edi, ecx
	shl	edi, 8
	xor	edi, eax
	xor	edi, DWORD PTR [edx+12]

; 1042 :   #ifdef FULL_UNROLL
; 1043 :     /* round 1: */
; 1044 :     t0 = Td0[s0 >> 24] ^ Td1[(s3 >> 16) & 0xff] ^ Td2[(s2 >>  8) & 0xff] ^ Td3[s1 & 0xff] ^ rk[ 4];
; 1045 :     t1 = Td0[s1 >> 24] ^ Td1[(s0 >> 16) & 0xff] ^ Td2[(s3 >>  8) & 0xff] ^ Td3[s2 & 0xff] ^ rk[ 5];
; 1046 :     t2 = Td0[s2 >> 24] ^ Td1[(s1 >> 16) & 0xff] ^ Td2[(s0 >>  8) & 0xff] ^ Td3[s3 & 0xff] ^ rk[ 6];
; 1047 :     t3 = Td0[s3 >> 24] ^ Td1[(s2 >> 16) & 0xff] ^ Td2[(s1 >>  8) & 0xff] ^ Td3[s0 & 0xff] ^ rk[ 7];
; 1048 :     /* round 2: */
; 1049 :     s0 = Td0[t0 >> 24] ^ Td1[(t3 >> 16) & 0xff] ^ Td2[(t2 >>  8) & 0xff] ^ Td3[t1 & 0xff] ^ rk[ 8];
; 1050 :     s1 = Td0[t1 >> 24] ^ Td1[(t0 >> 16) & 0xff] ^ Td2[(t3 >>  8) & 0xff] ^ Td3[t2 & 0xff] ^ rk[ 9];
; 1051 :     s2 = Td0[t2 >> 24] ^ Td1[(t1 >> 16) & 0xff] ^ Td2[(t0 >>  8) & 0xff] ^ Td3[t3 & 0xff] ^ rk[10];
; 1052 :     s3 = Td0[t3 >> 24] ^ Td1[(t2 >> 16) & 0xff] ^ Td2[(t1 >>  8) & 0xff] ^ Td3[t0 & 0xff] ^ rk[11];
; 1053 :     /* round 3: */
; 1054 :     t0 = Td0[s0 >> 24] ^ Td1[(s3 >> 16) & 0xff] ^ Td2[(s2 >>  8) & 0xff] ^ Td3[s1 & 0xff] ^ rk[12];
; 1055 :     t1 = Td0[s1 >> 24] ^ Td1[(s0 >> 16) & 0xff] ^ Td2[(s3 >>  8) & 0xff] ^ Td3[s2 & 0xff] ^ rk[13];
; 1056 :     t2 = Td0[s2 >> 24] ^ Td1[(s1 >> 16) & 0xff] ^ Td2[(s0 >>  8) & 0xff] ^ Td3[s3 & 0xff] ^ rk[14];
; 1057 :     t3 = Td0[s3 >> 24] ^ Td1[(s2 >> 16) & 0xff] ^ Td2[(s1 >>  8) & 0xff] ^ Td3[s0 & 0xff] ^ rk[15];
; 1058 :     /* round 4: */
; 1059 :     s0 = Td0[t0 >> 24] ^ Td1[(t3 >> 16) & 0xff] ^ Td2[(t2 >>  8) & 0xff] ^ Td3[t1 & 0xff] ^ rk[16];
; 1060 :     s1 = Td0[t1 >> 24] ^ Td1[(t0 >> 16) & 0xff] ^ Td2[(t3 >>  8) & 0xff] ^ Td3[t2 & 0xff] ^ rk[17];
; 1061 :     s2 = Td0[t2 >> 24] ^ Td1[(t1 >> 16) & 0xff] ^ Td2[(t0 >>  8) & 0xff] ^ Td3[t3 & 0xff] ^ rk[18];
; 1062 :     s3 = Td0[t3 >> 24] ^ Td1[(t2 >> 16) & 0xff] ^ Td2[(t1 >>  8) & 0xff] ^ Td3[t0 & 0xff] ^ rk[19];
; 1063 :     /* round 5: */
; 1064 :     t0 = Td0[s0 >> 24] ^ Td1[(s3 >> 16) & 0xff] ^ Td2[(s2 >>  8) & 0xff] ^ Td3[s1 & 0xff] ^ rk[20];
; 1065 :     t1 = Td0[s1 >> 24] ^ Td1[(s0 >> 16) & 0xff] ^ Td2[(s3 >>  8) & 0xff] ^ Td3[s2 & 0xff] ^ rk[21];
; 1066 :     t2 = Td0[s2 >> 24] ^ Td1[(s1 >> 16) & 0xff] ^ Td2[(s0 >>  8) & 0xff] ^ Td3[s3 & 0xff] ^ rk[22];
; 1067 :     t3 = Td0[s3 >> 24] ^ Td1[(s2 >> 16) & 0xff] ^ Td2[(s1 >>  8) & 0xff] ^ Td3[s0 & 0xff] ^ rk[23];
; 1068 :     /* round 6: */
; 1069 :     s0 = Td0[t0 >> 24] ^ Td1[(t3 >> 16) & 0xff] ^ Td2[(t2 >>  8) & 0xff] ^ Td3[t1 & 0xff] ^ rk[24];
; 1070 :     s1 = Td0[t1 >> 24] ^ Td1[(t0 >> 16) & 0xff] ^ Td2[(t3 >>  8) & 0xff] ^ Td3[t2 & 0xff] ^ rk[25];
; 1071 :     s2 = Td0[t2 >> 24] ^ Td1[(t1 >> 16) & 0xff] ^ Td2[(t0 >>  8) & 0xff] ^ Td3[t3 & 0xff] ^ rk[26];
; 1072 :     s3 = Td0[t3 >> 24] ^ Td1[(t2 >> 16) & 0xff] ^ Td2[(t1 >>  8) & 0xff] ^ Td3[t0 & 0xff] ^ rk[27];
; 1073 :     /* round 7: */
; 1074 :     t0 = Td0[s0 >> 24] ^ Td1[(s3 >> 16) & 0xff] ^ Td2[(s2 >>  8) & 0xff] ^ Td3[s1 & 0xff] ^ rk[28];
; 1075 :     t1 = Td0[s1 >> 24] ^ Td1[(s0 >> 16) & 0xff] ^ Td2[(s3 >>  8) & 0xff] ^ Td3[s2 & 0xff] ^ rk[29];
; 1076 :     t2 = Td0[s2 >> 24] ^ Td1[(s1 >> 16) & 0xff] ^ Td2[(s0 >>  8) & 0xff] ^ Td3[s3 & 0xff] ^ rk[30];
; 1077 :     t3 = Td0[s3 >> 24] ^ Td1[(s2 >> 16) & 0xff] ^ Td2[(s1 >>  8) & 0xff] ^ Td3[s0 & 0xff] ^ rk[31];
; 1078 :     /* round 8: */
; 1079 :     s0 = Td0[t0 >> 24] ^ Td1[(t3 >> 16) & 0xff] ^ Td2[(t2 >>  8) & 0xff] ^ Td3[t1 & 0xff] ^ rk[32];
; 1080 :     s1 = Td0[t1 >> 24] ^ Td1[(t0 >> 16) & 0xff] ^ Td2[(t3 >>  8) & 0xff] ^ Td3[t2 & 0xff] ^ rk[33];
; 1081 :     s2 = Td0[t2 >> 24] ^ Td1[(t1 >> 16) & 0xff] ^ Td2[(t0 >>  8) & 0xff] ^ Td3[t3 & 0xff] ^ rk[34];
; 1082 :     s3 = Td0[t3 >> 24] ^ Td1[(t2 >> 16) & 0xff] ^ Td2[(t1 >>  8) & 0xff] ^ Td3[t0 & 0xff] ^ rk[35];
; 1083 :     /* round 9: */
; 1084 :     t0 = Td0[s0 >> 24] ^ Td1[(s3 >> 16) & 0xff] ^ Td2[(s2 >>  8) & 0xff] ^ Td3[s1 & 0xff] ^ rk[36];
; 1085 :     t1 = Td0[s1 >> 24] ^ Td1[(s0 >> 16) & 0xff] ^ Td2[(s3 >>  8) & 0xff] ^ Td3[s2 & 0xff] ^ rk[37];
; 1086 :     t2 = Td0[s2 >> 24] ^ Td1[(s1 >> 16) & 0xff] ^ Td2[(s0 >>  8) & 0xff] ^ Td3[s3 & 0xff] ^ rk[38];
; 1087 :     t3 = Td0[s3 >> 24] ^ Td1[(s2 >> 16) & 0xff] ^ Td2[(s1 >>  8) & 0xff] ^ Td3[s0 & 0xff] ^ rk[39];
; 1088 :     if (nrounds > 10)
; 1089 :     {
; 1090 :       /* round 10: */
; 1091 :       s0 = Td0[t0 >> 24] ^ Td1[(t3 >> 16) & 0xff] ^ Td2[(t2 >>  8) & 0xff] ^ Td3[t1 & 0xff] ^ rk[40];
; 1092 :       s1 = Td0[t1 >> 24] ^ Td1[(t0 >> 16) & 0xff] ^ Td2[(t3 >>  8) & 0xff] ^ Td3[t2 & 0xff] ^ rk[41];
; 1093 :       s2 = Td0[t2 >> 24] ^ Td1[(t1 >> 16) & 0xff] ^ Td2[(t0 >>  8) & 0xff] ^ Td3[t3 & 0xff] ^ rk[42];
; 1094 :       s3 = Td0[t3 >> 24] ^ Td1[(t2 >> 16) & 0xff] ^ Td2[(t1 >>  8) & 0xff] ^ Td3[t0 & 0xff] ^ rk[43];
; 1095 :       /* round 11: */
; 1096 :       t0 = Td0[s0 >> 24] ^ Td1[(s3 >> 16) & 0xff] ^ Td2[(s2 >>  8) & 0xff] ^ Td3[s1 & 0xff] ^ rk[44];
; 1097 :       t1 = Td0[s1 >> 24] ^ Td1[(s0 >> 16) & 0xff] ^ Td2[(s3 >>  8) & 0xff] ^ Td3[s2 & 0xff] ^ rk[45];
; 1098 :       t2 = Td0[s2 >> 24] ^ Td1[(s1 >> 16) & 0xff] ^ Td2[(s0 >>  8) & 0xff] ^ Td3[s3 & 0xff] ^ rk[46];
; 1099 :       t3 = Td0[s3 >> 24] ^ Td1[(s2 >> 16) & 0xff] ^ Td2[(s1 >>  8) & 0xff] ^ Td3[s0 & 0xff] ^ rk[47];
; 1100 :       if (nrounds > 12)
; 1101 :       {
; 1102 :         /* round 12: */
; 1103 :         s0 = Td0[t0 >> 24] ^ Td1[(t3 >> 16) & 0xff] ^ Td2[(t2 >>  8) & 0xff] ^ Td3[t1 & 0xff] ^ rk[48];
; 1104 :         s1 = Td0[t1 >> 24] ^ Td1[(t0 >> 16) & 0xff] ^ Td2[(t3 >>  8) & 0xff] ^ Td3[t2 & 0xff] ^ rk[49];
; 1105 :         s2 = Td0[t2 >> 24] ^ Td1[(t1 >> 16) & 0xff] ^ Td2[(t0 >>  8) & 0xff] ^ Td3[t3 & 0xff] ^ rk[50];
; 1106 :         s3 = Td0[t3 >> 24] ^ Td1[(t2 >> 16) & 0xff] ^ Td2[(t1 >>  8) & 0xff] ^ Td3[t0 & 0xff] ^ rk[51];
; 1107 :         /* round 13: */
; 1108 :         t0 = Td0[s0 >> 24] ^ Td1[(s3 >> 16) & 0xff] ^ Td2[(s2 >>  8) & 0xff] ^ Td3[s1 & 0xff] ^ rk[52];
; 1109 :         t1 = Td0[s1 >> 24] ^ Td1[(s0 >> 16) & 0xff] ^ Td2[(s3 >>  8) & 0xff] ^ Td3[s2 & 0xff] ^ rk[53];
; 1110 :         t2 = Td0[s2 >> 24] ^ Td1[(s1 >> 16) & 0xff] ^ Td2[(s0 >>  8) & 0xff] ^ Td3[s3 & 0xff] ^ rk[54];
; 1111 :         t3 = Td0[s3 >> 24] ^ Td1[(s2 >> 16) & 0xff] ^ Td2[(s1 >>  8) & 0xff] ^ Td3[s0 & 0xff] ^ rk[55];
; 1112 :       }
; 1113 :     }
; 1114 :     rk += nrounds << 2;
; 1115 :   #else  /* !FULL_UNROLL */
; 1116 :     /*
; 1117 :     * nrounds - 1 full rounds:
; 1118 :     */
; 1119 :     r = nrounds >> 1;
; 1120 :     for (;;)
; 1121 :     {
; 1122 :       t0 =
; 1123 :         Td0[(s0 >> 24)       ] ^
; 1124 :         Td1[(s3 >> 16) & 0xff] ^
; 1125 :         Td2[(s2 >>  8) & 0xff] ^
; 1126 :         Td3[(s1      ) & 0xff] ^
; 1127 :         rk[4];

	mov	eax, ebx
	mov	ecx, edi
	shr	eax, 8
	and	eax, 255				; 000000ffH
	shr	ecx, 16					; 00000010H
	and	ecx, 255				; 000000ffH
	mov	ecx, DWORD PTR _Td1[ecx*4]
	xor	ecx, DWORD PTR _Td2[eax*4]
	mov	eax, DWORD PTR _s0$[ebp]
	shr	eax, 24					; 00000018H
	xor	ecx, DWORD PTR _Td0[eax*4]
	mov	eax, esi
	and	eax, 255				; 000000ffH
	xor	ecx, DWORD PTR _Td3[eax*4]

; 1128 :       t1 =
; 1129 :         Td0[(s1 >> 24)       ] ^
; 1130 :         Td1[(s0 >> 16) & 0xff] ^
; 1131 :         Td2[(s3 >>  8) & 0xff] ^
; 1132 :         Td3[(s2      ) & 0xff] ^
; 1133 :         rk[5];

	mov	eax, DWORD PTR _s0$[ebp]
	xor	ecx, DWORD PTR [edx+16]
	mov	DWORD PTR _s3$[ebp], edi
	shr	edi, 8
	shr	eax, 16					; 00000010H
	and	edi, 255				; 000000ffH
	and	eax, 255				; 000000ffH
	mov	DWORD PTR tv1173[ebp], eax
	mov	eax, DWORD PTR _Td2[edi*4]
	mov	edi, DWORD PTR tv1173[ebp]
	xor	eax, DWORD PTR _Td1[edi*4]
	mov	edi, esi
	shr	edi, 24					; 00000018H
	xor	eax, DWORD PTR _Td0[edi*4]
	mov	edi, ebx
	mov	DWORD PTR _t0$[ebp], ecx
	and	edi, 255				; 000000ffH
	xor	eax, DWORD PTR _Td3[edi*4]

; 1134 :       t2 =
; 1135 :         Td0[(s2 >> 24)       ] ^
; 1136 :         Td1[(s1 >> 16) & 0xff] ^
; 1137 :         Td2[(s0 >>  8) & 0xff] ^
; 1138 :         Td3[(s3      ) & 0xff] ^
; 1139 :         rk[6];

	mov	edi, DWORD PTR _s0$[ebp]
	xor	eax, DWORD PTR [edx+20]
	shr	edi, 8
	mov	DWORD PTR _t1$[ebp], eax
	mov	eax, esi
	shr	eax, 16					; 00000010H
	and	eax, 255				; 000000ffH
	and	edi, 255				; 000000ffH
	mov	DWORD PTR tv1171[ebp], edi
	mov	edi, DWORD PTR _Td1[eax*4]
	mov	eax, DWORD PTR tv1171[ebp]
	xor	edi, DWORD PTR _Td2[eax*4]
	mov	eax, ebx
	shr	eax, 24					; 00000018H
	xor	edi, DWORD PTR _Td0[eax*4]
	mov	eax, DWORD PTR _s3$[ebp]
	and	eax, 255				; 000000ffH
	xor	edi, DWORD PTR _Td3[eax*4]

; 1140 :       t3 =
; 1141 :         Td0[(s3 >> 24)       ] ^
; 1142 :         Td1[(s2 >> 16) & 0xff] ^
; 1143 :         Td2[(s1 >>  8) & 0xff] ^
; 1144 :         Td3[(s0      ) & 0xff] ^
; 1145 :         rk[7];

	shr	esi, 8
	xor	edi, DWORD PTR [edx+24]
	and	esi, 255				; 000000ffH
	shr	ebx, 16					; 00000010H
	and	ebx, 255				; 000000ffH
	mov	eax, DWORD PTR _Td1[ebx*4]
	xor	eax, DWORD PTR _Td2[esi*4]
	mov	esi, DWORD PTR _s3$[ebp]
	shr	esi, 24					; 00000018H
	xor	eax, DWORD PTR _Td0[esi*4]
	mov	esi, DWORD PTR _s0$[ebp]
	and	esi, 255				; 000000ffH
	xor	eax, DWORD PTR _Td3[esi*4]
	mov	esi, DWORD PTR _nrounds$[ebp]
	xor	eax, DWORD PTR [edx+28]
	sar	esi, 1

; 1146 :       rk += 8;

	add	edx, 32					; 00000020H

; 1147 :       if (--r == 0)

	dec	esi
	mov	DWORD PTR _t3$[ebp], eax
	mov	DWORD PTR _r$[ebp], esi
	je	$LN8@rijndaelDe
$LL10@rijndaelDe:

; 1148 :           break;
; 1149 :       s0 =
; 1150 :         Td0[(t0 >> 24)       ] ^
; 1151 :         Td1[(t3 >> 16) & 0xff] ^
; 1152 :         Td2[(t2 >>  8) & 0xff] ^
; 1153 :         Td3[(t1      ) & 0xff] ^
; 1154 :         rk[0];

	mov	ebx, edi
	shr	ebx, 8
	and	ebx, 255				; 000000ffH
	mov	esi, eax
	shr	esi, 16					; 00000010H
	and	esi, 255				; 000000ffH
	mov	esi, DWORD PTR _Td1[esi*4]
	xor	esi, DWORD PTR _Td2[ebx*4]
	mov	ebx, ecx
	shr	ebx, 24					; 00000018H
	xor	esi, DWORD PTR _Td0[ebx*4]
	mov	ebx, DWORD PTR _t1$[ebp]
	and	ebx, 255				; 000000ffH
	xor	esi, DWORD PTR _Td3[ebx*4]

; 1155 :       s1 =
; 1156 :         Td0[(t1 >> 24)       ] ^
; 1157 :         Td1[(t0 >> 16) & 0xff] ^
; 1158 :         Td2[(t3 >>  8) & 0xff] ^
; 1159 :         Td3[(t2      ) & 0xff] ^
; 1160 :         rk[1];

	mov	ebx, ecx
	shr	ebx, 16					; 00000010H
	and	ebx, 255				; 000000ffH
	shr	eax, 8
	and	eax, 255				; 000000ffH
	mov	eax, DWORD PTR _Td2[eax*4]
	xor	eax, DWORD PTR _Td1[ebx*4]
	mov	ebx, DWORD PTR _t1$[ebp]
	shr	ebx, 24					; 00000018H
	xor	eax, DWORD PTR _Td0[ebx*4]
	mov	ebx, edi
	and	ebx, 255				; 000000ffH
	xor	eax, DWORD PTR _Td3[ebx*4]

; 1161 :       s2 =
; 1162 :         Td0[(t2 >> 24)       ] ^
; 1163 :         Td1[(t1 >> 16) & 0xff] ^
; 1164 :         Td2[(t0 >>  8) & 0xff] ^
; 1165 :         Td3[(t3      ) & 0xff] ^
; 1166 :         rk[2];

	mov	ebx, DWORD PTR _t1$[ebp]
	shr	ebx, 16					; 00000010H
	and	ebx, 255				; 000000ffH
	shr	ecx, 8
	and	ecx, 255				; 000000ffH
	mov	DWORD PTR tv1169[ebp], ecx
	mov	ecx, DWORD PTR _Td1[ebx*4]
	mov	ebx, DWORD PTR tv1169[ebp]
	xor	ecx, DWORD PTR _Td2[ebx*4]
	mov	ebx, edi
	shr	ebx, 24					; 00000018H
	xor	ecx, DWORD PTR _Td0[ebx*4]
	mov	ebx, DWORD PTR _t3$[ebp]
	and	ebx, 255				; 000000ffH
	xor	ecx, DWORD PTR _Td3[ebx*4]

; 1167 :       s3 =
; 1168 :         Td0[(t3 >> 24)       ] ^
; 1169 :         Td1[(t2 >> 16) & 0xff] ^
; 1170 :         Td2[(t1 >>  8) & 0xff] ^
; 1171 :         Td3[(t0      ) & 0xff] ^
; 1172 :         rk[3];

	mov	ebx, DWORD PTR _t1$[ebp]
	shr	edi, 16					; 00000010H
	xor	ecx, DWORD PTR [edx+8]
	and	edi, 255				; 000000ffH
	mov	edi, DWORD PTR _Td1[edi*4]
	shr	ebx, 8
	and	ebx, 255				; 000000ffH
	xor	edi, DWORD PTR _Td2[ebx*4]
	mov	ebx, DWORD PTR _t3$[ebp]
	xor	esi, DWORD PTR [edx]
	shr	ebx, 24					; 00000018H
	xor	edi, DWORD PTR _Td0[ebx*4]
	mov	ebx, DWORD PTR _t0$[ebp]
	xor	eax, DWORD PTR [edx+4]
	and	ebx, 255				; 000000ffH
	xor	edi, DWORD PTR _Td3[ebx*4]
	mov	ebx, ecx
	xor	edi, DWORD PTR [edx+12]
	shr	ebx, 8
	mov	DWORD PTR _s3$[ebp], edi
	shr	edi, 16					; 00000010H
	and	edi, 255				; 000000ffH
	mov	edi, DWORD PTR _Td1[edi*4]
	and	ebx, 255				; 000000ffH
	xor	edi, DWORD PTR _Td2[ebx*4]
	mov	ebx, esi
	shr	ebx, 24					; 00000018H
	xor	edi, DWORD PTR _Td0[ebx*4]
	mov	ebx, eax
	and	ebx, 255				; 000000ffH
	xor	edi, DWORD PTR _Td3[ebx*4]
	mov	ebx, esi
	xor	edi, DWORD PTR [edx+16]
	shr	ebx, 16					; 00000010H
	mov	DWORD PTR _t0$[ebp], edi
	mov	edi, DWORD PTR _s3$[ebp]
	shr	edi, 8
	and	edi, 255				; 000000ffH
	and	ebx, 255				; 000000ffH

; 1128 :       t1 =
; 1129 :         Td0[(s1 >> 24)       ] ^
; 1130 :         Td1[(s0 >> 16) & 0xff] ^
; 1131 :         Td2[(s3 >>  8) & 0xff] ^
; 1132 :         Td3[(s2      ) & 0xff] ^
; 1133 :         rk[5];

	mov	edi, DWORD PTR _Td2[edi*4]
	xor	edi, DWORD PTR _Td1[ebx*4]
	mov	ebx, eax
	shr	ebx, 24					; 00000018H
	xor	edi, DWORD PTR _Td0[ebx*4]
	mov	ebx, ecx
	and	ebx, 255				; 000000ffH
	xor	edi, DWORD PTR _Td3[ebx*4]

; 1134 :       t2 =
; 1135 :         Td0[(s2 >> 24)       ] ^
; 1136 :         Td1[(s1 >> 16) & 0xff] ^
; 1137 :         Td2[(s0 >>  8) & 0xff] ^
; 1138 :         Td3[(s3      ) & 0xff] ^
; 1139 :         rk[6];

	mov	ebx, esi
	xor	edi, DWORD PTR [edx+20]
	shr	ebx, 8
	mov	DWORD PTR _t1$[ebp], edi
	mov	edi, eax
	shr	edi, 16					; 00000010H
	and	edi, 255				; 000000ffH
	mov	edi, DWORD PTR _Td1[edi*4]
	and	ebx, 255				; 000000ffH
	xor	edi, DWORD PTR _Td2[ebx*4]
	mov	ebx, ecx

; 1140 :       t3 =
; 1141 :         Td0[(s3 >> 24)       ] ^
; 1142 :         Td1[(s2 >> 16) & 0xff] ^
; 1143 :         Td2[(s1 >>  8) & 0xff] ^
; 1144 :         Td3[(s0      ) & 0xff] ^
; 1145 :         rk[7];

	shr	ecx, 16					; 00000010H
	and	ecx, 255				; 000000ffH
	mov	ecx, DWORD PTR _Td1[ecx*4]
	shr	eax, 8
	and	eax, 255				; 000000ffH
	xor	ecx, DWORD PTR _Td2[eax*4]
	mov	eax, DWORD PTR _s3$[ebp]
	shr	ebx, 24					; 00000018H
	xor	edi, DWORD PTR _Td0[ebx*4]
	mov	ebx, DWORD PTR _s3$[ebp]
	shr	eax, 24					; 00000018H
	xor	ecx, DWORD PTR _Td0[eax*4]
	and	esi, 255				; 000000ffH
	xor	ecx, DWORD PTR _Td3[esi*4]
	and	ebx, 255				; 000000ffH
	xor	ecx, DWORD PTR [edx+28]
	xor	edi, DWORD PTR _Td3[ebx*4]

; 1146 :       rk += 8;

	add	edx, 32					; 00000020H
	xor	edi, DWORD PTR [edx-8]

; 1147 :       if (--r == 0)

	dec	DWORD PTR _r$[ebp]
	mov	eax, ecx
	mov	DWORD PTR _t3$[ebp], ecx
	mov	ecx, DWORD PTR _t0$[ebp]
	jne	$LL10@rijndaelDe
$LN8@rijndaelDe:

; 1173 :     }
; 1174 :   #endif /* ?FULL_UNROLL */
; 1175 :   /*
; 1176 :   * apply last round and
; 1177 :   * map cipher state to byte array block:
; 1178 :   */
; 1179 :   s0 =
; 1180 :     (Td4[(t0 >> 24)       ] & 0xff000000) ^
; 1181 :     (Td4[(t3 >> 16) & 0xff] & 0x00ff0000) ^
; 1182 :     (Td4[(t2 >>  8) & 0xff] & 0x0000ff00) ^
; 1183 :     (Td4[(t1      ) & 0xff] & 0x000000ff) ^
; 1184 :     rk[0];

	mov	esi, eax
	shr	esi, 16					; 00000010H
	and	esi, 255				; 000000ffH
	mov	esi, DWORD PTR _Td4[esi*4]
	and	esi, 16711680				; 00ff0000H
	mov	ebx, edi
	shr	ebx, 8
	and	ebx, 255				; 000000ffH
	mov	ebx, DWORD PTR _Td4[ebx*4]
	and	ebx, 65280				; 0000ff00H
	xor	esi, ebx
	mov	ebx, ecx
	shr	ebx, 24					; 00000018H
	mov	ebx, DWORD PTR _Td4[ebx*4]
	and	ebx, -16777216				; ff000000H
	xor	esi, ebx
	mov	ebx, DWORD PTR _t1$[ebp]
	and	ebx, 255				; 000000ffH
	movzx	ebx, BYTE PTR _Td4[ebx*4]
	xor	esi, ebx
	xor	esi, DWORD PTR [edx]
	mov	DWORD PTR _s0$[ebp], esi

; 1185 :   PUTU32(plaintext     , s0);

	mov	ebx, esi
	mov	esi, DWORD PTR _plaintext$[ebp]
	shr	ebx, 24					; 00000018H
	mov	BYTE PTR [esi], bl
	mov	ebx, DWORD PTR _s0$[ebp]
	shr	ebx, 16					; 00000010H
	mov	BYTE PTR [esi+1], bl
	mov	ebx, DWORD PTR _s0$[ebp]
	shr	ebx, 8
	mov	BYTE PTR [esi+2], bl
	movzx	ebx, BYTE PTR _s0$[ebp]
	mov	BYTE PTR [esi+3], bl

; 1186 :   s1 =
; 1187 :     (Td4[(t1 >> 24)       ] & 0xff000000) ^
; 1188 :     (Td4[(t0 >> 16) & 0xff] & 0x00ff0000) ^
; 1189 :     (Td4[(t3 >>  8) & 0xff] & 0x0000ff00) ^
; 1190 :     (Td4[(t2      ) & 0xff] & 0x000000ff) ^
; 1191 :     rk[1];

	mov	esi, ecx
	shr	esi, 16					; 00000010H
	and	esi, 255				; 000000ffH
	mov	esi, DWORD PTR _Td4[esi*4]
	and	esi, 16711680				; 00ff0000H
	mov	ebx, eax
	shr	ebx, 8
	and	ebx, 255				; 000000ffH
	mov	ebx, DWORD PTR _Td4[ebx*4]
	and	ebx, 65280				; 0000ff00H
	xor	esi, ebx
	mov	ebx, DWORD PTR _t1$[ebp]
	shr	ebx, 24					; 00000018H
	mov	ebx, DWORD PTR _Td4[ebx*4]
	and	ebx, -16777216				; ff000000H
	xor	esi, ebx
	mov	ebx, edi
	and	ebx, 255				; 000000ffH
	movzx	ebx, BYTE PTR _Td4[ebx*4]
	xor	esi, ebx
	xor	esi, DWORD PTR [edx+4]
	mov	DWORD PTR _s1$[ebp], esi

; 1192 :   PUTU32(plaintext +  4, s1);

	mov	ebx, esi
	mov	esi, DWORD PTR _plaintext$[ebp]
	shr	ebx, 24					; 00000018H
	mov	BYTE PTR [esi+4], bl
	mov	ebx, DWORD PTR _s1$[ebp]
	shr	ebx, 16					; 00000010H
	mov	BYTE PTR [esi+5], bl
	mov	ebx, DWORD PTR _s1$[ebp]
	shr	ebx, 8
	mov	BYTE PTR [esi+6], bl
	movzx	ebx, BYTE PTR _s1$[ebp]
	mov	BYTE PTR [esi+7], bl

; 1193 :   s2 =
; 1194 :     (Td4[(t2 >> 24)       ] & 0xff000000) ^
; 1195 :     (Td4[(t1 >> 16) & 0xff] & 0x00ff0000) ^
; 1196 :     (Td4[(t0 >>  8) & 0xff] & 0x0000ff00) ^
; 1197 :     (Td4[(t3      ) & 0xff] & 0x000000ff) ^
; 1198 :     rk[2];

	mov	esi, DWORD PTR _t1$[ebp]
	shr	esi, 16					; 00000010H
	mov	ebx, ecx
	shr	ebx, 8
	and	esi, 255				; 000000ffH
	mov	esi, DWORD PTR _Td4[esi*4]
	and	ebx, 255				; 000000ffH
	mov	ebx, DWORD PTR _Td4[ebx*4]
	and	ebx, 65280				; 0000ff00H
	and	esi, 16711680				; 00ff0000H
	xor	esi, ebx
	mov	ebx, edi
	shr	ebx, 24					; 00000018H
	mov	ebx, DWORD PTR _Td4[ebx*4]
	and	ebx, -16777216				; ff000000H
	xor	esi, ebx
	mov	ebx, eax
	and	ebx, 255				; 000000ffH
	movzx	ebx, BYTE PTR _Td4[ebx*4]
	xor	esi, ebx
	xor	esi, DWORD PTR [edx+8]

; 1199 :   PUTU32(plaintext +  8, s2);
; 1200 :   s3 =
; 1201 :     (Td4[(t3 >> 24)       ] & 0xff000000) ^
; 1202 :     (Td4[(t2 >> 16) & 0xff] & 0x00ff0000) ^
; 1203 :     (Td4[(t1 >>  8) & 0xff] & 0x0000ff00) ^
; 1204 :     (Td4[(t0      ) & 0xff] & 0x000000ff) ^
; 1205 :     rk[3];

	shr	edi, 16					; 00000010H
	mov	DWORD PTR _s2$[ebp], esi
	mov	ebx, esi
	mov	esi, DWORD PTR _plaintext$[ebp]
	shr	ebx, 24					; 00000018H
	mov	BYTE PTR [esi+8], bl
	mov	ebx, DWORD PTR _s2$[ebp]
	shr	ebx, 16					; 00000010H
	mov	BYTE PTR [esi+9], bl
	mov	ebx, DWORD PTR _s2$[ebp]
	shr	ebx, 8
	mov	BYTE PTR [esi+10], bl
	movzx	ebx, BYTE PTR _s2$[ebp]
	mov	BYTE PTR [esi+11], bl
	mov	esi, DWORD PTR _t1$[ebp]
	shr	esi, 8
	and	esi, 255				; 000000ffH
	mov	esi, DWORD PTR _Td4[esi*4]
	and	edi, 255				; 000000ffH
	mov	ebx, DWORD PTR _Td4[edi*4]
	and	ebx, 16711680				; 00ff0000H
	shr	eax, 24					; 00000018H
	mov	eax, DWORD PTR _Td4[eax*4]
	and	ecx, 255				; 000000ffH
	movzx	ecx, BYTE PTR _Td4[ecx*4]
	and	esi, 65280				; 0000ff00H
	xor	ebx, esi
	and	eax, -16777216				; ff000000H
	xor	ebx, eax

; 1206 :   PUTU32(plaintext + 12, s3);

	mov	eax, DWORD PTR _plaintext$[ebp]
	xor	ebx, ecx
	xor	ebx, DWORD PTR [edx+12]
	pop	edi
	mov	edx, ebx
	shr	edx, 24					; 00000018H
	mov	BYTE PTR [eax+12], dl
	mov	ecx, ebx
	mov	edx, ebx
	shr	ecx, 16					; 00000010H
	shr	edx, 8
	pop	esi
	mov	BYTE PTR [eax+15], bl
	mov	BYTE PTR [eax+13], cl
	mov	BYTE PTR [eax+14], dl
	pop	ebx

; 1207 : }

	mov	esp, ebp
	pop	ebp
	ret	0
?rijndaelDecrypt@@YAXPBKHQBEQAE@Z ENDP			; rijndaelDecrypt
_TEXT	ENDS
END
